# SymbolsHelper-Confirmed: 5.2.0 amd64
libOTBIOTileMap-5.2.so.1 libotbiotilemap-5.2-1 #MINVER#
 (optional=templinst)_ZN3itk11ImageRegionILj2EED0Ev@Base 5.2.0
 (optional=templinst)_ZN3itk11ImageRegionILj2EED1Ev@Base 5.2.0
 (optional=templinst)_ZN3itk11ImageRegionILj2EED2Ev@Base 5.2.0
 _ZN3itk18LightProcessObject11SetProgressEf@Base 5.2.0
 _ZN3itk18LightProcessObject12GenerateDataEv@Base 5.2.0
 _ZN3itk18LightProcessObject19AbortGenerateDataOnEv@Base 5.2.0
 _ZN3itk18LightProcessObject20AbortGenerateDataOffEv@Base 5.2.0
 _ZN3itk18LightProcessObject20SetAbortGenerateDataEb@Base 5.2.0
 (optional=templinst)_ZN3itk19ImageRegionSplitterILj2EE17GetNumberOfSplitsERKNS_11ImageRegionILj2EEEj@Base 5.2.0
 (optional=templinst)_ZN3itk19ImageRegionSplitterILj2EE8GetSplitEjjRKNS_11ImageRegionILj2EEE@Base 5.2.0
 (optional=templinst)_ZN3itk19ImageRegionSplitterILj2EED0Ev@Base 5.2.0
 (optional=templinst)_ZN3itk19ImageRegionSplitterILj2EED1Ev@Base 5.2.0
 (optional=templinst)_ZN3itk19ImageRegionSplitterILj2EED2Ev@Base 5.2.0
 (optional=templinst)_ZN3itk20CreateObjectFunctionIN3otb14TileMapImageIOEE12CreateObjectEv@Base 5.2.0
 (optional=templinst)_ZN3itk20CreateObjectFunctionIN3otb14TileMapImageIOEED0Ev@Base 5.2.0
 (optional=templinst)_ZN3itk20CreateObjectFunctionIN3otb14TileMapImageIOEED1Ev@Base 5.2.0
 (optional=templinst)_ZN3itk20CreateObjectFunctionIN3otb14TileMapImageIOEED2Ev@Base 5.2.0
 _ZN3itk6Object13SetObjectNameENSt7__cxx1112basic_stringIcSt11char_traitsIcESaIcEEE@Base 5.2.0
 _ZN3itk6Object13SetObjectNameESs@Base 5.2.0
 _ZN3otb11ImageIOBase11SetFileNameEPKc@Base 5.2.0
 _ZN3otb11ImageIOBase11SetFileNameERKNSt7__cxx1112basic_stringIcSt11char_traitsIcESaIcEEE@Base 5.2.0
 _ZN3otb11ImageIOBase11SetFileNameERKSs@Base 5.2.0
 _ZN3otb11ImageIOBase11SetFileTypeENS0_8FileTypeE@Base 5.2.0
 _ZN3otb11ImageIOBase11SetIORegionEN3itk13ImageIORegionE@Base 5.2.0
 _ZN3otb11ImageIOBase12SetByteOrderENS0_9ByteOrderE@Base 5.2.0
 _ZN3otb11ImageIOBase12SetPixelTypeENS0_11IOPixelTypeE@Base 5.2.0
 _ZN3otb11ImageIOBase16SetComponentTypeENS0_15IOComponentTypeE@Base 5.2.0
 _ZN3otb11ImageIOBase16UseCompressionOnEv@Base 5.2.0
 _ZN3otb11ImageIOBase17SetUseCompressionEb@Base 5.2.0
 _ZN3otb11ImageIOBase17SupportsDimensionEm@Base 5.2.0
 _ZN3otb11ImageIOBase17UseCompressionOffEv@Base 5.2.0
 _ZN3otb11ImageIOBase20UseStreamedReadingOnEv@Base 5.2.0
 _ZN3otb11ImageIOBase20UseStreamedWritingOnEv@Base 5.2.0
 _ZN3otb11ImageIOBase21SetNumberOfComponentsEj@Base 5.2.0
 _ZN3otb11ImageIOBase21SetUseStreamedReadingEb@Base 5.2.0
 _ZN3otb11ImageIOBase21SetUseStreamedWritingEb@Base 5.2.0
 _ZN3otb11ImageIOBase21UseStreamedReadingOffEv@Base 5.2.0
 _ZN3otb11ImageIOBase21UseStreamedWritingOffEv@Base 5.2.0
 _ZN3otb14TileMapImageIO11CanReadFileEPKc@Base 5.2.0
 _ZN3otb14TileMapImageIO11GenerateURLEdd@Base 5.2.0
 _ZN3otb14TileMapImageIO12CanWriteFileEPKc@Base 5.2.0
 _ZN3otb14TileMapImageIO13CanStreamReadEv@Base 5.2.0
 _ZN3otb14TileMapImageIO13GetMaxConnectEv@Base 5.2.0
 _ZN3otb14TileMapImageIO13InternalWriteEddPKv@Base 5.2.0
 _ZN3otb14TileMapImageIO13SetFileSuffixEPKc@Base 5.2.0
 _ZN3otb14TileMapImageIO13SetFileSuffixERKNSt7__cxx1112basic_stringIcSt11char_traitsIcESaIcEEE@Base 5.2.0
 _ZN3otb14TileMapImageIO13SetFileSuffixERKSs@Base 5.2.0
 _ZN3otb14TileMapImageIO13SetMaxConnectEi@Base 5.2.0
 _ZN3otb14TileMapImageIO14CanStreamWriteEv@Base 5.2.0
 _ZN3otb14TileMapImageIO14GenerateBufferEPh@Base 5.2.0
 _ZN3otb14TileMapImageIO16CanReadFromCacheERKNSt7__cxx1112basic_stringIcSt11char_traitsIcESaIcEEE@Base 5.2.0
 _ZN3otb14TileMapImageIO16CanReadFromCacheERKSs@Base 5.2.0
 _ZN3otb14TileMapImageIO16GenerateTileInfoEddii@Base 5.2.0
 _ZN3otb14TileMapImageIO16GetOverviewsInfoB5cxx11Ev@Base 5.2.0
 _ZN3otb14TileMapImageIO16GetOverviewsInfoEv@Base 5.2.0
 _ZN3otb14TileMapImageIO17GetOverviewsCountEv@Base 5.2.0
 _ZN3otb14TileMapImageIO17SetCacheDirectoryEPKc@Base 5.2.0
 _ZN3otb14TileMapImageIO17SetCacheDirectoryERKNSt7__cxx1112basic_stringIcSt11char_traitsIcESaIcEEE@Base 5.2.0
 _ZN3otb14TileMapImageIO17SetCacheDirectoryERKSs@Base 5.2.0
 _ZN3otb14TileMapImageIO19GetCompressionLevelEv@Base 5.2.0
 _ZN3otb14TileMapImageIO19SetCompressionLevelEi@Base 5.2.0
 _ZN3otb14TileMapImageIO20ReadImageInformationEv@Base 5.2.0
 _ZN3otb14TileMapImageIO21WriteImageInformationEv@Base 5.2.0
 _ZN3otb14TileMapImageIO23SetOutputImagePixelTypeEbb@Base 5.2.0
 _ZN3otb14TileMapImageIO4ReadEPv@Base 5.2.0
 _ZN3otb14TileMapImageIO5WriteEPKv@Base 5.2.0
 _ZN3otb14TileMapImageIO8GetDepthEv@Base 5.2.0
 _ZN3otb14TileMapImageIO8ReadTileERKNSt7__cxx1112basic_stringIcSt11char_traitsIcESaIcEEEPv@Base 5.2.0
 _ZN3otb14TileMapImageIO8ReadTileERKSsPv@Base 5.2.0
 _ZN3otb14TileMapImageIO8SetDepthEi@Base 5.2.0
 _ZN3otb14TileMapImageIOC1Ev@Base 5.2.0
 _ZN3otb14TileMapImageIOC2Ev@Base 5.2.0
 _ZN3otb14TileMapImageIOD0Ev@Base 5.2.0
 _ZN3otb14TileMapImageIOD1Ev@Base 5.2.0
 _ZN3otb14TileMapImageIOD2Ev@Base 5.2.0
 _ZN3otb21TileMapImageIOFactoryC1Ev@Base 5.2.0
 _ZN3otb21TileMapImageIOFactoryC2Ev@Base 5.2.0
 _ZN3otb21TileMapImageIOFactoryD0Ev@Base 5.2.0
 _ZN3otb21TileMapImageIOFactoryD1Ev@Base 5.2.0
 _ZN3otb21TileMapImageIOFactoryD2Ev@Base 5.2.0
 (optional=templinst)_ZN3otb26ImageRegionTileMapSplitterILj2EE17GetNumberOfSplitsERKN3itk11ImageRegionILj2EEEj@Base 5.2.0
 (optional=templinst)_ZN3otb26ImageRegionTileMapSplitterILj2EE8GetSplitEjjRKN3itk11ImageRegionILj2EEE@Base 5.2.0
 (optional=templinst)_ZN3otb26ImageRegionTileMapSplitterILj2EED0Ev@Base 5.2.0
 (optional=templinst)_ZN3otb26ImageRegionTileMapSplitterILj2EED1Ev@Base 5.2.0
 (optional=templinst)_ZN3otb26ImageRegionTileMapSplitterILj2EED2Ev@Base 5.2.0
 _ZN3otb38TileMapImageIOFactoryRegister__PrivateEv@Base 5.2.0
 (optional=templinst)_ZNK3itk11ImageRegionILj2EE13GetRegionTypeEv@Base 5.2.0
 (optional=templinst)_ZNK3itk11ImageRegionILj2EE14GetNameOfClassEv@Base 5.2.0
 (optional=templinst)_ZNK3itk11ImageRegionILj2EE9PrintSelfERSoNS_6IndentE@Base 5.2.0
 _ZNK3itk11LightObject17GetReferenceCountEv@Base 5.2.0
 _ZNK3itk18LightProcessObject11GetProgressEv@Base 5.2.0
 _ZNK3itk18LightProcessObject20GetAbortGenerateDataEv@Base 5.2.0
 (optional=templinst)_ZNK3itk19ImageRegionSplitterILj2EE13CreateAnotherEv@Base 5.2.0
 (optional=templinst)_ZNK3itk19ImageRegionSplitterILj2EE14GetNameOfClassEv@Base 5.2.0
 (optional=templinst)_ZNK3itk19ImageRegionSplitterILj2EE16GetSplitInternalEjjjPlPm@Base 5.2.0
 (optional=templinst)_ZNK3itk19ImageRegionSplitterILj2EE25GetNumberOfSplitsInternalEjPKlPKmj@Base 5.2.0
 (optional=templinst)_ZNK3itk19ImageRegionSplitterILj2EE9PrintSelfERSoNS_6IndentE@Base 5.2.0
 (optional=templinst)_ZNK3itk20CreateObjectFunctionIN3otb14TileMapImageIOEE13CreateAnotherEv@Base 5.2.0
 _ZNK3itk6Object13GetObjectNameB5cxx11Ev@Base 5.2.0
 _ZNK3itk6Object13GetObjectNameEv@Base 5.2.0
 _ZNK3itk6Object14GetNameOfClassEv@Base 5.2.0
 _ZNK3otb11ImageIOBase10GetSpacingEj@Base 5.2.0
 _ZNK3otb11ImageIOBase11GetFileNameEv@Base 5.2.0
 _ZNK3otb11ImageIOBase11GetFileTypeEv@Base 5.2.0
 _ZNK3otb11ImageIOBase11GetIORegionEv@Base 5.2.0
 _ZNK3otb11ImageIOBase12GetByteOrderEv@Base 5.2.0
 _ZNK3otb11ImageIOBase12GetDirectionEj@Base 5.2.0
 _ZNK3otb11ImageIOBase12GetPixelTypeEv@Base 5.2.0
 _ZNK3otb11ImageIOBase13GetDimensionsEj@Base 5.2.0
 _ZNK3otb11ImageIOBase16GetComponentTypeEv@Base 5.2.0
 _ZNK3otb11ImageIOBase17GetUseCompressionEv@Base 5.2.0
 _ZNK3otb11ImageIOBase21GetNumberOfComponentsEv@Base 5.2.0
 _ZNK3otb11ImageIOBase21GetNumberOfDimensionsEv@Base 5.2.0
 _ZNK3otb11ImageIOBase21GetUseStreamedReadingEv@Base 5.2.0
 _ZNK3otb11ImageIOBase21GetUseStreamedWritingEv@Base 5.2.0
 _ZNK3otb11ImageIOBase9GetOriginEj@Base 5.2.0
 _ZNK3otb14TileMapImageIO12XYToQuadTreeEddRNSt7__cxx1119basic_ostringstreamIcSt11char_traitsIcESaIcEEE@Base 5.2.0
 _ZNK3otb14TileMapImageIO12XYToQuadTreeEddRSt19basic_ostringstreamIcSt11char_traitsIcESaIcEE@Base 5.2.0
 _ZNK3otb14TileMapImageIO13BuildFileNameERKNSt7__cxx1119basic_ostringstreamIcSt11char_traitsIcESaIcEEERS6_b@Base 5.2.0
 _ZNK3otb14TileMapImageIO13BuildFileNameERKSt19basic_ostringstreamIcSt11char_traitsIcESaIcEERS5_b@Base 5.2.0
 _ZNK3otb14TileMapImageIO13CreateAnotherEv@Base 5.2.0
 _ZNK3otb14TileMapImageIO13GetFileSuffixEv@Base 5.2.0
 _ZNK3otb14TileMapImageIO13XYToQuadTree2EddRNSt7__cxx1119basic_ostringstreamIcSt11char_traitsIcESaIcEEE@Base 5.2.0
 _ZNK3otb14TileMapImageIO13XYToQuadTree2EddRSt19basic_ostringstreamIcSt11char_traitsIcESaIcEE@Base 5.2.0
 _ZNK3otb14TileMapImageIO14GetNameOfClassEv@Base 5.2.0
 _ZNK3otb14TileMapImageIO15FillCacheFaultsEPv@Base 5.2.0
 _ZNK3otb14TileMapImageIO17GetCacheDirectoryEv@Base 5.2.0
 _ZNK3otb14TileMapImageIO38GetSplitRegionForWritingCanStreamWriteEjjRKN3itk13ImageIORegionE@Base 5.2.0
 _ZNK3otb14TileMapImageIO47GetActualNumberOfSplitsForWritingCanStreamWriteEjRKN3itk13ImageIORegionE@Base 5.2.0
 _ZNK3otb14TileMapImageIO9PrintSelfERSoN3itk6IndentE@Base 5.2.0
 _ZNK3otb19CurlHelperInterface14GetNameOfClassEv@Base 5.2.0
 _ZNK3otb20TileMapImageIOHelper19ConvertDepthToScaleB5cxx11Ej@Base 5.2.0
 _ZNK3otb20TileMapImageIOHelper19ConvertDepthToScaleEj@Base 5.2.0
 _ZNK3otb21TileMapImageIOFactory13CreateAnotherEv@Base 5.2.0
 _ZNK3otb21TileMapImageIOFactory14GetDescriptionEv@Base 5.2.0
 _ZNK3otb21TileMapImageIOFactory14GetNameOfClassEv@Base 5.2.0
 _ZNK3otb21TileMapImageIOFactory19GetITKSourceVersionEv@Base 5.2.0
 (optional=templinst)_ZNK3otb26ImageRegionTileMapSplitterILj2EE13CreateAnotherEv@Base 5.2.0
 (optional=templinst)_ZNK3otb26ImageRegionTileMapSplitterILj2EE14GetNameOfClassEv@Base 5.2.0
 (optional=templinst)_ZNK3otb26ImageRegionTileMapSplitterILj2EE9PrintSelfERSoN3itk6IndentE@Base 5.2.0
 (optional=templinst)_ZNKSt5ctypeIcE8do_widenEc@Base 5.2.0
 (optional=templinst)_ZNSt12_Destroy_auxILb0EE9__destroyIPN3otb14TileMapImageIO20TileNameAndCoordTypeEEEvT_S6_@Base 5.2.0
 (optional=templinst)_ZNSt12_Destroy_auxILb0EE9__destroyIPSsEEvT_S3_@Base 5.2.0
 (optional=templinst)_ZNSt15basic_stringbufIcSt11char_traitsIcESaIcEED0Ev@Base 5.2.0
 (optional=templinst)_ZNSt15basic_stringbufIcSt11char_traitsIcESaIcEED1Ev@Base 5.2.0
 (optional=templinst)_ZNSt15basic_stringbufIcSt11char_traitsIcESaIcEED2Ev@Base 5.2.0
 (optional=templinst)_ZNSt6vectorIN3otb14TileMapImageIO20TileNameAndCoordTypeESaIS2_EE13_M_insert_auxEN9__gnu_cxx17__normal_iteratorIPS2_S4_EERKS2_@Base 5.2.0
 (optional=templinst)_ZNSt6vectorIN3otb14TileMapImageIO20TileNameAndCoordTypeESaIS2_EED1Ev@Base 5.2.0
 (optional=templinst)_ZNSt6vectorIN3otb14TileMapImageIO20TileNameAndCoordTypeESaIS2_EED2Ev@Base 5.2.0
 (optional=templinst)_ZNSt6vectorINSt7__cxx1112basic_stringIcSt11char_traitsIcESaIcEEESaIS5_EE13_M_insert_auxEN9__gnu_cxx17__normal_iteratorIPS5_S7_EERKS5_@Base 5.2.0
 (optional=templinst)_ZNSt6vectorINSt7__cxx1112basic_stringIcSt11char_traitsIcESaIcEEESaIS5_EED1Ev@Base 5.2.0
 (optional=templinst)_ZNSt6vectorINSt7__cxx1112basic_stringIcSt11char_traitsIcESaIcEEESaIS5_EED2Ev@Base 5.2.0
 (optional=templinst)_ZNSt6vectorISsSaISsEE13_M_insert_auxEN9__gnu_cxx17__normal_iteratorIPSsS1_EERKSs@Base 5.2.0
 (optional=templinst)_ZNSt6vectorISsSaISsEED1Ev@Base 5.2.0
 (optional=templinst)_ZNSt6vectorISsSaISsEED2Ev@Base 5.2.0
 (optional=templinst)_ZNSt7__cxx1115basic_stringbufIcSt11char_traitsIcESaIcEED0Ev@Base 5.2.0
 (optional=templinst)_ZNSt7__cxx1115basic_stringbufIcSt11char_traitsIcESaIcEED1Ev@Base 5.2.0
 (optional=templinst)_ZNSt7__cxx1115basic_stringbufIcSt11char_traitsIcESaIcEED2Ev@Base 5.2.0
 _ZTIN3itk11ImageRegionILj2EEE@Base 5.2.0
 _ZTIN3itk14MetaDataObjectIN3otb16ImageKeywordlistEEE@Base 5.2.0
 _ZTIN3itk19ImageRegionSplitterILj2EEE@Base 5.2.0
 _ZTIN3itk20CreateObjectFunctionIN3otb14TileMapImageIOEEE@Base 5.2.0
 _ZTIN3itk24CreateObjectFunctionBaseE@Base 5.2.0
 _ZTIN3otb14TileMapImageIOE@Base 5.2.0
 _ZTIN3otb19CurlHelperInterfaceE@Base 5.2.0
 _ZTIN3otb21TileMapImageIOFactoryE@Base 5.2.0
 _ZTIN3otb26ImageRegionTileMapSplitterILj2EEE@Base 5.2.0
 _ZTSN3itk11ImageRegionILj2EEE@Base 5.2.0
 _ZTSN3itk14MetaDataObjectIN3otb16ImageKeywordlistEEE@Base 5.2.0
 _ZTSN3itk19ImageRegionSplitterILj2EEE@Base 5.2.0
 _ZTSN3itk20CreateObjectFunctionIN3otb14TileMapImageIOEEE@Base 5.2.0
 _ZTSN3itk24CreateObjectFunctionBaseE@Base 5.2.0
 _ZTSN3otb14TileMapImageIOE@Base 5.2.0
 _ZTSN3otb19CurlHelperInterfaceE@Base 5.2.0
 _ZTSN3otb21TileMapImageIOFactoryE@Base 5.2.0
 _ZTSN3otb26ImageRegionTileMapSplitterILj2EEE@Base 5.2.0
 _ZTVN3itk11ImageRegionILj2EEE@Base 5.2.0
 _ZTVN3itk19ImageRegionSplitterILj2EEE@Base 5.2.0
 _ZTVN3itk20CreateObjectFunctionIN3otb14TileMapImageIOEEE@Base 5.2.0
 _ZTVN3itk24CreateObjectFunctionBaseE@Base 5.2.0
 _ZTVN3otb14TileMapImageIOE@Base 5.2.0
 _ZTVN3otb19CurlHelperInterfaceE@Base 5.2.0
 _ZTVN3otb21TileMapImageIOFactoryE@Base 5.2.0
 _ZTVN3otb26ImageRegionTileMapSplitterILj2EEE@Base 5.2.0
