# SymbolsHelper-Confirmed: 5.0.0 amd64 i386
libOTBImageManipulation-5.0.so.1 libotbimagemanipulation-5.0-1 #MINVER#
 (optional=templinst)_ZN3itk11ImageRegionILj2EED0Ev@Base 5.0.0
 (optional=templinst)_ZN3itk11ImageRegionILj2EED1Ev@Base 5.0.0
 (optional=templinst)_ZN3itk11ImageRegionILj2EED2Ev@Base 5.0.0
 (optional=templinst)_ZN3itk19ImageRegionSplitterILj2EE17GetNumberOfSplitsERKNS_11ImageRegionILj2EEEj@Base 5.0.0
 (optional=templinst)_ZN3itk19ImageRegionSplitterILj2EE8GetSplitEjjRKNS_11ImageRegionILj2EEE@Base 5.0.0
 (optional=templinst)_ZN3itk19ImageRegionSplitterILj2EED0Ev@Base 5.0.0
 (optional=templinst)_ZN3itk19ImageRegionSplitterILj2EED1Ev@Base 5.0.0
 (optional=templinst)_ZN3itk19ImageRegionSplitterILj2EED2Ev@Base 5.0.0
 (arch=i386)_ZN3itk6Object13SetObjectNameENSt7__cxx1112basic_stringIcSt11char_traitsIcESaIcEEE@Base 5.0.0
 _ZN3itk6Object13SetObjectNameESs@Base 5.0.0
 _ZN3otb34StreamingShrinkImageRegionSplitter15GetShrinkFactorEv@Base 5.0.0
 _ZN3otb34StreamingShrinkImageRegionSplitter15SetShrinkFactorEj@Base 5.0.0
 _ZN3otb34StreamingShrinkImageRegionSplitter16GetTileDimensionEv@Base 5.0.0
 _ZN3otb34StreamingShrinkImageRegionSplitter17GetNumberOfSplitsERKN3itk11ImageRegionILj2EEEj@Base 5.0.0
 _ZN3otb34StreamingShrinkImageRegionSplitter20GetTileSizeAlignmentEv@Base 5.0.0
 _ZN3otb34StreamingShrinkImageRegionSplitter20SetTileSizeAlignmentEj@Base 5.0.0
 _ZN3otb34StreamingShrinkImageRegionSplitter8GetSplitEjjRKN3itk11ImageRegionILj2EEE@Base 5.0.0
 _ZN3otb34StreamingShrinkImageRegionSplitterD0Ev@Base 5.0.0
 _ZN3otb34StreamingShrinkImageRegionSplitterD1Ev@Base 5.0.0
 _ZN3otb34StreamingShrinkImageRegionSplitterD2Ev@Base 5.0.0
 (optional=templinst)_ZNK3itk11ImageRegionILj2EE13GetRegionTypeEv@Base 5.0.0
 (optional=templinst)_ZNK3itk11ImageRegionILj2EE14GetNameOfClassEv@Base 5.0.0
 (optional=templinst)_ZNK3itk11ImageRegionILj2EE9PrintSelfERSoNS_6IndentE@Base 5.0.0
 _ZNK3itk11LightObject17GetReferenceCountEv@Base 5.0.0
 (optional=templinst)_ZNK3itk19ImageRegionSplitterILj2EE13CreateAnotherEv@Base 5.0.0
 (optional=templinst)_ZNK3itk19ImageRegionSplitterILj2EE14GetNameOfClassEv@Base 5.0.0
 (optional=templinst)_ZNK3itk19ImageRegionSplitterILj2EE16GetSplitInternalEjjjPlPm@Base 5.0.0
 (optional=templinst)_ZNK3itk19ImageRegionSplitterILj2EE25GetNumberOfSplitsInternalEjPKlPKmj@Base 5.0.0
 (optional=templinst)_ZNK3itk19ImageRegionSplitterILj2EE9PrintSelfERSoNS_6IndentE@Base 5.0.0
 (arch=i386)_ZNK3itk6Object13GetObjectNameB5cxx11Ev@Base 5.0.0
 _ZNK3itk6Object13GetObjectNameEv@Base 5.0.0
 _ZNK3otb34StreamingShrinkImageRegionSplitter13CreateAnotherEv@Base 5.0.0
 _ZNK3otb34StreamingShrinkImageRegionSplitter14GetNameOfClassEv@Base 5.0.0
 _ZNK3otb34StreamingShrinkImageRegionSplitter9PrintSelfERSoN3itk6IndentE@Base 5.0.0
 (optional=templinst)_ZNKSt5ctypeIcE8do_widenEc@Base 5.0.0
 _ZTIN3itk11ImageRegionILj2EEE@Base 5.0.0
 _ZTIN3itk19ImageRegionSplitterILj2EEE@Base 5.0.0
 _ZTIN3otb34StreamingShrinkImageRegionSplitterE@Base 5.0.0
 _ZTSN3itk11ImageRegionILj2EEE@Base 5.0.0
 _ZTSN3itk19ImageRegionSplitterILj2EEE@Base 5.0.0
 _ZTSN3otb34StreamingShrinkImageRegionSplitterE@Base 5.0.0
 _ZTVN3itk11ImageRegionILj2EEE@Base 5.0.0
 _ZTVN3itk19ImageRegionSplitterILj2EEE@Base 5.0.0
 _ZTVN3otb34StreamingShrinkImageRegionSplitterE@Base 5.0.0
