# SymbolsHelper-Confirmed: 5.2.0 amd64
libOTBRCC8-5.2.so.1 libotbrcc8-5.2-1 #MINVER#
 _ZN3itk10DataObject15CopyInformationEPKS0_@Base 5.2.0
 _ZN3itk10DataObject16SetRealTimeStampENS_13RealTimeStampE@Base 5.2.0
 _ZN3itk10DataObject17PrepareForNewDataEv@Base 5.2.0
 _ZN3itk10DataObject17ReleaseDataFlagOnEv@Base 5.2.0
 _ZN3itk10DataObject18ReleaseDataFlagOffEv@Base 5.2.0
 _ZN3itk10DataObject18SetRequestedRegionEPKS0_@Base 5.2.0
 _ZN3itk10DataObject21VerifyRequestedRegionEv@Base 5.2.0
 _ZN3itk10DataObject41SetRequestedRegionToLargestPossibleRegionEv@Base 5.2.0
 _ZN3itk10DataObject43RequestedRegionIsOutsideOfTheBufferedRegionEv@Base 5.2.0
 _ZN3itk10DataObject5GraftEPKS0_@Base 5.2.0
 _ZN3itk6Object13SetObjectNameESs@Base 5.2.0
 _ZN3otb8RCC8Edge8GetValueEv@Base 5.2.0
 _ZN3otb8RCC8Edge8SetValueENS_9RCC8ValueE@Base 5.2.0
 _ZN3otb8RCC8EdgeC1Ev@Base 5.2.0
 _ZN3otb8RCC8EdgeC2Ev@Base 5.2.0
 _ZN3otb8RCC8EdgeD0Ev@Base 5.2.0
 _ZN3otb8RCC8EdgeD1Ev@Base 5.2.0
 _ZN3otb8RCC8EdgeD2Ev@Base 5.2.0
 _ZNK3itk10DataObject16GetPipelineMTimeEv@Base 5.2.0
 _ZNK3itk10DataObject16GetRealTimeStampEv@Base 5.2.0
 _ZNK3itk10DataObject18GetReleaseDataFlagEv@Base 5.2.0
 _ZNK3itk11LightObject17GetReferenceCountEv@Base 5.2.0
 _ZNK3itk6Object13GetObjectNameEv@Base 5.2.0
 _ZNK3otb8RCC8Edge13CreateAnotherEv@Base 5.2.0
 _ZNK3otb8RCC8Edge14GetNameOfClassEv@Base 5.2.0
 _ZNK3otb8RCC8Edge9PrintSelfERSoN3itk6IndentE@Base 5.2.0
 (optional=templinst)_ZNKSt5ctypeIcE8do_widenEc@Base 5.2.0
 _ZTIN3otb8RCC8EdgeE@Base 5.2.0
 _ZTSN3otb8RCC8EdgeE@Base 5.2.0
 _ZTVN3otb8RCC8EdgeE@Base 5.2.0
