# SymbolsHelper-Confirmed: 5.0.0 amd64 i386
libOTBCommon-5.0.so.1 libotbcommon-5.0-1 #MINVER#
 _Z12ReadDataFilePKcPN3itk10Statistics10ListSampleINS1_20VariableLengthVectorIfEEEEPNS3_INS1_10FixedArrayIsLj1EEEEE@Base 5.0.0
 _ZN3itk10StartEventD0Ev@Base 5.0.0
 _ZN3itk10StartEventD1Ev@Base 5.0.0
 _ZN3itk10StartEventD2Ev@Base 5.0.0
 (optional=templinst)_ZN3itk10Statistics10ListSampleINS_10FixedArrayIsLj1EEEE8PushBackERKS3_@Base 5.0.0
 (optional=templinst)_ZN3itk10Statistics10ListSampleINS_20VariableLengthVectorIfEEE8PushBackERKS3_@Base 5.0.0
 (optional=templinst)_ZN3itk10Statistics6SampleINS_20VariableLengthVectorIfEEE24SetMeasurementVectorSizeEj@Base 5.0.0
 _ZN3itk13ProgressEventD0Ev@Base 5.0.0
 _ZN3itk13ProgressEventD1Ev@Base 5.0.0
 _ZN3itk13ProgressEventD2Ev@Base 5.0.0
 (optional=templinst)_ZN3itk19SimpleMemberCommandIN3otb17FilterWatcherBaseEE7ExecuteEPKNS_6ObjectERKNS_11EventObjectE@Base 5.0.0
 (optional=templinst)_ZN3itk19SimpleMemberCommandIN3otb17FilterWatcherBaseEE7ExecuteEPNS_6ObjectERKNS_11EventObjectE@Base 5.0.0
 (optional=templinst)_ZN3itk19SimpleMemberCommandIN3otb17FilterWatcherBaseEED0Ev@Base 5.0.0
 (optional=templinst)_ZN3itk19SimpleMemberCommandIN3otb17FilterWatcherBaseEED1Ev@Base 5.0.0
 (optional=templinst)_ZN3itk19SimpleMemberCommandIN3otb17FilterWatcherBaseEED2Ev@Base 5.0.0
 (optional=templinst)_ZN3itk19SimpleMemberCommandIN3otb17WriterWatcherBaseEE7ExecuteEPKNS_6ObjectERKNS_11EventObjectE@Base 5.0.0
 (optional=templinst)_ZN3itk19SimpleMemberCommandIN3otb17WriterWatcherBaseEE7ExecuteEPNS_6ObjectERKNS_11EventObjectE@Base 5.0.0
 (optional=templinst)_ZN3itk19SimpleMemberCommandIN3otb17WriterWatcherBaseEED0Ev@Base 5.0.0
 (optional=templinst)_ZN3itk19SimpleMemberCommandIN3otb17WriterWatcherBaseEED1Ev@Base 5.0.0
 (optional=templinst)_ZN3itk19SimpleMemberCommandIN3otb17WriterWatcherBaseEED2Ev@Base 5.0.0
 (optional=templinst)_ZN3itk20VariableLengthVectorIfEaSERKS1_@Base 5.0.0
 (arch=i386)_ZN3itk6Object13SetObjectNameENSt7__cxx1112basic_stringIcSt11char_traitsIcESaIcEEE@Base 5.0.0
 _ZN3itk6Object13SetObjectNameESs@Base 5.0.0
 _ZN3itk8AnyEventD0Ev@Base 5.0.0
 _ZN3itk8AnyEventD1Ev@Base 5.0.0
 _ZN3itk8AnyEventD2Ev@Base 5.0.0
 _ZN3itk8EndEventD0Ev@Base 5.0.0
 _ZN3itk8EndEventD1Ev@Base 5.0.0
 _ZN3itk8EndEventD2Ev@Base 5.0.0
 _ZN3otb17FilterWatcherBase17EndFilterCallbackEv@Base 5.0.0
 _ZN3otb17FilterWatcherBase19StartFilterCallbackEv@Base 5.0.0
 _ZN3otb17FilterWatcherBase20ShowProgressCallbackEv@Base 5.0.0
 _ZN3otb17FilterWatcherBaseC1EPN3itk13ProcessObjectEPKc@Base 5.0.0
 _ZN3otb17FilterWatcherBaseC1ERKS0_@Base 5.0.0
 _ZN3otb17FilterWatcherBaseC1Ev@Base 5.0.0
 _ZN3otb17FilterWatcherBaseC2EPN3itk13ProcessObjectEPKc@Base 5.0.0
 _ZN3otb17FilterWatcherBaseC2ERKS0_@Base 5.0.0
 _ZN3otb17FilterWatcherBaseC2Ev@Base 5.0.0
 _ZN3otb17FilterWatcherBaseD0Ev@Base 5.0.0
 _ZN3otb17FilterWatcherBaseD1Ev@Base 5.0.0
 _ZN3otb17FilterWatcherBaseD2Ev@Base 5.0.0
 _ZN3otb17FilterWatcherBaseaSERKS0_@Base 5.0.0
 _ZN3otb17WriterWatcherBaseC1EPN3itk13ProcessObjectEPKc@Base 5.0.0
 _ZN3otb17WriterWatcherBaseC1EPN3itk13ProcessObjectES3_PKc@Base 5.0.0
 _ZN3otb17WriterWatcherBaseC1ERKS0_@Base 5.0.0
 _ZN3otb17WriterWatcherBaseC1Ev@Base 5.0.0
 _ZN3otb17WriterWatcherBaseC2EPN3itk13ProcessObjectEPKc@Base 5.0.0
 _ZN3otb17WriterWatcherBaseC2EPN3itk13ProcessObjectES3_PKc@Base 5.0.0
 _ZN3otb17WriterWatcherBaseC2ERKS0_@Base 5.0.0
 _ZN3otb17WriterWatcherBaseC2Ev@Base 5.0.0
 _ZN3otb17WriterWatcherBaseD0Ev@Base 5.0.0
 _ZN3otb17WriterWatcherBaseD1Ev@Base 5.0.0
 _ZN3otb17WriterWatcherBaseD2Ev@Base 5.0.0
 _ZN3otb17WriterWatcherBaseaSERKS0_@Base 5.0.0
 (arch=i386)_ZN3otb20ConfigurationManager12GetGeoidFileB5cxx11Ev@Base 5.0.0
 _ZN3otb20ConfigurationManager12GetGeoidFileEv@Base 5.0.0
 _ZN3otb20ConfigurationManager13GetMaxRAMHintEv@Base 5.0.0
 (arch=i386)_ZN3otb20ConfigurationManager15GetDEMDirectoryB5cxx11Ev@Base 5.0.0
 _ZN3otb20ConfigurationManager15GetDEMDirectoryEv@Base 5.0.0
 _ZN3otb21StandardFilterWatcher11StartFilterEv@Base 5.0.0
 _ZN3otb21StandardFilterWatcher12ShowProgressEv@Base 5.0.0
 _ZN3otb21StandardFilterWatcher9EndFilterEv@Base 5.0.0
 _ZN3otb21StandardFilterWatcherC1EPN3itk13ProcessObjectEPKc@Base 5.0.0
 (arch=i386)_ZN3otb21StandardFilterWatcherC1EPN3itk13ProcessObjectERKNSt7__cxx1112basic_stringIcSt11char_traitsIcESaIcEEE@Base 5.0.0
 _ZN3otb21StandardFilterWatcherC1EPN3itk13ProcessObjectERKSs@Base 5.0.0
 _ZN3otb21StandardFilterWatcherC1ERKS0_@Base 5.0.0
 _ZN3otb21StandardFilterWatcherC2EPN3itk13ProcessObjectEPKc@Base 5.0.0
 (arch=i386)_ZN3otb21StandardFilterWatcherC2EPN3itk13ProcessObjectERKNSt7__cxx1112basic_stringIcSt11char_traitsIcESaIcEEE@Base 5.0.0
 _ZN3otb21StandardFilterWatcherC2EPN3itk13ProcessObjectERKSs@Base 5.0.0
 _ZN3otb21StandardFilterWatcherC2ERKS0_@Base 5.0.0
 _ZN3otb21StandardFilterWatcherD0Ev@Base 5.0.0
 _ZN3otb21StandardFilterWatcherD1Ev@Base 5.0.0
 _ZN3otb21StandardFilterWatcherD2Ev@Base 5.0.0
 _ZN3otb21StandardFilterWatcheraSERKS0_@Base 5.0.0
 _ZN3otb21StandardWriterWatcher11StartFilterEv@Base 5.0.0
 _ZN3otb21StandardWriterWatcher11StartWriterEv@Base 5.0.0
 _ZN3otb21StandardWriterWatcher12ShowProgressEv@Base 5.0.0
 _ZN3otb21StandardWriterWatcher18ShowFilterProgressEv@Base 5.0.0
 _ZN3otb21StandardWriterWatcher18ShowWriterProgressEv@Base 5.0.0
 _ZN3otb21StandardWriterWatcher9EndFilterEv@Base 5.0.0
 _ZN3otb21StandardWriterWatcher9EndWriterEv@Base 5.0.0
 _ZN3otb21StandardWriterWatcherC1EPN3itk13ProcessObjectEPKc@Base 5.0.0
 (arch=i386)_ZN3otb21StandardWriterWatcherC1EPN3itk13ProcessObjectERKNSt7__cxx1112basic_stringIcSt11char_traitsIcESaIcEEE@Base 5.0.0
 _ZN3otb21StandardWriterWatcherC1EPN3itk13ProcessObjectERKSs@Base 5.0.0
 _ZN3otb21StandardWriterWatcherC1EPN3itk13ProcessObjectES3_PKc@Base 5.0.0
 (arch=i386)_ZN3otb21StandardWriterWatcherC1EPN3itk13ProcessObjectES3_RKNSt7__cxx1112basic_stringIcSt11char_traitsIcESaIcEEE@Base 5.0.0
 _ZN3otb21StandardWriterWatcherC1EPN3itk13ProcessObjectES3_RKSs@Base 5.0.0
 _ZN3otb21StandardWriterWatcherC1ERKS0_@Base 5.0.0
 _ZN3otb21StandardWriterWatcherC2EPN3itk13ProcessObjectEPKc@Base 5.0.0
 (arch=i386)_ZN3otb21StandardWriterWatcherC2EPN3itk13ProcessObjectERKNSt7__cxx1112basic_stringIcSt11char_traitsIcESaIcEEE@Base 5.0.0
 _ZN3otb21StandardWriterWatcherC2EPN3itk13ProcessObjectERKSs@Base 5.0.0
 _ZN3otb21StandardWriterWatcherC2EPN3itk13ProcessObjectES3_PKc@Base 5.0.0
 (arch=i386)_ZN3otb21StandardWriterWatcherC2EPN3itk13ProcessObjectES3_RKNSt7__cxx1112basic_stringIcSt11char_traitsIcESaIcEEE@Base 5.0.0
 _ZN3otb21StandardWriterWatcherC2EPN3itk13ProcessObjectES3_RKSs@Base 5.0.0
 _ZN3otb21StandardWriterWatcherC2ERKS0_@Base 5.0.0
 _ZN3otb21StandardWriterWatcherD0Ev@Base 5.0.0
 _ZN3otb21StandardWriterWatcherD1Ev@Base 5.0.0
 _ZN3otb21StandardWriterWatcherD2Ev@Base 5.0.0
 _ZN3otb21StandardWriterWatcheraSERKS0_@Base 5.0.0
 _ZN3otb28StandardOneLineFilterWatcher11StartFilterEv@Base 5.0.0
 _ZN3otb28StandardOneLineFilterWatcher12ShowProgressEv@Base 5.0.0
 _ZN3otb28StandardOneLineFilterWatcher9EndFilterEv@Base 5.0.0
 _ZN3otb28StandardOneLineFilterWatcherC1EPN3itk13ProcessObjectEPKc@Base 5.0.0
 (arch=i386)_ZN3otb28StandardOneLineFilterWatcherC1EPN3itk13ProcessObjectERKNSt7__cxx1112basic_stringIcSt11char_traitsIcESaIcEEE@Base 5.0.0
 _ZN3otb28StandardOneLineFilterWatcherC1EPN3itk13ProcessObjectERKSs@Base 5.0.0
 _ZN3otb28StandardOneLineFilterWatcherC1Ev@Base 5.0.0
 _ZN3otb28StandardOneLineFilterWatcherC2EPN3itk13ProcessObjectEPKc@Base 5.0.0
 (arch=i386)_ZN3otb28StandardOneLineFilterWatcherC2EPN3itk13ProcessObjectERKNSt7__cxx1112basic_stringIcSt11char_traitsIcESaIcEEE@Base 5.0.0
 _ZN3otb28StandardOneLineFilterWatcherC2EPN3itk13ProcessObjectERKSs@Base 5.0.0
 _ZN3otb28StandardOneLineFilterWatcherC2Ev@Base 5.0.0
 _ZN3otb28StandardOneLineFilterWatcherD0Ev@Base 5.0.0
 _ZN3otb28StandardOneLineFilterWatcherD1Ev@Base 5.0.0
 _ZN3otb28StandardOneLineFilterWatcherD2Ev@Base 5.0.0
 _ZN3otb5Utils13IsLonLatValidEdd@Base 5.0.0
 (arch=i386)_ZN3otb6System11GetRootNameERKNSt7__cxx1112basic_stringIcSt11char_traitsIcESaIcEEE@Base 5.0.0
 _ZN3otb6System11GetRootNameERKSs@Base 5.0.0
 (arch=i386)_ZN3otb6System16ParseHdfFileNameERKNSt7__cxx1112basic_stringIcSt11char_traitsIcESaIcEEERS6_Rj@Base 5.0.0
 _ZN3otb6System16ParseHdfFileNameERKSsRSsRj@Base 5.0.0
 (arch=i386)_ZN3otb6System18ParseHdfSubsetNameERKNSt7__cxx1112basic_stringIcSt11char_traitsIcESaIcEEERS6_S9_@Base 5.0.0
 _ZN3otb6System18ParseHdfSubsetNameERKSsRSsS3_@Base 5.0.0
 (arch=i386)_ZN3otb6System29ParseFileNameForAdditonalInfoERKNSt7__cxx1112basic_stringIcSt11char_traitsIcESaIcEEERS6_Rj@Base 5.0.0
 _ZN3otb6System29ParseFileNameForAdditonalInfoERKSsRSsRj@Base 5.0.0
 (arch=i386)_ZN3otb6System7ReaddirERKNSt7__cxx1112basic_stringIcSt11char_traitsIcESaIcEEE@Base 5.0.0
 _ZN3otb6System7ReaddirERKSs@Base 5.0.0
 _ZNK3itk10StartEvent10CheckEventEPKNS_11EventObjectE@Base 5.0.0
 _ZNK3itk10StartEvent10MakeObjectEv@Base 5.0.0
 _ZNK3itk10StartEvent12GetEventNameEv@Base 5.0.0
 (optional=templinst)_ZNK3itk10Statistics10ListSampleINS_20VariableLengthVectorIfEEE4SizeEv@Base 5.0.0
 (optional=templinst)_ZNK3itk10Statistics6SampleINS_10FixedArrayIsLj1EEEE24GetMeasurementVectorSizeEv@Base 5.0.0
 (optional=templinst)_ZNK3itk10Statistics6SampleINS_20VariableLengthVectorIfEEE24GetMeasurementVectorSizeEv@Base 5.0.0
 _ZNK3itk11LightObject17GetReferenceCountEv@Base 5.0.0
 _ZNK3itk13ProcessObject11GetProgressEv@Base 5.0.0
 _ZNK3itk13ProcessObject14GetNameOfClassEv@Base 5.0.0
 _ZNK3itk13ProgressEvent10CheckEventEPKNS_11EventObjectE@Base 5.0.0
 _ZNK3itk13ProgressEvent10MakeObjectEv@Base 5.0.0
 _ZNK3itk13ProgressEvent12GetEventNameEv@Base 5.0.0
 (optional=templinst)_ZNK3itk19SimpleMemberCommandIN3otb17FilterWatcherBaseEE13CreateAnotherEv@Base 5.0.0
 (optional=templinst)_ZNK3itk19SimpleMemberCommandIN3otb17FilterWatcherBaseEE14GetNameOfClassEv@Base 5.0.0
 (optional=templinst)_ZNK3itk19SimpleMemberCommandIN3otb17WriterWatcherBaseEE13CreateAnotherEv@Base 5.0.0
 (optional=templinst)_ZNK3itk19SimpleMemberCommandIN3otb17WriterWatcherBaseEE14GetNameOfClassEv@Base 5.0.0
 (optional=templinst)_ZNK3itk20VariableLengthVectorIfE16AllocateElementsEj@Base 5.0.0
 (arch=i386)_ZNK3itk6Object13GetObjectNameB5cxx11Ev@Base 5.0.0
 _ZNK3itk6Object13GetObjectNameEv@Base 5.0.0
 _ZNK3itk8AnyEvent10CheckEventEPKNS_11EventObjectE@Base 5.0.0
 _ZNK3itk8AnyEvent10MakeObjectEv@Base 5.0.0
 _ZNK3itk8AnyEvent12GetEventNameEv@Base 5.0.0
 _ZNK3itk8EndEvent10CheckEventEPKNS_11EventObjectE@Base 5.0.0
 _ZNK3itk8EndEvent10MakeObjectEv@Base 5.0.0
 _ZNK3itk8EndEvent12GetEventNameEv@Base 5.0.0
 (optional=templinst)_ZNKSt5ctypeIcE8do_widenEc@Base 5.0.0
 (optional=templinst)_ZNSt12_Destroy_auxILb0EE9__destroyIPN3itk20VariableLengthVectorIfEEEEvT_S6_@Base 5.0.0
 (optional=templinst)_ZNSt12_Destroy_auxILb0EE9__destroyIPSsEEvT_S3_@Base 5.0.0
 (optional=templinst)_ZNSt6vectorIN3itk10FixedArrayIsLj1EEESaIS2_EE13_M_insert_auxEN9__gnu_cxx17__normal_iteratorIPS2_S4_EERKS2_@Base 5.0.0
 (optional=templinst)_ZNSt6vectorIN3itk12SmartPointerINS0_10DataObjectEEESaIS3_EED1Ev@Base 5.0.0
 (optional=templinst)_ZNSt6vectorIN3itk12SmartPointerINS0_10DataObjectEEESaIS3_EED2Ev@Base 5.0.0
 (optional=templinst)_ZNSt6vectorIN3itk20VariableLengthVectorIfEESaIS2_EE13_M_insert_auxEN9__gnu_cxx17__normal_iteratorIPS2_S4_EERKS2_@Base 5.0.0
 (optional=templinst|arch=i386)_ZNSt6vectorINSt7__cxx1112basic_stringIcSt11char_traitsIcESaIcEEESaIS5_EE13_M_insert_auxEN9__gnu_cxx17__normal_iteratorIPS5_S7_EERKS5_@Base 5.0.0
 (optional=templinst)_ZNSt6vectorISsSaISsEE13_M_insert_auxEN9__gnu_cxx17__normal_iteratorIPSsS1_EERKSs@Base 5.0.0
 _ZTIN3itk10StartEventE@Base 5.0.0
 _ZTIN3itk13ProgressEventE@Base 5.0.0
 _ZTIN3itk19SimpleMemberCommandIN3otb17FilterWatcherBaseEEE@Base 5.0.0
 _ZTIN3itk19SimpleMemberCommandIN3otb17WriterWatcherBaseEEE@Base 5.0.0
 _ZTIN3itk8AnyEventE@Base 5.0.0
 _ZTIN3itk8EndEventE@Base 5.0.0
 _ZTIN3otb17FilterWatcherBaseE@Base 5.0.0
 _ZTIN3otb17WriterWatcherBaseE@Base 5.0.0
 _ZTIN3otb21StandardFilterWatcherE@Base 5.0.0
 _ZTIN3otb21StandardWriterWatcherE@Base 5.0.0
 _ZTIN3otb28StandardOneLineFilterWatcherE@Base 5.0.0
 _ZTSN3itk10StartEventE@Base 5.0.0
 _ZTSN3itk13ProgressEventE@Base 5.0.0
 _ZTSN3itk19SimpleMemberCommandIN3otb17FilterWatcherBaseEEE@Base 5.0.0
 _ZTSN3itk19SimpleMemberCommandIN3otb17WriterWatcherBaseEEE@Base 5.0.0
 _ZTSN3itk8AnyEventE@Base 5.0.0
 _ZTSN3itk8EndEventE@Base 5.0.0
 _ZTSN3otb17FilterWatcherBaseE@Base 5.0.0
 _ZTSN3otb17WriterWatcherBaseE@Base 5.0.0
 _ZTSN3otb21StandardFilterWatcherE@Base 5.0.0
 _ZTSN3otb21StandardWriterWatcherE@Base 5.0.0
 _ZTSN3otb28StandardOneLineFilterWatcherE@Base 5.0.0
 _ZTVN3itk10StartEventE@Base 5.0.0
 _ZTVN3itk13ProgressEventE@Base 5.0.0
 _ZTVN3itk19SimpleMemberCommandIN3otb17FilterWatcherBaseEEE@Base 5.0.0
 _ZTVN3itk19SimpleMemberCommandIN3otb17WriterWatcherBaseEEE@Base 5.0.0
 _ZTVN3itk8AnyEventE@Base 5.0.0
 _ZTVN3itk8EndEventE@Base 5.0.0
 _ZTVN3otb17FilterWatcherBaseE@Base 5.0.0
 _ZTVN3otb17WriterWatcherBaseE@Base 5.0.0
 _ZTVN3otb21StandardFilterWatcherE@Base 5.0.0
 _ZTVN3otb21StandardWriterWatcherE@Base 5.0.0
 _ZTVN3otb28StandardOneLineFilterWatcherE@Base 5.0.0
