# SymbolsHelper-Confirmed: 5.0.0 amd64 i386
libOTBPolarimetry-5.0.so.1 libotbpolarimetry-5.0-1 #MINVER#
 _ZN3itk10DataObject15CopyInformationEPKS0_@Base 5.0.0
 _ZN3itk10DataObject16SetRealTimeStampENS_13RealTimeStampE@Base 5.0.0
 _ZN3itk10DataObject17PrepareForNewDataEv@Base 5.0.0
 _ZN3itk10DataObject17ReleaseDataFlagOnEv@Base 5.0.0
 _ZN3itk10DataObject18ReleaseDataFlagOffEv@Base 5.0.0
 _ZN3itk10DataObject18SetRequestedRegionEPKS0_@Base 5.0.0
 _ZN3itk10DataObject21VerifyRequestedRegionEv@Base 5.0.0
 _ZN3itk10DataObject41SetRequestedRegionToLargestPossibleRegionEv@Base 5.0.0
 _ZN3itk10DataObject43RequestedRegionIsOutsideOfTheBufferedRegionEv@Base 5.0.0
 _ZN3itk10DataObject5GraftEPKS0_@Base 5.0.0
 _ZN3itk6Object13SetObjectNameENSt7__cxx1112basic_stringIcSt11char_traitsIcESaIcEEE@Base 5.0.0
 _ZN3itk6Object13SetObjectNameESs@Base 5.0.0
 _ZN3otb16PolarimetricData19GetArchitectureTypeEv@Base 5.0.0
 _ZN3otb16PolarimetricData19SetArchitectureTypeENS_16ArchitectureTypeE@Base 5.0.0
 _ZN3otb16PolarimetricData21DetermineArchitectureEPb@Base 5.0.0
 _ZN3otb16PolarimetricData21DetermineArchitectureEibb@Base 5.0.0
 _ZN3otb16PolarimetricDataC1Ev@Base 5.0.0
 _ZN3otb16PolarimetricDataC2Ev@Base 5.0.0
 _ZN3otb16PolarimetricDataD0Ev@Base 5.0.0
 _ZN3otb16PolarimetricDataD1Ev@Base 5.0.0
 _ZN3otb16PolarimetricDataD2Ev@Base 5.0.0
 _ZNK3itk10DataObject16GetPipelineMTimeEv@Base 5.0.0
 _ZNK3itk10DataObject16GetRealTimeStampEv@Base 5.0.0
 _ZNK3itk10DataObject18GetReleaseDataFlagEv@Base 5.0.0
 _ZNK3itk11LightObject17GetReferenceCountEv@Base 5.0.0
 _ZNK3itk6Object13GetObjectNameB5cxx11Ev@Base 5.0.0
 _ZNK3itk6Object13GetObjectNameEv@Base 5.0.0
 _ZNK3otb16PolarimetricData13CreateAnotherEv@Base 5.0.0
 _ZNK3otb16PolarimetricData14GetNameOfClassEv@Base 5.0.0
 _ZNK3otb16PolarimetricData9PrintSelfERSoN3itk6IndentE@Base 5.0.0
 (optional=templinst)_ZNKSt5ctypeIcE8do_widenEc@Base 5.0.0
 _ZTIN3otb16PolarimetricDataE@Base 5.0.0
 _ZTSN3otb16PolarimetricDataE@Base 5.0.0
 _ZTVN3otb16PolarimetricDataE@Base 5.0.0
