# SymbolsHelper-Confirmed: 5.0.0 amd64
libOTBExtendedFilename-5.0.so.1 libotbextendedfilename-5.0-1 #MINVER#
 _ZN3itk6Object13SetObjectNameESs@Base 5.0.0
 _ZN3otb22ExtendedFilenameHelper17SetSimpleFileNameEPKc@Base 5.0.0
 _ZN3otb22ExtendedFilenameHelper17SetSimpleFileNameERKSs@Base 5.0.0
 _ZN3otb22ExtendedFilenameHelper19SetExtendedFileNameEPKc@Base 5.0.0
 _ZN3otb22ExtendedFilenameHelperD0Ev@Base 5.0.0
 _ZN3otb22ExtendedFilenameHelperD1Ev@Base 5.0.0
 _ZN3otb22ExtendedFilenameHelperD2Ev@Base 5.0.0
 _ZN3otb31ExtendedFilenameToReaderOptions10OptionTypeD1Ev@Base 5.0.0
 _ZN3otb31ExtendedFilenameToReaderOptions10OptionTypeD2Ev@Base 5.0.0
 _ZN3otb31ExtendedFilenameToReaderOptions19SetExtendedFileNameEPKc@Base 5.0.0
 _ZN3otb31ExtendedFilenameToReaderOptionsC1Ev@Base 5.0.0
 _ZN3otb31ExtendedFilenameToReaderOptionsC2Ev@Base 5.0.0
 _ZN3otb31ExtendedFilenameToReaderOptionsD0Ev@Base 5.0.0
 _ZN3otb31ExtendedFilenameToReaderOptionsD1Ev@Base 5.0.0
 _ZN3otb31ExtendedFilenameToReaderOptionsD2Ev@Base 5.0.0
 _ZN3otb31ExtendedFilenameToWriterOptions10OptionTypeD1Ev@Base 5.0.0
 _ZN3otb31ExtendedFilenameToWriterOptions10OptionTypeD2Ev@Base 5.0.0
 _ZN3otb31ExtendedFilenameToWriterOptions19SetExtendedFileNameEPKc@Base 5.0.0
 _ZN3otb31ExtendedFilenameToWriterOptionsC1Ev@Base 5.0.0
 _ZN3otb31ExtendedFilenameToWriterOptionsC2Ev@Base 5.0.0
 _ZN3otb31ExtendedFilenameToWriterOptionsD0Ev@Base 5.0.0
 _ZN3otb31ExtendedFilenameToWriterOptionsD1Ev@Base 5.0.0
 _ZN3otb31ExtendedFilenameToWriterOptionsD2Ev@Base 5.0.0
 (optional=templinst)_ZN5boost15throw_exceptionINS_17bad_function_callEEEvRKT_@Base 5.0.0
 (optional=templinst)_ZN5boost16exception_detail10clone_implINS0_19error_info_injectorINS_17bad_function_callEEEED0Ev@Base 5.0.0
 (optional=templinst)_ZN5boost16exception_detail10clone_implINS0_19error_info_injectorINS_17bad_function_callEEEED1Ev@Base 5.0.0
 (optional=templinst)_ZN5boost16exception_detail12refcount_ptrINS0_20error_info_containerEE7releaseEv@Base 5.0.0
 (optional=templinst)_ZN5boost16exception_detail19error_info_injectorINS_17bad_function_callEED0Ev@Base 5.0.0
 (optional=templinst)_ZN5boost16exception_detail19error_info_injectorINS_17bad_function_callEED1Ev@Base 5.0.0
 (optional=templinst)_ZN5boost16exception_detail19error_info_injectorINS_17bad_function_callEED2Ev@Base 5.0.0
 _ZN5boost17bad_function_callC1Ev@Base 5.0.0
 _ZN5boost17bad_function_callC2Ev@Base 5.0.0
 _ZN5boost17bad_function_callD0Ev@Base 5.0.0
 _ZN5boost17bad_function_callD1Ev@Base 5.0.0
 _ZN5boost17bad_function_callD2Ev@Base 5.0.0
 (optional=templinst)_ZN5boost6detail8function15functor_managerINS_9algorithm6detail13token_finderFINS4_10is_any_ofFIcEEEEE6manageERKNS1_15function_bufferERSA_NS1_30functor_manager_operation_typeE@Base 5.0.0
 _ZN5boost6detail8function16has_empty_targetEz@Base 5.0.0
 (optional=templinst)_ZN5boost6detail8function21function_obj_invoker2INS_9algorithm6detail13token_finderFINS4_10is_any_ofFIcEEEENS_14iterator_rangeIN9__gnu_cxx17__normal_iteratorIPKcSsEEEESE_SE_E6invokeERNS1_15function_bufferESE_SE_@Base 5.0.0
 (optional=templinst)_ZN5boost6detail8function21function_obj_invoker2INS_9algorithm6detail13token_finderFINS4_10is_any_ofFIcEEEENS_14iterator_rangeIN9__gnu_cxx17__normal_iteratorIPcSsEEEESD_SD_E6invokeERNS1_15function_bufferESD_SD_@Base 5.0.0
 (optional=templinst)_ZN5boost9algorithm10iter_splitISt6vectorISsSaISsEEKSsNS0_6detail13token_finderFINS6_10is_any_ofFIcEEEEEERT_SC_RT0_T1_@Base 5.0.0
 (optional=templinst)_ZN5boost9algorithm10iter_splitISt6vectorISsSaISsEESsNS0_6detail13token_finderFINS5_10is_any_ofFIcEEEEEERT_SB_RT0_T1_@Base 5.0.0
 (optional=templinst)_ZN5boost9algorithm6detail10is_any_ofFIcED1Ev@Base 5.0.0
 (optional=templinst)_ZN5boost9algorithm6detail10is_any_ofFIcED2Ev@Base 5.0.0
 (optional=templinst)_ZN5boost9function2INS_14iterator_rangeIN9__gnu_cxx17__normal_iteratorIPKcSsEEEES6_S6_E5clearEv@Base 5.0.0
 (optional=templinst)_ZN5boost9function2INS_14iterator_rangeIN9__gnu_cxx17__normal_iteratorIPcSsEEEES5_S5_E5clearEv@Base 5.0.0
 _ZNK3itk11LightObject17GetReferenceCountEv@Base 5.0.0
 _ZNK3itk6Object13GetObjectNameEv@Base 5.0.0
 _ZNK3otb22ExtendedFilenameHelper12GetOptionMapEv@Base 5.0.0
 _ZNK3otb22ExtendedFilenameHelper13CreateAnotherEv@Base 5.0.0
 _ZNK3otb22ExtendedFilenameHelper14GetNameOfClassEv@Base 5.0.0
 _ZNK3otb22ExtendedFilenameHelper17GetSimpleFileNameEv@Base 5.0.0
 _ZNK3otb22ExtendedFilenameHelper19GetExtendedFileNameEv@Base 5.0.0
 _ZNK3otb31ExtendedFilenameToReaderOptions11GetSkipGeomEv@Base 5.0.0
 _ZNK3otb31ExtendedFilenameToReaderOptions12GetSkipCartoEv@Base 5.0.0
 _ZNK3otb31ExtendedFilenameToReaderOptions13CreateAnotherEv@Base 5.0.0
 _ZNK3otb31ExtendedFilenameToReaderOptions13GetSkipRpcTagEv@Base 5.0.0
 _ZNK3otb31ExtendedFilenameToReaderOptions13SkipGeomIsSetEv@Base 5.0.0
 _ZNK3otb31ExtendedFilenameToReaderOptions14GetNameOfClassEv@Base 5.0.0
 _ZNK3otb31ExtendedFilenameToReaderOptions14SkipCartoIsSetEv@Base 5.0.0
 _ZNK3otb31ExtendedFilenameToReaderOptions15SkipRpcTagIsSetEv@Base 5.0.0
 _ZNK3otb31ExtendedFilenameToReaderOptions17GetSimpleFileNameEv@Base 5.0.0
 _ZNK3otb31ExtendedFilenameToReaderOptions18GetExtGEOMFileNameEv@Base 5.0.0
 _ZNK3otb31ExtendedFilenameToReaderOptions18GetSubDatasetIndexEv@Base 5.0.0
 _ZNK3otb31ExtendedFilenameToReaderOptions19GetResolutionFactorEv@Base 5.0.0
 _ZNK3otb31ExtendedFilenameToReaderOptions19SimpleFileNameIsSetEv@Base 5.0.0
 _ZNK3otb31ExtendedFilenameToReaderOptions20ExtGEOMFileNameIsSetEv@Base 5.0.0
 _ZNK3otb31ExtendedFilenameToReaderOptions20SubDatasetIndexIsSetEv@Base 5.0.0
 _ZNK3otb31ExtendedFilenameToReaderOptions21ResolutionFactorIsSetEv@Base 5.0.0
 _ZNK3otb31ExtendedFilenameToWriterOptions13CreateAnotherEv@Base 5.0.0
 _ZNK3otb31ExtendedFilenameToWriterOptions14GetNameOfClassEv@Base 5.0.0
 _ZNK3otb31ExtendedFilenameToWriterOptions16GetStreamingTypeEv@Base 5.0.0
 _ZNK3otb31ExtendedFilenameToWriterOptions16GetWriteGEOMFileEv@Base 5.0.0
 _ZNK3otb31ExtendedFilenameToWriterOptions17GetSimpleFileNameEv@Base 5.0.0
 _ZNK3otb31ExtendedFilenameToWriterOptions18StreamingTypeIsSetEv@Base 5.0.0
 _ZNK3otb31ExtendedFilenameToWriterOptions18WriteGEOMFileIsSetEv@Base 5.0.0
 _ZNK3otb31ExtendedFilenameToWriterOptions19SimpleFileNameIsSetEv@Base 5.0.0
 _ZNK3otb31ExtendedFilenameToWriterOptions20GetStreamingSizeModeEv@Base 5.0.0
 _ZNK3otb31ExtendedFilenameToWriterOptions21GetStreamingSizeValueEv@Base 5.0.0
 _ZNK3otb31ExtendedFilenameToWriterOptions22GetgdalCreationOptionsEv@Base 5.0.0
 _ZNK3otb31ExtendedFilenameToWriterOptions22StreamingSizeModeIsSetEv@Base 5.0.0
 _ZNK3otb31ExtendedFilenameToWriterOptions23StreamingSizeValueIsSetEv@Base 5.0.0
 _ZNK3otb31ExtendedFilenameToWriterOptions24gdalCreationOptionsIsSetEv@Base 5.0.0
 _ZNK3otb31ExtendedFilenameToWriterOptions6GetBoxEv@Base 5.0.0
 _ZNK3otb31ExtendedFilenameToWriterOptions8BoxIsSetEv@Base 5.0.0
 (optional=templinst)_ZNK5boost16exception_detail10clone_implINS0_19error_info_injectorINS_17bad_function_callEEEE5cloneEv@Base 5.0.0
 (optional=templinst)_ZNK5boost16exception_detail10clone_implINS0_19error_info_injectorINS_17bad_function_callEEEE7rethrowEv@Base 5.0.0
 (optional=templinst)_ZNSt12_Destroy_auxILb0EE9__destroyIPSsEEvT_S3_@Base 5.0.0
 (optional=templinst)_ZNSt15basic_stringbufIcSt11char_traitsIcESaIcEED0Ev@Base 5.0.0
 (optional=templinst)_ZNSt15basic_stringbufIcSt11char_traitsIcESaIcEED1Ev@Base 5.0.0
 (optional=templinst)_ZNSt15basic_stringbufIcSt11char_traitsIcESaIcEED2Ev@Base 5.0.0
 (optional=templinst)_ZNSt3mapISsSsSt4lessISsESaISt4pairIKSsSsEEEixERS3_@Base 5.0.0
 (optional=templinst)_ZNSt4pairIKSsSsED1Ev@Base 5.0.0
 (optional=templinst)_ZNSt4pairIKSsSsED2Ev@Base 5.0.0
 (optional=templinst)_ZNSt6vectorISsSaISsEE13_M_insert_auxEN9__gnu_cxx17__normal_iteratorIPSsS1_EERKSs@Base 5.0.0
 (optional=templinst)_ZNSt6vectorISsSaISsEED1Ev@Base 5.0.0
 (optional=templinst)_ZNSt6vectorISsSaISsEED2Ev@Base 5.0.0
 (optional=templinst)_ZNSt8_Rb_treeISsSt4pairIKSsSsESt10_Select1stIS2_ESt4lessISsESaIS2_EE17_M_insert_unique_ESt23_Rb_tree_const_iteratorIS2_ERKS2_@Base 5.0.0
 (optional=templinst)_ZNSt8_Rb_treeISsSt4pairIKSsSsESt10_Select1stIS2_ESt4lessISsESaIS2_EE24_M_get_insert_unique_posERS1_@Base 5.0.0
 (optional=templinst)_ZNSt8_Rb_treeISsSt4pairIKSsSsESt10_Select1stIS2_ESt4lessISsESaIS2_EE29_M_get_insert_hint_unique_posESt23_Rb_tree_const_iteratorIS2_ERS1_@Base 5.0.0
 (optional=templinst)_ZNSt8_Rb_treeISsSt4pairIKSsSsESt10_Select1stIS2_ESt4lessISsESaIS2_EE7_M_copyEPKSt13_Rb_tree_nodeIS2_EPSA_@Base 5.0.0
 (optional=templinst)_ZNSt8_Rb_treeISsSt4pairIKSsSsESt10_Select1stIS2_ESt4lessISsESaIS2_EE8_M_eraseEPSt13_Rb_tree_nodeIS2_E@Base 5.0.0
 (optional=templinst)_ZSt9__find_ifIN9__gnu_cxx17__normal_iteratorIPKcSsEENS0_5__ops10_Iter_predIN5boost9algorithm6detail10is_any_ofFIcEEEEET_SD_SD_T0_St26random_access_iterator_tag@Base 5.0.0
 (optional=templinst)_ZSt9__find_ifIN9__gnu_cxx17__normal_iteratorIPcSsEENS0_5__ops10_Iter_predIN5boost9algorithm6detail10is_any_ofFIcEEEEET_SC_SC_T0_St26random_access_iterator_tag@Base 5.0.0
 _ZTIN3otb22ExtendedFilenameHelperE@Base 5.0.0
 _ZTIN3otb31ExtendedFilenameToReaderOptionsE@Base 5.0.0
 _ZTIN3otb31ExtendedFilenameToWriterOptionsE@Base 5.0.0
 _ZTIN5boost16exception_detail10clone_baseE@Base 5.0.0
 _ZTIN5boost16exception_detail10clone_implINS0_19error_info_injectorINS_17bad_function_callEEEEE@Base 5.0.0
 _ZTIN5boost16exception_detail19error_info_injectorINS_17bad_function_callEEE@Base 5.0.0
 _ZTIN5boost17bad_function_callE@Base 5.0.0
 _ZTIN5boost9algorithm6detail13token_finderFINS1_10is_any_ofFIcEEEE@Base 5.0.0
 _ZTIN5boost9exceptionE@Base 5.0.0
 _ZTSN3otb22ExtendedFilenameHelperE@Base 5.0.0
 _ZTSN3otb31ExtendedFilenameToReaderOptionsE@Base 5.0.0
 _ZTSN3otb31ExtendedFilenameToWriterOptionsE@Base 5.0.0
 _ZTSN5boost16exception_detail10clone_baseE@Base 5.0.0
 _ZTSN5boost16exception_detail10clone_implINS0_19error_info_injectorINS_17bad_function_callEEEEE@Base 5.0.0
 _ZTSN5boost16exception_detail19error_info_injectorINS_17bad_function_callEEE@Base 5.0.0
 _ZTSN5boost17bad_function_callE@Base 5.0.0
 _ZTSN5boost9algorithm6detail13token_finderFINS1_10is_any_ofFIcEEEE@Base 5.0.0
 _ZTSN5boost9exceptionE@Base 5.0.0
 _ZTTN5boost16exception_detail10clone_implINS0_19error_info_injectorINS_17bad_function_callEEEEE@Base 5.0.0
 _ZTVN3otb22ExtendedFilenameHelperE@Base 5.0.0
 _ZTVN3otb31ExtendedFilenameToReaderOptionsE@Base 5.0.0
 _ZTVN3otb31ExtendedFilenameToWriterOptionsE@Base 5.0.0
 _ZTVN5boost16exception_detail10clone_baseE@Base 5.0.0
 _ZTVN5boost16exception_detail10clone_implINS0_19error_info_injectorINS_17bad_function_callEEEEE@Base 5.0.0
 _ZTVN5boost16exception_detail19error_info_injectorINS_17bad_function_callEEE@Base 5.0.0
 _ZTVN5boost17bad_function_callE@Base 5.0.0
 _ZTVN5boost9exceptionE@Base 5.0.0
 (optional=templinst)_ZZN5boost9function2INS_14iterator_rangeIN9__gnu_cxx17__normal_iteratorIPKcSsEEEES6_S6_E9assign_toINS_9algorithm6detail13token_finderFINSB_10is_any_ofFIcEEEEEEvT_E13stored_vtable@Base 5.0.0
 (optional=templinst)_ZZN5boost9function2INS_14iterator_rangeIN9__gnu_cxx17__normal_iteratorIPcSsEEEES5_S5_E9assign_toINS_9algorithm6detail13token_finderFINSA_10is_any_ofFIcEEEEEEvT_E13stored_vtable@Base 5.0.0
 (c++)"non-virtual thunk to boost::exception_detail::clone_impl<boost::exception_detail::error_info_injector<boost::bad_function_call> >::~clone_impl()@Base" 5.0.0
 (c++)"non-virtual thunk to boost::exception_detail::error_info_injector<boost::bad_function_call>::~error_info_injector()@Base" 5.0.0
 (c++)"virtual thunk to boost::exception_detail::clone_impl<boost::exception_detail::error_info_injector<boost::bad_function_call> >::clone() const@Base" 5.0.0
 (c++)"virtual thunk to boost::exception_detail::clone_impl<boost::exception_detail::error_info_injector<boost::bad_function_call> >::rethrow() const@Base" 5.0.0
 (c++)"virtual thunk to boost::exception_detail::clone_impl<boost::exception_detail::error_info_injector<boost::bad_function_call> >::~clone_impl()@Base" 5.0.0
