# SymbolsHelper-Confirmed: 5.2.0 amd64 i386
libOTBOSSIMAdapters-5.2.so.1 libotbossimadapters-5.2-1 #MINVER#
 _ZN11ossimTieGptD0Ev@Base 5.2.0
 _ZN11ossimTieGptD1Ev@Base 5.2.0
 _ZN11ossimTieGptD2Ev@Base 5.2.0
 _ZN14ossimEllipsoidD0Ev@Base 5.2.0
 _ZN14ossimEllipsoidD1Ev@Base 5.2.0
 _ZN14ossimEllipsoidD2Ev@Base 5.2.0
 _ZN14ossimRpcSolverD0Ev@Base 5.2.0
 _ZN14ossimRpcSolverD1Ev@Base 5.2.0
 _ZN14ossimRpcSolverD2Ev@Base 5.2.0
 _ZN17ossimOutputSource4openERK11ossimString@Base 5.2.0
 _ZN21ossimOgcWktTranslatorD1Ev@Base 5.2.0
 _ZN21ossimOgcWktTranslatorD2Ev@Base 5.2.0
 _ZN3itk10DataObject15CopyInformationEPKS0_@Base 5.2.0
 _ZN3itk10DataObject16SetRealTimeStampENS_13RealTimeStampE@Base 5.2.0
 _ZN3itk10DataObject17PrepareForNewDataEv@Base 5.2.0
 _ZN3itk10DataObject17ReleaseDataFlagOnEv@Base 5.2.0
 _ZN3itk10DataObject18ReleaseDataFlagOffEv@Base 5.2.0
 _ZN3itk10DataObject18SetRequestedRegionEPKS0_@Base 5.2.0
 _ZN3itk10DataObject21VerifyRequestedRegionEv@Base 5.2.0
 _ZN3itk10DataObject41SetRequestedRegionToLargestPossibleRegionEv@Base 5.2.0
 _ZN3itk10DataObject43RequestedRegionIsOutsideOfTheBufferedRegionEv@Base 5.2.0
 _ZN3itk10DataObject5GraftEPKS0_@Base 5.2.0
 (optional=templinst)_ZN3itk12SmartPointerIN3otb10DEMHandlerEED1Ev@Base 5.2.0
 (optional=templinst)_ZN3itk12SmartPointerIN3otb10DEMHandlerEED2Ev@Base 5.2.0
 _ZN3itk6Object13SetObjectNameENSt7__cxx1112basic_stringIcSt11char_traitsIcESaIcEEE@Base 5.2.0
 _ZN3itk6Object13SetObjectNameESs@Base 5.2.0
 _ZN3otb10DEMHandler11m_SingletonE@Base 5.2.0
 _ZN3otb10DEMHandler13OpenGeoidFileEPKc@Base 5.2.0
 _ZN3otb10DEMHandler13OpenGeoidFileERKNSt7__cxx1112basic_stringIcSt11char_traitsIcESaIcEEE@Base 5.2.0
 _ZN3otb10DEMHandler13OpenGeoidFileERKSs@Base 5.2.0
 _ZN3otb10DEMHandler16OpenDEMDirectoryEPKc@Base 5.2.0
 _ZN3otb10DEMHandler16OpenDEMDirectoryERKNSt7__cxx1112basic_stringIcSt11char_traitsIcESaIcEEE@Base 5.2.0
 _ZN3otb10DEMHandler16OpenDEMDirectoryERKSs@Base 5.2.0
 _ZN3otb10DEMHandler19IsValidDEMDirectoryEPKc@Base 5.2.0
 _ZN3otb10DEMHandler30SetDefaultHeightAboveEllipsoidEd@Base 5.2.0
 _ZN3otb10DEMHandler8InstanceEv@Base 5.2.0
 _ZN3otb10DEMHandler9ClearDEMsEv@Base 5.2.0
 _ZN3otb10DEMHandlerC1Ev@Base 5.2.0
 _ZN3otb10DEMHandlerC2Ev@Base 5.2.0
 _ZN3otb10DEMHandlerD0Ev@Base 5.2.0
 _ZN3otb10DEMHandlerD1Ev@Base 5.2.0
 _ZN3otb10DEMHandlerD2Ev@Base 5.2.0
 _ZN3otb11MetaDataKey10GetKeyTypeERKNSt7__cxx1112basic_stringIcSt11char_traitsIcESaIcEEE@Base 5.2.0
 _ZN3otb11MetaDataKey10GetKeyTypeERKSs@Base 5.2.0
 _ZN3otb11MetaDataKey10KeyTypeDefC1ERKNSt7__cxx1112basic_stringIcSt11char_traitsIcESaIcEEERKNS0_7KeyTypeE@Base 5.2.0
 _ZN3otb11MetaDataKey10KeyTypeDefC1ERKSsRKNS0_7KeyTypeE@Base 5.2.0
 _ZN3otb11MetaDataKey10KeyTypeDefC2ERKNSt7__cxx1112basic_stringIcSt11char_traitsIcESaIcEEERKNS0_7KeyTypeE@Base 5.2.0
 _ZN3otb11MetaDataKey10KeyTypeDefC2ERKSsRKNS0_7KeyTypeE@Base 5.2.0
 _ZN3otb11MetaDataKey11GCPCountKeyE@Base 5.2.0
 _ZN3otb11MetaDataKey11MetadataKeyE@Base 5.2.0
 _ZN3otb11MetaDataKey11NoDataValueE@Base 5.2.0
 _ZN3otb11MetaDataKey14SubMetadataKeyE@Base 5.2.0
 _ZN3otb11MetaDataKey15GeoTransformKeyE@Base 5.2.0
 _ZN3otb11MetaDataKey15SubDatasetIndexE@Base 5.2.0
 _ZN3otb11MetaDataKey16CacheSizeInBytesE@Base 5.2.0
 _ZN3otb11MetaDataKey16GCPParametersKeyE@Base 5.2.0
 _ZN3otb11MetaDataKey16GCPProjectionKeyE@Base 5.2.0
 _ZN3otb11MetaDataKey16ProjectionRefKeyE@Base 5.2.0
 _ZN3otb11MetaDataKey16ResolutionFactorE@Base 5.2.0
 _ZN3otb11MetaDataKey17ColorTableNameKeyE@Base 5.2.0
 _ZN3otb11MetaDataKey17DriverLongNameKeyE@Base 5.2.0
 _ZN3otb11MetaDataKey18ColorEntryAsRGBKeyE@Base 5.2.0
 _ZN3otb11MetaDataKey18ColorEntryCountKeyE@Base 5.2.0
 _ZN3otb11MetaDataKey18DriverShortNameKeyE@Base 5.2.0
 _ZN3otb11MetaDataKey18LowerLeftCornerKeyE@Base 5.2.0
 _ZN3otb11MetaDataKey18UpperLeftCornerKeyE@Base 5.2.0
 _ZN3otb11MetaDataKey19LowerRightCornerKeyE@Base 5.2.0
 _ZN3otb11MetaDataKey19OSSIMKeywordlistKeyE@Base 5.2.0
 _ZN3otb11MetaDataKey19UpperRightCornerKeyE@Base 5.2.0
 _ZN3otb11MetaDataKey20NoDataValueAvailableE@Base 5.2.0
 _ZN3otb11MetaDataKey24VectorDataKeywordlistKeyE@Base 5.2.0
 _ZN3otb11MetaDataKey28OSSIMKeywordlistDelimiterKeyE@Base 5.2.0
 _ZN3otb11MetaDataKey33VectorDataKeywordlistDelimiterKeyE@Base 5.2.0
 _ZN3otb11MetaDataKey9TileHintXE@Base 5.2.0
 _ZN3otb11MetaDataKey9TileHintYE@Base 5.2.0
 _ZN3otb12ReadGeometryERKNSt7__cxx1112basic_stringIcSt11char_traitsIcESaIcEEE@Base 5.2.0
 _ZN3otb12ReadGeometryERKSs@Base 5.2.0
 _ZN3otb13WriteGeometryERKNS_16ImageKeywordlistERKNSt7__cxx1112basic_stringIcSt11char_traitsIcESaIcEEE@Base 5.2.0
 _ZN3otb13WriteGeometryERKNS_16ImageKeywordlistERKSs@Base 5.2.0
 _ZN3otb15DateTimeAdapter14SetFromIso8601ERKNSt7__cxx1112basic_stringIcSt11char_traitsIcESaIcEEE@Base 5.2.0
 _ZN3otb15DateTimeAdapter14SetFromIso8601ERKSs@Base 5.2.0
 _ZN3otb15DateTimeAdapter17GetDeltaInSecondsEPKS0_@Base 5.2.0
 _ZN3otb15DateTimeAdapter6GetDayEv@Base 5.2.0
 _ZN3otb15DateTimeAdapter7GetHourEv@Base 5.2.0
 _ZN3otb15DateTimeAdapter7GetYearEv@Base 5.2.0
 _ZN3otb15DateTimeAdapter8GetMonthEv@Base 5.2.0
 _ZN3otb15DateTimeAdapter9GetMinuteEv@Base 5.2.0
 _ZN3otb15DateTimeAdapterC1Ev@Base 5.2.0
 _ZN3otb15DateTimeAdapterC2Ev@Base 5.2.0
 _ZN3otb15DateTimeAdapterD0Ev@Base 5.2.0
 _ZN3otb15DateTimeAdapterD1Ev@Base 5.2.0
 _ZN3otb15DateTimeAdapterD2Ev@Base 5.2.0
 _ZN3otb16EllipsoidAdapterC1Ev@Base 5.2.0
 _ZN3otb16EllipsoidAdapterC2Ev@Base 5.2.0
 _ZN3otb16EllipsoidAdapterD0Ev@Base 5.2.0
 _ZN3otb16EllipsoidAdapterD1Ev@Base 5.2.0
 _ZN3otb16EllipsoidAdapterD2Ev@Base 5.2.0
 _ZN3otb16ImageKeywordlist14SetKeywordlistERK16ossimKeywordlist@Base 5.2.0
 _ZN3otb16ImageKeywordlist18ClearMetadataByKeyERKNSt7__cxx1112basic_stringIcSt11char_traitsIcESaIcEEE@Base 5.2.0
 _ZN3otb16ImageKeywordlist18ClearMetadataByKeyERKSs@Base 5.2.0
 _ZN3otb16ImageKeywordlist6AddKeyERKNSt7__cxx1112basic_stringIcSt11char_traitsIcESaIcEEES8_@Base 5.2.0
 _ZN3otb16ImageKeywordlist6AddKeyERKSsS2_@Base 5.2.0
 _ZN3otb16ImageKeywordlistC1ERKS0_@Base 5.2.0
 _ZN3otb16ImageKeywordlistC1Ev@Base 5.2.0
 _ZN3otb16ImageKeywordlistC2ERKS0_@Base 5.2.0
 _ZN3otb16ImageKeywordlistC2Ev@Base 5.2.0
 _ZN3otb16ImageKeywordlistD0Ev@Base 5.2.0
 _ZN3otb16ImageKeywordlistD1Ev@Base 5.2.0
 _ZN3otb16ImageKeywordlistD2Ev@Base 5.2.0
 _ZN3otb16ImageKeywordlistaSERKS0_@Base 5.2.0
 _ZN3otb16RPCSolverAdapter5SolveERKSt6vectorISt4pairIN3itk5PointIdLj2EEENS4_IdLj3EEEESaIS7_EERdRKNSt7__cxx1112basic_stringIcSt11char_traitsIcESaIcEEE@Base 5.2.0
 _ZN3otb16RPCSolverAdapter5SolveERKSt6vectorISt4pairIN3itk5PointIdLj2EEENS4_IdLj3EEEESaIS7_EERdRKSs@Base 5.2.0
 _ZN3otb16RPCSolverAdapter5SolveERKSt6vectorISt4pairIN3itk5PointIdLj2EEENS4_IdLj3EEEESaIS7_EERdRNS_16ImageKeywordlistE@Base 5.2.0
 _ZN3otb16RPCSolverAdapterC1Ev@Base 5.2.0
 _ZN3otb16RPCSolverAdapterC2Ev@Base 5.2.0
 _ZN3otb16RPCSolverAdapterD0Ev@Base 5.2.0
 _ZN3otb16RPCSolverAdapterD1Ev@Base 5.2.0
 _ZN3otb16RPCSolverAdapterD2Ev@Base 5.2.0
 _ZN3otb17DEMConvertAdapter7ConvertENSt7__cxx1112basic_stringIcSt11char_traitsIcESaIcEEES6_@Base 5.2.0
 _ZN3otb17DEMConvertAdapter7ConvertESsSs@Base 5.2.0
 _ZN3otb17DEMConvertAdapterC1Ev@Base 5.2.0
 _ZN3otb17DEMConvertAdapterC2Ev@Base 5.2.0
 _ZN3otb17DEMConvertAdapterD0Ev@Base 5.2.0
 _ZN3otb17DEMConvertAdapterD1Ev@Base 5.2.0
 _ZN3otb17DEMConvertAdapterD2Ev@Base 5.2.0
 _ZN3otb18SensorModelAdapter11AddTiePointEdddd@Base 5.2.0
 _ZN3otb18SensorModelAdapter11AddTiePointEddddd@Base 5.2.0
 _ZN3otb18SensorModelAdapter12ReadGeomFileERKNSt7__cxx1112basic_stringIcSt11char_traitsIcESaIcEEE@Base 5.2.0
 _ZN3otb18SensorModelAdapter12ReadGeomFileERKSs@Base 5.2.0
 _ZN3otb18SensorModelAdapter13WriteGeomFileERKNSt7__cxx1112basic_stringIcSt11char_traitsIcESaIcEEE@Base 5.2.0
 _ZN3otb18SensorModelAdapter13WriteGeomFileERKSs@Base 5.2.0
 _ZN3otb18SensorModelAdapter14ClearTiePointsEv@Base 5.2.0
 _ZN3otb18SensorModelAdapter16CreateProjectionERKNS_16ImageKeywordlistE@Base 5.2.0
 _ZN3otb18SensorModelAdapter18IsValidSensorModelEv@Base 5.2.0
 _ZN3otb18SensorModelAdapter8OptimizeEv@Base 5.2.0
 _ZN3otb18SensorModelAdapterC1Ev@Base 5.2.0
 _ZN3otb18SensorModelAdapterC2Ev@Base 5.2.0
 _ZN3otb18SensorModelAdapterD0Ev@Base 5.2.0
 _ZN3otb18SensorModelAdapterD1Ev@Base 5.2.0
 _ZN3otb18SensorModelAdapterD2Ev@Base 5.2.0
 _ZN3otb20FilterFunctionValues11GetUserStepEv@Base 5.2.0
 _ZN3otb20FilterFunctionValues11SetUserStepEf@Base 5.2.0
 _ZN3otb20FilterFunctionValues19GetMaxSpectralValueEv@Base 5.2.0
 _ZN3otb20FilterFunctionValues19GetMinSpectralValueEv@Base 5.2.0
 _ZN3otb20FilterFunctionValues19SetMaxSpectralValueEf@Base 5.2.0
 _ZN3otb20FilterFunctionValues19SetMinSpectralValueEf@Base 5.2.0
 _ZN3otb20FilterFunctionValuesC1Ev@Base 5.2.0
 _ZN3otb20FilterFunctionValuesC2Ev@Base 5.2.0
 _ZN3otb20FilterFunctionValuesD0Ev@Base 5.2.0
 _ZN3otb20FilterFunctionValuesD1Ev@Base 5.2.0
 _ZN3otb20FilterFunctionValuesD2Ev@Base 5.2.0
 _ZN3otb20MapProjectionAdapter12SetParameterERKNSt7__cxx1112basic_stringIcSt11char_traitsIcESaIcEEES8_@Base 5.2.0
 _ZN3otb20MapProjectionAdapter12SetParameterERKSsS2_@Base 5.2.0
 _ZN3otb20MapProjectionAdapter16ForwardTransformEdddRdS1_S1_@Base 5.2.0
 _ZN3otb20MapProjectionAdapter16GetMapProjectionEv@Base 5.2.0
 _ZN3otb20MapProjectionAdapter16InverseTransformEdddRdS1_S1_@Base 5.2.0
 _ZN3otb20MapProjectionAdapter21InstanciateProjectionEv@Base 5.2.0
 _ZN3otb20MapProjectionAdapter27ApplyParametersToProjectionEv@Base 5.2.0
 _ZN3otb20MapProjectionAdapter6SetWktERKNSt7__cxx1112basic_stringIcSt11char_traitsIcESaIcEEE@Base 5.2.0
 _ZN3otb20MapProjectionAdapter6SetWktERKSs@Base 5.2.0
 _ZN3otb20MapProjectionAdapterC1Ev@Base 5.2.0
 _ZN3otb20MapProjectionAdapterC2Ev@Base 5.2.0
 _ZN3otb20MapProjectionAdapterD0Ev@Base 5.2.0
 _ZN3otb20MapProjectionAdapterD1Ev@Base 5.2.0
 _ZN3otb20MapProjectionAdapterD2Ev@Base 5.2.0
 _ZN3otb21ReadGeometryFromImageERKNSt7__cxx1112basic_stringIcSt11char_traitsIcESaIcEEEb@Base 5.2.0
 _ZN3otb21ReadGeometryFromImageERKSsb@Base 5.2.0
 _ZN3otb22ReadGeometryFromRPCTagERKNSt7__cxx1112basic_stringIcSt11char_traitsIcESaIcEEE@Base 5.2.0
 _ZN3otb22ReadGeometryFromRPCTagERKSs@Base 5.2.0
 _ZN3otb23PlatformPositionAdapter17CreateSensorModelERKNS_16ImageKeywordlistE@Base 5.2.0
 _ZN3otb23PlatformPositionAdapter19GetPlatformPositionEdRSt6vectorIdSaIdEES4_@Base 5.2.0
 _ZN3otb23PlatformPositionAdapter25GetPlatformPositionAtTimeEN12ossimplugins11JSDDateTimeERSt6vectorIdSaIdEES6_@Base 5.2.0
 _ZN3otb23PlatformPositionAdapterC1Ev@Base 5.2.0
 _ZN3otb23PlatformPositionAdapterC2Ev@Base 5.2.0
 _ZN3otb23PlatformPositionAdapterD0Ev@Base 5.2.0
 _ZN3otb23PlatformPositionAdapterD1Ev@Base 5.2.0
 _ZN3otb23PlatformPositionAdapterD2Ev@Base 5.2.0
 _ZN3otb24ReadGeometryFromGEOMFileERKNSt7__cxx1112basic_stringIcSt11char_traitsIcESaIcEEE@Base 5.2.0
 _ZN3otb24ReadGeometryFromGEOMFileERKSs@Base 5.2.0
 _ZN3otb30GeometricSarSensorModelAdapter17CreateSensorModelERKNS_16ImageKeywordlistE@Base 5.2.0
 _ZN3otb30GeometricSarSensorModelAdapter25GetPlatformPositionAtLineEdRSt6vectorIdSaIdEES4_@Base 5.2.0
 _ZN3otb30GeometricSarSensorModelAdapter7getTimeEd@Base 5.2.0
 _ZN3otb30GeometricSarSensorModelAdapterC1Ev@Base 5.2.0
 _ZN3otb30GeometricSarSensorModelAdapterC2Ev@Base 5.2.0
 _ZN3otb30GeometricSarSensorModelAdapterD0Ev@Base 5.2.0
 _ZN3otb30GeometricSarSensorModelAdapterD1Ev@Base 5.2.0
 _ZN3otb30GeometricSarSensorModelAdapterD2Ev@Base 5.2.0
 (optional=templinst)_ZN3otb5Utils15ConvertToStringI8ossimDptEENSt7__cxx1112basic_stringIcSt11char_traitsIcESaIcEEERKT_@Base 5.2.0
 (optional=templinst)_ZN3otb5Utils15ConvertToStringI8ossimDptEESsRKT_@Base 5.2.0
 (optional=templinst)_ZN3otb5Utils15ConvertToStringIcEESsRKT_@Base 5.2.0
 (optional=templinst)_ZN3otb5Utils15ConvertToStringIdEENSt7__cxx1112basic_stringIcSt11char_traitsIcESaIcEEERKT_@Base 5.2.0
 (optional=templinst)_ZN3otb5Utils15ConvertToStringIdEESsRKT_@Base 5.2.0
 (optional=templinst)_ZN3otb5Utils15ConvertToStringIiEESsRKT_@Base 5.2.0
 _ZN3otb5Utils19GetZoneFromGeoPointEdd@Base 5.2.0
 _ZN3otb7OTB_GCPC1Ev@Base 5.2.0
 _ZN3otb7OTB_GCPC2Ev@Base 5.2.0
 _ZN3otb7OTB_GCPD1Ev@Base 5.2.0
 _ZN3otb7OTB_GCPD2Ev@Base 5.2.0
 _ZN3otblsERSoRKNS_16ImageKeywordlistE@Base 5.2.0
 _ZNK14ossimEllipsoid9isEqualToERKS_16ossimCompareType@Base 5.2.0
 _ZNK15ossimProjection10RTTI_vinfoEv@Base 5.2.0
 _ZNK15ossimProjection7forwardERK8ossimGpt@Base 5.2.0
 _ZNK15ossimProjection7inverseERK8ossimDpt@Base 5.2.0
 _ZNK15ossimProjection9isEqualToERK11ossimObject16ossimCompareType@Base 5.2.0
 _ZNK15ossimProjectionneERKS_@Base 5.2.0
 _ZNK15ossimReferenced5unrefEv@Base 5.2.0
 (optional=templinst)_ZNK25ossimFactoryListInterfaceI26ossimProjectionFactoryBase15ossimProjectionE30createNativeObjectFromRegistryERK11ossimString@Base 5.2.0
 _ZNK3itk10DataObject16GetPipelineMTimeEv@Base 5.2.0
 _ZNK3itk10DataObject16GetRealTimeStampEv@Base 5.2.0
 _ZNK3itk10DataObject18GetReleaseDataFlagEv@Base 5.2.0
 _ZNK3itk11LightObject17GetReferenceCountEv@Base 5.2.0
 _ZNK3itk6Object13GetObjectNameB5cxx11Ev@Base 5.2.0
 _ZNK3itk6Object13GetObjectNameEv@Base 5.2.0
 _ZNK3otb10DEMHandler11GetDEMCountEv@Base 5.2.0
 _ZNK3otb10DEMHandler12GetGeoidFileB5cxx11Ev@Base 5.2.0
 _ZNK3otb10DEMHandler12GetGeoidFileEv@Base 5.2.0
 _ZNK3otb10DEMHandler14GetNameOfClassEv@Base 5.2.0
 _ZNK3otb10DEMHandler15GetDEMDirectoryB5cxx11Ej@Base 5.2.0
 _ZNK3otb10DEMHandler15GetDEMDirectoryEj@Base 5.2.0
 _ZNK3otb10DEMHandler17GetHeightAboveMSLERKN3itk5PointIdLj2EEE@Base 5.2.0
 _ZNK3otb10DEMHandler17GetHeightAboveMSLEdd@Base 5.2.0
 _ZNK3otb10DEMHandler23GetHeightAboveEllipsoidERKN3itk5PointIdLj2EEE@Base 5.2.0
 _ZNK3otb10DEMHandler23GetHeightAboveEllipsoidEdd@Base 5.2.0
 _ZNK3otb10DEMHandler30GetDefaultHeightAboveEllipsoidEv@Base 5.2.0
 _ZNK3otb10DEMHandler9PrintSelfERSoN3itk6IndentE@Base 5.2.0
 _ZNK3otb15DateTimeAdapter10GetSecondsEv@Base 5.2.0
 _ZNK3otb15DateTimeAdapter13CreateAnotherEv@Base 5.2.0
 _ZNK3otb15DateTimeAdapter14GetNameOfClassEv@Base 5.2.0
 _ZNK3otb16EllipsoidAdapter13CreateAnotherEv@Base 5.2.0
 _ZNK3otb16EllipsoidAdapter14GetNameOfClassEv@Base 5.2.0
 _ZNK3otb16EllipsoidAdapter17LonLatHeightToXYZEdddRdS1_S1_@Base 5.2.0
 _ZNK3otb16EllipsoidAdapter17XYZToLonLatHeightEdddRdS1_S1_@Base 5.2.0
 _ZNK3otb16ImageKeywordlist16GetMetadataByKeyERKNSt7__cxx1112basic_stringIcSt11char_traitsIcESaIcEEE@Base 5.2.0
 _ZNK3otb16ImageKeywordlist16GetMetadataByKeyERKSs@Base 5.2.0
 _ZNK3otb16ImageKeywordlist16convertToGDALRPCER11GDALRPCInfo@Base 5.2.0
 _ZNK3otb16ImageKeywordlist25convertToOSSIMKeywordlistER16ossimKeywordlist@Base 5.2.0
 _ZNK3otb16ImageKeywordlist5PrintERSoN3itk6IndentE@Base 5.2.0
 _ZNK3otb16ImageKeywordlist6HasKeyERKNSt7__cxx1112basic_stringIcSt11char_traitsIcESaIcEEE@Base 5.2.0
 _ZNK3otb16ImageKeywordlist6HasKeyERKSs@Base 5.2.0
 _ZNK3otb16ImageKeywordlist9PrintSelfERSoN3itk6IndentE@Base 5.2.0
 _ZNK3otb16ImageKeywordlisteqERKS0_@Base 5.2.0
 _ZNK3otb17DEMConvertAdapter13CreateAnotherEv@Base 5.2.0
 _ZNK3otb17DEMConvertAdapter14GetNameOfClassEv@Base 5.2.0
 _ZNK3otb18SensorModelAdapter13CreateAnotherEv@Base 5.2.0
 _ZNK3otb18SensorModelAdapter14GetNameOfClassEv@Base 5.2.0
 _ZNK3otb18SensorModelAdapter21ForwardTransformPointEddRdS1_S1_@Base 5.2.0
 _ZNK3otb18SensorModelAdapter21ForwardTransformPointEdddRdS1_S1_@Base 5.2.0
 _ZNK3otb18SensorModelAdapter21InverseTransformPointEddRdS1_S1_@Base 5.2.0
 _ZNK3otb18SensorModelAdapter21InverseTransformPointEdddRdS1_S1_@Base 5.2.0
 _ZNK3otb20FilterFunctionValues13CreateAnotherEv@Base 5.2.0
 _ZNK3otb20FilterFunctionValues14GetNameOfClassEv@Base 5.2.0
 _ZNK3otb20FilterFunctionValues22GetCenterSpectralValueEv@Base 5.2.0
 _ZNK3otb20FilterFunctionValues9PrintSelfERSoN3itk6IndentE@Base 5.2.0
 _ZNK3otb20MapProjectionAdapter12GetParameterERKNSt7__cxx1112basic_stringIcSt11char_traitsIcESaIcEEE@Base 5.2.0
 _ZNK3otb20MapProjectionAdapter12GetParameterERKSs@Base 5.2.0
 _ZNK3otb20MapProjectionAdapter13CreateAnotherEv@Base 5.2.0
 _ZNK3otb20MapProjectionAdapter14GetNameOfClassEv@Base 5.2.0
 _ZNK3otb20MapProjectionAdapter16GetMapProjectionEv@Base 5.2.0
 _ZNK3otb20MapProjectionAdapter6GetWktB5cxx11Ev@Base 5.2.0
 _ZNK3otb20MapProjectionAdapter6GetWktEv@Base 5.2.0
 _ZNK3otb20MapProjectionAdapter8PrintMapEv@Base 5.2.0
 _ZNK3otb23PlatformPositionAdapter13CreateAnotherEv@Base 5.2.0
 _ZNK3otb23PlatformPositionAdapter14GetNameOfClassEv@Base 5.2.0
 _ZNK3otb30GeometricSarSensorModelAdapter13CreateAnotherEv@Base 5.2.0
 _ZNK3otb30GeometricSarSensorModelAdapter14GetNameOfClassEv@Base 5.2.0
 _ZNK3otb7OTB_GCP5PrintERSo@Base 5.2.0
 (optional=templinst)_ZNKSt5ctypeIcE8do_widenEc@Base 5.2.0
 (optional=templinst|arch=i386)_ZNKSt8_Rb_treeINSt7__cxx1112basic_stringIcSt11char_traitsIcESaIcEEESt4pairIKS5_S5_ESt10_Select1stIS8_ESt4lessIS5_ESaIS8_EE4findERS7_@Base 5.2.0
 (optional=templinst)_ZNKSt8_Rb_treeISsSt4pairIKSsSsESt10_Select1stIS2_ESt4lessISsESaIS2_EE4findERS1_@Base 5.2.0
 (optional=templinst)_ZNSt15basic_stringbufIcSt11char_traitsIcESaIcEED0Ev@Base 5.2.0
 (optional=templinst)_ZNSt15basic_stringbufIcSt11char_traitsIcESaIcEED1Ev@Base 5.2.0
 (optional=templinst)_ZNSt15basic_stringbufIcSt11char_traitsIcESaIcEED2Ev@Base 5.2.0
 (optional=templinst)_ZNSt4pairIKNSt7__cxx1112basic_stringIcSt11char_traitsIcESaIcEEES5_ED1Ev@Base 5.2.0
 (optional=templinst)_ZNSt4pairIKNSt7__cxx1112basic_stringIcSt11char_traitsIcESaIcEEES5_ED2Ev@Base 5.2.0
 (optional=templinst)_ZNSt4pairIKSsSsED1Ev@Base 5.2.0
 (optional=templinst)_ZNSt4pairIKSsSsED2Ev@Base 5.2.0
 (optional=templinst)_ZNSt6vectorI11ossimRefPtrI11ossimTieGptESaIS2_EED1Ev@Base 5.2.0
 (optional=templinst)_ZNSt6vectorI11ossimRefPtrI11ossimTieGptESaIS2_EED2Ev@Base 5.2.0
 (optional=templinst)_ZNSt6vectorI8ossimDptSaIS0_EE13_M_insert_auxEN9__gnu_cxx17__normal_iteratorIPS0_S2_EERKS0_@Base 5.2.0
 (optional=templinst)_ZNSt6vectorI8ossimGptSaIS0_EE13_M_insert_auxEN9__gnu_cxx17__normal_iteratorIPS0_S2_EERKS0_@Base 5.2.0
 (optional=templinst)_ZNSt6vectorIP26ossimProjectionFactoryBaseSaIS1_EE13_M_insert_auxEN9__gnu_cxx17__normal_iteratorIPS1_S3_EERKS1_@Base 5.2.0
 (optional=templinst)_ZNSt6vectorIdSaIdEE13_M_insert_auxEN9__gnu_cxx17__normal_iteratorIPdS1_EERKd@Base 5.2.0
 (optional=templinst)_ZNSt7__cxx1115basic_stringbufIcSt11char_traitsIcESaIcEED0Ev@Base 5.2.0
 (optional=templinst)_ZNSt7__cxx1115basic_stringbufIcSt11char_traitsIcESaIcEED1Ev@Base 5.2.0
 (optional=templinst)_ZNSt7__cxx1115basic_stringbufIcSt11char_traitsIcESaIcEED2Ev@Base 5.2.0
 (optional=templinst)_ZNSt8_Rb_treeINSt7__cxx1112basic_stringIcSt11char_traitsIcESaIcEEESt4pairIKS5_S5_ESt10_Select1stIS8_ESt4lessIS5_ESaIS8_EE24_M_get_insert_unique_posERS7_@Base 5.2.0
 (optional=templinst)_ZNSt8_Rb_treeINSt7__cxx1112basic_stringIcSt11char_traitsIcESaIcEEESt4pairIKS5_S5_ESt10_Select1stIS8_ESt4lessIS5_ESaIS8_EE29_M_get_insert_hint_unique_posESt23_Rb_tree_const_iteratorIS8_ERS7_@Base 5.2.0
 (optional=templinst)_ZNSt8_Rb_treeINSt7__cxx1112basic_stringIcSt11char_traitsIcESaIcEEESt4pairIKS5_S5_ESt10_Select1stIS8_ESt4lessIS5_ESaIS8_EE4findERS7_@Base 5.2.0
 (optional=templinst)_ZNSt8_Rb_treeINSt7__cxx1112basic_stringIcSt11char_traitsIcESaIcEEESt4pairIKS5_S5_ESt10_Select1stIS8_ESt4lessIS5_ESaIS8_EE7_M_copyINSE_11_Alloc_nodeEEEPSt13_Rb_tree_nodeIS8_EPKSI_SJ_RT_@Base 5.2.0
 (optional=templinst)_ZNSt8_Rb_treeINSt7__cxx1112basic_stringIcSt11char_traitsIcESaIcEEESt4pairIKS5_S5_ESt10_Select1stIS8_ESt4lessIS5_ESaIS8_EE7_M_copyINSE_20_Reuse_or_alloc_nodeEEEPSt13_Rb_tree_nodeIS8_EPKSI_SJ_RT_@Base 5.2.0
 (optional=templinst)_ZNSt8_Rb_treeINSt7__cxx1112basic_stringIcSt11char_traitsIcESaIcEEESt4pairIKS5_S5_ESt10_Select1stIS8_ESt4lessIS5_ESaIS8_EE8_M_eraseEPSt13_Rb_tree_nodeIS8_E@Base 5.2.0
 (optional=templinst)_ZNSt8_Rb_treeINSt7__cxx1112basic_stringIcSt11char_traitsIcESaIcEEESt4pairIKS5_S5_ESt10_Select1stIS8_ESt4lessIS5_ESaIS8_EEaSERKSE_@Base 5.2.0
 (optional=templinst)_ZNSt8_Rb_treeISsSt4pairIKSsSsESt10_Select1stIS2_ESt4lessISsESaIS2_EE17_M_insert_unique_ESt23_Rb_tree_const_iteratorIS2_ERKS2_@Base 5.2.0
 (optional=templinst)_ZNSt8_Rb_treeISsSt4pairIKSsSsESt10_Select1stIS2_ESt4lessISsESaIS2_EE24_M_get_insert_unique_posERS1_@Base 5.2.0
 (optional=templinst)_ZNSt8_Rb_treeISsSt4pairIKSsSsESt10_Select1stIS2_ESt4lessISsESaIS2_EE29_M_get_insert_hint_unique_posESt23_Rb_tree_const_iteratorIS2_ERS1_@Base 5.2.0
 (optional=templinst)_ZNSt8_Rb_treeISsSt4pairIKSsSsESt10_Select1stIS2_ESt4lessISsESaIS2_EE4findERS1_@Base 5.2.0
 (optional=templinst)_ZNSt8_Rb_treeISsSt4pairIKSsSsESt10_Select1stIS2_ESt4lessISsESaIS2_EE7_M_copyEPKSt13_Rb_tree_nodeIS2_EPSA_@Base 5.2.0
 (optional=templinst)_ZNSt8_Rb_treeISsSt4pairIKSsSsESt10_Select1stIS2_ESt4lessISsESaIS2_EE8_M_eraseEPSt13_Rb_tree_nodeIS2_E@Base 5.2.0
 _ZTI11ossimTieGpt@Base 5.2.0
 _ZTI14ossimEllipsoid@Base 5.2.0
 _ZTI15ossimProjection@Base 5.2.0
 _ZTI8ossimGpt@Base 5.2.0
 _ZTIN3otb10DEMHandlerE@Base 5.2.0
 _ZTIN3otb15DateTimeAdapterE@Base 5.2.0
 _ZTIN3otb16EllipsoidAdapterE@Base 5.2.0
 _ZTIN3otb16ImageKeywordlistE@Base 5.2.0
 _ZTIN3otb16RPCSolverAdapterE@Base 5.2.0
 _ZTIN3otb17DEMConvertAdapterE@Base 5.2.0
 _ZTIN3otb18SensorModelAdapterE@Base 5.2.0
 _ZTIN3otb20FilterFunctionValuesE@Base 5.2.0
 _ZTIN3otb20MapProjectionAdapterE@Base 5.2.0
 _ZTIN3otb23PlatformPositionAdapterE@Base 5.2.0
 _ZTIN3otb30GeometricSarSensorModelAdapterE@Base 5.2.0
 _ZTS11ossimTieGpt@Base 5.2.0
 _ZTS14ossimEllipsoid@Base 5.2.0
 _ZTS15ossimProjection@Base 5.2.0
 _ZTS8ossimGpt@Base 5.2.0
 _ZTSN3otb10DEMHandlerE@Base 5.2.0
 _ZTSN3otb15DateTimeAdapterE@Base 5.2.0
 _ZTSN3otb16EllipsoidAdapterE@Base 5.2.0
 _ZTSN3otb16ImageKeywordlistE@Base 5.2.0
 _ZTSN3otb16RPCSolverAdapterE@Base 5.2.0
 _ZTSN3otb17DEMConvertAdapterE@Base 5.2.0
 _ZTSN3otb18SensorModelAdapterE@Base 5.2.0
 _ZTSN3otb20FilterFunctionValuesE@Base 5.2.0
 _ZTSN3otb20MapProjectionAdapterE@Base 5.2.0
 _ZTSN3otb23PlatformPositionAdapterE@Base 5.2.0
 _ZTSN3otb30GeometricSarSensorModelAdapterE@Base 5.2.0
 _ZTV11ossimTieGpt@Base 5.2.0
 _ZTV14ossimEllipsoid@Base 5.2.0
 _ZTV15ossimProjection@Base 5.2.0
 _ZTVN3otb10DEMHandlerE@Base 5.2.0
 _ZTVN3otb15DateTimeAdapterE@Base 5.2.0
 _ZTVN3otb16EllipsoidAdapterE@Base 5.2.0
 _ZTVN3otb16ImageKeywordlistE@Base 5.2.0
 _ZTVN3otb16RPCSolverAdapterE@Base 5.2.0
 _ZTVN3otb17DEMConvertAdapterE@Base 5.2.0
 _ZTVN3otb18SensorModelAdapterE@Base 5.2.0
 _ZTVN3otb20FilterFunctionValuesE@Base 5.2.0
 _ZTVN3otb20MapProjectionAdapterE@Base 5.2.0
 _ZTVN3otb23PlatformPositionAdapterE@Base 5.2.0
 _ZTVN3otb30GeometricSarSensorModelAdapterE@Base 5.2.0
 (c++)"non-virtual thunk to ossimProjection::RTTI_vinfo() const@Base" 5.2.0
