# SymbolsHelper-Confirmed: 5.0.0 amd64
libOTBStreaming-5.0.so.1 libotbstreaming-5.0-1 #MINVER#
 _ZN3itk10DataObject41SetRequestedRegionToLargestPossibleRegionEv@Base 5.0.0
 _ZN3itk6Object13SetObjectNameESs@Base 5.0.0
 _ZN3otb29PipelineMemoryPrintCalculator14ByteToMegabyteE@Base 5.0.0
 _ZN3otb29PipelineMemoryPrintCalculator14GetMemoryPrintEv@Base 5.0.0
 _ZN3otb29PipelineMemoryPrintCalculator14MegabyteToByteE@Base 5.0.0
 _ZN3otb29PipelineMemoryPrintCalculator14SetDataToWriteEPN3itk10DataObjectE@Base 5.0.0
 _ZN3otb29PipelineMemoryPrintCalculator23GetBiasCorrectionFactorEv@Base 5.0.0
 _ZN3otb29PipelineMemoryPrintCalculator23SetBiasCorrectionFactorEd@Base 5.0.0
 _ZN3otb29PipelineMemoryPrintCalculator35EvaluateProcessObjectPrintRecursiveEPN3itk13ProcessObjectE@Base 5.0.0
 _ZN3otb29PipelineMemoryPrintCalculator38EstimateOptimalNumberOfStreamDivisionsEmm@Base 5.0.0
 _ZN3otb29PipelineMemoryPrintCalculator7ComputeEv@Base 5.0.0
 _ZN3otb29PipelineMemoryPrintCalculatorC1Ev@Base 5.0.0
 _ZN3otb29PipelineMemoryPrintCalculatorC2Ev@Base 5.0.0
 _ZN3otb29PipelineMemoryPrintCalculatorD0Ev@Base 5.0.0
 _ZN3otb29PipelineMemoryPrintCalculatorD1Ev@Base 5.0.0
 _ZN3otb29PipelineMemoryPrintCalculatorD2Ev@Base 5.0.0
 _ZNK3itk11LightObject17GetReferenceCountEv@Base 5.0.0
 (optional=templinst)_ZNK3itk11VectorImageIcLj2EE29GetNumberOfComponentsPerPixelEv@Base 5.0.0
 (optional=templinst)_ZNK3itk11VectorImageIhLj2EE29GetNumberOfComponentsPerPixelEv@Base 5.0.0
 (optional=templinst)_ZNK3itk11VectorImageItLj2EE29GetNumberOfComponentsPerPixelEv@Base 5.0.0
 (optional=templinst)_ZNK3itk5ImageIcLj2EE29GetNumberOfComponentsPerPixelEv@Base 5.0.0
 (optional=templinst)_ZNK3itk5ImageIhLj2EE29GetNumberOfComponentsPerPixelEv@Base 5.0.0
 (optional=templinst)_ZNK3itk5ImageItLj2EE29GetNumberOfComponentsPerPixelEv@Base 5.0.0
 _ZNK3itk6Object13GetObjectNameEv@Base 5.0.0
 (optional=templinst)_ZNK3itk9ImageBaseILj2EE18GetRequestedRegionEv@Base 5.0.0
 _ZNK3otb29PipelineMemoryPrintCalculator13CreateAnotherEv@Base 5.0.0
 _ZNK3otb29PipelineMemoryPrintCalculator14GetNameOfClassEv@Base 5.0.0
 _ZNK3otb29PipelineMemoryPrintCalculator23EvaluateDataObjectPrintEPN3itk10DataObjectE@Base 5.0.0
 _ZNK3otb29PipelineMemoryPrintCalculator9PrintSelfERSoN3itk6IndentE@Base 5.0.0
 (optional=templinst)_ZNKSt5ctypeIcE8do_widenEc@Base 5.0.0
 (optional=templinst)_ZNSt6vectorIN3itk12SmartPointerINS0_10DataObjectEEESaIS3_EED1Ev@Base 5.0.0
 (optional=templinst)_ZNSt6vectorIN3itk12SmartPointerINS0_10DataObjectEEESaIS3_EED2Ev@Base 5.0.0
 (optional=templinst)_ZNSt8_Rb_treeIPKN3itk13ProcessObjectES3_St9_IdentityIS3_ESt4lessIS3_ESaIS3_EE16_M_insert_uniqueERKS3_@Base 5.0.0
 (optional=templinst)_ZNSt8_Rb_treeIPKN3itk13ProcessObjectES3_St9_IdentityIS3_ESt4lessIS3_ESaIS3_EE8_M_eraseEPSt13_Rb_tree_nodeIS3_E@Base 5.0.0
 _ZTIN3itk11VectorImageINS_10FixedArrayIfLj2EEELj2EEE@Base 5.0.0
 _ZTIN3itk11VectorImageISt7complexIdELj2EEE@Base 5.0.0
 _ZTIN3itk11VectorImageISt7complexIfELj2EEE@Base 5.0.0
 _ZTIN3itk11VectorImageIcLj2EEE@Base 5.0.0
 _ZTIN3itk11VectorImageIdLj2EEE@Base 5.0.0
 _ZTIN3itk11VectorImageIfLj2EEE@Base 5.0.0
 _ZTIN3itk11VectorImageIhLj2EEE@Base 5.0.0
 _ZTIN3itk11VectorImageIiLj2EEE@Base 5.0.0
 _ZTIN3itk11VectorImageIjLj2EEE@Base 5.0.0
 _ZTIN3itk11VectorImageIlLj2EEE@Base 5.0.0
 _ZTIN3itk11VectorImageImLj2EEE@Base 5.0.0
 _ZTIN3itk11VectorImageIsLj2EEE@Base 5.0.0
 _ZTIN3itk11VectorImageItLj2EEE@Base 5.0.0
 _ZTIN3itk5ImageINS_10FixedArrayIfLj2EEELj2EEE@Base 5.0.0
 _ZTIN3itk5ImageISt7complexIdELj2EEE@Base 5.0.0
 _ZTIN3itk5ImageISt7complexIfELj2EEE@Base 5.0.0
 _ZTIN3itk5ImageIcLj2EEE@Base 5.0.0
 _ZTIN3itk5ImageIdLj2EEE@Base 5.0.0
 _ZTIN3itk5ImageIfLj2EEE@Base 5.0.0
 _ZTIN3itk5ImageIhLj2EEE@Base 5.0.0
 _ZTIN3itk5ImageIiLj2EEE@Base 5.0.0
 _ZTIN3itk5ImageIjLj2EEE@Base 5.0.0
 _ZTIN3itk5ImageIlLj2EEE@Base 5.0.0
 _ZTIN3itk5ImageImLj2EEE@Base 5.0.0
 _ZTIN3itk5ImageIsLj2EEE@Base 5.0.0
 _ZTIN3itk5ImageItLj2EEE@Base 5.0.0
 _ZTIN3itk9ImageBaseILj2EEE@Base 5.0.0
 _ZTIN3otb10ObjectListINS_11VectorImageIN3itk10FixedArrayIfLj2EEELj2EEEEE@Base 5.0.0
 _ZTIN3otb10ObjectListINS_11VectorImageISt7complexIdELj2EEEEE@Base 5.0.0
 _ZTIN3otb10ObjectListINS_11VectorImageISt7complexIfELj2EEEEE@Base 5.0.0
 _ZTIN3otb10ObjectListINS_11VectorImageIcLj2EEEEE@Base 5.0.0
 _ZTIN3otb10ObjectListINS_11VectorImageIdLj2EEEEE@Base 5.0.0
 _ZTIN3otb10ObjectListINS_11VectorImageIfLj2EEEEE@Base 5.0.0
 _ZTIN3otb10ObjectListINS_11VectorImageIhLj2EEEEE@Base 5.0.0
 _ZTIN3otb10ObjectListINS_11VectorImageIiLj2EEEEE@Base 5.0.0
 _ZTIN3otb10ObjectListINS_11VectorImageIjLj2EEEEE@Base 5.0.0
 _ZTIN3otb10ObjectListINS_11VectorImageIlLj2EEEEE@Base 5.0.0
 _ZTIN3otb10ObjectListINS_11VectorImageImLj2EEEEE@Base 5.0.0
 _ZTIN3otb10ObjectListINS_11VectorImageIsLj2EEEEE@Base 5.0.0
 _ZTIN3otb10ObjectListINS_11VectorImageItLj2EEEEE@Base 5.0.0
 _ZTIN3otb10ObjectListINS_5ImageIN3itk10FixedArrayIfLj2EEELj2EEEEE@Base 5.0.0
 _ZTIN3otb10ObjectListINS_5ImageISt7complexIdELj2EEEEE@Base 5.0.0
 _ZTIN3otb10ObjectListINS_5ImageISt7complexIfELj2EEEEE@Base 5.0.0
 _ZTIN3otb10ObjectListINS_5ImageIcLj2EEEEE@Base 5.0.0
 _ZTIN3otb10ObjectListINS_5ImageIdLj2EEEEE@Base 5.0.0
 _ZTIN3otb10ObjectListINS_5ImageIfLj2EEEEE@Base 5.0.0
 _ZTIN3otb10ObjectListINS_5ImageIhLj2EEEEE@Base 5.0.0
 _ZTIN3otb10ObjectListINS_5ImageIiLj2EEEEE@Base 5.0.0
 _ZTIN3otb10ObjectListINS_5ImageIjLj2EEEEE@Base 5.0.0
 _ZTIN3otb10ObjectListINS_5ImageIlLj2EEEEE@Base 5.0.0
 _ZTIN3otb10ObjectListINS_5ImageImLj2EEEEE@Base 5.0.0
 _ZTIN3otb10ObjectListINS_5ImageIsLj2EEEEE@Base 5.0.0
 _ZTIN3otb10ObjectListINS_5ImageItLj2EEEEE@Base 5.0.0
 _ZTIN3otb29PipelineMemoryPrintCalculatorE@Base 5.0.0
 _ZTIN3otb9ImageListINS_11VectorImageIN3itk10FixedArrayIfLj2EEELj2EEEEE@Base 5.0.0
 _ZTIN3otb9ImageListINS_11VectorImageISt7complexIdELj2EEEEE@Base 5.0.0
 _ZTIN3otb9ImageListINS_11VectorImageISt7complexIfELj2EEEEE@Base 5.0.0
 _ZTIN3otb9ImageListINS_11VectorImageIcLj2EEEEE@Base 5.0.0
 _ZTIN3otb9ImageListINS_11VectorImageIdLj2EEEEE@Base 5.0.0
 _ZTIN3otb9ImageListINS_11VectorImageIfLj2EEEEE@Base 5.0.0
 _ZTIN3otb9ImageListINS_11VectorImageIhLj2EEEEE@Base 5.0.0
 _ZTIN3otb9ImageListINS_11VectorImageIiLj2EEEEE@Base 5.0.0
 _ZTIN3otb9ImageListINS_11VectorImageIjLj2EEEEE@Base 5.0.0
 _ZTIN3otb9ImageListINS_11VectorImageIlLj2EEEEE@Base 5.0.0
 _ZTIN3otb9ImageListINS_11VectorImageImLj2EEEEE@Base 5.0.0
 _ZTIN3otb9ImageListINS_11VectorImageIsLj2EEEEE@Base 5.0.0
 _ZTIN3otb9ImageListINS_11VectorImageItLj2EEEEE@Base 5.0.0
 _ZTIN3otb9ImageListINS_5ImageIN3itk10FixedArrayIfLj2EEELj2EEEEE@Base 5.0.0
 _ZTIN3otb9ImageListINS_5ImageISt7complexIdELj2EEEEE@Base 5.0.0
 _ZTIN3otb9ImageListINS_5ImageISt7complexIfELj2EEEEE@Base 5.0.0
 _ZTIN3otb9ImageListINS_5ImageIcLj2EEEEE@Base 5.0.0
 _ZTIN3otb9ImageListINS_5ImageIdLj2EEEEE@Base 5.0.0
 _ZTIN3otb9ImageListINS_5ImageIfLj2EEEEE@Base 5.0.0
 _ZTIN3otb9ImageListINS_5ImageIhLj2EEEEE@Base 5.0.0
 _ZTIN3otb9ImageListINS_5ImageIiLj2EEEEE@Base 5.0.0
 _ZTIN3otb9ImageListINS_5ImageIjLj2EEEEE@Base 5.0.0
 _ZTIN3otb9ImageListINS_5ImageIlLj2EEEEE@Base 5.0.0
 _ZTIN3otb9ImageListINS_5ImageImLj2EEEEE@Base 5.0.0
 _ZTIN3otb9ImageListINS_5ImageIsLj2EEEEE@Base 5.0.0
 _ZTIN3otb9ImageListINS_5ImageItLj2EEEEE@Base 5.0.0
 _ZTSN3itk11VectorImageINS_10FixedArrayIfLj2EEELj2EEE@Base 5.0.0
 _ZTSN3itk11VectorImageISt7complexIdELj2EEE@Base 5.0.0
 _ZTSN3itk11VectorImageISt7complexIfELj2EEE@Base 5.0.0
 _ZTSN3itk11VectorImageIcLj2EEE@Base 5.0.0
 _ZTSN3itk11VectorImageIdLj2EEE@Base 5.0.0
 _ZTSN3itk11VectorImageIfLj2EEE@Base 5.0.0
 _ZTSN3itk11VectorImageIhLj2EEE@Base 5.0.0
 _ZTSN3itk11VectorImageIiLj2EEE@Base 5.0.0
 _ZTSN3itk11VectorImageIjLj2EEE@Base 5.0.0
 _ZTSN3itk11VectorImageIlLj2EEE@Base 5.0.0
 _ZTSN3itk11VectorImageImLj2EEE@Base 5.0.0
 _ZTSN3itk11VectorImageIsLj2EEE@Base 5.0.0
 _ZTSN3itk11VectorImageItLj2EEE@Base 5.0.0
 _ZTSN3itk5ImageINS_10FixedArrayIfLj2EEELj2EEE@Base 5.0.0
 _ZTSN3itk5ImageISt7complexIdELj2EEE@Base 5.0.0
 _ZTSN3itk5ImageISt7complexIfELj2EEE@Base 5.0.0
 _ZTSN3itk5ImageIcLj2EEE@Base 5.0.0
 _ZTSN3itk5ImageIdLj2EEE@Base 5.0.0
 _ZTSN3itk5ImageIfLj2EEE@Base 5.0.0
 _ZTSN3itk5ImageIhLj2EEE@Base 5.0.0
 _ZTSN3itk5ImageIiLj2EEE@Base 5.0.0
 _ZTSN3itk5ImageIjLj2EEE@Base 5.0.0
 _ZTSN3itk5ImageIlLj2EEE@Base 5.0.0
 _ZTSN3itk5ImageImLj2EEE@Base 5.0.0
 _ZTSN3itk5ImageIsLj2EEE@Base 5.0.0
 _ZTSN3itk5ImageItLj2EEE@Base 5.0.0
 _ZTSN3itk9ImageBaseILj2EEE@Base 5.0.0
 _ZTSN3otb10ObjectListINS_11VectorImageIN3itk10FixedArrayIfLj2EEELj2EEEEE@Base 5.0.0
 _ZTSN3otb10ObjectListINS_11VectorImageISt7complexIdELj2EEEEE@Base 5.0.0
 _ZTSN3otb10ObjectListINS_11VectorImageISt7complexIfELj2EEEEE@Base 5.0.0
 _ZTSN3otb10ObjectListINS_11VectorImageIcLj2EEEEE@Base 5.0.0
 _ZTSN3otb10ObjectListINS_11VectorImageIdLj2EEEEE@Base 5.0.0
 _ZTSN3otb10ObjectListINS_11VectorImageIfLj2EEEEE@Base 5.0.0
 _ZTSN3otb10ObjectListINS_11VectorImageIhLj2EEEEE@Base 5.0.0
 _ZTSN3otb10ObjectListINS_11VectorImageIiLj2EEEEE@Base 5.0.0
 _ZTSN3otb10ObjectListINS_11VectorImageIjLj2EEEEE@Base 5.0.0
 _ZTSN3otb10ObjectListINS_11VectorImageIlLj2EEEEE@Base 5.0.0
 _ZTSN3otb10ObjectListINS_11VectorImageImLj2EEEEE@Base 5.0.0
 _ZTSN3otb10ObjectListINS_11VectorImageIsLj2EEEEE@Base 5.0.0
 _ZTSN3otb10ObjectListINS_11VectorImageItLj2EEEEE@Base 5.0.0
 _ZTSN3otb10ObjectListINS_5ImageIN3itk10FixedArrayIfLj2EEELj2EEEEE@Base 5.0.0
 _ZTSN3otb10ObjectListINS_5ImageISt7complexIdELj2EEEEE@Base 5.0.0
 _ZTSN3otb10ObjectListINS_5ImageISt7complexIfELj2EEEEE@Base 5.0.0
 _ZTSN3otb10ObjectListINS_5ImageIcLj2EEEEE@Base 5.0.0
 _ZTSN3otb10ObjectListINS_5ImageIdLj2EEEEE@Base 5.0.0
 _ZTSN3otb10ObjectListINS_5ImageIfLj2EEEEE@Base 5.0.0
 _ZTSN3otb10ObjectListINS_5ImageIhLj2EEEEE@Base 5.0.0
 _ZTSN3otb10ObjectListINS_5ImageIiLj2EEEEE@Base 5.0.0
 _ZTSN3otb10ObjectListINS_5ImageIjLj2EEEEE@Base 5.0.0
 _ZTSN3otb10ObjectListINS_5ImageIlLj2EEEEE@Base 5.0.0
 _ZTSN3otb10ObjectListINS_5ImageImLj2EEEEE@Base 5.0.0
 _ZTSN3otb10ObjectListINS_5ImageIsLj2EEEEE@Base 5.0.0
 _ZTSN3otb10ObjectListINS_5ImageItLj2EEEEE@Base 5.0.0
 _ZTSN3otb29PipelineMemoryPrintCalculatorE@Base 5.0.0
 _ZTSN3otb9ImageListINS_11VectorImageIN3itk10FixedArrayIfLj2EEELj2EEEEE@Base 5.0.0
 _ZTSN3otb9ImageListINS_11VectorImageISt7complexIdELj2EEEEE@Base 5.0.0
 _ZTSN3otb9ImageListINS_11VectorImageISt7complexIfELj2EEEEE@Base 5.0.0
 _ZTSN3otb9ImageListINS_11VectorImageIcLj2EEEEE@Base 5.0.0
 _ZTSN3otb9ImageListINS_11VectorImageIdLj2EEEEE@Base 5.0.0
 _ZTSN3otb9ImageListINS_11VectorImageIfLj2EEEEE@Base 5.0.0
 _ZTSN3otb9ImageListINS_11VectorImageIhLj2EEEEE@Base 5.0.0
 _ZTSN3otb9ImageListINS_11VectorImageIiLj2EEEEE@Base 5.0.0
 _ZTSN3otb9ImageListINS_11VectorImageIjLj2EEEEE@Base 5.0.0
 _ZTSN3otb9ImageListINS_11VectorImageIlLj2EEEEE@Base 5.0.0
 _ZTSN3otb9ImageListINS_11VectorImageImLj2EEEEE@Base 5.0.0
 _ZTSN3otb9ImageListINS_11VectorImageIsLj2EEEEE@Base 5.0.0
 _ZTSN3otb9ImageListINS_11VectorImageItLj2EEEEE@Base 5.0.0
 _ZTSN3otb9ImageListINS_5ImageIN3itk10FixedArrayIfLj2EEELj2EEEEE@Base 5.0.0
 _ZTSN3otb9ImageListINS_5ImageISt7complexIdELj2EEEEE@Base 5.0.0
 _ZTSN3otb9ImageListINS_5ImageISt7complexIfELj2EEEEE@Base 5.0.0
 _ZTSN3otb9ImageListINS_5ImageIcLj2EEEEE@Base 5.0.0
 _ZTSN3otb9ImageListINS_5ImageIdLj2EEEEE@Base 5.0.0
 _ZTSN3otb9ImageListINS_5ImageIfLj2EEEEE@Base 5.0.0
 _ZTSN3otb9ImageListINS_5ImageIhLj2EEEEE@Base 5.0.0
 _ZTSN3otb9ImageListINS_5ImageIiLj2EEEEE@Base 5.0.0
 _ZTSN3otb9ImageListINS_5ImageIjLj2EEEEE@Base 5.0.0
 _ZTSN3otb9ImageListINS_5ImageIlLj2EEEEE@Base 5.0.0
 _ZTSN3otb9ImageListINS_5ImageImLj2EEEEE@Base 5.0.0
 _ZTSN3otb9ImageListINS_5ImageIsLj2EEEEE@Base 5.0.0
 _ZTSN3otb9ImageListINS_5ImageItLj2EEEEE@Base 5.0.0
 _ZTVN3otb29PipelineMemoryPrintCalculatorE@Base 5.0.0
