# SymbolsHelper-Confirmed: 5.0.0 amd64
libOTBCarto-5.0.so.1 libotbcarto-5.0-1 #MINVER#
 _ZN13TiXmlDocumentD0Ev@Base 5.0.0
 _ZN13TiXmlDocumentD1Ev@Base 5.0.0
 _ZN13TiXmlDocumentD2Ev@Base 5.0.0
 _ZN3itk10DataObject15CopyInformationEPKS0_@Base 5.0.0
 _ZN3itk10DataObject16SetRealTimeStampENS_13RealTimeStampE@Base 5.0.0
 _ZN3itk10DataObject17PrepareForNewDataEv@Base 5.0.0
 _ZN3itk10DataObject17ReleaseDataFlagOnEv@Base 5.0.0
 _ZN3itk10DataObject18ReleaseDataFlagOffEv@Base 5.0.0
 _ZN3itk10DataObject18SetRequestedRegionEPKS0_@Base 5.0.0
 _ZN3itk10DataObject21VerifyRequestedRegionEv@Base 5.0.0
 _ZN3itk10DataObject41SetRequestedRegionToLargestPossibleRegionEv@Base 5.0.0
 _ZN3itk10DataObject43RequestedRegionIsOutsideOfTheBufferedRegionEv@Base 5.0.0
 _ZN3itk10DataObject5GraftEPKS0_@Base 5.0.0
 _ZN3itk10Statistics37MersenneTwisterRandomVariateGenerator10GetVariateEv@Base 5.0.0
 _ZN3itk10Statistics37MersenneTwisterRandomVariateGeneratorD0Ev@Base 5.0.0
 _ZN3itk10Statistics37MersenneTwisterRandomVariateGeneratorD1Ev@Base 5.0.0
 _ZN3itk10Statistics37MersenneTwisterRandomVariateGeneratorD2Ev@Base 5.0.0
 (optional=templinst)_ZN3itk12TreeAddEventINS_13TreeContainerINS_12SmartPointerIN3otb8DataNodeIdLj2EdEEEEEEED0Ev@Base 5.0.0
 (optional=templinst)_ZN3itk12TreeAddEventINS_13TreeContainerINS_12SmartPointerIN3otb8DataNodeIdLj2EdEEEEEEED1Ev@Base 5.0.0
 (optional=templinst)_ZN3itk12TreeAddEventINS_13TreeContainerINS_12SmartPointerIN3otb8DataNodeIdLj2EdEEEEEEED2Ev@Base 5.0.0
 _ZN3itk13ModifiedEventD0Ev@Base 5.0.0
 _ZN3itk13ModifiedEventD1Ev@Base 5.0.0
 _ZN3itk13ModifiedEventD2Ev@Base 5.0.0
 _ZN3itk13ProcessObject12GenerateDataEv@Base 5.0.0
 _ZN3itk13ProcessObject18SetNumberOfThreadsEj@Base 5.0.0
 _ZN3itk13ProcessObject19AbortGenerateDataOnEv@Base 5.0.0
 _ZN3itk13ProcessObject20AbortGenerateDataOffEv@Base 5.0.0
 _ZN3itk13ProcessObject20SetAbortGenerateDataEb@Base 5.0.0
 _ZN3itk13ProcessObject26SetNumberOfRequiredOutputsEm@Base 5.0.0
 _ZN3itk13ProcessObject28EnlargeOutputRequestedRegionEPNS_10DataObjectE@Base 5.0.0
 _ZN3itk13ProcessObject29ReleaseDataBeforeUpdateFlagOnEv@Base 5.0.0
 _ZN3itk13ProcessObject30ReleaseDataBeforeUpdateFlagOffEv@Base 5.0.0
 _ZN3itk13ProcessObject30SetReleaseDataBeforeUpdateFlagEb@Base 5.0.0
 (optional=templinst)_ZN3itk13TreeContainerINS_12SmartPointerIN3otb8DataNodeIdLj2EdEEEEE3AddES5_S5_@Base 5.0.0
 (optional=templinst)_ZN3itk13TreeContainerINS_12SmartPointerIN3otb8DataNodeIdLj2EdEEEEE3NewEv@Base 5.0.0
 (optional=templinst)_ZN3itk13TreeContainerINS_12SmartPointerIN3otb8DataNodeIdLj2EdEEEEE5ClearEv@Base 5.0.0
 (optional=templinst)_ZN3itk13TreeContainerINS_12SmartPointerIN3otb8DataNodeIdLj2EdEEEEE6IsLeafES5_@Base 5.0.0
 (optional=templinst)_ZN3itk13TreeContainerINS_12SmartPointerIN3otb8DataNodeIdLj2EdEEEEE6IsRootES5_@Base 5.0.0
 (optional=templinst)_ZN3itk13TreeContainerINS_12SmartPointerIN3otb8DataNodeIdLj2EdEEEEE7SetRootEPNS_8TreeNodeIS5_EE@Base 5.0.0
 (optional=templinst)_ZN3itk13TreeContainerINS_12SmartPointerIN3otb8DataNodeIdLj2EdEEEEE7SetRootES5_@Base 5.0.0
 (optional=templinst)_ZN3itk13TreeContainerINS_12SmartPointerIN3otb8DataNodeIdLj2EdEEEEE8ContainsES5_@Base 5.0.0
 (optional=templinst)_ZN3itk13TreeContainerINS_12SmartPointerIN3otb8DataNodeIdLj2EdEEEEED0Ev@Base 5.0.0
 (optional=templinst)_ZN3itk13TreeContainerINS_12SmartPointerIN3otb8DataNodeIdLj2EdEEEEED1Ev@Base 5.0.0
 (optional=templinst)_ZN3itk13TreeContainerINS_12SmartPointerIN3otb8DataNodeIdLj2EdEEEEED2Ev@Base 5.0.0
 (optional=templinst)_ZN3itk14MetaDataObjectIN3otb21VectorDataKeywordlistEED0Ev@Base 5.0.0
 (optional=templinst)_ZN3itk14MetaDataObjectIN3otb21VectorDataKeywordlistEED1Ev@Base 5.0.0
 (optional=templinst)_ZN3itk14MetaDataObjectIN3otb21VectorDataKeywordlistEED2Ev@Base 5.0.0
 (optional=templinst)_ZN3itk14ParametricPathILj2EE23SetDefaultInputStepSizeEd@Base 5.0.0
 (optional=templinst)_ZN3itk14TreePruneEventINS_13TreeContainerINS_12SmartPointerIN3otb8DataNodeIdLj2EdEEEEEEED0Ev@Base 5.0.0
 (optional=templinst)_ZN3itk14TreePruneEventINS_13TreeContainerINS_12SmartPointerIN3otb8DataNodeIdLj2EdEEEEEEED1Ev@Base 5.0.0
 (optional=templinst)_ZN3itk14TreePruneEventINS_13TreeContainerINS_12SmartPointerIN3otb8DataNodeIdLj2EdEEEEEEED2Ev@Base 5.0.0
 (optional=templinst)_ZN3itk15TreeChangeEventINS_13TreeContainerINS_12SmartPointerIN3otb8DataNodeIdLj2EdEEEEEEED0Ev@Base 5.0.0
 (optional=templinst)_ZN3itk15TreeChangeEventINS_13TreeContainerINS_12SmartPointerIN3otb8DataNodeIdLj2EdEEEEEEED1Ev@Base 5.0.0
 (optional=templinst)_ZN3itk15TreeChangeEventINS_13TreeContainerINS_12SmartPointerIN3otb8DataNodeIdLj2EdEEEEEEED2Ev@Base 5.0.0
 (optional=templinst)_ZN3itk15TreeRemoveEventINS_13TreeContainerINS_12SmartPointerIN3otb8DataNodeIdLj2EdEEEEEEED0Ev@Base 5.0.0
 (optional=templinst)_ZN3itk15TreeRemoveEventINS_13TreeContainerINS_12SmartPointerIN3otb8DataNodeIdLj2EdEEEEEEED1Ev@Base 5.0.0
 (optional=templinst)_ZN3itk15TreeRemoveEventINS_13TreeContainerINS_12SmartPointerIN3otb8DataNodeIdLj2EdEEEEEEED2Ev@Base 5.0.0
 (optional=templinst)_ZN3itk15VectorContainerIjNS_15ContinuousIndexIdLj2EEEED0Ev@Base 5.0.0
 (optional=templinst)_ZN3itk15VectorContainerIjNS_15ContinuousIndexIdLj2EEEED1Ev@Base 5.0.0
 (optional=templinst)_ZN3itk15VectorContainerIjNS_15ContinuousIndexIdLj2EEEED2Ev@Base 5.0.0
 (optional=templinst)_ZN3itk16TreeIteratorBaseINS_13TreeContainerINS_12SmartPointerIN3otb8DataNodeIdLj2EdEEEEEEE10DisconnectEv@Base 5.0.0
 (optional=templinst)_ZN3itk16TreeIteratorBaseINS_13TreeContainerINS_12SmartPointerIN3otb8DataNodeIdLj2EdEEEEEEE10GoToParentEv@Base 5.0.0
 (optional=templinst)_ZN3itk16TreeIteratorBaseINS_13TreeContainerINS_12SmartPointerIN3otb8DataNodeIdLj2EdEEEEEEE11RemoveChildEi@Base 5.0.0
 (optional=templinst)_ZN3itk16TreeIteratorBaseINS_13TreeContainerINS_12SmartPointerIN3otb8DataNodeIdLj2EdEEEEEEE3AddERS7_@Base 5.0.0
 (optional=templinst)_ZN3itk16TreeIteratorBaseINS_13TreeContainerINS_12SmartPointerIN3otb8DataNodeIdLj2EdEEEEEEE3AddES6_@Base 5.0.0
 (optional=templinst)_ZN3itk16TreeIteratorBaseINS_13TreeContainerINS_12SmartPointerIN3otb8DataNodeIdLj2EdEEEEEEE3AddEiS6_@Base 5.0.0
 (optional=templinst)_ZN3itk16TreeIteratorBaseINS_13TreeContainerINS_12SmartPointerIN3otb8DataNodeIdLj2EdEEEEEEE5CountEv@Base 5.0.0
 (optional=templinst)_ZN3itk16TreeIteratorBaseINS_13TreeContainerINS_12SmartPointerIN3otb8DataNodeIdLj2EdEEEEEEE6RemoveEv@Base 5.0.0
 (optional=templinst)_ZN3itk16TreeIteratorBaseINS_13TreeContainerINS_12SmartPointerIN3otb8DataNodeIdLj2EdEEEEEEE7GetNodeEv@Base 5.0.0
 (optional=templinst)_ZN3itk16TreeIteratorBaseINS_13TreeContainerINS_12SmartPointerIN3otb8DataNodeIdLj2EdEEEEEEE7ParentsEv@Base 5.0.0
 (optional=templinst)_ZN3itk16TreeIteratorBaseINS_13TreeContainerINS_12SmartPointerIN3otb8DataNodeIdLj2EdEEEEEEE8ChildrenEv@Base 5.0.0
 (optional=templinst)_ZN3itk16TreeIteratorBaseINS_13TreeContainerINS_12SmartPointerIN3otb8DataNodeIdLj2EdEEEEEEE9GoToChildEl@Base 5.0.0
 (optional=templinst)_ZN3itk20PreOrderTreeIteratorINS_13TreeContainerINS_12SmartPointerIN3otb8DataNodeIdLj2EdEEEEEEE4NextEv@Base 5.0.0
 (optional=templinst)_ZN3itk20PreOrderTreeIteratorINS_13TreeContainerINS_12SmartPointerIN3otb8DataNodeIdLj2EdEEEEEEE5CloneEv@Base 5.0.0
 (optional=templinst)_ZN3itk20PreOrderTreeIteratorINS_13TreeContainerINS_12SmartPointerIN3otb8DataNodeIdLj2EdEEEEEEED0Ev@Base 5.0.0
 (optional=templinst)_ZN3itk20PreOrderTreeIteratorINS_13TreeContainerINS_12SmartPointerIN3otb8DataNodeIdLj2EdEEEEEEED1Ev@Base 5.0.0
 (optional=templinst)_ZN3itk20PreOrderTreeIteratorINS_13TreeContainerINS_12SmartPointerIN3otb8DataNodeIdLj2EdEEEEEEED2Ev@Base 5.0.0
 (optional=templinst)_ZN3itk22PolyLineParametricPathILj2EE10InitializeEv@Base 5.0.0
 (optional=templinst)_ZN3itk22PolyLineParametricPathILj2EE13GetVertexListEv@Base 5.0.0
 (optional=templinst)_ZN3itk22PolyLineParametricPathILj2EE23GetModifiableVertexListEv@Base 5.0.0
 (optional=templinst)_ZN3itk22PolyLineParametricPathILj2EEC1Ev@Base 5.0.0
 (optional=templinst)_ZN3itk22PolyLineParametricPathILj2EEC2Ev@Base 5.0.0
 (optional=templinst)_ZN3itk22PolyLineParametricPathILj2EED0Ev@Base 5.0.0
 (optional=templinst)_ZN3itk22PolyLineParametricPathILj2EED1Ev@Base 5.0.0
 (optional=templinst)_ZN3itk22PolyLineParametricPathILj2EED2Ev@Base 5.0.0
 _ZN3itk6Object13SetObjectNameESs@Base 5.0.0
 _ZN3itk8AnyEventD0Ev@Base 5.0.0
 _ZN3itk8AnyEventD1Ev@Base 5.0.0
 _ZN3itk8AnyEventD2Ev@Base 5.0.0
 (optional=templinst)_ZN3itk8TreeNodeINS_12SmartPointerIN3otb8DataNodeIdLj2EdEEEEE15GetChildrenListEv@Base 5.0.0
 (optional=templinst)_ZN3itk8TreeNodeINS_12SmartPointerIN3otb8DataNodeIdLj2EdEEEEE3NewEv@Base 5.0.0
 (optional=templinst)_ZN3itk8TreeNodeINS_12SmartPointerIN3otb8DataNodeIdLj2EdEEEEE3SetES5_@Base 5.0.0
 (optional=templinst)_ZN3itk8TreeNodeINS_12SmartPointerIN3otb8DataNodeIdLj2EdEEEEE6RemoveEPS6_@Base 5.0.0
 (optional=templinst)_ZN3itk8TreeNodeINS_12SmartPointerIN3otb8DataNodeIdLj2EdEEEEE8AddChildEPS6_@Base 5.0.0
 (optional=templinst)_ZN3itk8TreeNodeINS_12SmartPointerIN3otb8DataNodeIdLj2EdEEEEE8AddChildElPS6_@Base 5.0.0
 (optional=templinst)_ZN3itk8TreeNodeINS_12SmartPointerIN3otb8DataNodeIdLj2EdEEEEED0Ev@Base 5.0.0
 (optional=templinst)_ZN3itk8TreeNodeINS_12SmartPointerIN3otb8DataNodeIdLj2EdEEEEED1Ev@Base 5.0.0
 (optional=templinst)_ZN3itk8TreeNodeINS_12SmartPointerIN3otb8DataNodeIdLj2EdEEEEED2Ev@Base 5.0.0
 (optional=templinst)_ZN3itklsIdLj2EEERSoS1_RKNS_5PointIT_XT0_EEE@Base 5.0.0
 (optional=templinst)_ZN3otb10ObjectListINS_7PolygonIdEEED0Ev@Base 5.0.0
 (optional=templinst)_ZN3otb10ObjectListINS_7PolygonIdEEED1Ev@Base 5.0.0
 (optional=templinst)_ZN3otb10ObjectListINS_7PolygonIdEEED2Ev@Base 5.0.0
 (optional=templinst)_ZN3otb10VectorDataIdLj2EdE10SetSpacingEPKd@Base 5.0.0
 (optional=templinst)_ZN3otb10VectorDataIdLj2EdE10SetSpacingEPKf@Base 5.0.0
 (optional=templinst)_ZN3otb10VectorDataIdLj2EdE10SetSpacingERKN3itk6VectorIdLj2EEE@Base 5.0.0
 (optional=templinst)_ZN3otb10VectorDataIdLj2EdE11GetDataTreeEv@Base 5.0.0
 (optional=templinst)_ZN3otb10VectorDataIdLj2EdE16SetProjectionRefERKSs@Base 5.0.0
 (optional=templinst)_ZN3otb10VectorDataIdLj2EdE3NewEv@Base 5.0.0
 (optional=templinst)_ZN3otb10VectorDataIdLj2EdE5ClearEv@Base 5.0.0
 (optional=templinst)_ZN3otb10VectorDataIdLj2EdE5GraftEPKN3itk10DataObjectE@Base 5.0.0
 (optional=templinst)_ZN3otb10VectorDataIdLj2EdE9SetOriginEN3itk5PointIdLj2EEE@Base 5.0.0
 (optional=templinst)_ZN3otb10VectorDataIdLj2EdE9SetOriginEPKd@Base 5.0.0
 (optional=templinst)_ZN3otb10VectorDataIdLj2EdE9SetOriginEPKf@Base 5.0.0
 (optional=templinst)_ZN3otb10VectorDataIdLj2EdEC1Ev@Base 5.0.0
 (optional=templinst)_ZN3otb10VectorDataIdLj2EdEC2Ev@Base 5.0.0
 (optional=templinst)_ZN3otb10VectorDataIdLj2EdED0Ev@Base 5.0.0
 (optional=templinst)_ZN3otb10VectorDataIdLj2EdED1Ev@Base 5.0.0
 (optional=templinst)_ZN3otb10VectorDataIdLj2EdED2Ev@Base 5.0.0
 _ZN3otb16CoordinateToName10DoEvaluateEv@Base 5.0.0
 _ZN3otb16CoordinateToName13MultithreadOnEv@Base 5.0.0
 _ZN3otb16CoordinateToName14GetMultithreadEv@Base 5.0.0
 _ZN3otb16CoordinateToName14MultithreadOffEv@Base 5.0.0
 _ZN3otb16CoordinateToName14SetMultithreadEb@Base 5.0.0
 _ZN3otb16CoordinateToName14ThreadFunctionEPv@Base 5.0.0
 _ZN3otb16CoordinateToName6GetLatEv@Base 5.0.0
 _ZN3otb16CoordinateToName6GetLonEv@Base 5.0.0
 _ZN3otb16CoordinateToName6SetLatEd@Base 5.0.0
 _ZN3otb16CoordinateToName6SetLonEd@Base 5.0.0
 _ZN3otb16CoordinateToName7SetCurlEPNS_19CurlHelperInterfaceE@Base 5.0.0
 _ZN3otb16CoordinateToName8EvaluateEv@Base 5.0.0
 _ZN3otb16CoordinateToNameC1Ev@Base 5.0.0
 _ZN3otb16CoordinateToNameC2Ev@Base 5.0.0
 _ZN3otb16CoordinateToNameD0Ev@Base 5.0.0
 _ZN3otb16CoordinateToNameD1Ev@Base 5.0.0
 _ZN3otb16CoordinateToNameD2Ev@Base 5.0.0
 (optional=templinst)_ZN3otb16VectorDataSourceINS_10VectorDataIdLj2EdEEE11GraftOutputEPN3itk10DataObjectE@Base 5.0.0
 (optional=templinst)_ZN3otb16VectorDataSourceINS_10VectorDataIdLj2EdEEE14GraftNthOutputEjPN3itk10DataObjectE@Base 5.0.0
 (optional=templinst)_ZN3otb16VectorDataSourceINS_10VectorDataIdLj2EdEEE15AllocateOutputsEv@Base 5.0.0
 (optional=templinst)_ZN3otb16VectorDataSourceINS_10VectorDataIdLj2EdEEE9GetOutputEm@Base 5.0.0
 (optional=templinst)_ZN3otb16VectorDataSourceINS_10VectorDataIdLj2EdEEE9GetOutputEv@Base 5.0.0
 (optional=templinst)_ZN3otb16VectorDataSourceINS_10VectorDataIdLj2EdEEEC1Ev@Base 5.0.0
 (optional=templinst)_ZN3otb16VectorDataSourceINS_10VectorDataIdLj2EdEEEC2Ev@Base 5.0.0
 (optional=templinst)_ZN3otb16VectorDataSourceINS_10VectorDataIdLj2EdEEED0Ev@Base 5.0.0
 (optional=templinst)_ZN3otb16VectorDataSourceINS_10VectorDataIdLj2EdEEED1Ev@Base 5.0.0
 (optional=templinst)_ZN3otb16VectorDataSourceINS_10VectorDataIdLj2EdEEED2Ev@Base 5.0.0
 _ZN3otb17PlaceNameToLonLat11RetrieveXMLERKSt19basic_ostringstreamIcSt11char_traitsIcESaIcEE@Base 5.0.0
 _ZN3otb17PlaceNameToLonLat12GetPlaceNameEv@Base 5.0.0
 _ZN3otb17PlaceNameToLonLat12SetPlaceNameESs@Base 5.0.0
 _ZN3otb17PlaceNameToLonLat13ParseXMLYahooEv@Base 5.0.0
 _ZN3otb17PlaceNameToLonLat14ParseXMLGoogleEv@Base 5.0.0
 _ZN3otb17PlaceNameToLonLat16ParseXMLGeonamesEv@Base 5.0.0
 _ZN3otb17PlaceNameToLonLat6GetLatEv@Base 5.0.0
 _ZN3otb17PlaceNameToLonLat6GetLonEv@Base 5.0.0
 _ZN3otb17PlaceNameToLonLat8EvaluateEv@Base 5.0.0
 _ZN3otb17PlaceNameToLonLatC1Ev@Base 5.0.0
 _ZN3otb17PlaceNameToLonLatC2Ev@Base 5.0.0
 _ZN3otb17PlaceNameToLonLatD0Ev@Base 5.0.0
 _ZN3otb17PlaceNameToLonLatD1Ev@Base 5.0.0
 _ZN3otb17PlaceNameToLonLatD2Ev@Base 5.0.0
 (optional=templinst)_ZN3otb19RemoteSensingRegionIdED0Ev@Base 5.0.0
 (optional=templinst)_ZN3otb19RemoteSensingRegionIdED1Ev@Base 5.0.0
 (optional=templinst)_ZN3otb19RemoteSensingRegionIdED2Ev@Base 5.0.0
 _ZN3otb28OSMDataToVectorDataGenerator11SetClassKeyESs@Base 5.0.0
 _ZN3otb28OSMDataToVectorDataGenerator11SetFileNameEPKc@Base 5.0.0
 _ZN3otb28OSMDataToVectorDataGenerator11SetFileNameERKSs@Base 5.0.0
 _ZN3otb28OSMDataToVectorDataGenerator12GenerateDataEv@Base 5.0.0
 _ZN3otb28OSMDataToVectorDataGenerator12IsKeyPresentERKSs@Base 5.0.0
 _ZN3otb28OSMDataToVectorDataGenerator12ParseXmlFileEv@Base 5.0.0
 _ZN3otb28OSMDataToVectorDataGenerator15AddKeyTypeToMapERKSsS2_@Base 5.0.0
 _ZN3otb28OSMDataToVectorDataGenerator16SetClassKeyValueEi@Base 5.0.0
 _ZN3otb28OSMDataToVectorDataGenerator17ProcessVectorDataERKSsS2_@Base 5.0.0
 _ZN3otb28OSMDataToVectorDataGenerator19GetVectorDataByNameERKSs@Base 5.0.0
 _ZN3otb28OSMDataToVectorDataGenerator19GetVectorDataByNameERKSsS2_@Base 5.0.0
 _ZN3otb28OSMDataToVectorDataGenerator7GetEastEv@Base 5.0.0
 _ZN3otb28OSMDataToVectorDataGenerator7GetWestEv@Base 5.0.0
 _ZN3otb28OSMDataToVectorDataGenerator7SetEastEd@Base 5.0.0
 _ZN3otb28OSMDataToVectorDataGenerator7SetWestEd@Base 5.0.0
 _ZN3otb28OSMDataToVectorDataGenerator8GetNorthEv@Base 5.0.0
 _ZN3otb28OSMDataToVectorDataGenerator8GetSouthEv@Base 5.0.0
 _ZN3otb28OSMDataToVectorDataGenerator8SetNorthEd@Base 5.0.0
 _ZN3otb28OSMDataToVectorDataGenerator8SetSouthEd@Base 5.0.0
 _ZN3otb28OSMDataToVectorDataGenerator9SetUseUrlEb@Base 5.0.0
 _ZN3otb28OSMDataToVectorDataGeneratorC1Ev@Base 5.0.0
 _ZN3otb28OSMDataToVectorDataGeneratorC2Ev@Base 5.0.0
 _ZN3otb28OSMDataToVectorDataGeneratorD0Ev@Base 5.0.0
 _ZN3otb28OSMDataToVectorDataGeneratorD1Ev@Base 5.0.0
 _ZN3otb28OSMDataToVectorDataGeneratorD2Ev@Base 5.0.0
 (optional=templinst)_ZN3otb31PolyLineParametricPathWithValueIdLj2EE3NewEv@Base 5.0.0
 (optional=templinst)_ZN3otb31PolyLineParametricPathWithValueIdLj2EE6GetKeyEv@Base 5.0.0
 (optional=templinst)_ZN3otb31PolyLineParametricPathWithValueIdLj2EE9AddVertexERKN3itk15ContinuousIndexIdLj2EEE@Base 5.0.0
 (optional=templinst)_ZN3otb31PolyLineParametricPathWithValueIdLj2EEC1Ev@Base 5.0.0
 (optional=templinst)_ZN3otb31PolyLineParametricPathWithValueIdLj2EEC2Ev@Base 5.0.0
 (optional=templinst)_ZN3otb31PolyLineParametricPathWithValueIdLj2EED0Ev@Base 5.0.0
 (optional=templinst)_ZN3otb31PolyLineParametricPathWithValueIdLj2EED1Ev@Base 5.0.0
 (optional=templinst)_ZN3otb31PolyLineParametricPathWithValueIdLj2EED2Ev@Base 5.0.0
 (optional=templinst)_ZN3otb7PolygonIdE10GetEpsilonEv@Base 5.0.0
 (optional=templinst)_ZN3otb7PolygonIdE10SetEpsilonEd@Base 5.0.0
 (optional=templinst)_ZN3otb7PolygonIdE3NewEv@Base 5.0.0
 (optional=templinst)_ZN3otb7PolygonIdE9AddVertexERKN3itk15ContinuousIndexIdLj2EEE@Base 5.0.0
 (optional=templinst)_ZN3otb7PolygonIdED0Ev@Base 5.0.0
 (optional=templinst)_ZN3otb7PolygonIdED1Ev@Base 5.0.0
 (optional=templinst)_ZN3otb7PolygonIdED2Ev@Base 5.0.0
 (optional=templinst)_ZN3otb8DataNodeIdLj2EdE13SetFieldAsIntERKSsi@Base 5.0.0
 (optional=templinst)_ZN3otb8DataNodeIdLj2EdE16SetFieldAsStringERKSsS3_@Base 5.0.0
 (optional=templinst)_ZN3otb8DataNodeIdLj2EdE22SetPolygonExteriorRingEPNS_7PolygonIdEE@Base 5.0.0
 (optional=templinst)_ZN3otb8DataNodeIdLj2EdE3NewEv@Base 5.0.0
 (optional=templinst)_ZN3otb8DataNodeIdLj2EdE8DataTypeD1Ev@Base 5.0.0
 (optional=templinst)_ZN3otb8DataNodeIdLj2EdE8DataTypeD2Ev@Base 5.0.0
 (optional=templinst)_ZN3otb8DataNodeIdLj2EdE9SetNodeIdEPKc@Base 5.0.0
 (optional=templinst)_ZN3otb8DataNodeIdLj2EdE9SetNodeIdERKSs@Base 5.0.0
 (optional=templinst)_ZN3otb8DataNodeIdLj2EdED0Ev@Base 5.0.0
 (optional=templinst)_ZN3otb8DataNodeIdLj2EdED1Ev@Base 5.0.0
 (optional=templinst)_ZN3otb8DataNodeIdLj2EdED2Ev@Base 5.0.0
 _ZN9TiXmlNode9ToElementEv@Base 5.0.0
 _ZNK11TiXmlHandle9ToElementEv@Base 5.0.0
 _ZNK3itk10DataObject16GetPipelineMTimeEv@Base 5.0.0
 _ZNK3itk10DataObject16GetRealTimeStampEv@Base 5.0.0
 _ZNK3itk10DataObject18GetReleaseDataFlagEv@Base 5.0.0
 _ZNK3itk10Statistics26RandomVariateGeneratorBase14GetNameOfClassEv@Base 5.0.0
 _ZNK3itk10Statistics37MersenneTwisterRandomVariateGenerator14GetNameOfClassEv@Base 5.0.0
 _ZNK3itk11LightObject17GetReferenceCountEv@Base 5.0.0
 (optional=templinst)_ZNK3itk12TreeAddEventINS_13TreeContainerINS_12SmartPointerIN3otb8DataNodeIdLj2EdEEEEEEE10CheckEventEPKNS_11EventObjectE@Base 5.0.0
 (optional=templinst)_ZNK3itk12TreeAddEventINS_13TreeContainerINS_12SmartPointerIN3otb8DataNodeIdLj2EdEEEEEEE10MakeObjectEv@Base 5.0.0
 (optional=templinst)_ZNK3itk12TreeAddEventINS_13TreeContainerINS_12SmartPointerIN3otb8DataNodeIdLj2EdEEEEEEE12GetEventNameEv@Base 5.0.0
 _ZNK3itk13ModifiedEvent10CheckEventEPKNS_11EventObjectE@Base 5.0.0
 _ZNK3itk13ModifiedEvent10MakeObjectEv@Base 5.0.0
 _ZNK3itk13ModifiedEvent12GetEventNameEv@Base 5.0.0
 _ZNK3itk13ProcessObject11GetProgressEv@Base 5.0.0
 _ZNK3itk13ProcessObject18GetNumberOfThreadsEv@Base 5.0.0
 _ZNK3itk13ProcessObject19GetPrimaryInputNameEv@Base 5.0.0
 _ZNK3itk13ProcessObject20GetAbortGenerateDataEv@Base 5.0.0
 _ZNK3itk13ProcessObject20GetPrimaryOutputNameEv@Base 5.0.0
 _ZNK3itk13ProcessObject25GetNumberOfRequiredInputsEv@Base 5.0.0
 _ZNK3itk13ProcessObject26GetNumberOfRequiredOutputsEv@Base 5.0.0
 _ZNK3itk13ProcessObject30GetReleaseDataBeforeUpdateFlagEv@Base 5.0.0
 (optional=templinst)_ZNK3itk13TreeContainerINS_12SmartPointerIN3otb8DataNodeIdLj2EdEEEEE13CreateAnotherEv@Base 5.0.0
 (optional=templinst)_ZNK3itk13TreeContainerINS_12SmartPointerIN3otb8DataNodeIdLj2EdEEEEE14GetNameOfClassEv@Base 5.0.0
 (optional=templinst)_ZNK3itk13TreeContainerINS_12SmartPointerIN3otb8DataNodeIdLj2EdEEEEE5CountEv@Base 5.0.0
 (optional=templinst)_ZNK3itk13TreeContainerINS_12SmartPointerIN3otb8DataNodeIdLj2EdEEEEE7GetRootEv@Base 5.0.0
 (optional=templinst)_ZNK3itk13TreeContainerINS_12SmartPointerIN3otb8DataNodeIdLj2EdEEEEE9PrintSelfERSoNS_6IndentE@Base 5.0.0
 (optional=templinst)_ZNK3itk14MetaDataObjectIN3otb21VectorDataKeywordlistEE13CreateAnotherEv@Base 5.0.0
 (optional=templinst)_ZNK3itk14MetaDataObjectIN3otb21VectorDataKeywordlistEE14GetNameOfClassEv@Base 5.0.0
 (optional=templinst)_ZNK3itk14MetaDataObjectIN3otb21VectorDataKeywordlistEE25GetMetaDataObjectTypeInfoEv@Base 5.0.0
 (optional=templinst)_ZNK3itk14MetaDataObjectIN3otb21VectorDataKeywordlistEE25GetMetaDataObjectTypeNameEv@Base 5.0.0
 (optional=templinst)_ZNK3itk14MetaDataObjectIN3otb21VectorDataKeywordlistEE5PrintERSo@Base 5.0.0
 (optional=templinst)_ZNK3itk14ParametricPathILj2EE14GetNameOfClassEv@Base 5.0.0
 (optional=templinst)_ZNK3itk14ParametricPathILj2EE14IncrementInputERd@Base 5.0.0
 (optional=templinst)_ZNK3itk14ParametricPathILj2EE15EvaluateToIndexERKd@Base 5.0.0
 (optional=templinst)_ZNK3itk14ParametricPathILj2EE18EvaluateDerivativeERKd@Base 5.0.0
 (optional=templinst)_ZNK3itk14ParametricPathILj2EE23GetDefaultInputStepSizeEv@Base 5.0.0
 (optional=templinst)_ZNK3itk14ParametricPathILj2EE9PrintSelfERSoNS_6IndentE@Base 5.0.0
 (optional=templinst)_ZNK3itk14TreePruneEventINS_13TreeContainerINS_12SmartPointerIN3otb8DataNodeIdLj2EdEEEEEEE10CheckEventEPKNS_11EventObjectE@Base 5.0.0
 (optional=templinst)_ZNK3itk14TreePruneEventINS_13TreeContainerINS_12SmartPointerIN3otb8DataNodeIdLj2EdEEEEEEE10MakeObjectEv@Base 5.0.0
 (optional=templinst)_ZNK3itk14TreePruneEventINS_13TreeContainerINS_12SmartPointerIN3otb8DataNodeIdLj2EdEEEEEEE12GetEventNameEv@Base 5.0.0
 (optional=templinst)_ZNK3itk15TreeChangeEventINS_13TreeContainerINS_12SmartPointerIN3otb8DataNodeIdLj2EdEEEEEEE10CheckEventEPKNS_11EventObjectE@Base 5.0.0
 (optional=templinst)_ZNK3itk15TreeChangeEventINS_13TreeContainerINS_12SmartPointerIN3otb8DataNodeIdLj2EdEEEEEEE10MakeObjectEv@Base 5.0.0
 (optional=templinst)_ZNK3itk15TreeChangeEventINS_13TreeContainerINS_12SmartPointerIN3otb8DataNodeIdLj2EdEEEEEEE12GetEventNameEv@Base 5.0.0
 (optional=templinst)_ZNK3itk15TreeRemoveEventINS_13TreeContainerINS_12SmartPointerIN3otb8DataNodeIdLj2EdEEEEEEE10CheckEventEPKNS_11EventObjectE@Base 5.0.0
 (optional=templinst)_ZNK3itk15TreeRemoveEventINS_13TreeContainerINS_12SmartPointerIN3otb8DataNodeIdLj2EdEEEEEEE10MakeObjectEv@Base 5.0.0
 (optional=templinst)_ZNK3itk15TreeRemoveEventINS_13TreeContainerINS_12SmartPointerIN3otb8DataNodeIdLj2EdEEEEEEE12GetEventNameEv@Base 5.0.0
 (optional=templinst)_ZNK3itk15VectorContainerIjNS_15ContinuousIndexIdLj2EEEE13CreateAnotherEv@Base 5.0.0
 (optional=templinst)_ZNK3itk15VectorContainerIjNS_15ContinuousIndexIdLj2EEEE14GetNameOfClassEv@Base 5.0.0
 (optional=templinst)_ZNK3itk16TreeIteratorBaseINS_13TreeContainerINS_12SmartPointerIN3otb8DataNodeIdLj2EdEEEEEEE10GetSubTreeEv@Base 5.0.0
 (optional=templinst)_ZNK3itk16TreeIteratorBaseINS_13TreeContainerINS_12SmartPointerIN3otb8DataNodeIdLj2EdEEEEEEE13ChildPositionES6_@Base 5.0.0
 (optional=templinst)_ZNK3itk16TreeIteratorBaseINS_13TreeContainerINS_12SmartPointerIN3otb8DataNodeIdLj2EdEEEEEEE13CountChildrenEv@Base 5.0.0
 (optional=templinst)_ZNK3itk16TreeIteratorBaseINS_13TreeContainerINS_12SmartPointerIN3otb8DataNodeIdLj2EdEEEEEEE3GetEv@Base 5.0.0
 (optional=templinst)_ZNK3itk16TreeIteratorBaseINS_13TreeContainerINS_12SmartPointerIN3otb8DataNodeIdLj2EdEEEEEEE6IsLeafEv@Base 5.0.0
 (optional=templinst)_ZNK3itk16TreeIteratorBaseINS_13TreeContainerINS_12SmartPointerIN3otb8DataNodeIdLj2EdEEEEEEE6IsRootEv@Base 5.0.0
 (optional=templinst)_ZNK3itk16TreeIteratorBaseINS_13TreeContainerINS_12SmartPointerIN3otb8DataNodeIdLj2EdEEEEEEE7GetNodeEv@Base 5.0.0
 (optional=templinst)_ZNK3itk16TreeIteratorBaseINS_13TreeContainerINS_12SmartPointerIN3otb8DataNodeIdLj2EdEEEEEEE8GetChildEi@Base 5.0.0
 (optional=templinst)_ZNK3itk16TreeIteratorBaseINS_13TreeContainerINS_12SmartPointerIN3otb8DataNodeIdLj2EdEEEEEEE8HasChildEi@Base 5.0.0
 (optional=templinst)_ZNK3itk16TreeIteratorBaseINS_13TreeContainerINS_12SmartPointerIN3otb8DataNodeIdLj2EdEEEEEEE9HasParentEv@Base 5.0.0
 (optional=templinst)_ZNK3itk17TreeContainerBaseINS_12SmartPointerIN3otb8DataNodeIdLj2EdEEEEE14GetNameOfClassEv@Base 5.0.0
 (optional=templinst)_ZNK3itk20PreOrderTreeIteratorINS_13TreeContainerINS_12SmartPointerIN3otb8DataNodeIdLj2EdEEEEEEE12FindNextNodeEv@Base 5.0.0
 (optional=templinst)_ZNK3itk20PreOrderTreeIteratorINS_13TreeContainerINS_12SmartPointerIN3otb8DataNodeIdLj2EdEEEEEEE7GetTypeEv@Base 5.0.0
 (optional=templinst)_ZNK3itk20PreOrderTreeIteratorINS_13TreeContainerINS_12SmartPointerIN3otb8DataNodeIdLj2EdEEEEEEE7HasNextEv@Base 5.0.0
 (optional=templinst)_ZNK3itk22PolyLineParametricPathILj2EE10EndOfInputEv@Base 5.0.0
 (optional=templinst)_ZNK3itk22PolyLineParametricPathILj2EE13CreateAnotherEv@Base 5.0.0
 (optional=templinst)_ZNK3itk22PolyLineParametricPathILj2EE13GetVertexListEv@Base 5.0.0
 (optional=templinst)_ZNK3itk22PolyLineParametricPathILj2EE14GetNameOfClassEv@Base 5.0.0
 (optional=templinst)_ZNK3itk22PolyLineParametricPathILj2EE14IncrementInputERd@Base 5.0.0
 (optional=templinst)_ZNK3itk22PolyLineParametricPathILj2EE18EvaluateDerivativeERKd@Base 5.0.0
 (optional=templinst)_ZNK3itk22PolyLineParametricPathILj2EE8EvaluateERKd@Base 5.0.0
 (optional=templinst)_ZNK3itk22PolyLineParametricPathILj2EE9PrintSelfERSoNS_6IndentE@Base 5.0.0
 (optional=templinst)_ZNK3itk4PathIdNS_15ContinuousIndexIdLj2EEELj2EE10EndOfInputEv@Base 5.0.0
 (optional=templinst)_ZNK3itk4PathIdNS_15ContinuousIndexIdLj2EEELj2EE12GetZeroIndexEv@Base 5.0.0
 (optional=templinst)_ZNK3itk4PathIdNS_15ContinuousIndexIdLj2EEELj2EE12StartOfInputEv@Base 5.0.0
 (optional=templinst)_ZNK3itk4PathIdNS_15ContinuousIndexIdLj2EEELj2EE13GetZeroOffsetEv@Base 5.0.0
 (optional=templinst)_ZNK3itk4PathIdNS_15ContinuousIndexIdLj2EEELj2EE14GetNameOfClassEv@Base 5.0.0
 (optional=templinst)_ZNK3itk4PathIdNS_15ContinuousIndexIdLj2EEELj2EE9PrintSelfERSoNS_6IndentE@Base 5.0.0
 _ZNK3itk6Object13GetObjectNameEv@Base 5.0.0
 _ZNK3itk8AnyEvent10CheckEventEPKNS_11EventObjectE@Base 5.0.0
 _ZNK3itk8AnyEvent10MakeObjectEv@Base 5.0.0
 _ZNK3itk8AnyEvent12GetEventNameEv@Base 5.0.0
 (optional=templinst)_ZNK3itk8TreeNodeINS_12SmartPointerIN3otb8DataNodeIdLj2EdEEEEE11GetChildrenEjPc@Base 5.0.0
 (optional=templinst)_ZNK3itk8TreeNodeINS_12SmartPointerIN3otb8DataNodeIdLj2EdEEEEE13CreateAnotherEv@Base 5.0.0
 (optional=templinst)_ZNK3itk8TreeNodeINS_12SmartPointerIN3otb8DataNodeIdLj2EdEEEEE14GetNameOfClassEv@Base 5.0.0
 (optional=templinst)_ZNK3otb10ObjectListINS_7PolygonIdEEE13CreateAnotherEv@Base 5.0.0
 (optional=templinst)_ZNK3otb10ObjectListINS_7PolygonIdEEE14GetNameOfClassEv@Base 5.0.0
 (optional=templinst)_ZNK3otb10ObjectListINS_7PolygonIdEEE9PrintSelfERSoN3itk6IndentE@Base 5.0.0
 (optional=templinst)_ZNK3otb10VectorDataIdLj2EdE10GetSpacingEv@Base 5.0.0
 (optional=templinst)_ZNK3otb10VectorDataIdLj2EdE11GetDataTreeEv@Base 5.0.0
 (optional=templinst)_ZNK3otb10VectorDataIdLj2EdE13CreateAnotherEv@Base 5.0.0
 (optional=templinst)_ZNK3otb10VectorDataIdLj2EdE14GetNameOfClassEv@Base 5.0.0
 (optional=templinst)_ZNK3otb10VectorDataIdLj2EdE16GetProjectionRefEv@Base 5.0.0
 (optional=templinst)_ZNK3otb10VectorDataIdLj2EdE4SizeEv@Base 5.0.0
 (optional=templinst)_ZNK3otb10VectorDataIdLj2EdE9GetOriginEv@Base 5.0.0
 (optional=templinst)_ZNK3otb10VectorDataIdLj2EdE9PrintSelfERSoN3itk6IndentE@Base 5.0.0
 _ZNK3otb16CoordinateToName13CreateAnotherEv@Base 5.0.0
 _ZNK3otb16CoordinateToName14GetNameOfClassEv@Base 5.0.0
 _ZNK3otb16CoordinateToName16ParseXMLGeonamesERSsS1_@Base 5.0.0
 _ZNK3otb16CoordinateToName9PrintSelfERSoN3itk6IndentE@Base 5.0.0
 (optional=templinst)_ZNK3otb16VectorDataSourceINS_10VectorDataIdLj2EdEEE13CreateAnotherEv@Base 5.0.0
 (optional=templinst)_ZNK3otb16VectorDataSourceINS_10VectorDataIdLj2EdEEE14GetNameOfClassEv@Base 5.0.0
 (optional=templinst)_ZNK3otb16VectorDataSourceINS_10VectorDataIdLj2EdEEE9PrintSelfERSoN3itk6IndentE@Base 5.0.0
 _ZNK3otb17PlaceNameToLonLat13CreateAnotherEv@Base 5.0.0
 _ZNK3otb17PlaceNameToLonLat14GetNameOfClassEv@Base 5.0.0
 _ZNK3otb17PlaceNameToLonLat9PrintSelfERSoN3itk6IndentE@Base 5.0.0
 _ZNK3otb19CurlHelperInterface14GetNameOfClassEv@Base 5.0.0
 (optional=templinst)_ZNK3otb19RemoteSensingRegionIdE13GetRegionTypeEv@Base 5.0.0
 (optional=templinst)_ZNK3otb19RemoteSensingRegionIdE14GetNameOfClassEv@Base 5.0.0
 (optional=templinst)_ZNK3otb19RemoteSensingRegionIdE9PrintSelfERSoN3itk6IndentE@Base 5.0.0
 _ZNK3otb28OSMDataToVectorDataGenerator11GetClassKeyEv@Base 5.0.0
 _ZNK3otb28OSMDataToVectorDataGenerator11GetFileNameEv@Base 5.0.0
 _ZNK3otb28OSMDataToVectorDataGenerator13CreateAnotherEv@Base 5.0.0
 _ZNK3otb28OSMDataToVectorDataGenerator14GetNameOfClassEv@Base 5.0.0
 _ZNK3otb28OSMDataToVectorDataGenerator16GetClassKeyValueEv@Base 5.0.0
 (optional=templinst)_ZNK3otb31PolyLineParametricPathWithValueIdLj2EE13ComputeLengthEv@Base 5.0.0
 (optional=templinst)_ZNK3otb31PolyLineParametricPathWithValueIdLj2EE13CreateAnotherEv@Base 5.0.0
 (optional=templinst)_ZNK3otb31PolyLineParametricPathWithValueIdLj2EE14GetNameOfClassEv@Base 5.0.0
 (optional=templinst)_ZNK3otb31PolyLineParametricPathWithValueIdLj2EE17GetBoundingRegionEv@Base 5.0.0
 (optional=templinst)_ZNK3otb31PolyLineParametricPathWithValueIdLj2EE21ComputeBoundingRegionEv@Base 5.0.0
 (optional=templinst)_ZNK3otb31PolyLineParametricPathWithValueIdLj2EE8ModifiedEv@Base 5.0.0
 (optional=templinst)_ZNK3otb31PolyLineParametricPathWithValueIdLj2EE9GetLengthEv@Base 5.0.0
 (optional=templinst)_ZNK3otb31PolyLineParametricPathWithValueIdLj2EE9PrintSelfERSoN3itk6IndentE@Base 5.0.0
 (optional=templinst)_ZNK3otb7PolygonIdE10GetSurfaceEv@Base 5.0.0
 (optional=templinst)_ZNK3otb7PolygonIdE11ComputeAreaEv@Base 5.0.0
 (optional=templinst)_ZNK3otb7PolygonIdE13CreateAnotherEv@Base 5.0.0
 (optional=templinst)_ZNK3otb7PolygonIdE14GetNameOfClassEv@Base 5.0.0
 (optional=templinst)_ZNK3otb7PolygonIdE7GetAreaEv@Base 5.0.0
 (optional=templinst)_ZNK3otb7PolygonIdE8ModifiedEv@Base 5.0.0
 (optional=templinst)_ZNK3otb7PolygonIdE9GetLengthEv@Base 5.0.0
 (optional=templinst)_ZNK3otb7PolygonIdE9PrintSelfERSoN3itk6IndentE@Base 5.0.0
 (optional=templinst)_ZNK3otb8DataNodeIdLj2EdE11GetNodeTypeEv@Base 5.0.0
 (optional=templinst)_ZNK3otb8DataNodeIdLj2EdE13CreateAnotherEv@Base 5.0.0
 (optional=templinst)_ZNK3otb8DataNodeIdLj2EdE14GetNameOfClassEv@Base 5.0.0
 (optional=templinst)_ZNK3otb8DataNodeIdLj2EdE19GetNodeTypeAsStringEv@Base 5.0.0
 (optional=templinst)_ZNK3otb8DataNodeIdLj2EdE22GetPolygonExteriorRingEv@Base 5.0.0
 (optional=templinst)_ZNK3otb8DataNodeIdLj2EdE23GetPolygonInteriorRingsEv@Base 5.0.0
 (optional=templinst)_ZNK3otb8DataNodeIdLj2EdE9GetNodeIdEv@Base 5.0.0
 (optional=templinst)_ZNK3otb8DataNodeIdLj2EdE9PrintSelfERSoN3itk6IndentE@Base 5.0.0
 (optional=templinst)_ZNKSt5ctypeIcE8do_widenEc@Base 5.0.0
 (optional=templinst)_ZNSt12_Destroy_auxILb0EE9__destroyIPSsEEvT_S3_@Base 5.0.0
 (optional=templinst)_ZNSt20__uninitialized_copyILb0EE13__uninit_copyIPN3itk12SmartPointerINS2_8TreeNodeINS3_IN3otb8DataNodeIdLj2EdEEEEEEEESB_EET0_T_SD_SC_@Base 5.0.0
 (optional=templinst)_ZNSt20__uninitialized_copyILb0EE13__uninit_copyIPSt4pairIS2_ISsSsESt6vectorIN3itk15ContinuousIndexIdLj2EEESaIS7_EEESB_EET0_T_SD_SC_@Base 5.0.0
 (optional=templinst)_ZNSt22__uninitialized_fill_nILb0EE15__uninit_fill_nIPN3itk12SmartPointerINS2_8TreeNodeINS3_IN3otb8DataNodeIdLj2EdEEEEEEEEmSA_EEvT_T0_RKT1_@Base 5.0.0
 (optional=templinst)_ZNSt4pairIKSsSt6vectorISsSaISsEEED1Ev@Base 5.0.0
 (optional=templinst)_ZNSt4pairIKSsSt6vectorISsSaISsEEED2Ev@Base 5.0.0
 (optional=templinst)_ZNSt4pairIS_ISsSsESt6vectorIN3itk15ContinuousIndexIdLj2EEESaIS4_EEEC1ERKS7_@Base 5.0.0
 (optional=templinst)_ZNSt4pairIS_ISsSsESt6vectorIN3itk15ContinuousIndexIdLj2EEESaIS4_EEEC2ERKS7_@Base 5.0.0
 (optional=templinst)_ZNSt4pairIS_ISsSsESt6vectorIN3itk15ContinuousIndexIdLj2EEESaIS4_EEED1Ev@Base 5.0.0
 (optional=templinst)_ZNSt4pairIS_ISsSsESt6vectorIN3itk15ContinuousIndexIdLj2EEESaIS4_EEED2Ev@Base 5.0.0
 (optional=templinst)_ZNSt4pairISsSsED1Ev@Base 5.0.0
 (optional=templinst)_ZNSt4pairISsSsED2Ev@Base 5.0.0
 (optional=templinst)_ZNSt4pairISsSt6vectorISsSaISsEEED1Ev@Base 5.0.0
 (optional=templinst)_ZNSt4pairISsSt6vectorISsSaISsEEED2Ev@Base 5.0.0
 (optional=templinst)_ZNSt6vectorIN3itk12SmartPointerINS0_8TreeNodeINS1_IN3otb8DataNodeIdLj2EdEEEEEEEESaIS8_EE13_M_insert_auxEN9__gnu_cxx17__normal_iteratorIPS8_SA_EERKS8_@Base 5.0.0
 (optional=templinst)_ZNSt6vectorIN3itk12SmartPointerINS0_8TreeNodeINS1_IN3otb8DataNodeIdLj2EdEEEEEEEESaIS8_EE14_M_fill_insertEN9__gnu_cxx17__normal_iteratorIPS8_SA_EEmRKS8_@Base 5.0.0
 (optional=templinst)_ZNSt6vectorIN3itk15ContinuousIndexIdLj2EEESaIS2_EE13_M_insert_auxEN9__gnu_cxx17__normal_iteratorIPS2_S4_EERKS2_@Base 5.0.0
 (optional=templinst)_ZNSt6vectorIN3itk15ContinuousIndexIdLj2EEESaIS2_EE14_M_fill_insertEN9__gnu_cxx17__normal_iteratorIPS2_S4_EEmRKS2_@Base 5.0.0
 (optional=templinst)_ZNSt6vectorIN3itk15ContinuousIndexIdLj2EEESaIS2_EEaSERKS4_@Base 5.0.0
 (optional=templinst)_ZNSt6vectorISsSaISsEE13_M_insert_auxEN9__gnu_cxx17__normal_iteratorIPSsS1_EERKSs@Base 5.0.0
 (optional=templinst)_ZNSt6vectorISsSaISsEE9push_backERKSs@Base 5.0.0
 (optional=templinst)_ZNSt6vectorISsSaISsEEC1ERKS1_@Base 5.0.0
 (optional=templinst)_ZNSt6vectorISsSaISsEEC2ERKS1_@Base 5.0.0
 (optional=templinst)_ZNSt6vectorISsSaISsEED1Ev@Base 5.0.0
 (optional=templinst)_ZNSt6vectorISsSaISsEED2Ev@Base 5.0.0
 (optional=templinst)_ZNSt6vectorISt4pairIS0_ISsSsES_IN3itk15ContinuousIndexIdLj2EEESaIS4_EEESaIS7_EE13_M_insert_auxEN9__gnu_cxx17__normal_iteratorIPS7_S9_EERKS7_@Base 5.0.0
 (optional=templinst)_ZNSt6vectorISt4pairIS0_ISsSsES_IN3itk15ContinuousIndexIdLj2EEESaIS4_EEESaIS7_EED1Ev@Base 5.0.0
 (optional=templinst)_ZNSt6vectorISt4pairIS0_ISsSsES_IN3itk15ContinuousIndexIdLj2EEESaIS4_EEESaIS7_EED2Ev@Base 5.0.0
 (optional=templinst)_ZNSt8_Rb_treeISsSt4pairIKSsSt6vectorISsSaISsEEESt10_Select1stIS5_ESt4lessISsESaIS5_EE16_M_insert_uniqueERKS5_@Base 5.0.0
 (optional=templinst)_ZNSt8_Rb_treeISsSt4pairIKSsSt6vectorISsSaISsEEESt10_Select1stIS5_ESt4lessISsESaIS5_EE8_M_eraseEPSt13_Rb_tree_nodeIS5_E@Base 5.0.0
 (optional=templinst)_ZNSt8_Rb_treeIiSt4pairIKiN3itk15ContinuousIndexIdLj2EEEESt10_Select1stIS5_ESt4lessIiESaIS5_EE16_M_insert_uniqueERKS5_@Base 5.0.0
 (optional=templinst)_ZNSt8_Rb_treeIiSt4pairIKiN3itk15ContinuousIndexIdLj2EEEESt10_Select1stIS5_ESt4lessIiESaIS5_EE8_M_eraseEPSt13_Rb_tree_nodeIS5_E@Base 5.0.0
 _ZTIN3itk10Statistics26RandomVariateGeneratorBaseE@Base 5.0.0
 _ZTIN3itk10Statistics37MersenneTwisterRandomVariateGeneratorE@Base 5.0.0
 _ZTIN3itk12TreeAddEventINS_13TreeContainerINS_12SmartPointerIN3otb8DataNodeIdLj2EdEEEEEEEE@Base 5.0.0
 _ZTIN3itk13ModifiedEventE@Base 5.0.0
 _ZTIN3itk13TreeContainerINS_12SmartPointerIN3otb8DataNodeIdLj2EdEEEEEE@Base 5.0.0
 _ZTIN3itk14MetaDataObjectIN3otb21VectorDataKeywordlistEEE@Base 5.0.0
 _ZTIN3itk14ParametricPathILj2EEE@Base 5.0.0
 _ZTIN3itk14TreePruneEventINS_13TreeContainerINS_12SmartPointerIN3otb8DataNodeIdLj2EdEEEEEEEE@Base 5.0.0
 _ZTIN3itk15TreeChangeEventINS_13TreeContainerINS_12SmartPointerIN3otb8DataNodeIdLj2EdEEEEEEEE@Base 5.0.0
 _ZTIN3itk15TreeRemoveEventINS_13TreeContainerINS_12SmartPointerIN3otb8DataNodeIdLj2EdEEEEEEEE@Base 5.0.0
 _ZTIN3itk15VectorContainerIjNS_15ContinuousIndexIdLj2EEEEE@Base 5.0.0
 _ZTIN3itk16TreeIteratorBaseINS_13TreeContainerINS_12SmartPointerIN3otb8DataNodeIdLj2EdEEEEEEEE@Base 5.0.0
 _ZTIN3itk17TreeContainerBaseINS_12SmartPointerIN3otb8DataNodeIdLj2EdEEEEEE@Base 5.0.0
 _ZTIN3itk20PreOrderTreeIteratorINS_13TreeContainerINS_12SmartPointerIN3otb8DataNodeIdLj2EdEEEEEEEE@Base 5.0.0
 _ZTIN3itk22PolyLineParametricPathILj2EEE@Base 5.0.0
 _ZTIN3itk4PathIdNS_15ContinuousIndexIdLj2EEELj2EEE@Base 5.0.0
 _ZTIN3itk8AnyEventE@Base 5.0.0
 _ZTIN3itk8TreeNodeINS_12SmartPointerIN3otb8DataNodeIdLj2EdEEEEEE@Base 5.0.0
 _ZTIN3otb10ObjectListINS_7PolygonIdEEEE@Base 5.0.0
 _ZTIN3otb10VectorDataIdLj2EdEE@Base 5.0.0
 _ZTIN3otb16CoordinateToNameE@Base 5.0.0
 _ZTIN3otb16VectorDataSourceINS_10VectorDataIdLj2EdEEEE@Base 5.0.0
 _ZTIN3otb17PlaceNameToLonLatE@Base 5.0.0
 _ZTIN3otb19CurlHelperInterfaceE@Base 5.0.0
 _ZTIN3otb19RemoteSensingRegionIdEE@Base 5.0.0
 _ZTIN3otb28OSMDataToVectorDataGeneratorE@Base 5.0.0
 _ZTIN3otb31PolyLineParametricPathWithValueIdLj2EEE@Base 5.0.0
 _ZTIN3otb7PolygonIdEE@Base 5.0.0
 _ZTIN3otb8DataNodeIdLj2EdEE@Base 5.0.0
 _ZTISt12_Vector_baseIN3itk15ContinuousIndexIdLj2EEESaIS2_EE@Base 5.0.0
 _ZTISt6vectorIN3itk15ContinuousIndexIdLj2EEESaIS2_EE@Base 5.0.0
 _ZTSN3itk10Statistics26RandomVariateGeneratorBaseE@Base 5.0.0
 _ZTSN3itk10Statistics37MersenneTwisterRandomVariateGeneratorE@Base 5.0.0
 _ZTSN3itk12TreeAddEventINS_13TreeContainerINS_12SmartPointerIN3otb8DataNodeIdLj2EdEEEEEEEE@Base 5.0.0
 _ZTSN3itk13ModifiedEventE@Base 5.0.0
 _ZTSN3itk13TreeContainerINS_12SmartPointerIN3otb8DataNodeIdLj2EdEEEEEE@Base 5.0.0
 _ZTSN3itk14MetaDataObjectIN3otb21VectorDataKeywordlistEEE@Base 5.0.0
 _ZTSN3itk14ParametricPathILj2EEE@Base 5.0.0
 _ZTSN3itk14TreePruneEventINS_13TreeContainerINS_12SmartPointerIN3otb8DataNodeIdLj2EdEEEEEEEE@Base 5.0.0
 _ZTSN3itk15TreeChangeEventINS_13TreeContainerINS_12SmartPointerIN3otb8DataNodeIdLj2EdEEEEEEEE@Base 5.0.0
 _ZTSN3itk15TreeRemoveEventINS_13TreeContainerINS_12SmartPointerIN3otb8DataNodeIdLj2EdEEEEEEEE@Base 5.0.0
 _ZTSN3itk15VectorContainerIjNS_15ContinuousIndexIdLj2EEEEE@Base 5.0.0
 _ZTSN3itk16TreeIteratorBaseINS_13TreeContainerINS_12SmartPointerIN3otb8DataNodeIdLj2EdEEEEEEEE@Base 5.0.0
 _ZTSN3itk17TreeContainerBaseINS_12SmartPointerIN3otb8DataNodeIdLj2EdEEEEEE@Base 5.0.0
 _ZTSN3itk20PreOrderTreeIteratorINS_13TreeContainerINS_12SmartPointerIN3otb8DataNodeIdLj2EdEEEEEEEE@Base 5.0.0
 _ZTSN3itk22PolyLineParametricPathILj2EEE@Base 5.0.0
 _ZTSN3itk4PathIdNS_15ContinuousIndexIdLj2EEELj2EEE@Base 5.0.0
 _ZTSN3itk8AnyEventE@Base 5.0.0
 _ZTSN3itk8TreeNodeINS_12SmartPointerIN3otb8DataNodeIdLj2EdEEEEEE@Base 5.0.0
 _ZTSN3otb10ObjectListINS_7PolygonIdEEEE@Base 5.0.0
 _ZTSN3otb10VectorDataIdLj2EdEE@Base 5.0.0
 _ZTSN3otb16CoordinateToNameE@Base 5.0.0
 _ZTSN3otb16VectorDataSourceINS_10VectorDataIdLj2EdEEEE@Base 5.0.0
 _ZTSN3otb17PlaceNameToLonLatE@Base 5.0.0
 _ZTSN3otb19CurlHelperInterfaceE@Base 5.0.0
 _ZTSN3otb19RemoteSensingRegionIdEE@Base 5.0.0
 _ZTSN3otb28OSMDataToVectorDataGeneratorE@Base 5.0.0
 _ZTSN3otb31PolyLineParametricPathWithValueIdLj2EEE@Base 5.0.0
 _ZTSN3otb7PolygonIdEE@Base 5.0.0
 _ZTSN3otb8DataNodeIdLj2EdEE@Base 5.0.0
 _ZTSPKN3itk10DataObjectE@Base 5.0.0
 _ZTSPKN3otb10VectorDataIdLj2EdEE@Base 5.0.0
 _ZTSSt12_Vector_baseIN3itk15ContinuousIndexIdLj2EEESaIS2_EE@Base 5.0.0
 _ZTSSt6vectorIN3itk15ContinuousIndexIdLj2EEESaIS2_EE@Base 5.0.0
 _ZTVN3itk10Statistics26RandomVariateGeneratorBaseE@Base 5.0.0
 _ZTVN3itk10Statistics37MersenneTwisterRandomVariateGeneratorE@Base 5.0.0
 _ZTVN3itk12TreeAddEventINS_13TreeContainerINS_12SmartPointerIN3otb8DataNodeIdLj2EdEEEEEEEE@Base 5.0.0
 _ZTVN3itk13ModifiedEventE@Base 5.0.0
 _ZTVN3itk13TreeContainerINS_12SmartPointerIN3otb8DataNodeIdLj2EdEEEEEE@Base 5.0.0
 _ZTVN3itk14MetaDataObjectIN3otb21VectorDataKeywordlistEEE@Base 5.0.0
 _ZTVN3itk14ParametricPathILj2EEE@Base 5.0.0
 _ZTVN3itk14TreePruneEventINS_13TreeContainerINS_12SmartPointerIN3otb8DataNodeIdLj2EdEEEEEEEE@Base 5.0.0
 _ZTVN3itk15TreeChangeEventINS_13TreeContainerINS_12SmartPointerIN3otb8DataNodeIdLj2EdEEEEEEEE@Base 5.0.0
 _ZTVN3itk15TreeRemoveEventINS_13TreeContainerINS_12SmartPointerIN3otb8DataNodeIdLj2EdEEEEEEEE@Base 5.0.0
 _ZTVN3itk15VectorContainerIjNS_15ContinuousIndexIdLj2EEEEE@Base 5.0.0
 _ZTVN3itk16TreeIteratorBaseINS_13TreeContainerINS_12SmartPointerIN3otb8DataNodeIdLj2EdEEEEEEEE@Base 5.0.0
 _ZTVN3itk17TreeContainerBaseINS_12SmartPointerIN3otb8DataNodeIdLj2EdEEEEEE@Base 5.0.0
 _ZTVN3itk20PreOrderTreeIteratorINS_13TreeContainerINS_12SmartPointerIN3otb8DataNodeIdLj2EdEEEEEEEE@Base 5.0.0
 _ZTVN3itk22PolyLineParametricPathILj2EEE@Base 5.0.0
 _ZTVN3itk4PathIdNS_15ContinuousIndexIdLj2EEELj2EEE@Base 5.0.0
 _ZTVN3itk8AnyEventE@Base 5.0.0
 _ZTVN3itk8TreeNodeINS_12SmartPointerIN3otb8DataNodeIdLj2EdEEEEEE@Base 5.0.0
 _ZTVN3otb10ObjectListINS_7PolygonIdEEEE@Base 5.0.0
 _ZTVN3otb10VectorDataIdLj2EdEE@Base 5.0.0
 _ZTVN3otb16CoordinateToNameE@Base 5.0.0
 _ZTVN3otb16VectorDataSourceINS_10VectorDataIdLj2EdEEEE@Base 5.0.0
 _ZTVN3otb17PlaceNameToLonLatE@Base 5.0.0
 _ZTVN3otb19CurlHelperInterfaceE@Base 5.0.0
 _ZTVN3otb19RemoteSensingRegionIdEE@Base 5.0.0
 _ZTVN3otb28OSMDataToVectorDataGeneratorE@Base 5.0.0
 _ZTVN3otb31PolyLineParametricPathWithValueIdLj2EEE@Base 5.0.0
 _ZTVN3otb7PolygonIdEE@Base 5.0.0
 _ZTVN3otb8DataNodeIdLj2EdEE@Base 5.0.0
