# SymbolsHelper-Confirmed: 5.0.0 amd64 i386
libOTBIOMSTAR-5.0.so.1 libotbiomstar-5.0-1 #MINVER#
 _ZN3itk18LightProcessObject11SetProgressEf@Base 5.0.0
 _ZN3itk18LightProcessObject12GenerateDataEv@Base 5.0.0
 _ZN3itk18LightProcessObject19AbortGenerateDataOnEv@Base 5.0.0
 _ZN3itk18LightProcessObject20AbortGenerateDataOffEv@Base 5.0.0
 _ZN3itk18LightProcessObject20SetAbortGenerateDataEb@Base 5.0.0
 (optional=templinst)_ZN3itk20CreateObjectFunctionIN3otb12MSTARImageIOEE12CreateObjectEv@Base 5.0.0
 (optional=templinst)_ZN3itk20CreateObjectFunctionIN3otb12MSTARImageIOEED0Ev@Base 5.0.0
 (optional=templinst)_ZN3itk20CreateObjectFunctionIN3otb12MSTARImageIOEED1Ev@Base 5.0.0
 (optional=templinst)_ZN3itk20CreateObjectFunctionIN3otb12MSTARImageIOEED2Ev@Base 5.0.0
 (arch=i386)_ZN3itk6Object13SetObjectNameENSt7__cxx1112basic_stringIcSt11char_traitsIcESaIcEEE@Base 5.0.0
 _ZN3itk6Object13SetObjectNameESs@Base 5.0.0
 _ZN3otb11ImageIOBase11SetFileNameEPKc@Base 5.0.0
 (arch=i386)_ZN3otb11ImageIOBase11SetFileNameERKNSt7__cxx1112basic_stringIcSt11char_traitsIcESaIcEEE@Base 5.0.0
 _ZN3otb11ImageIOBase11SetFileNameERKSs@Base 5.0.0
 _ZN3otb11ImageIOBase11SetFileTypeENS0_8FileTypeE@Base 5.0.0
 _ZN3otb11ImageIOBase11SetIORegionEN3itk13ImageIORegionE@Base 5.0.0
 _ZN3otb11ImageIOBase12SetByteOrderENS0_9ByteOrderE@Base 5.0.0
 _ZN3otb11ImageIOBase12SetPixelTypeENS0_11IOPixelTypeE@Base 5.0.0
 _ZN3otb11ImageIOBase16SetComponentTypeENS0_15IOComponentTypeE@Base 5.0.0
 _ZN3otb11ImageIOBase16UseCompressionOnEv@Base 5.0.0
 _ZN3otb11ImageIOBase17SetUseCompressionEb@Base 5.0.0
 _ZN3otb11ImageIOBase17SupportsDimensionEm@Base 5.0.0
 _ZN3otb11ImageIOBase17UseCompressionOffEv@Base 5.0.0
 _ZN3otb11ImageIOBase20UseStreamedReadingOnEv@Base 5.0.0
 _ZN3otb11ImageIOBase20UseStreamedWritingOnEv@Base 5.0.0
 _ZN3otb11ImageIOBase21SetNumberOfComponentsEj@Base 5.0.0
 _ZN3otb11ImageIOBase21SetUseStreamedReadingEb@Base 5.0.0
 _ZN3otb11ImageIOBase21SetUseStreamedWritingEb@Base 5.0.0
 _ZN3otb11ImageIOBase21UseStreamedReadingOffEv@Base 5.0.0
 _ZN3otb11ImageIOBase21UseStreamedWritingOffEv@Base 5.0.0
 _ZN3otb12MSTARImageIO11CanReadFileEPKc@Base 5.0.0
 _ZN3otb12MSTARImageIO12CanWriteFileEPKc@Base 5.0.0
 _ZN3otb12MSTARImageIO13CanStreamReadEv@Base 5.0.0
 _ZN3otb12MSTARImageIO14CanStreamWriteEv@Base 5.0.0
 _ZN3otb12MSTARImageIO14CheckByteOrderEv@Base 5.0.0
 _ZN3otb12MSTARImageIO14byteswap_SR_IREPh@Base 5.0.0
 (arch=i386)_ZN3otb12MSTARImageIO16GetOverviewsInfoB5cxx11Ev@Base 5.0.0
 _ZN3otb12MSTARImageIO16GetOverviewsInfoEv@Base 5.0.0
 _ZN3otb12MSTARImageIO16byteswap_SUS_IUSEPh@Base 5.0.0
 _ZN3otb12MSTARImageIO17GetOverviewsCountEv@Base 5.0.0
 _ZN3otb12MSTARImageIO20ReadImageInformationEv@Base 5.0.0
 _ZN3otb12MSTARImageIO21WriteImageInformationEv@Base 5.0.0
 _ZN3otb12MSTARImageIO23SetOutputImagePixelTypeEbb@Base 5.0.0
 _ZN3otb12MSTARImageIO4ReadEPv@Base 5.0.0
 _ZN3otb12MSTARImageIO5WriteEPKv@Base 5.0.0
 _ZN3otb12MSTARImageIOC1Ev@Base 5.0.0
 _ZN3otb12MSTARImageIOC2Ev@Base 5.0.0
 _ZN3otb12MSTARImageIOD0Ev@Base 5.0.0
 _ZN3otb12MSTARImageIOD1Ev@Base 5.0.0
 _ZN3otb12MSTARImageIOD2Ev@Base 5.0.0
 _ZN3otb19MSTARImageIOFactoryC1Ev@Base 5.0.0
 _ZN3otb19MSTARImageIOFactoryC2Ev@Base 5.0.0
 _ZN3otb19MSTARImageIOFactoryD0Ev@Base 5.0.0
 _ZN3otb19MSTARImageIOFactoryD1Ev@Base 5.0.0
 _ZN3otb19MSTARImageIOFactoryD2Ev@Base 5.0.0
 _ZN3otb36MSTARImageIOFactoryRegister__PrivateEv@Base 5.0.0
 _ZNK3itk11LightObject17GetReferenceCountEv@Base 5.0.0
 _ZNK3itk18LightProcessObject11GetProgressEv@Base 5.0.0
 _ZNK3itk18LightProcessObject20GetAbortGenerateDataEv@Base 5.0.0
 (optional=templinst)_ZNK3itk20CreateObjectFunctionIN3otb12MSTARImageIOEE13CreateAnotherEv@Base 5.0.0
 (arch=i386)_ZNK3itk6Object13GetObjectNameB5cxx11Ev@Base 5.0.0
 _ZNK3itk6Object13GetObjectNameEv@Base 5.0.0
 _ZNK3itk6Object14GetNameOfClassEv@Base 5.0.0
 _ZNK3otb11ImageIOBase10GetSpacingEj@Base 5.0.0
 _ZNK3otb11ImageIOBase11GetFileNameEv@Base 5.0.0
 _ZNK3otb11ImageIOBase11GetFileTypeEv@Base 5.0.0
 _ZNK3otb11ImageIOBase11GetIORegionEv@Base 5.0.0
 _ZNK3otb11ImageIOBase12GetByteOrderEv@Base 5.0.0
 _ZNK3otb11ImageIOBase12GetDirectionEj@Base 5.0.0
 _ZNK3otb11ImageIOBase12GetPixelTypeEv@Base 5.0.0
 _ZNK3otb11ImageIOBase13GetDimensionsEj@Base 5.0.0
 _ZNK3otb11ImageIOBase16GetComponentTypeEv@Base 5.0.0
 _ZNK3otb11ImageIOBase17GetUseCompressionEv@Base 5.0.0
 _ZNK3otb11ImageIOBase21GetNumberOfComponentsEv@Base 5.0.0
 _ZNK3otb11ImageIOBase21GetNumberOfDimensionsEv@Base 5.0.0
 _ZNK3otb11ImageIOBase21GetUseStreamedReadingEv@Base 5.0.0
 _ZNK3otb11ImageIOBase21GetUseStreamedWritingEv@Base 5.0.0
 _ZNK3otb11ImageIOBase9GetOriginEj@Base 5.0.0
 _ZNK3otb12MSTARImageIO13CreateAnotherEv@Base 5.0.0
 _ZNK3otb12MSTARImageIO14GetNameOfClassEv@Base 5.0.0
 _ZNK3otb12MSTARImageIO9PrintSelfERSoN3itk6IndentE@Base 5.0.0
 _ZNK3otb19MSTARImageIOFactory13CreateAnotherEv@Base 5.0.0
 _ZNK3otb19MSTARImageIOFactory14GetDescriptionEv@Base 5.0.0
 _ZNK3otb19MSTARImageIOFactory14GetNameOfClassEv@Base 5.0.0
 _ZNK3otb19MSTARImageIOFactory19GetITKSourceVersionEv@Base 5.0.0
 (optional=templinst)_ZNSt15basic_stringbufIcSt11char_traitsIcESaIcEED0Ev@Base 5.0.0
 (optional=templinst)_ZNSt15basic_stringbufIcSt11char_traitsIcESaIcEED1Ev@Base 5.0.0
 (optional=templinst)_ZNSt15basic_stringbufIcSt11char_traitsIcESaIcEED2Ev@Base 5.0.0
 (optional=templinst|arch=i386)_ZNSt7__cxx1115basic_stringbufIcSt11char_traitsIcESaIcEED0Ev@Base 5.0.0
 (optional=templinst|arch=i386)_ZNSt7__cxx1115basic_stringbufIcSt11char_traitsIcESaIcEED1Ev@Base 5.0.0
 (optional=templinst|arch=i386)_ZNSt7__cxx1115basic_stringbufIcSt11char_traitsIcESaIcEED2Ev@Base 5.0.0
 _ZTIN3itk20CreateObjectFunctionIN3otb12MSTARImageIOEEE@Base 5.0.0
 _ZTIN3itk24CreateObjectFunctionBaseE@Base 5.0.0
 _ZTIN3otb12MSTARImageIOE@Base 5.0.0
 _ZTIN3otb19MSTARImageIOFactoryE@Base 5.0.0
 _ZTSN3itk20CreateObjectFunctionIN3otb12MSTARImageIOEEE@Base 5.0.0
 _ZTSN3itk24CreateObjectFunctionBaseE@Base 5.0.0
 _ZTSN3otb12MSTARImageIOE@Base 5.0.0
 _ZTSN3otb19MSTARImageIOFactoryE@Base 5.0.0
 _ZTVN3itk20CreateObjectFunctionIN3otb12MSTARImageIOEEE@Base 5.0.0
 _ZTVN3itk24CreateObjectFunctionBaseE@Base 5.0.0
 _ZTVN3otb12MSTARImageIOE@Base 5.0.0
 _ZTVN3otb19MSTARImageIOFactoryE@Base 5.0.0
