# SymbolsHelper-Confirmed: 5.0.0 amd64 i386
libotbsiftfast-5.0.so.1 libotbsiftfast-5.0-1 #MINVER#
 AddSample@Base 5.0.0
 AssignOriHist@Base 5.0.0
 ConvBuffer@Base 5.0.0
 ConvHorizontal@Base 5.0.0
 ConvHorizontalFast@Base 5.0.0
 ConvVertical@Base 5.0.0
 ConvVerticalFast@Base 5.0.0
 CreateImage@Base 5.0.0
 CreateImageFromMatlabData@Base 5.0.0
 DestroyAllImages@Base 5.0.0
 DestroyAllResources@Base 5.0.0
 DoubleImSize@Base 5.0.0
 FindMaxMin@Base 5.0.0
 FitQuadratic@Base 5.0.0
 FreeKeypoints@Base 5.0.0
 GaussianBlur@Base 5.0.0
 GetKeypoints@Base 5.0.0
 GradOriImages@Base 5.0.0
 GradOriImagesFast@Base 5.0.0
 HalfImageSize@Base 5.0.0
 InitSigma@Base 5.0.0
 InterpKeyPoint@Base 5.0.0
 InterpPeak@Base 5.0.0
 KeySample@Base 5.0.0
 LocalMaxMin@Base 5.0.0
 MakeKeypoint@Base 5.0.0
 MakeKeypointSample@Base 5.0.0
 NormalizeVec@Base 5.0.0
 NotOnEdge@Base 5.0.0
 OctaveKeypoints@Base 5.0.0
 PeakThresh@Base 5.0.0
 PlaceInIndex@Base 5.0.0
 Scales@Base 5.0.0
 SiftCopyImage@Base 5.0.0
 SiftDoubleSize@Base 5.0.0
 SmoothHistogram@Base 5.0.0
 SolveLinearSystem@Base 5.0.0
 SubtractImage@Base 5.0.0
 _Z17sift_aligned_freePv@Base 5.0.0
 (optional=templinst)_ZNSt3mapIfPfSt4lessIfESaISt4pairIKfS0_EEED1Ev@Base 5.0.0
 (optional=templinst)_ZNSt3mapIfPfSt4lessIfESaISt4pairIKfS0_EEED2Ev@Base 5.0.0
 (optional=templinst)_ZNSt4listIP10KeypointStSaIS1_EED1Ev@Base 5.0.0
 (optional=templinst)_ZNSt4listIP10KeypointStSaIS1_EED2Ev@Base 5.0.0
 (optional=templinst)_ZNSt4listIP7ImageStSaIS1_EED1Ev@Base 5.0.0
 (optional=templinst)_ZNSt4listIP7ImageStSaIS1_EED2Ev@Base 5.0.0
 (optional=templinst)_ZNSt6vectorIPfSaIS0_EE13_M_insert_auxEN9__gnu_cxx17__normal_iteratorIPS0_S2_EERKS0_@Base 5.0.0
 (optional=templinst)_ZNSt6vectorIPfSaIS0_EED1Ev@Base 5.0.0
 (optional=templinst)_ZNSt6vectorIPfSaIS0_EED2Ev@Base 5.0.0
 (optional=templinst|arch=i386)_ZNSt6vectorIfSaIfEE14_M_fill_insertEN9__gnu_cxx17__normal_iteratorIPfS1_EEjRKf@Base 5.0.0
 (optional=templinst)_ZNSt6vectorIfSaIfEE14_M_fill_insertEN9__gnu_cxx17__normal_iteratorIPfS1_EEmRKf@Base 5.0.0
 (optional=templinst)_ZNSt6vectorIfSaIfEED1Ev@Base 5.0.0
 (optional=templinst)_ZNSt6vectorIfSaIfEED2Ev@Base 5.0.0
 (optional=templinst)_ZNSt7__cxx114listIP10KeypointStSaIS2_EED1Ev@Base 5.0.0
 (optional=templinst)_ZNSt7__cxx114listIP10KeypointStSaIS2_EED2Ev@Base 5.0.0
 (optional=templinst)_ZNSt7__cxx114listIP7ImageStSaIS2_EED1Ev@Base 5.0.0
 (optional=templinst)_ZNSt7__cxx114listIP7ImageStSaIS2_EED2Ev@Base 5.0.0
 (optional=templinst)_ZNSt8_Rb_treeIfSt4pairIKfPfESt10_Select1stIS3_ESt4lessIfESaIS3_EE17_M_insert_unique_ESt23_Rb_tree_const_iteratorIS3_ERKS3_@Base 5.0.0
 (optional=templinst|arch=i386)_ZNSt8_Rb_treeIfSt4pairIKfPfESt10_Select1stIS3_ESt4lessIfESaIS3_EE24_M_get_insert_unique_posERS1_@Base 5.0.0
 (optional=templinst|arch=amd64)_ZNSt8_Rb_treeIfSt4pairIKfPfESt10_Select1stIS3_ESt4lessIfESaIS3_EE29_M_get_insert_hint_unique_posESt23_Rb_tree_const_iteratorIS3_ERS1_@Base 5.0.0
 (optional=templinst)_ZNSt8_Rb_treeIfSt4pairIKfPfESt10_Select1stIS3_ESt4lessIfESaIS3_EE8_M_eraseEPSt13_Rb_tree_nodeIS3_E@Base 5.0.0
