# SymbolsHelper-Confirmed: 5.0.0 amd64 i386
libOTBCommandLine-5.0.so.1 libotbcommandline-5.0-1 #MINVER#
 _ZN3itk10LoggerBase18SetTimeStampFormatENS0_19TimeStampFormatTypeE@Base 5.0.0
 _ZN3itk10Statistics37MersenneTwisterRandomVariateGenerator10GetVariateEv@Base 5.0.0
 _ZN3itk10Statistics37MersenneTwisterRandomVariateGeneratorD0Ev@Base 5.0.0
 _ZN3itk10Statistics37MersenneTwisterRandomVariateGeneratorD1Ev@Base 5.0.0
 _ZN3itk10Statistics37MersenneTwisterRandomVariateGeneratorD2Ev@Base 5.0.0
 (optional=templinst)_ZN3itk13MemberCommandIN3otb7Wrapper19CommandLineLauncherEE7ExecuteEPKNS_6ObjectERKNS_11EventObjectE@Base 5.0.0
 (optional=templinst)_ZN3itk13MemberCommandIN3otb7Wrapper19CommandLineLauncherEE7ExecuteEPNS_6ObjectERKNS_11EventObjectE@Base 5.0.0
 (optional=templinst)_ZN3itk13MemberCommandIN3otb7Wrapper19CommandLineLauncherEED0Ev@Base 5.0.0
 (optional=templinst)_ZN3itk13MemberCommandIN3otb7Wrapper19CommandLineLauncherEED1Ev@Base 5.0.0
 (optional=templinst)_ZN3itk13MemberCommandIN3otb7Wrapper19CommandLineLauncherEED2Ev@Base 5.0.0
 (arch=i386)_ZN3itk6Object13SetObjectNameENSt7__cxx1112basic_stringIcSt11char_traitsIcESaIcEEE@Base 5.0.0
 _ZN3itk6Object13SetObjectNameESs@Base 5.0.0
 (arch=i386)_ZN3otb7Wrapper17CommandLineParser10GetKeyListERKNSt7__cxx1112basic_stringIcSt11char_traitsIcESaIcEEE@Base 5.0.0
 _ZN3otb7Wrapper17CommandLineParser10GetKeyListERKSs@Base 5.0.0
 (arch=i386)_ZN3otb7Wrapper17CommandLineParser10GetKeyListERKSt6vectorINSt7__cxx1112basic_stringIcSt11char_traitsIcESaIcEEESaIS8_EE@Base 5.0.0
 _ZN3otb7Wrapper17CommandLineParser10GetKeyListERKSt6vectorISsSaISsEE@Base 5.0.0
 (arch=i386)_ZN3otb7Wrapper17CommandLineParser11GetAttributERKNSt7__cxx1112basic_stringIcSt11char_traitsIcESaIcEEERKSt6vectorIS7_SaIS7_EE@Base 5.0.0
 (arch=i386)_ZN3otb7Wrapper17CommandLineParser11GetAttributERKNSt7__cxx1112basic_stringIcSt11char_traitsIcESaIcEEES9_@Base 5.0.0
 _ZN3otb7Wrapper17CommandLineParser11GetAttributERKSsRKSt6vectorISsSaISsEE@Base 5.0.0
 _ZN3otb7Wrapper17CommandLineParser11GetAttributERKSsS3_@Base 5.0.0
 (arch=i386)_ZN3otb7Wrapper17CommandLineParser11IsAValidKeyERKNSt7__cxx1112basic_stringIcSt11char_traitsIcESaIcEEE@Base 5.0.0
 _ZN3otb7Wrapper17CommandLineParser11IsAValidKeyERKSs@Base 5.0.0
 (arch=i386)_ZN3otb7Wrapper17CommandLineParser13GetModuleNameERNSt7__cxx1112basic_stringIcSt11char_traitsIcESaIcEEERKS7_@Base 5.0.0
 (arch=i386)_ZN3otb7Wrapper17CommandLineParser13GetModuleNameERNSt7__cxx1112basic_stringIcSt11char_traitsIcESaIcEEERKSt6vectorIS7_SaIS7_EE@Base 5.0.0
 _ZN3otb7Wrapper17CommandLineParser13GetModuleNameERSsRKSs@Base 5.0.0
 _ZN3otb7Wrapper17CommandLineParser13GetModuleNameERSsRKSt6vectorISsSaISsEE@Base 5.0.0
 (arch=i386)_ZN3otb7Wrapper17CommandLineParser16GetPathsAsStringERKNSt7__cxx1112basic_stringIcSt11char_traitsIcESaIcEEE@Base 5.0.0
 _ZN3otb7Wrapper17CommandLineParser16GetPathsAsStringERKSs@Base 5.0.0
 (arch=i386)_ZN3otb7Wrapper17CommandLineParser16GetPathsAsStringERKSt6vectorINSt7__cxx1112basic_stringIcSt11char_traitsIcESaIcEEESaIS8_EE@Base 5.0.0
 _ZN3otb7Wrapper17CommandLineParser16GetPathsAsStringERKSt6vectorISsSaISsEE@Base 5.0.0
 (arch=i386)_ZN3otb7Wrapper17CommandLineParser16IsAttributExistsENSt7__cxx1112basic_stringIcSt11char_traitsIcESaIcEEERKS7_@Base 5.0.0
 (arch=i386)_ZN3otb7Wrapper17CommandLineParser16IsAttributExistsENSt7__cxx1112basic_stringIcSt11char_traitsIcESaIcEEERKSt6vectorIS7_SaIS7_EE@Base 5.0.0
 _ZN3otb7Wrapper17CommandLineParser16IsAttributExistsESsRKSs@Base 5.0.0
 _ZN3otb7Wrapper17CommandLineParser16IsAttributExistsESsRKSt6vectorISsSaISsEE@Base 5.0.0
 (arch=i386)_ZN3otb7Wrapper17CommandLineParser19GetAttributAsStringERKNSt7__cxx1112basic_stringIcSt11char_traitsIcESaIcEEERKSt6vectorIS7_SaIS7_EE@Base 5.0.0
 (arch=i386)_ZN3otb7Wrapper17CommandLineParser19GetAttributAsStringERKNSt7__cxx1112basic_stringIcSt11char_traitsIcESaIcEEES9_@Base 5.0.0
 _ZN3otb7Wrapper17CommandLineParser19GetAttributAsStringERKSsRKSt6vectorISsSaISsEE@Base 5.0.0
 _ZN3otb7Wrapper17CommandLineParser19GetAttributAsStringERKSsS3_@Base 5.0.0
 (arch=i386)_ZN3otb7Wrapper17CommandLineParser8GetPathsERSt6vectorINSt7__cxx1112basic_stringIcSt11char_traitsIcESaIcEEESaIS8_EERKS8_@Base 5.0.0
 (arch=i386)_ZN3otb7Wrapper17CommandLineParser8GetPathsERSt6vectorINSt7__cxx1112basic_stringIcSt11char_traitsIcESaIcEEESaIS8_EERKSA_@Base 5.0.0
 _ZN3otb7Wrapper17CommandLineParser8GetPathsERSt6vectorISsSaISsEERKS4_@Base 5.0.0
 _ZN3otb7Wrapper17CommandLineParser8GetPathsERSt6vectorISsSaISsEERKSs@Base 5.0.0
 _ZN3otb7Wrapper17CommandLineParserC1Ev@Base 5.0.0
 _ZN3otb7Wrapper17CommandLineParserC2Ev@Base 5.0.0
 _ZN3otb7Wrapper17CommandLineParserD0Ev@Base 5.0.0
 _ZN3otb7Wrapper17CommandLineParserD1Ev@Base 5.0.0
 _ZN3otb7Wrapper17CommandLineParserD2Ev@Base 5.0.0
 _ZN3otb7Wrapper19CommandLineLauncher11DisplayHelpEv@Base 5.0.0
 _ZN3otb7Wrapper19CommandLineLauncher11LoadTestEnvEv@Base 5.0.0
 _ZN3otb7Wrapper19CommandLineLauncher12CheckUnicityEv@Base 5.0.0
 _ZN3otb7Wrapper19CommandLineLauncher12LinkWatchersEPN3itk6ObjectERKNS2_11EventObjectE@Base 5.0.0
 _ZN3otb7Wrapper19CommandLineLauncher13BeforeExecuteEv@Base 5.0.0
 _ZN3otb7Wrapper19CommandLineLauncher14LoadParametersEv@Base 5.0.0
 _ZN3otb7Wrapper19CommandLineLauncher15LoadApplicationEv@Base 5.0.0
 (arch=i386)_ZN3otb7Wrapper19CommandLineLauncher16CheckKeyValidityERNSt7__cxx1112basic_stringIcSt11char_traitsIcESaIcEEE@Base 5.0.0
 _ZN3otb7Wrapper19CommandLineLauncher16CheckKeyValidityERSs@Base 5.0.0
 _ZN3otb7Wrapper19CommandLineLauncher17DeleteWatcherListEv@Base 5.0.0
 (arch=i386)_ZN3otb7Wrapper19CommandLineLauncher20DisplayParameterHelpERKN3itk12SmartPointerINS0_9ParameterEEENSt7__cxx1112basic_stringIcSt11char_traitsIcESaIcEEE@Base 5.0.0
 _ZN3otb7Wrapper19CommandLineLauncher20DisplayParameterHelpERKN3itk12SmartPointerINS0_9ParameterEEESs@Base 5.0.0
 _ZN3otb7Wrapper19CommandLineLauncher21CheckParametersPrefixEv@Base 5.0.0
 _ZN3otb7Wrapper19CommandLineLauncher21ExecuteAndWriteOutputEv@Base 5.0.0
 _ZN3otb7Wrapper19CommandLineLauncher23DisplayOutputParametersEv@Base 5.0.0
 (arch=i386)_ZN3otb7Wrapper19CommandLineLauncher4LoadERKSt6vectorINSt7__cxx1112basic_stringIcSt11char_traitsIcESaIcEEESaIS8_EE@Base 5.0.0
 _ZN3otb7Wrapper19CommandLineLauncher4LoadERKSt6vectorISsSaISsEE@Base 5.0.0
 _ZN3otb7Wrapper19CommandLineLauncher4LoadEv@Base 5.0.0
 _ZN3otb7Wrapper19CommandLineLauncher7ExecuteEv@Base 5.0.0
 _ZN3otb7Wrapper19CommandLineLauncher8LoadPathEv@Base 5.0.0
 _ZN3otb7Wrapper19CommandLineLauncherC1EPKc@Base 5.0.0
 _ZN3otb7Wrapper19CommandLineLauncherC1Ev@Base 5.0.0
 _ZN3otb7Wrapper19CommandLineLauncherC2EPKc@Base 5.0.0
 _ZN3otb7Wrapper19CommandLineLauncherC2Ev@Base 5.0.0
 _ZN3otb7Wrapper19CommandLineLauncherD0Ev@Base 5.0.0
 _ZN3otb7Wrapper19CommandLineLauncherD1Ev@Base 5.0.0
 _ZN3otb7Wrapper19CommandLineLauncherD2Ev@Base 5.0.0
 _ZN3otb7Wrapper20OutputImageParameter12SetPixelTypeENS0_14ImagePixelTypeE@Base 5.0.0
 _ZN3otb7Wrapper22AddProcessToWatchEvent10SetProcessEPN3itk13ProcessObjectE@Base 5.0.0
 (arch=i386)_ZN3otb7Wrapper22AddProcessToWatchEvent21SetProcessDescriptionENSt7__cxx1112basic_stringIcSt11char_traitsIcESaIcEEE@Base 5.0.0
 _ZN3otb7Wrapper22AddProcessToWatchEvent21SetProcessDescriptionESs@Base 5.0.0
 _ZN3otb7Wrapper22AddProcessToWatchEventD0Ev@Base 5.0.0
 _ZN3otb7Wrapper22AddProcessToWatchEventD1Ev@Base 5.0.0
 _ZN3otb7Wrapper22AddProcessToWatchEventD2Ev@Base 5.0.0
 _ZN3otb7Wrapper9Parameter12SetUserValueEb@Base 5.0.0
 _ZN3otb7Wrapper9Parameter9SetActiveEb@Base 5.0.0
 _ZNK3itk10Statistics26RandomVariateGeneratorBase14GetNameOfClassEv@Base 5.0.0
 _ZNK3itk10Statistics37MersenneTwisterRandomVariateGenerator14GetNameOfClassEv@Base 5.0.0
 _ZNK3itk11LightObject17GetReferenceCountEv@Base 5.0.0
 (optional=templinst)_ZNK3itk13MemberCommandIN3otb7Wrapper19CommandLineLauncherEE13CreateAnotherEv@Base 5.0.0
 (optional=templinst)_ZNK3itk13MemberCommandIN3otb7Wrapper19CommandLineLauncherEE14GetNameOfClassEv@Base 5.0.0
 (arch=i386)_ZNK3itk6Object13GetObjectNameB5cxx11Ev@Base 5.0.0
 _ZNK3itk6Object13GetObjectNameEv@Base 5.0.0
 _ZNK3otb7Wrapper11Application14GetDescriptionEv@Base 5.0.0
 _ZNK3otb7Wrapper11Application7GetNameEv@Base 5.0.0
 _ZNK3otb7Wrapper17CommandLineParser13CreateAnotherEv@Base 5.0.0
 _ZNK3otb7Wrapper17CommandLineParser14GetNameOfClassEv@Base 5.0.0
 _ZNK3otb7Wrapper19CommandLineLauncher13CreateAnotherEv@Base 5.0.0
 _ZNK3otb7Wrapper19CommandLineLauncher14GetNameOfClassEv@Base 5.0.0
 _ZNK3otb7Wrapper22AddProcessToWatchEvent10CheckEventEPKN3itk11EventObjectE@Base 5.0.0
 _ZNK3otb7Wrapper22AddProcessToWatchEvent10GetProcessEv@Base 5.0.0
 _ZNK3otb7Wrapper22AddProcessToWatchEvent10MakeObjectEv@Base 5.0.0
 _ZNK3otb7Wrapper22AddProcessToWatchEvent12GetEventNameEv@Base 5.0.0
 (arch=i386)_ZNK3otb7Wrapper22AddProcessToWatchEvent21GetProcessDescriptionB5cxx11Ev@Base 5.0.0
 _ZNK3otb7Wrapper22AddProcessToWatchEvent21GetProcessDescriptionEv@Base 5.0.0
 _ZNK3otb7Wrapper9Parameter12GetMandatoryEv@Base 5.0.0
 _ZNK3otb7Wrapper9Parameter17GetAutomaticValueEv@Base 5.0.0
 _ZNK3otb7Wrapper9Parameter6IsRootEv@Base 5.0.0
 _ZNK3otb7Wrapper9Parameter7GetNameEv@Base 5.0.0
 _ZNK3otb7Wrapper9Parameter7GetRoleEv@Base 5.0.0
 _ZNK3otb7Wrapper9Parameter7GetRootEv@Base 5.0.0
 _ZNK3otb7Wrapper9Parameter9GetActiveEb@Base 5.0.0
 (optional=templinst)_ZNKSt5ctypeIcE8do_widenEc@Base 5.0.0
 (optional=templinst)_ZNSt12_Destroy_auxILb0EE9__destroyIPSsEEvT_S3_@Base 5.0.0
 (optional=templinst)_ZNSt15basic_stringbufIcSt11char_traitsIcESaIcEED0Ev@Base 5.0.0
 (optional=templinst)_ZNSt15basic_stringbufIcSt11char_traitsIcESaIcEED1Ev@Base 5.0.0
 (optional=templinst)_ZNSt15basic_stringbufIcSt11char_traitsIcESaIcEED2Ev@Base 5.0.0
 (optional=templinst|arch=i386)_ZNSt4pairINSt7__cxx1112basic_stringIcSt11char_traitsIcESaIcEEES5_ED1Ev@Base 5.0.0
 (optional=templinst|arch=i386)_ZNSt4pairINSt7__cxx1112basic_stringIcSt11char_traitsIcESaIcEEES5_ED2Ev@Base 5.0.0
 (optional=templinst)_ZNSt4pairISsSsED1Ev@Base 5.0.0
 (optional=templinst)_ZNSt4pairISsSsED2Ev@Base 5.0.0
 (optional=templinst)_ZNSt6vectorIN6itksys6StringESaIS1_EED1Ev@Base 5.0.0
 (optional=templinst)_ZNSt6vectorIN6itksys6StringESaIS1_EED2Ev@Base 5.0.0
 (optional=templinst|arch=i386)_ZNSt6vectorINSt7__cxx1112basic_stringIcSt11char_traitsIcESaIcEEESaIS5_EE13_M_insert_auxEN9__gnu_cxx17__normal_iteratorIPS5_S7_EERKS5_@Base 5.0.0
 (optional=templinst|arch=i386)_ZNSt6vectorINSt7__cxx1112basic_stringIcSt11char_traitsIcESaIcEEESaIS5_EED1Ev@Base 5.0.0
 (optional=templinst|arch=i386)_ZNSt6vectorINSt7__cxx1112basic_stringIcSt11char_traitsIcESaIcEEESaIS5_EED2Ev@Base 5.0.0
 (optional=templinst|arch=i386)_ZNSt6vectorINSt7__cxx1112basic_stringIcSt11char_traitsIcESaIcEEESaIS5_EEaSERKS7_@Base 5.0.0
 (optional=templinst)_ZNSt6vectorIPN3otb28StandardOneLineFilterWatcherESaIS2_EE13_M_insert_auxEN9__gnu_cxx17__normal_iteratorIPS2_S4_EERKS2_@Base 5.0.0
 (optional=templinst)_ZNSt6vectorISsSaISsEE13_M_insert_auxEN9__gnu_cxx17__normal_iteratorIPSsS1_EERKSs@Base 5.0.0
 (optional=templinst)_ZNSt6vectorISsSaISsEED1Ev@Base 5.0.0
 (optional=templinst)_ZNSt6vectorISsSaISsEED2Ev@Base 5.0.0
 (optional=templinst)_ZNSt6vectorISsSaISsEEaSERKS1_@Base 5.0.0
 (optional=templinst|arch=i386)_ZNSt6vectorISt4pairINSt7__cxx1112basic_stringIcSt11char_traitsIcESaIcEEES6_ESaIS7_EED1Ev@Base 5.0.0
 (optional=templinst|arch=i386)_ZNSt6vectorISt4pairINSt7__cxx1112basic_stringIcSt11char_traitsIcESaIcEEES6_ESaIS7_EED2Ev@Base 5.0.0
 (optional=templinst|arch=i386)_ZNSt6vectorISt4pairINSt7__cxx1112basic_stringIcSt11char_traitsIcESaIcEEES6_ESaIS7_EEaSERKS9_@Base 5.0.0
 (optional=templinst)_ZNSt6vectorISt4pairISsSsESaIS1_EED1Ev@Base 5.0.0
 (optional=templinst)_ZNSt6vectorISt4pairISsSsESaIS1_EED2Ev@Base 5.0.0
 (optional=templinst)_ZNSt6vectorISt4pairISsSsESaIS1_EEaSERKS3_@Base 5.0.0
 (optional=templinst|arch=i386)_ZNSt7__cxx1115basic_stringbufIcSt11char_traitsIcESaIcEED0Ev@Base 5.0.0
 (optional=templinst|arch=i386)_ZNSt7__cxx1115basic_stringbufIcSt11char_traitsIcESaIcEED1Ev@Base 5.0.0
 (optional=templinst|arch=i386)_ZNSt7__cxx1115basic_stringbufIcSt11char_traitsIcESaIcEED2Ev@Base 5.0.0
 _ZTIN3itk10Statistics26RandomVariateGeneratorBaseE@Base 5.0.0
 _ZTIN3itk10Statistics37MersenneTwisterRandomVariateGeneratorE@Base 5.0.0
 _ZTIN3itk13MemberCommandIN3otb7Wrapper19CommandLineLauncherEEE@Base 5.0.0
 _ZTIN3otb7Wrapper14EmptyParameterE@Base 5.0.0
 _ZTIN3otb7Wrapper15StringParameterE@Base 5.0.0
 _ZTIN3otb7Wrapper17CommandLineParserE@Base 5.0.0
 _ZTIN3otb7Wrapper19CommandLineLauncherE@Base 5.0.0
 _ZTIN3otb7Wrapper19StringListParameterE@Base 5.0.0
 _ZTIN3otb7Wrapper22AddProcessToWatchEventE@Base 5.0.0
 _ZTIN3otb7Wrapper9ParameterE@Base 5.0.0
 _ZTSN3itk10Statistics26RandomVariateGeneratorBaseE@Base 5.0.0
 _ZTSN3itk10Statistics37MersenneTwisterRandomVariateGeneratorE@Base 5.0.0
 _ZTSN3itk13MemberCommandIN3otb7Wrapper19CommandLineLauncherEEE@Base 5.0.0
 _ZTSN3otb7Wrapper14EmptyParameterE@Base 5.0.0
 _ZTSN3otb7Wrapper15StringParameterE@Base 5.0.0
 _ZTSN3otb7Wrapper17CommandLineParserE@Base 5.0.0
 _ZTSN3otb7Wrapper19CommandLineLauncherE@Base 5.0.0
 _ZTSN3otb7Wrapper19StringListParameterE@Base 5.0.0
 _ZTSN3otb7Wrapper22AddProcessToWatchEventE@Base 5.0.0
 _ZTSN3otb7Wrapper9ParameterE@Base 5.0.0
 _ZTVN3itk10Statistics26RandomVariateGeneratorBaseE@Base 5.0.0
 _ZTVN3itk10Statistics37MersenneTwisterRandomVariateGeneratorE@Base 5.0.0
 _ZTVN3itk13MemberCommandIN3otb7Wrapper19CommandLineLauncherEEE@Base 5.0.0
 _ZTVN3otb7Wrapper17CommandLineParserE@Base 5.0.0
 _ZTVN3otb7Wrapper19CommandLineLauncherE@Base 5.0.0
 _ZTVN3otb7Wrapper22AddProcessToWatchEventE@Base 5.0.0
