# SymbolsHelper-Confirmed: 5.2.0 amd64
libOTBFuzzy-5.2.so.1 libotbfuzzy-5.2-1 #MINVER#
 _ZN13TiXmlDocumentD0Ev@Base 5.2.0
 _ZN13TiXmlDocumentD1Ev@Base 5.2.0
 _ZN13TiXmlDocumentD2Ev@Base 5.2.0
 _ZN3otb28FuzzyDescriptorsModelManager13AddDescriptorESsSt6vectorIdSaIdEERS1_ISt4pairISsS3_ESaIS5_EE@Base 5.2.0
 _ZN3otb28FuzzyDescriptorsModelManager13AddDescriptorESt4pairISsSt6vectorIdSaIdEEERS2_IS5_SaIS5_EE@Base 5.2.0
 _ZN3otb28FuzzyDescriptorsModelManager13GetDescriptorEPKcRKSt6vectorISt4pairISsS3_IdSaIdEEESaIS7_EE@Base 5.2.0
 _ZN3otb28FuzzyDescriptorsModelManager17GetDescriptorListERKSt6vectorISt4pairISsS1_IdSaIdEEESaIS5_EE@Base 5.2.0
 _ZN3otb28FuzzyDescriptorsModelManager4ReadERKSs@Base 5.2.0
 _ZN3otb28FuzzyDescriptorsModelManager4SaveERKSsRSt6vectorISt4pairISsS3_IdSaIdEEESaIS7_EE@Base 5.2.0
 _ZN3otb28FuzzyDescriptorsModelManager5PrintERKSt6vectorISt4pairISsS1_IdSaIdEEESaIS5_EE@Base 5.2.0
 _ZN3otb28FuzzyDescriptorsModelManagerC1Ev@Base 5.2.0
 _ZN3otb28FuzzyDescriptorsModelManagerC2Ev@Base 5.2.0
 _ZN3otb28FuzzyDescriptorsModelManagerD0Ev@Base 5.2.0
 _ZN3otb28FuzzyDescriptorsModelManagerD1Ev@Base 5.2.0
 _ZN3otb28FuzzyDescriptorsModelManagerD2Ev@Base 5.2.0
 _ZN9TiXmlNode9ToElementEv@Base 5.2.0
 (optional=templinst)_ZNKSt5ctypeIcE8do_widenEc@Base 5.2.0
 (optional=templinst)_ZNSt12_Destroy_auxILb0EE9__destroyIPSsEEvT_S3_@Base 5.2.0
 (optional=templinst)_ZNSt4pairISsSt6vectorIdSaIdEEED1Ev@Base 5.2.0
 (optional=templinst)_ZNSt4pairISsSt6vectorIdSaIdEEED2Ev@Base 5.2.0
 (optional=templinst)_ZNSt6vectorISsSaISsEE13_M_insert_auxEN9__gnu_cxx17__normal_iteratorIPSsS1_EERKSs@Base 5.2.0
 (optional=templinst)_ZNSt6vectorISt4pairISsS_IdSaIdEEESaIS3_EE13_M_insert_auxEN9__gnu_cxx17__normal_iteratorIPS3_S5_EERKS3_@Base 5.2.0
 (optional=templinst)_ZNSt6vectorISt4pairISsS_IdSaIdEEESaIS3_EED1Ev@Base 5.2.0
 (optional=templinst)_ZNSt6vectorISt4pairISsS_IdSaIdEEESaIS3_EED2Ev@Base 5.2.0
 (optional=templinst)_ZNSt6vectorIdSaIdEE13_M_insert_auxEN9__gnu_cxx17__normal_iteratorIPdS1_EERKd@Base 5.2.0
 (optional=templinst)_ZNSt6vectorIdSaIdEEaSERKS1_@Base 5.2.0
 _ZTIN3otb28FuzzyDescriptorsModelManagerE@Base 5.2.0
 _ZTSN3otb28FuzzyDescriptorsModelManagerE@Base 5.2.0
 _ZTVN3otb28FuzzyDescriptorsModelManagerE@Base 5.2.0
