# SymbolsHelper-Confirmed: 5.0.0 amd64
libOTBMathParser-5.0.so.1 libotbmathparser-5.0-1 #MINVER#
 _ZN3otb10ParserImpl16ExceptionHandlerERN2mu11ParserErrorE@Base 5.0.0
 _ZN3otb10ParserImpl21ExceptionHandlerDebugERN2mu11ParserErrorE@Base 5.0.0
 _ZN3otb10ParserImpl2OREdd@Base 5.0.0
 _ZN3otb10ParserImpl3ANDEdd@Base 5.0.0
 _ZN3otb10ParserImpl4NDVIEdd@Base 5.0.0
 _ZN3otb10ParserImpl7InitFunEv@Base 5.0.0
 _ZN3otb10ParserImpl7SetExprERKSs@Base 5.0.0
 _ZN3otb10ParserImpl9InitConstEv@Base 5.0.0
 _ZN3otb10ParserImplD0Ev@Base 5.0.0
 _ZN3otb10ParserImplD1Ev@Base 5.0.0
 _ZN3otb10ParserImplD2Ev@Base 5.0.0
 _ZN3otb6Parser4EvalEv@Base 5.0.0
 _ZN3otb6Parser7SetExprERKSs@Base 5.0.0
 _ZN3otb6Parser8ClearVarEv@Base 5.0.0
 _ZN3otb6Parser9CheckExprEv@Base 5.0.0
 _ZN3otb6Parser9DefineVarERKSsPd@Base 5.0.0
 _ZN3otb6ParserC1Ev@Base 5.0.0
 _ZN3otb6ParserC2Ev@Base 5.0.0
 _ZN3otb6ParserD0Ev@Base 5.0.0
 _ZN3otb6ParserD1Ev@Base 5.0.0
 _ZN3otb6ParserD2Ev@Base 5.0.0
 _ZNK3itk11LightObject17GetReferenceCountEv@Base 5.0.0
 _ZNK3otb10ParserImpl13CreateAnotherEv@Base 5.0.0
 _ZNK3otb10ParserImpl14GetNameOfClassEv@Base 5.0.0
 _ZNK3otb10ParserImpl9PrintSelfERSoN3itk6IndentE@Base 5.0.0
 _ZNK3otb6Parser10GetFunListEv@Base 5.0.0
 _ZNK3otb6Parser13CreateAnotherEv@Base 5.0.0
 _ZNK3otb6Parser14GetNameOfClassEv@Base 5.0.0
 _ZNK3otb6Parser6GetVarEv@Base 5.0.0
 _ZNK3otb6Parser7GetExprEv@Base 5.0.0
 _ZNK3otb6Parser9PrintSelfERSoN3itk6IndentE@Base 5.0.0
 (optional=templinst)_ZNSt8_Rb_treeISsSt4pairIKSsiESt10_Select1stIS2_ESt4lessISsESaIS2_EE17_M_insert_unique_ESt23_Rb_tree_const_iteratorIS2_ERKS2_@Base 5.0.0
 (optional=templinst)_ZNSt8_Rb_treeISsSt4pairIKSsiESt10_Select1stIS2_ESt4lessISsESaIS2_EE24_M_get_insert_unique_posERS1_@Base 5.0.0
 (optional=templinst)_ZNSt8_Rb_treeISsSt4pairIKSsiESt10_Select1stIS2_ESt4lessISsESaIS2_EE8_M_eraseEPSt13_Rb_tree_nodeIS2_E@Base 5.0.0
 _ZTIN2mu11ParserErrorE@Base 5.0.0
 _ZTIN3otb10ParserImplE@Base 5.0.0
 _ZTIN3otb6ParserE@Base 5.0.0
 _ZTSN2mu11ParserErrorE@Base 5.0.0
 _ZTSN3otb10ParserImplE@Base 5.0.0
 _ZTSN3otb6ParserE@Base 5.0.0
 _ZTVN3otb10ParserImplE@Base 5.0.0
 _ZTVN3otb6ParserE@Base 5.0.0
