# SymbolsHelper-Confirmed: 5.0.0 amd64
libOTBProjection-5.0.so.1 libotbprojection-5.0-1 #MINVER#
 (optional=templinst)_ZN18vnl_matrix_inverseIdED0Ev@Base 5.0.0
 (optional=templinst)_ZN18vnl_matrix_inverseIdED1Ev@Base 5.0.0
 (optional=templinst)_ZN18vnl_matrix_inverseIdED2Ev@Base 5.0.0
 (optional=templinst)_ZN3itk12SmartPointerINS_9TransformIdLj2ELj2EEEEaSEPS2_@Base 5.0.0
 _ZN3itk13ProcessObject18SetNumberOfThreadsEj@Base 5.0.0
 _ZN3itk13ProcessObject19AbortGenerateDataOnEv@Base 5.0.0
 _ZN3itk13ProcessObject20AbortGenerateDataOffEv@Base 5.0.0
 _ZN3itk13ProcessObject20SetAbortGenerateDataEb@Base 5.0.0
 _ZN3itk13ProcessObject26SetNumberOfRequiredOutputsEm@Base 5.0.0
 _ZN3itk13ProcessObject28EnlargeOutputRequestedRegionEPNS_10DataObjectE@Base 5.0.0
 _ZN3itk13ProcessObject29ReleaseDataBeforeUpdateFlagOnEv@Base 5.0.0
 _ZN3itk13ProcessObject30ReleaseDataBeforeUpdateFlagOffEv@Base 5.0.0
 _ZN3itk13ProcessObject30SetReleaseDataBeforeUpdateFlagEb@Base 5.0.0
 (optional=templinst)_ZN3itk15AffineTransformIdLj2EE5ScaleERKdb@Base 5.0.0
 (optional=templinst)_ZN3itk15AffineTransformIdLj2EE9TranslateERKNS_6VectorIdLj2EEEb@Base 5.0.0
 (optional=templinst)_ZN3itk15AffineTransformIdLj2EED0Ev@Base 5.0.0
 (optional=templinst)_ZN3itk15AffineTransformIdLj2EED1Ev@Base 5.0.0
 (optional=templinst)_ZN3itk15AffineTransformIdLj2EED2Ev@Base 5.0.0
 (optional=templinst)_ZN3itk17IdentityTransformIdLj2EE13SetParametersERKNS_19OptimizerParametersIdEE@Base 5.0.0
 (optional=templinst)_ZN3itk17IdentityTransformIdLj2EE18SetFixedParametersERKNS_19OptimizerParametersIdEE@Base 5.0.0
 (optional=templinst)_ZN3itk17IdentityTransformIdLj2EE3NewEv@Base 5.0.0
 (optional=templinst)_ZN3itk17IdentityTransformIdLj2EED0Ev@Base 5.0.0
 (optional=templinst)_ZN3itk17IdentityTransformIdLj2EED1Ev@Base 5.0.0
 (optional=templinst)_ZN3itk17IdentityTransformIdLj2EED2Ev@Base 5.0.0
 (optional=templinst)_ZN3itk19OptimizerParametersIdE15MoveDataPointerEPd@Base 5.0.0
 (optional=templinst)_ZN3itk19OptimizerParametersIdE19SetParametersObjectEPNS_11LightObjectE@Base 5.0.0
 (optional=templinst)_ZN3itk19OptimizerParametersIdE9SetHelperEPNS_25OptimizerParametersHelperIdEE@Base 5.0.0
 (optional=templinst)_ZN3itk19OptimizerParametersIdED0Ev@Base 5.0.0
 (optional=templinst)_ZN3itk19OptimizerParametersIdED1Ev@Base 5.0.0
 (optional=templinst)_ZN3itk19OptimizerParametersIdED2Ev@Base 5.0.0
 (optional=templinst)_ZN3itk20VariableLengthVectorIdE7SetSizeEjb@Base 5.0.0
 (optional=templinst)_ZN3itk23ScalableAffineTransformIdLj2EE11SetIdentityEv@Base 5.0.0
 (optional=templinst)_ZN3itk23ScalableAffineTransformIdLj2EE13ComputeMatrixEv@Base 5.0.0
 (optional=templinst)_ZN3itk23ScalableAffineTransformIdLj2EE17SetScaleComponentEPKd@Base 5.0.0
 (optional=templinst)_ZN3itk23ScalableAffineTransformIdLj2EE17SetScaleComponentERKNS_6VectorIdLj2EEE@Base 5.0.0
 (optional=templinst)_ZN3itk23ScalableAffineTransformIdLj2EE8SetScaleEPKd@Base 5.0.0
 (optional=templinst)_ZN3itk23ScalableAffineTransformIdLj2EE8SetScaleERKNS_6VectorIdLj2EEE@Base 5.0.0
 (optional=templinst)_ZN3itk23ScalableAffineTransformIdLj2EED0Ev@Base 5.0.0
 (optional=templinst)_ZN3itk23ScalableAffineTransformIdLj2EED1Ev@Base 5.0.0
 (optional=templinst)_ZN3itk23ScalableAffineTransformIdLj2EED2Ev@Base 5.0.0
 (optional=templinst)_ZN3itk25MatrixOffsetTransformBaseIdLj2ELj2EE11SetIdentityEv@Base 5.0.0
 (optional=templinst)_ZN3itk25MatrixOffsetTransformBaseIdLj2ELj2EE13ComputeMatrixEv@Base 5.0.0
 (optional=templinst)_ZN3itk25MatrixOffsetTransformBaseIdLj2ELj2EE13ComputeOffsetEv@Base 5.0.0
 (optional=templinst)_ZN3itk25MatrixOffsetTransformBaseIdLj2ELj2EE13SetParametersERKNS_19OptimizerParametersIdEE@Base 5.0.0
 (optional=templinst)_ZN3itk25MatrixOffsetTransformBaseIdLj2ELj2EE18ComputeTranslationEv@Base 5.0.0
 (optional=templinst)_ZN3itk25MatrixOffsetTransformBaseIdLj2ELj2EE18SetFixedParametersERKNS_19OptimizerParametersIdEE@Base 5.0.0
 (optional=templinst)_ZN3itk25MatrixOffsetTransformBaseIdLj2ELj2EE23ComputeMatrixParametersEv@Base 5.0.0
 (optional=templinst)_ZN3itk25MatrixOffsetTransformBaseIdLj2ELj2EE9SetMatrixERKNS_6MatrixIdLj2ELj2EEE@Base 5.0.0
 (optional=templinst)_ZN3itk25MatrixOffsetTransformBaseIdLj2ELj2EEC1Ej@Base 5.0.0
 (optional=templinst)_ZN3itk25MatrixOffsetTransformBaseIdLj2ELj2EEC1Ev@Base 5.0.0
 (optional=templinst)_ZN3itk25MatrixOffsetTransformBaseIdLj2ELj2EEC2Ej@Base 5.0.0
 (optional=templinst)_ZN3itk25MatrixOffsetTransformBaseIdLj2ELj2EEC2Ev@Base 5.0.0
 (optional=templinst)_ZN3itk25MatrixOffsetTransformBaseIdLj2ELj2EED0Ev@Base 5.0.0
 (optional=templinst)_ZN3itk25MatrixOffsetTransformBaseIdLj2ELj2EED1Ev@Base 5.0.0
 (optional=templinst)_ZN3itk25MatrixOffsetTransformBaseIdLj2ELj2EED2Ev@Base 5.0.0
 (optional=templinst)_ZN3itk25OptimizerParametersHelperIdE15MoveDataPointerEPNS_5ArrayIdEEPd@Base 5.0.0
 (optional=templinst)_ZN3itk25OptimizerParametersHelperIdE19SetParametersObjectEPNS_5ArrayIdEEPNS_11LightObjectE@Base 5.0.0
 (optional=templinst)_ZN3itk25OptimizerParametersHelperIdED0Ev@Base 5.0.0
 (optional=templinst)_ZN3itk25OptimizerParametersHelperIdED1Ev@Base 5.0.0
 (optional=templinst)_ZN3itk25OptimizerParametersHelperIdED2Ev@Base 5.0.0
 _ZN3itk6Object13SetObjectNameESs@Base 5.0.0
 (optional=templinst)_ZN3itk9TransformIdLj2ELj2EE20SetParametersByValueERKNS_19OptimizerParametersIdEE@Base 5.0.0
 (optional=templinst)_ZN3itk9TransformIdLj2ELj2EE25UpdateTransformParametersERKNS_5ArrayIdEEd@Base 5.0.0
 (optional=templinst)_ZN3itk9TransformIdLj2ELj2EEC1Em@Base 5.0.0
 (optional=templinst)_ZN3itk9TransformIdLj2ELj2EEC2Em@Base 5.0.0
 (optional=templinst)_ZN3itk9TransformIdLj2ELj2EED0Ev@Base 5.0.0
 (optional=templinst)_ZN3itk9TransformIdLj2ELj2EED1Ev@Base 5.0.0
 (optional=templinst)_ZN3itk9TransformIdLj2ELj2EED2Ev@Base 5.0.0
 (optional=templinst)_ZN3otb15SensorModelBaseIdLj2ELj2EE16SetImageGeometryERKNS_16ImageKeywordlistE@Base 5.0.0
 (optional=templinst)_ZN3otb15SensorModelBaseIdLj2ELj2EEC1Ev@Base 5.0.0
 (optional=templinst)_ZN3otb15SensorModelBaseIdLj2ELj2EEC2Ev@Base 5.0.0
 (optional=templinst)_ZN3otb15SensorModelBaseIdLj2ELj2EED0Ev@Base 5.0.0
 (optional=templinst)_ZN3otb15SensorModelBaseIdLj2ELj2EED1Ev@Base 5.0.0
 (optional=templinst)_ZN3otb15SensorModelBaseIdLj2ELj2EED2Ev@Base 5.0.0
 (optional=templinst)_ZN3otb18CompositeTransformIN3itk9TransformIdLj2ELj2EEES3_dLj2ELj2EE17SetFirstTransformEPS3_@Base 5.0.0
 (optional=templinst)_ZN3otb18CompositeTransformIN3itk9TransformIdLj2ELj2EEES3_dLj2ELj2EE18SetSecondTransformEPS3_@Base 5.0.0
 (optional=templinst)_ZN3otb18CompositeTransformIN3itk9TransformIdLj2ELj2EEES3_dLj2ELj2EEC1Ev@Base 5.0.0
 (optional=templinst)_ZN3otb18CompositeTransformIN3itk9TransformIdLj2ELj2EEES3_dLj2ELj2EEC2Ev@Base 5.0.0
 (optional=templinst)_ZN3otb18CompositeTransformIN3itk9TransformIdLj2ELj2EEES3_dLj2ELj2EED0Ev@Base 5.0.0
 (optional=templinst)_ZN3otb18CompositeTransformIN3itk9TransformIdLj2ELj2EEES3_dLj2ELj2EED1Ev@Base 5.0.0
 (optional=templinst)_ZN3otb18CompositeTransformIN3itk9TransformIdLj2ELj2EEES3_dLj2ELj2EED2Ev@Base 5.0.0
 (optional=templinst)_ZN3otb18ForwardSensorModelIdLj2ELj2EE3NewEv@Base 5.0.0
 (optional=templinst)_ZN3otb18ForwardSensorModelIdLj2ELj2EED0Ev@Base 5.0.0
 (optional=templinst)_ZN3otb18ForwardSensorModelIdLj2ELj2EED1Ev@Base 5.0.0
 (optional=templinst)_ZN3otb18ForwardSensorModelIdLj2ELj2EED2Ev@Base 5.0.0
 (optional=templinst)_ZN3otb18GenericRSTransformIdLj2ELj2EE10IsUpToDateEv@Base 5.0.0
 (optional=templinst)_ZN3otb18GenericRSTransformIdLj2ELj2EE13SetParametersERKN3itk19OptimizerParametersIdEE@Base 5.0.0
 (optional=templinst)_ZN3otb18GenericRSTransformIdLj2ELj2EE14SetInputOriginEN3itk5PointIdLj2EEE@Base 5.0.0
 (optional=templinst)_ZN3otb18GenericRSTransformIdLj2ELj2EE15SetInputSpacingEN3itk6VectorIdLj2EEE@Base 5.0.0
 (optional=templinst)_ZN3otb18GenericRSTransformIdLj2ELj2EE15SetOutputOriginEN3itk5PointIdLj2EEE@Base 5.0.0
 (optional=templinst)_ZN3otb18GenericRSTransformIdLj2ELj2EE16SetOutputSpacingEN3itk6VectorIdLj2EEE@Base 5.0.0
 (optional=templinst)_ZN3otb18GenericRSTransformIdLj2ELj2EE19GetInputKeywordListEv@Base 5.0.0
 (optional=templinst)_ZN3otb18GenericRSTransformIdLj2ELj2EE20GetOutputKeywordListEv@Base 5.0.0
 (optional=templinst)_ZN3otb18GenericRSTransformIdLj2ELj2EE20GetTransformAccuracyEv@Base 5.0.0
 (optional=templinst)_ZN3otb18GenericRSTransformIdLj2ELj2EE20InstanciateTransformEv@Base 5.0.0
 (optional=templinst)_ZN3otb18GenericRSTransformIdLj2ELj2EE21SetInputProjectionRefEPKc@Base 5.0.0
 (optional=templinst)_ZN3otb18GenericRSTransformIdLj2ELj2EE21SetInputProjectionRefERKSs@Base 5.0.0
 (optional=templinst)_ZN3otb18GenericRSTransformIdLj2ELj2EE22SetOutputProjectionRefEPKc@Base 5.0.0
 (optional=templinst)_ZN3otb18GenericRSTransformIdLj2ELj2EE22SetOutputProjectionRefERKSs@Base 5.0.0
 (optional=templinst)_ZN3otb18GenericRSTransformIdLj2ELj2EE3NewEv@Base 5.0.0
 (optional=templinst)_ZN3otb18GenericRSTransformIdLj2ELj2EEC1Ev@Base 5.0.0
 (optional=templinst)_ZN3otb18GenericRSTransformIdLj2ELj2EEC2Ev@Base 5.0.0
 (optional=templinst)_ZN3otb18GenericRSTransformIdLj2ELj2EED0Ev@Base 5.0.0
 (optional=templinst)_ZN3otb18GenericRSTransformIdLj2ELj2EED1Ev@Base 5.0.0
 (optional=templinst)_ZN3otb18GenericRSTransformIdLj2ELj2EED2Ev@Base 5.0.0
 (optional=templinst)_ZN3otb18InverseSensorModelIdLj2ELj2EE3NewEv@Base 5.0.0
 (optional=templinst)_ZN3otb18InverseSensorModelIdLj2ELj2EED0Ev@Base 5.0.0
 (optional=templinst)_ZN3otb18InverseSensorModelIdLj2ELj2EED1Ev@Base 5.0.0
 (optional=templinst)_ZN3otb18InverseSensorModelIdLj2ELj2EED2Ev@Base 5.0.0
 (optional=templinst)_ZN3otb20GenericMapProjectionILNS_18TransformDirection23TransformationDirectionE0EdLj2ELj2EE21InstanciateProjectionEv@Base 5.0.0
 (optional=templinst)_ZN3otb20GenericMapProjectionILNS_18TransformDirection23TransformationDirectionE0EdLj2ELj2EE3NewEv@Base 5.0.0
 (optional=templinst)_ZN3otb20GenericMapProjectionILNS_18TransformDirection23TransformationDirectionE0EdLj2ELj2EE6GetWktEv@Base 5.0.0
 (optional=templinst)_ZN3otb20GenericMapProjectionILNS_18TransformDirection23TransformationDirectionE0EdLj2ELj2EE6SetWktERKSs@Base 5.0.0
 (optional=templinst)_ZN3otb20GenericMapProjectionILNS_18TransformDirection23TransformationDirectionE0EdLj2ELj2EEC1Ev@Base 5.0.0
 (optional=templinst)_ZN3otb20GenericMapProjectionILNS_18TransformDirection23TransformationDirectionE0EdLj2ELj2EEC2Ev@Base 5.0.0
 (optional=templinst)_ZN3otb20GenericMapProjectionILNS_18TransformDirection23TransformationDirectionE0EdLj2ELj2EED0Ev@Base 5.0.0
 (optional=templinst)_ZN3otb20GenericMapProjectionILNS_18TransformDirection23TransformationDirectionE0EdLj2ELj2EED1Ev@Base 5.0.0
 (optional=templinst)_ZN3otb20GenericMapProjectionILNS_18TransformDirection23TransformationDirectionE0EdLj2ELj2EED2Ev@Base 5.0.0
 (optional=templinst)_ZN3otb20GenericMapProjectionILNS_18TransformDirection23TransformationDirectionE1EdLj2ELj2EE21InstanciateProjectionEv@Base 5.0.0
 (optional=templinst)_ZN3otb20GenericMapProjectionILNS_18TransformDirection23TransformationDirectionE1EdLj2ELj2EE3NewEv@Base 5.0.0
 (optional=templinst)_ZN3otb20GenericMapProjectionILNS_18TransformDirection23TransformationDirectionE1EdLj2ELj2EE6GetWktEv@Base 5.0.0
 (optional=templinst)_ZN3otb20GenericMapProjectionILNS_18TransformDirection23TransformationDirectionE1EdLj2ELj2EE6SetWktERKSs@Base 5.0.0
 (optional=templinst)_ZN3otb20GenericMapProjectionILNS_18TransformDirection23TransformationDirectionE1EdLj2ELj2EEC1Ev@Base 5.0.0
 (optional=templinst)_ZN3otb20GenericMapProjectionILNS_18TransformDirection23TransformationDirectionE1EdLj2ELj2EEC2Ev@Base 5.0.0
 (optional=templinst)_ZN3otb20GenericMapProjectionILNS_18TransformDirection23TransformationDirectionE1EdLj2ELj2EED0Ev@Base 5.0.0
 (optional=templinst)_ZN3otb20GenericMapProjectionILNS_18TransformDirection23TransformationDirectionE1EdLj2ELj2EED1Ev@Base 5.0.0
 (optional=templinst)_ZN3otb20GenericMapProjectionILNS_18TransformDirection23TransformationDirectionE1EdLj2ELj2EED2Ev@Base 5.0.0
 _ZN3otb26GeometriesProjectionFilter19GetInputKeywordListEv@Base 5.0.0
 _ZN3otb26GeometriesProjectionFilter20GetOutputKeywordListEv@Base 5.0.0
 _ZN3otb26GeometriesProjectionFilter22SetOutputProjectionRefEPKc@Base 5.0.0
 _ZN3otb26GeometriesProjectionFilter22SetOutputProjectionRefERKSs@Base 5.0.0
 _ZN3otb26GeometriesProjectionFilter24DoFinalizeInitialisationEv@Base 5.0.0
 _ZN3otb26GeometriesProjectionFilter25GenerateOutputInformationEv@Base 5.0.0
 _ZN3otb26GeometriesProjectionFilterC1Ev@Base 5.0.0
 _ZN3otb26GeometriesProjectionFilterC2Ev@Base 5.0.0
 _ZN3otb26GeometriesProjectionFilterD0Ev@Base 5.0.0
 _ZN3otb26GeometriesProjectionFilterD1Ev@Base 5.0.0
 _ZN3otb26GeometriesProjectionFilterD2Ev@Base 5.0.0
 (optional=templinst)_ZN3otb31TransformationFunctorDispatcherINS_8internal30ReprojectTransformationFunctorE11OGRGeometryNS_23FieldCopyTransformationEED1Ev@Base 5.0.0
 (optional=templinst)_ZN3otb31TransformationFunctorDispatcherINS_8internal30ReprojectTransformationFunctorE11OGRGeometryNS_23FieldCopyTransformationEED2Ev@Base 5.0.0
 _ZN3otb38PleiadesPToXSAffineTransformCalculator10CanComputeEPKN3itk9ImageBaseILj2EEES5_@Base 5.0.0
 _ZN3otb38PleiadesPToXSAffineTransformCalculator7ComputeEPKN3itk9ImageBaseILj2EEES5_@Base 5.0.0
 (optional=templinst)_ZN3otb3ogr14ImageReferenceIdE9SetOriginEN3itk5PointIdLj2EEE@Base 5.0.0
 (optional=templinst)_ZN3otb3ogr5applyIN5boost12interprocess10unique_ptrI11OGRGeometryNS0_8internal15GeometryDeleterEEEKS5_NS_8internal30ReprojectTransformationFunctor6ByCopyEEET_PT0_T1_@Base 5.0.0
 (optional=templinst)_ZN3otb3ogr5applyIv11OGRGeometryNS_8internal30ReprojectTransformationFunctor7InPlaceEEET_PT0_T1_@Base 5.0.0
 _ZN3otb3ogr7Feature19SetGeometryDirectlyEN5boost12interprocess10unique_ptrI11OGRGeometryNS0_8internal15GeometryDeleterEEE@Base 5.0.0
 (optional=templinst)_ZN3otb9TransformIdLj2ELj2EE13SetParametersERKN3itk19OptimizerParametersIdEE@Base 5.0.0
 (optional=templinst)_ZN3otb9TransformIdLj2ELj2EE18SetFixedParametersERKN3itk19OptimizerParametersIdEE@Base 5.0.0
 (optional=templinst)_ZN3otb9TransformIdLj2ELj2EE20SetParametersByValueERKN3itk19OptimizerParametersIdEE@Base 5.0.0
 (optional=templinst)_ZN3otb9TransformIdLj2ELj2EED0Ev@Base 5.0.0
 (optional=templinst)_ZN3otb9TransformIdLj2ELj2EED1Ev@Base 5.0.0
 (optional=templinst)_ZN3otb9TransformIdLj2ELj2EED2Ev@Base 5.0.0
 (optional=templinst)_ZN5boost12interprocess10unique_ptrI11OGRGeometryN3otb3ogr8internal15GeometryDeleterEED1Ev@Base 5.0.0
 (optional=templinst)_ZN5boost12interprocess10unique_ptrI11OGRGeometryN3otb3ogr8internal15GeometryDeleterEED2Ev@Base 5.0.0
 _ZN5boost6detail15sp_counted_base7destroyEv@Base 5.0.0
 (optional=templinst)_ZN7vnl_svdIdED0Ev@Base 5.0.0
 (optional=templinst)_ZN7vnl_svdIdED1Ev@Base 5.0.0
 (optional=templinst)_ZN7vnl_svdIdED2Ev@Base 5.0.0
 _ZNK3itk11LightObject17GetReferenceCountEv@Base 5.0.0
 _ZNK3itk13ProcessObject11GetProgressEv@Base 5.0.0
 _ZNK3itk13ProcessObject18GetNumberOfThreadsEv@Base 5.0.0
 _ZNK3itk13ProcessObject19GetPrimaryInputNameEv@Base 5.0.0
 _ZNK3itk13ProcessObject20GetAbortGenerateDataEv@Base 5.0.0
 _ZNK3itk13ProcessObject20GetPrimaryOutputNameEv@Base 5.0.0
 _ZNK3itk13ProcessObject25GetNumberOfRequiredInputsEv@Base 5.0.0
 _ZNK3itk13ProcessObject26GetNumberOfRequiredOutputsEv@Base 5.0.0
 _ZNK3itk13ProcessObject30GetReleaseDataBeforeUpdateFlagEv@Base 5.0.0
 (optional=templinst)_ZNK3itk15AffineTransformIdLj2EE13CreateAnotherEv@Base 5.0.0
 (optional=templinst)_ZNK3itk15AffineTransformIdLj2EE14GetNameOfClassEv@Base 5.0.0
 (optional=templinst)_ZNK3itk15AffineTransformIdLj2EE19GetInverseTransformEv@Base 5.0.0
 (optional=templinst)_ZNK3itk15AffineTransformIdLj2EE9PrintSelfERSoNS_6IndentE@Base 5.0.0
 (optional=templinst)_ZNK3itk17IdentityTransformIdLj2EE13CreateAnotherEv@Base 5.0.0
 (optional=templinst)_ZNK3itk17IdentityTransformIdLj2EE13GetParametersEv@Base 5.0.0
 (optional=templinst)_ZNK3itk17IdentityTransformIdLj2EE14GetNameOfClassEv@Base 5.0.0
 (optional=templinst)_ZNK3itk17IdentityTransformIdLj2EE14TransformPointERKNS_5PointIdLj2EEE@Base 5.0.0
 (optional=templinst)_ZNK3itk17IdentityTransformIdLj2EE15TransformVectorERK16vnl_vector_fixedIdLj2EE@Base 5.0.0
 (optional=templinst)_ZNK3itk17IdentityTransformIdLj2EE15TransformVectorERKNS_6VectorIdLj2EEE@Base 5.0.0
 (optional=templinst)_ZNK3itk17IdentityTransformIdLj2EE18GetFixedParametersEv@Base 5.0.0
 (optional=templinst)_ZNK3itk17IdentityTransformIdLj2EE19GetInverseTransformEv@Base 5.0.0
 (optional=templinst)_ZNK3itk17IdentityTransformIdLj2EE20GetTransformCategoryEv@Base 5.0.0
 (optional=templinst)_ZNK3itk17IdentityTransformIdLj2EE24TransformCovariantVectorERKNS_15CovariantVectorIdLj2EEE@Base 5.0.0
 (optional=templinst)_ZNK3itk17IdentityTransformIdLj2EE36ComputeJacobianWithRespectToPositionERKNS_5PointIdLj2EEERNS_7Array2DIdEE@Base 5.0.0
 (optional=templinst)_ZNK3itk17IdentityTransformIdLj2EE38ComputeJacobianWithRespectToParametersERKNS_5PointIdLj2EEERNS_7Array2DIdEE@Base 5.0.0
 (optional=templinst)_ZNK3itk20VariableLengthVectorIdE16AllocateElementsEj@Base 5.0.0
 (optional=templinst)_ZNK3itk21TransformBaseTemplateIdE14GetNameOfClassEv@Base 5.0.0
 (optional=templinst)_ZNK3itk22SymmetricEigenAnalysisINS_6MatrixIdLj3ELj3EEENS_10FixedArrayIdLj3EEES2_E28ComputeEigenValuesAndVectorsERKS2_RS4_RS2_@Base 5.0.0
 (optional=templinst)_ZNK3itk22SymmetricEigenAnalysisINS_6MatrixIdLj3ELj3EEENS_10FixedArrayIdLj3EEES2_E35ComputeEigenValuesAndVectorsUsingQLERS4_PdS7_@Base 5.0.0
 (optional=templinst)_ZNK3itk22SymmetricEigenAnalysisINS_6MatrixIdLj3ELj3EEENS_10FixedArrayIdLj3EEES2_E45ReduceToTridiagonalMatrixAndGetTransformationEPdRS4_S6_S6_@Base 5.0.0
 (optional=templinst)_ZNK3itk23ScalableAffineTransformIdLj2EE13CreateAnotherEv@Base 5.0.0
 (optional=templinst)_ZNK3itk23ScalableAffineTransformIdLj2EE14GetNameOfClassEv@Base 5.0.0
 (optional=templinst)_ZNK3itk23ScalableAffineTransformIdLj2EE17GetScaleComponentEv@Base 5.0.0
 (optional=templinst)_ZNK3itk23ScalableAffineTransformIdLj2EE19GetInverseTransformEv@Base 5.0.0
 (optional=templinst)_ZNK3itk23ScalableAffineTransformIdLj2EE8GetScaleEv@Base 5.0.0
 (optional=templinst)_ZNK3itk23ScalableAffineTransformIdLj2EE9PrintSelfERSoNS_6IndentE@Base 5.0.0
 (optional=templinst)_ZNK3itk25MatrixOffsetTransformBaseIdLj2ELj2EE10GetInverseEPS1_@Base 5.0.0
 (optional=templinst)_ZNK3itk25MatrixOffsetTransformBaseIdLj2ELj2EE13CreateAnotherEv@Base 5.0.0
 (optional=templinst)_ZNK3itk25MatrixOffsetTransformBaseIdLj2ELj2EE13GetParametersEv@Base 5.0.0
 (optional=templinst)_ZNK3itk25MatrixOffsetTransformBaseIdLj2ELj2EE14GetNameOfClassEv@Base 5.0.0
 (optional=templinst)_ZNK3itk25MatrixOffsetTransformBaseIdLj2ELj2EE14TransformPointERKNS_5PointIdLj2EEE@Base 5.0.0
 (optional=templinst)_ZNK3itk25MatrixOffsetTransformBaseIdLj2ELj2EE15TransformVectorERK16vnl_vector_fixedIdLj2EE@Base 5.0.0
 (optional=templinst)_ZNK3itk25MatrixOffsetTransformBaseIdLj2ELj2EE15TransformVectorERKNS_20VariableLengthVectorIdEE@Base 5.0.0
 (optional=templinst)_ZNK3itk25MatrixOffsetTransformBaseIdLj2ELj2EE15TransformVectorERKNS_6VectorIdLj2EEE@Base 5.0.0
 (optional=templinst)_ZNK3itk25MatrixOffsetTransformBaseIdLj2ELj2EE18GetFixedParametersEv@Base 5.0.0
 (optional=templinst)_ZNK3itk25MatrixOffsetTransformBaseIdLj2ELj2EE19GetInverseTransformEv@Base 5.0.0
 (optional=templinst)_ZNK3itk25MatrixOffsetTransformBaseIdLj2ELj2EE20GetTransformCategoryEv@Base 5.0.0
 (optional=templinst)_ZNK3itk25MatrixOffsetTransformBaseIdLj2ELj2EE24TransformCovariantVectorERKNS_15CovariantVectorIdLj2EEE@Base 5.0.0
 (optional=templinst)_ZNK3itk25MatrixOffsetTransformBaseIdLj2ELj2EE24TransformCovariantVectorERKNS_20VariableLengthVectorIdEE@Base 5.0.0
 (optional=templinst)_ZNK3itk25MatrixOffsetTransformBaseIdLj2ELj2EE26TransformDiffusionTensor3DERKNS_17DiffusionTensor3DIdEE@Base 5.0.0
 (optional=templinst)_ZNK3itk25MatrixOffsetTransformBaseIdLj2ELj2EE26TransformDiffusionTensor3DERKNS_20VariableLengthVectorIdEE@Base 5.0.0
 (optional=templinst)_ZNK3itk25MatrixOffsetTransformBaseIdLj2ELj2EE34TransformSymmetricSecondRankTensorERKNS_20VariableLengthVectorIdEE@Base 5.0.0
 (optional=templinst)_ZNK3itk25MatrixOffsetTransformBaseIdLj2ELj2EE34TransformSymmetricSecondRankTensorERKNS_25SymmetricSecondRankTensorIdLj2EEE@Base 5.0.0
 (optional=templinst)_ZNK3itk25MatrixOffsetTransformBaseIdLj2ELj2EE36ComputeJacobianWithRespectToPositionERKNS_5PointIdLj2EEERNS_7Array2DIdEE@Base 5.0.0
 (optional=templinst)_ZNK3itk25MatrixOffsetTransformBaseIdLj2ELj2EE38ComputeJacobianWithRespectToParametersERKNS_5PointIdLj2EEERNS_7Array2DIdEE@Base 5.0.0
 (optional=templinst)_ZNK3itk25MatrixOffsetTransformBaseIdLj2ELj2EE43ComputeInverseJacobianWithRespectToPositionERKNS_5PointIdLj2EEERNS_7Array2DIdEE@Base 5.0.0
 (optional=templinst)_ZNK3itk25MatrixOffsetTransformBaseIdLj2ELj2EE8IsLinearEv@Base 5.0.0
 (optional=templinst)_ZNK3itk25MatrixOffsetTransformBaseIdLj2ELj2EE9GetMatrixEv@Base 5.0.0
 (optional=templinst)_ZNK3itk25MatrixOffsetTransformBaseIdLj2ELj2EE9PrintSelfERSoNS_6IndentE@Base 5.0.0
 (optional=templinst)_ZNK3itk6MatrixIdLj2ELj2EE10GetInverseEv@Base 5.0.0
 _ZNK3itk6Object13GetObjectNameEv@Base 5.0.0
 (optional=templinst)_ZNK3itk9TransformIdLj2ELj2EE11GetJacobianERKNS_5PointIdLj2EEE@Base 5.0.0
 (optional=templinst)_ZNK3itk9TransformIdLj2ELj2EE13GetParametersEv@Base 5.0.0
 (optional=templinst)_ZNK3itk9TransformIdLj2ELj2EE13InternalCloneEv@Base 5.0.0
 (optional=templinst)_ZNK3itk9TransformIdLj2ELj2EE14GetNameOfClassEv@Base 5.0.0
 (optional=templinst)_ZNK3itk9TransformIdLj2ELj2EE15TransformVectorERK16vnl_vector_fixedIdLj2EE@Base 5.0.0
 (optional=templinst)_ZNK3itk9TransformIdLj2ELj2EE15TransformVectorERK16vnl_vector_fixedIdLj2EERKNS_5PointIdLj2EEE@Base 5.0.0
 (optional=templinst)_ZNK3itk9TransformIdLj2ELj2EE15TransformVectorERKNS_20VariableLengthVectorIdEE@Base 5.0.0
 (optional=templinst)_ZNK3itk9TransformIdLj2ELj2EE15TransformVectorERKNS_20VariableLengthVectorIdEERKNS_5PointIdLj2EEE@Base 5.0.0
 (optional=templinst)_ZNK3itk9TransformIdLj2ELj2EE15TransformVectorERKNS_6VectorIdLj2EEE@Base 5.0.0
 (optional=templinst)_ZNK3itk9TransformIdLj2ELj2EE15TransformVectorERKNS_6VectorIdLj2EEERKNS_5PointIdLj2EEE@Base 5.0.0
 (optional=templinst)_ZNK3itk9TransformIdLj2ELj2EE18GetFixedParametersEv@Base 5.0.0
 (optional=templinst)_ZNK3itk9TransformIdLj2ELj2EE19GetInverseTransformEv@Base 5.0.0
 (optional=templinst)_ZNK3itk9TransformIdLj2ELj2EE20GetTransformCategoryEv@Base 5.0.0
 (optional=templinst)_ZNK3itk9TransformIdLj2ELj2EE21GetNumberOfParametersEv@Base 5.0.0
 (optional=templinst)_ZNK3itk9TransformIdLj2ELj2EE22GetInputSpaceDimensionEv@Base 5.0.0
 (optional=templinst)_ZNK3itk9TransformIdLj2ELj2EE23GetOutputSpaceDimensionEv@Base 5.0.0
 (optional=templinst)_ZNK3itk9TransformIdLj2ELj2EE24GetTransformTypeAsStringEv@Base 5.0.0
 (optional=templinst)_ZNK3itk9TransformIdLj2ELj2EE24TransformCovariantVectorERKNS_15CovariantVectorIdLj2EEE@Base 5.0.0
 (optional=templinst)_ZNK3itk9TransformIdLj2ELj2EE24TransformCovariantVectorERKNS_15CovariantVectorIdLj2EEERKNS_5PointIdLj2EEE@Base 5.0.0
 (optional=templinst)_ZNK3itk9TransformIdLj2ELj2EE24TransformCovariantVectorERKNS_20VariableLengthVectorIdEE@Base 5.0.0
 (optional=templinst)_ZNK3itk9TransformIdLj2ELj2EE24TransformCovariantVectorERKNS_20VariableLengthVectorIdEERKNS_5PointIdLj2EEE@Base 5.0.0
 (optional=templinst)_ZNK3itk9TransformIdLj2ELj2EE26GetNumberOfLocalParametersEv@Base 5.0.0
 (optional=templinst)_ZNK3itk9TransformIdLj2ELj2EE26TransformDiffusionTensor3DERKNS_17DiffusionTensor3DIdEE@Base 5.0.0
 (optional=templinst)_ZNK3itk9TransformIdLj2ELj2EE26TransformDiffusionTensor3DERKNS_17DiffusionTensor3DIdEERKNS_5PointIdLj2EEE@Base 5.0.0
 (optional=templinst)_ZNK3itk9TransformIdLj2ELj2EE26TransformDiffusionTensor3DERKNS_20VariableLengthVectorIdEE@Base 5.0.0
 (optional=templinst)_ZNK3itk9TransformIdLj2ELj2EE26TransformDiffusionTensor3DERKNS_20VariableLengthVectorIdEERKNS_5PointIdLj2EEE@Base 5.0.0
 (optional=templinst)_ZNK3itk9TransformIdLj2ELj2EE34TransformSymmetricSecondRankTensorERKNS_20VariableLengthVectorIdEE@Base 5.0.0
 (optional=templinst)_ZNK3itk9TransformIdLj2ELj2EE34TransformSymmetricSecondRankTensorERKNS_20VariableLengthVectorIdEERKNS_5PointIdLj2EEE@Base 5.0.0
 (optional=templinst)_ZNK3itk9TransformIdLj2ELj2EE34TransformSymmetricSecondRankTensorERKNS_25SymmetricSecondRankTensorIdLj2EEE@Base 5.0.0
 (optional=templinst)_ZNK3itk9TransformIdLj2ELj2EE34TransformSymmetricSecondRankTensorERKNS_25SymmetricSecondRankTensorIdLj2EEERKNS_5PointIdLj2EEE@Base 5.0.0
 (optional=templinst)_ZNK3itk9TransformIdLj2ELj2EE36ComputeJacobianWithRespectToPositionERKNS_5PointIdLj2EEERNS_7Array2DIdEE@Base 5.0.0
 (optional=templinst)_ZNK3itk9TransformIdLj2ELj2EE43ComputeInverseJacobianWithRespectToPositionERKNS_5PointIdLj2EEERNS_7Array2DIdEE@Base 5.0.0
 (optional=templinst)_ZNK3itk9TransformIdLj2ELj2EE55ComputeJacobianWithRespectToParametersCachedTemporariesERKNS_5PointIdLj2EEERNS_7Array2DIdEES8_@Base 5.0.0
 (optional=templinst)_ZNK3itk9TransformIdLj2ELj2EE62PreservationOfPrincipalDirectionDiffusionTensor3DReorientationENS_17DiffusionTensor3DIdEENS_7Array2DIdEE@Base 5.0.0
 (optional=templinst)_ZNK3itk9TransformIdLj2ELj2EE8IsLinearEv@Base 5.0.0
 (optional=templinst)_ZNK3otb15SensorModelBaseIdLj2ELj2EE13CreateAnotherEv@Base 5.0.0
 (optional=templinst)_ZNK3otb15SensorModelBaseIdLj2ELj2EE14GetNameOfClassEv@Base 5.0.0
 (optional=templinst)_ZNK3otb15SensorModelBaseIdLj2ELj2EE9PrintSelfERSoN3itk6IndentE@Base 5.0.0
 (optional=templinst)_ZNK3otb18CompositeTransformIN3itk9TransformIdLj2ELj2EEES3_dLj2ELj2EE13CreateAnotherEv@Base 5.0.0
 (optional=templinst)_ZNK3otb18CompositeTransformIN3itk9TransformIdLj2ELj2EEES3_dLj2ELj2EE14GetNameOfClassEv@Base 5.0.0
 (optional=templinst)_ZNK3otb18CompositeTransformIN3itk9TransformIdLj2ELj2EEES3_dLj2ELj2EE14TransformPointERKNS1_5PointIdLj2EEE@Base 5.0.0
 (optional=templinst)_ZNK3otb18CompositeTransformIN3itk9TransformIdLj2ELj2EEES3_dLj2ELj2EE17GetFirstTransformEv@Base 5.0.0
 (optional=templinst)_ZNK3otb18CompositeTransformIN3itk9TransformIdLj2ELj2EEES3_dLj2ELj2EE18GetSecondTransformEv@Base 5.0.0
 (optional=templinst)_ZNK3otb18ForwardSensorModelIdLj2ELj2EE13CreateAnotherEv@Base 5.0.0
 (optional=templinst)_ZNK3otb18ForwardSensorModelIdLj2ELj2EE14GetNameOfClassEv@Base 5.0.0
 (optional=templinst)_ZNK3otb18ForwardSensorModelIdLj2ELj2EE14TransformPointERKN3itk5PointIdLj2EEE@Base 5.0.0
 (optional=templinst)_ZNK3otb18ForwardSensorModelIdLj2ELj2EE9PrintSelfERSoN3itk6IndentE@Base 5.0.0
 (optional=templinst)_ZNK3otb18GenericRSTransformIdLj2ELj2EE10GetInverseEPS1_@Base 5.0.0
 (optional=templinst)_ZNK3otb18GenericRSTransformIdLj2ELj2EE12GetTransformEv@Base 5.0.0
 (optional=templinst)_ZNK3otb18GenericRSTransformIdLj2ELj2EE13CreateAnotherEv@Base 5.0.0
 (optional=templinst)_ZNK3otb18GenericRSTransformIdLj2ELj2EE14GetInputOriginEv@Base 5.0.0
 (optional=templinst)_ZNK3otb18GenericRSTransformIdLj2ELj2EE14GetNameOfClassEv@Base 5.0.0
 (optional=templinst)_ZNK3otb18GenericRSTransformIdLj2ELj2EE14TransformPointERKN3itk5PointIdLj2EEE@Base 5.0.0
 (optional=templinst)_ZNK3otb18GenericRSTransformIdLj2ELj2EE15GetInputSpacingEv@Base 5.0.0
 (optional=templinst)_ZNK3otb18GenericRSTransformIdLj2ELj2EE15GetOutputOriginEv@Base 5.0.0
 (optional=templinst)_ZNK3otb18GenericRSTransformIdLj2ELj2EE16GetOutputSpacingEv@Base 5.0.0
 (optional=templinst)_ZNK3otb18GenericRSTransformIdLj2ELj2EE19GetInverseTransformEv@Base 5.0.0
 (optional=templinst)_ZNK3otb18GenericRSTransformIdLj2ELj2EE21GetInputProjectionRefEv@Base 5.0.0
 (optional=templinst)_ZNK3otb18GenericRSTransformIdLj2ELj2EE22GetOutputProjectionRefEv@Base 5.0.0
 (optional=templinst)_ZNK3otb18GenericRSTransformIdLj2ELj2EE38ComputeJacobianWithRespectToParametersERKN3itk5PointIdLj2EEERNS2_7Array2DIdEE@Base 5.0.0
 (optional=templinst)_ZNK3otb18GenericRSTransformIdLj2ELj2EE8ModifiedEv@Base 5.0.0
 (optional=templinst)_ZNK3otb18GenericRSTransformIdLj2ELj2EE9PrintSelfERSoN3itk6IndentE@Base 5.0.0
 (optional=templinst)_ZNK3otb18InverseSensorModelIdLj2ELj2EE13CreateAnotherEv@Base 5.0.0
 (optional=templinst)_ZNK3otb18InverseSensorModelIdLj2ELj2EE14GetNameOfClassEv@Base 5.0.0
 (optional=templinst)_ZNK3otb18InverseSensorModelIdLj2ELj2EE14TransformPointERKN3itk5PointIdLj2EEE@Base 5.0.0
 (optional=templinst)_ZNK3otb18InverseSensorModelIdLj2ELj2EE9PrintSelfERSoN3itk6IndentE@Base 5.0.0
 (optional=templinst)_ZNK3otb20GenericMapProjectionILNS_18TransformDirection23TransformationDirectionE0EdLj2ELj2EE13CreateAnotherEv@Base 5.0.0
 (optional=templinst)_ZNK3otb20GenericMapProjectionILNS_18TransformDirection23TransformationDirectionE0EdLj2ELj2EE14GetNameOfClassEv@Base 5.0.0
 (optional=templinst)_ZNK3otb20GenericMapProjectionILNS_18TransformDirection23TransformationDirectionE0EdLj2ELj2EE14TransformPointERKN3itk5PointIdLj2EEE@Base 5.0.0
 (optional=templinst)_ZNK3otb20GenericMapProjectionILNS_18TransformDirection23TransformationDirectionE0EdLj2ELj2EE19IsProjectionDefinedEv@Base 5.0.0
 (optional=templinst)_ZNK3otb20GenericMapProjectionILNS_18TransformDirection23TransformationDirectionE0EdLj2ELj2EE8PrintMapEv@Base 5.0.0
 (optional=templinst)_ZNK3otb20GenericMapProjectionILNS_18TransformDirection23TransformationDirectionE0EdLj2ELj2EE9PrintSelfERSoN3itk6IndentE@Base 5.0.0
 (optional=templinst)_ZNK3otb20GenericMapProjectionILNS_18TransformDirection23TransformationDirectionE1EdLj2ELj2EE13CreateAnotherEv@Base 5.0.0
 (optional=templinst)_ZNK3otb20GenericMapProjectionILNS_18TransformDirection23TransformationDirectionE1EdLj2ELj2EE14GetNameOfClassEv@Base 5.0.0
 (optional=templinst)_ZNK3otb20GenericMapProjectionILNS_18TransformDirection23TransformationDirectionE1EdLj2ELj2EE14TransformPointERKN3itk5PointIdLj2EEE@Base 5.0.0
 (optional=templinst)_ZNK3otb20GenericMapProjectionILNS_18TransformDirection23TransformationDirectionE1EdLj2ELj2EE19IsProjectionDefinedEv@Base 5.0.0
 (optional=templinst)_ZNK3otb20GenericMapProjectionILNS_18TransformDirection23TransformationDirectionE1EdLj2ELj2EE8PrintMapEv@Base 5.0.0
 (optional=templinst)_ZNK3otb20GenericMapProjectionILNS_18TransformDirection23TransformationDirectionE1EdLj2ELj2EE9PrintSelfERSoN3itk6IndentE@Base 5.0.0
 _ZNK3otb26GeometriesProjectionFilter13CreateAnotherEv@Base 5.0.0
 _ZNK3otb26GeometriesProjectionFilter14DoProcessLayerERKNS_3ogr5LayerERS2_@Base 5.0.0
 _ZNK3otb26GeometriesProjectionFilter14GetNameOfClassEv@Base 5.0.0
 _ZNK3otb26GeometriesProjectionFilter22DoDefineNewLayerFieldsERKNS_3ogr5LayerERS2_@Base 5.0.0
 _ZNK3otb26GeometriesProjectionFilter22GetOutputProjectionRefEv@Base 5.0.0
 _ZNK3otb26GeometriesProjectionFilter32DoDefineNewLayerSpatialReferenceERKNS_3ogr5LayerE@Base 5.0.0
 (optional=templinst)_ZNK3otb31TransformationFunctorDispatcherINS_8internal30ReprojectTransformationFunctorE11OGRGeometryNS_23FieldCopyTransformationEEclERKNS_3ogr5LayerERS7_@Base 5.0.0
 (optional=templinst)_ZNK3otb3ogr14ImageReferenceIdE10GetSpacingEv@Base 5.0.0
 (optional=templinst)_ZNK3otb3ogr14ImageReferenceIdE9GetOriginEv@Base 5.0.0
 _ZNK3otb8internal30ReprojectTransformationFunctor12do_transformER10OGRPolygon@Base 5.0.0
 _ZNK3otb8internal30ReprojectTransformationFunctor12do_transformER13OGRLineString@Base 5.0.0
 _ZNK3otb8internal30ReprojectTransformationFunctor12do_transformER21OGRGeometryCollection@Base 5.0.0
 _ZNK3otb8internal30ReprojectTransformationFunctor12do_transformER8OGRPoint@Base 5.0.0
 _ZNK3otb8internal30ReprojectTransformationFunctor13apply_inplaceEP11OGRGeometry@Base 5.0.0
 (optional=templinst)_ZNK3otb8internal30ReprojectTransformationFunctor6ByCopyclI13OGRMultiPointEEN5boost12interprocess10unique_ptrI11OGRGeometryNS_3ogr8internal15GeometryDeleterEEEPKT_@Base 5.0.0
 (optional=templinst)_ZNK3otb8internal30ReprojectTransformationFunctor6ByCopyclI15OGRMultiPolygonEEN5boost12interprocess10unique_ptrI11OGRGeometryNS_3ogr8internal15GeometryDeleterEEEPKT_@Base 5.0.0
 (optional=templinst)_ZNK3otb8internal30ReprojectTransformationFunctor6ByCopyclI18OGRMultiLineStringEEN5boost12interprocess10unique_ptrI11OGRGeometryNS_3ogr8internal15GeometryDeleterEEEPKT_@Base 5.0.0
 (optional=templinst)_ZNK3otb8internal30ReprojectTransformationFunctor6ByCopyclI21OGRGeometryCollectionEEN5boost12interprocess10unique_ptrI11OGRGeometryNS_3ogr8internal15GeometryDeleterEEEPKT_@Base 5.0.0
 _ZNK3otb8internal30ReprojectTransformationFunctorclEPK11OGRGeometry@Base 5.0.0
 (optional=templinst)_ZNK3otb9TransformIdLj2ELj2EE11GetJacobianERKN3itk5PointIdLj2EEE@Base 5.0.0
 (optional=templinst)_ZNK3otb9TransformIdLj2ELj2EE13GetParametersEv@Base 5.0.0
 (optional=templinst)_ZNK3otb9TransformIdLj2ELj2EE14GetNameOfClassEv@Base 5.0.0
 (optional=templinst)_ZNK3otb9TransformIdLj2ELj2EE14TransforVectorERK16vnl_vector_fixedIdLj2EE@Base 5.0.0
 (optional=templinst)_ZNK3otb9TransformIdLj2ELj2EE14TransformPointERKN3itk5PointIdLj2EEE@Base 5.0.0
 (optional=templinst)_ZNK3otb9TransformIdLj2ELj2EE15TransformVectorERKN3itk6VectorIdLj2EEE@Base 5.0.0
 (optional=templinst)_ZNK3otb9TransformIdLj2ELj2EE18GetFixedParametersEv@Base 5.0.0
 (optional=templinst)_ZNK3otb9TransformIdLj2ELj2EE21GetNumberOfParametersEv@Base 5.0.0
 (optional=templinst)_ZNK3otb9TransformIdLj2ELj2EE22GetInputSpaceDimensionEv@Base 5.0.0
 (optional=templinst)_ZNK3otb9TransformIdLj2ELj2EE23GetOutputSpaceDimensionEv@Base 5.0.0
 (optional=templinst)_ZNK3otb9TransformIdLj2ELj2EE24TransformCovariantVectorERKN3itk15CovariantVectorIdLj2EEE@Base 5.0.0
 (optional=templinst)_ZNK3otb9TransformIdLj2ELj2EE38ComputeJacobianWithRespectToParametersERKN3itk5PointIdLj2EEERNS2_7Array2DIdEE@Base 5.0.0
 (optional=templinst)_ZNK3otb9TransformIdLj2ELj2EE9PrintSelfERSoN3itk6IndentE@Base 5.0.0
 (optional=templinst)_ZNKSt5ctypeIcE8do_widenEc@Base 5.0.0
 (optional=templinst)_ZNSt8_Rb_treeISsSt4pairIKSsSsESt10_Select1stIS2_ESt4lessISsESaIS2_EE8_M_eraseEPSt13_Rb_tree_nodeIS2_E@Base 5.0.0
 (optional=templinst)_ZNSt8_Rb_treeIiSt4pairIKiiESt10_Select1stIS2_ESt4lessIiESaIS2_EE8_M_eraseEPSt13_Rb_tree_nodeIS2_E@Base 5.0.0
 _ZTI10vnl_vectorIdE@Base 5.0.0
 _ZTI18vnl_matrix_inverseIdE@Base 5.0.0
 _ZTI7vnl_svdIdE@Base 5.0.0
 _ZTIN3itk14MetaDataObjectIN3otb16ImageKeywordlistEEE@Base 5.0.0
 _ZTIN3itk15AffineTransformIdLj2EEE@Base 5.0.0
 _ZTIN3itk17IdentityTransformIdLj2EEE@Base 5.0.0
 _ZTIN3itk19OptimizerParametersIdEE@Base 5.0.0
 _ZTIN3itk21TransformBaseTemplateIdEE@Base 5.0.0
 _ZTIN3itk23ScalableAffineTransformIdLj2EEE@Base 5.0.0
 _ZTIN3itk25MatrixOffsetTransformBaseIdLj2ELj2EEE@Base 5.0.0
 _ZTIN3itk25OptimizerParametersHelperIdEE@Base 5.0.0
 _ZTIN3itk5ArrayIdEE@Base 5.0.0
 _ZTIN3itk9TransformIdLj2ELj2EEE@Base 5.0.0
 _ZTIN3otb15SensorModelBaseIdLj2ELj2EEE@Base 5.0.0
 _ZTIN3otb18CompositeTransformIN3itk9TransformIdLj2ELj2EEES3_dLj2ELj2EEE@Base 5.0.0
 _ZTIN3otb18ForwardSensorModelIdLj2ELj2EEE@Base 5.0.0
 _ZTIN3otb18GenericRSTransformIdLj2ELj2EEE@Base 5.0.0
 _ZTIN3otb18InverseSensorModelIdLj2ELj2EEE@Base 5.0.0
 _ZTIN3otb20GenericMapProjectionILNS_18TransformDirection23TransformationDirectionE0EdLj2ELj2EEE@Base 5.0.0
 _ZTIN3otb20GenericMapProjectionILNS_18TransformDirection23TransformationDirectionE1EdLj2ELj2EEE@Base 5.0.0
 _ZTIN3otb26GeometriesProjectionFilterE@Base 5.0.0
 _ZTIN3otb3ogr14ImageReferenceIdEE@Base 5.0.0
 _ZTIN3otb9TransformIdLj2ELj2EEE@Base 5.0.0
 _ZTS10vnl_vectorIdE@Base 5.0.0
 _ZTS18vnl_matrix_inverseIdE@Base 5.0.0
 _ZTS7vnl_svdIdE@Base 5.0.0
 _ZTSN3itk14MetaDataObjectIN3otb16ImageKeywordlistEEE@Base 5.0.0
 _ZTSN3itk15AffineTransformIdLj2EEE@Base 5.0.0
 _ZTSN3itk17IdentityTransformIdLj2EEE@Base 5.0.0
 _ZTSN3itk19OptimizerParametersIdEE@Base 5.0.0
 _ZTSN3itk21TransformBaseTemplateIdEE@Base 5.0.0
 _ZTSN3itk23ScalableAffineTransformIdLj2EEE@Base 5.0.0
 _ZTSN3itk25MatrixOffsetTransformBaseIdLj2ELj2EEE@Base 5.0.0
 _ZTSN3itk25OptimizerParametersHelperIdEE@Base 5.0.0
 _ZTSN3itk5ArrayIdEE@Base 5.0.0
 _ZTSN3itk9TransformIdLj2ELj2EEE@Base 5.0.0
 _ZTSN3otb15SensorModelBaseIdLj2ELj2EEE@Base 5.0.0
 _ZTSN3otb18CompositeTransformIN3itk9TransformIdLj2ELj2EEES3_dLj2ELj2EEE@Base 5.0.0
 _ZTSN3otb18ForwardSensorModelIdLj2ELj2EEE@Base 5.0.0
 _ZTSN3otb18GenericRSTransformIdLj2ELj2EEE@Base 5.0.0
 _ZTSN3otb18InverseSensorModelIdLj2ELj2EEE@Base 5.0.0
 _ZTSN3otb20GenericMapProjectionILNS_18TransformDirection23TransformationDirectionE0EdLj2ELj2EEE@Base 5.0.0
 _ZTSN3otb20GenericMapProjectionILNS_18TransformDirection23TransformationDirectionE1EdLj2ELj2EEE@Base 5.0.0
 _ZTSN3otb26GeometriesProjectionFilterE@Base 5.0.0
 _ZTSN3otb3ogr14ImageReferenceIdEE@Base 5.0.0
 _ZTSN3otb9TransformIdLj2ELj2EEE@Base 5.0.0
 _ZTV18vnl_matrix_inverseIdE@Base 5.0.0
 _ZTV7vnl_svdIdE@Base 5.0.0
 _ZTVN3itk15AffineTransformIdLj2EEE@Base 5.0.0
 _ZTVN3itk17IdentityTransformIdLj2EEE@Base 5.0.0
 _ZTVN3itk19OptimizerParametersIdEE@Base 5.0.0
 _ZTVN3itk21TransformBaseTemplateIdEE@Base 5.0.0
 _ZTVN3itk23ScalableAffineTransformIdLj2EEE@Base 5.0.0
 _ZTVN3itk25MatrixOffsetTransformBaseIdLj2ELj2EEE@Base 5.0.0
 _ZTVN3itk25OptimizerParametersHelperIdEE@Base 5.0.0
 _ZTVN3itk9TransformIdLj2ELj2EEE@Base 5.0.0
 _ZTVN3otb15SensorModelBaseIdLj2ELj2EEE@Base 5.0.0
 _ZTVN3otb18CompositeTransformIN3itk9TransformIdLj2ELj2EEES3_dLj2ELj2EEE@Base 5.0.0
 _ZTVN3otb18ForwardSensorModelIdLj2ELj2EEE@Base 5.0.0
 _ZTVN3otb18GenericRSTransformIdLj2ELj2EEE@Base 5.0.0
 _ZTVN3otb18InverseSensorModelIdLj2ELj2EEE@Base 5.0.0
 _ZTVN3otb20GenericMapProjectionILNS_18TransformDirection23TransformationDirectionE0EdLj2ELj2EEE@Base 5.0.0
 _ZTVN3otb20GenericMapProjectionILNS_18TransformDirection23TransformationDirectionE1EdLj2ELj2EEE@Base 5.0.0
 _ZTVN3otb26GeometriesProjectionFilterE@Base 5.0.0
 _ZTVN3otb3ogr14ImageReferenceIdEE@Base 5.0.0
 _ZTVN3otb9TransformIdLj2ELj2EEE@Base 5.0.0
