# SymbolsHelper-Confirmed: 5.0.0 amd64 i386
libOTBMetadata-5.0.so.1 libotbmetadata-5.0-1 #MINVER#
 _ZN3itk10DataObject15CopyInformationEPKS0_@Base 5.0.0
 _ZN3itk10DataObject16SetRealTimeStampENS_13RealTimeStampE@Base 5.0.0
 _ZN3itk10DataObject17PrepareForNewDataEv@Base 5.0.0
 _ZN3itk10DataObject17ReleaseDataFlagOnEv@Base 5.0.0
 _ZN3itk10DataObject18ReleaseDataFlagOffEv@Base 5.0.0
 _ZN3itk10DataObject18SetRequestedRegionEPKS0_@Base 5.0.0
 _ZN3itk10DataObject21VerifyRequestedRegionEv@Base 5.0.0
 _ZN3itk10DataObject41SetRequestedRegionToLargestPossibleRegionEv@Base 5.0.0
 _ZN3itk10DataObject43RequestedRegionIsOutsideOfTheBufferedRegionEv@Base 5.0.0
 _ZN3itk10DataObject5GraftEPKS0_@Base 5.0.0
 (optional=templinst)_ZN3itk14ExposeMetaDataIN3otb16ImageKeywordlistEEEbRKNS_18MetaDataDictionaryENSt7__cxx1112basic_stringIcSt11char_traitsIcESaIcEEERT_@Base 5.0.0
 (optional=templinst)_ZN3itk14ExposeMetaDataIN3otb16ImageKeywordlistEEEbRKNS_18MetaDataDictionaryESsRT_@Base 5.0.0
 (optional=templinst)_ZN3itk15VectorContainerImNS_5PointIfLj2EEEE3NewEv@Base 5.0.0
 (optional=templinst)_ZN3itk15VectorContainerImNS_5PointIfLj2EEEED0Ev@Base 5.0.0
 (optional=templinst)_ZN3itk15VectorContainerImNS_5PointIfLj2EEEED1Ev@Base 5.0.0
 (optional=templinst)_ZN3itk15VectorContainerImNS_5PointIfLj2EEEED2Ev@Base 5.0.0
 (optional=templinst)_ZN3itk15VectorContainerImdE3NewEv@Base 5.0.0
 (optional=templinst)_ZN3itk15VectorContainerImdED0Ev@Base 5.0.0
 (optional=templinst)_ZN3itk15VectorContainerImdED1Ev@Base 5.0.0
 (optional=templinst)_ZN3itk15VectorContainerImdED2Ev@Base 5.0.0
 (optional=templinst)_ZN3itk20CreateObjectFunctionIN3otb26SpotImageMetadataInterfaceEE12CreateObjectEv@Base 5.0.0
 (optional=templinst)_ZN3itk20CreateObjectFunctionIN3otb26SpotImageMetadataInterfaceEED0Ev@Base 5.0.0
 (optional=templinst)_ZN3itk20CreateObjectFunctionIN3otb26SpotImageMetadataInterfaceEED1Ev@Base 5.0.0
 (optional=templinst)_ZN3itk20CreateObjectFunctionIN3otb26SpotImageMetadataInterfaceEED2Ev@Base 5.0.0
 (optional=templinst)_ZN3itk20CreateObjectFunctionIN3otb27Spot6ImageMetadataInterfaceEE12CreateObjectEv@Base 5.0.0
 (optional=templinst)_ZN3itk20CreateObjectFunctionIN3otb27Spot6ImageMetadataInterfaceEED0Ev@Base 5.0.0
 (optional=templinst)_ZN3itk20CreateObjectFunctionIN3otb27Spot6ImageMetadataInterfaceEED1Ev@Base 5.0.0
 (optional=templinst)_ZN3itk20CreateObjectFunctionIN3otb27Spot6ImageMetadataInterfaceEED2Ev@Base 5.0.0
 (optional=templinst)_ZN3itk20CreateObjectFunctionIN3otb28IkonosImageMetadataInterfaceEE12CreateObjectEv@Base 5.0.0
 (optional=templinst)_ZN3itk20CreateObjectFunctionIN3otb28IkonosImageMetadataInterfaceEED0Ev@Base 5.0.0
 (optional=templinst)_ZN3itk20CreateObjectFunctionIN3otb28IkonosImageMetadataInterfaceEED1Ev@Base 5.0.0
 (optional=templinst)_ZN3itk20CreateObjectFunctionIN3otb28IkonosImageMetadataInterfaceEED2Ev@Base 5.0.0
 (optional=templinst)_ZN3itk20CreateObjectFunctionIN3otb29DefaultImageMetadataInterfaceEE12CreateObjectEv@Base 5.0.0
 (optional=templinst)_ZN3itk20CreateObjectFunctionIN3otb29DefaultImageMetadataInterfaceEED0Ev@Base 5.0.0
 (optional=templinst)_ZN3itk20CreateObjectFunctionIN3otb29DefaultImageMetadataInterfaceEED1Ev@Base 5.0.0
 (optional=templinst)_ZN3itk20CreateObjectFunctionIN3otb29DefaultImageMetadataInterfaceEED2Ev@Base 5.0.0
 (optional=templinst)_ZN3itk20CreateObjectFunctionIN3otb30FormosatImageMetadataInterfaceEE12CreateObjectEv@Base 5.0.0
 (optional=templinst)_ZN3itk20CreateObjectFunctionIN3otb30FormosatImageMetadataInterfaceEED0Ev@Base 5.0.0
 (optional=templinst)_ZN3itk20CreateObjectFunctionIN3otb30FormosatImageMetadataInterfaceEED1Ev@Base 5.0.0
 (optional=templinst)_ZN3itk20CreateObjectFunctionIN3otb30FormosatImageMetadataInterfaceEED2Ev@Base 5.0.0
 (optional=templinst)_ZN3itk20CreateObjectFunctionIN3otb30PleiadesImageMetadataInterfaceEE12CreateObjectEv@Base 5.0.0
 (optional=templinst)_ZN3itk20CreateObjectFunctionIN3otb30PleiadesImageMetadataInterfaceEED0Ev@Base 5.0.0
 (optional=templinst)_ZN3itk20CreateObjectFunctionIN3otb30PleiadesImageMetadataInterfaceEED1Ev@Base 5.0.0
 (optional=templinst)_ZN3itk20CreateObjectFunctionIN3otb30PleiadesImageMetadataInterfaceEED2Ev@Base 5.0.0
 (optional=templinst)_ZN3itk20CreateObjectFunctionIN3otb30TerraSarImageMetadataInterfaceEE12CreateObjectEv@Base 5.0.0
 (optional=templinst)_ZN3itk20CreateObjectFunctionIN3otb30TerraSarImageMetadataInterfaceEED0Ev@Base 5.0.0
 (optional=templinst)_ZN3itk20CreateObjectFunctionIN3otb30TerraSarImageMetadataInterfaceEED1Ev@Base 5.0.0
 (optional=templinst)_ZN3itk20CreateObjectFunctionIN3otb30TerraSarImageMetadataInterfaceEED2Ev@Base 5.0.0
 (optional=templinst)_ZN3itk20CreateObjectFunctionIN3otb31QuickBirdImageMetadataInterfaceEE12CreateObjectEv@Base 5.0.0
 (optional=templinst)_ZN3itk20CreateObjectFunctionIN3otb31QuickBirdImageMetadataInterfaceEED0Ev@Base 5.0.0
 (optional=templinst)_ZN3itk20CreateObjectFunctionIN3otb31QuickBirdImageMetadataInterfaceEED1Ev@Base 5.0.0
 (optional=templinst)_ZN3itk20CreateObjectFunctionIN3otb31QuickBirdImageMetadataInterfaceEED2Ev@Base 5.0.0
 (optional=templinst)_ZN3itk20CreateObjectFunctionIN3otb32SarDefaultImageMetadataInterfaceEE12CreateObjectEv@Base 5.0.0
 (optional=templinst)_ZN3itk20CreateObjectFunctionIN3otb32SarDefaultImageMetadataInterfaceEED0Ev@Base 5.0.0
 (optional=templinst)_ZN3itk20CreateObjectFunctionIN3otb32SarDefaultImageMetadataInterfaceEED1Ev@Base 5.0.0
 (optional=templinst)_ZN3itk20CreateObjectFunctionIN3otb32SarDefaultImageMetadataInterfaceEED2Ev@Base 5.0.0
 (optional=templinst)_ZN3itk20CreateObjectFunctionIN3otb32WorldView2ImageMetadataInterfaceEE12CreateObjectEv@Base 5.0.0
 (optional=templinst)_ZN3itk20CreateObjectFunctionIN3otb32WorldView2ImageMetadataInterfaceEED0Ev@Base 5.0.0
 (optional=templinst)_ZN3itk20CreateObjectFunctionIN3otb32WorldView2ImageMetadataInterfaceEED1Ev@Base 5.0.0
 (optional=templinst)_ZN3itk20CreateObjectFunctionIN3otb32WorldView2ImageMetadataInterfaceEED2Ev@Base 5.0.0
 (optional=templinst)_ZN3itk20CreateObjectFunctionIN3otb36OpticalDefaultImageMetadataInterfaceEE12CreateObjectEv@Base 5.0.0
 (optional=templinst)_ZN3itk20CreateObjectFunctionIN3otb36OpticalDefaultImageMetadataInterfaceEED0Ev@Base 5.0.0
 (optional=templinst)_ZN3itk20CreateObjectFunctionIN3otb36OpticalDefaultImageMetadataInterfaceEED1Ev@Base 5.0.0
 (optional=templinst)_ZN3itk20CreateObjectFunctionIN3otb36OpticalDefaultImageMetadataInterfaceEED2Ev@Base 5.0.0
 (optional=templinst)_ZN3itk20VariableLengthVectorIdE7SetSizeEjb@Base 5.0.0
 _ZN3itk6Object13SetObjectNameENSt7__cxx1112basic_stringIcSt11char_traitsIcESaIcEEE@Base 5.0.0
 _ZN3itk6Object13SetObjectNameESs@Base 5.0.0
 (optional=templinst)_ZN3itk8PointSetIdLj2ENS_23DefaultStaticMeshTraitsIdLj2ELj2EffdEEE10InitializeEv@Base 5.0.0
 (optional=templinst)_ZN3itk8PointSetIdLj2ENS_23DefaultStaticMeshTraitsIdLj2ELj2EffdEEE12SetPointDataEmd@Base 5.0.0
 (optional=templinst)_ZN3itk8PointSetIdLj2ENS_23DefaultStaticMeshTraitsIdLj2ELj2EffdEEE15CopyInformationEPKNS_10DataObjectE@Base 5.0.0
 (optional=templinst)_ZN3itk8PointSetIdLj2ENS_23DefaultStaticMeshTraitsIdLj2ELj2EffdEEE17SetBufferedRegionERKl@Base 5.0.0
 (optional=templinst)_ZN3itk8PointSetIdLj2ENS_23DefaultStaticMeshTraitsIdLj2ELj2EffdEEE18SetRequestedRegionEPKNS_10DataObjectE@Base 5.0.0
 (optional=templinst)_ZN3itk8PointSetIdLj2ENS_23DefaultStaticMeshTraitsIdLj2ELj2EffdEEE18SetRequestedRegionERKl@Base 5.0.0
 (optional=templinst)_ZN3itk8PointSetIdLj2ENS_23DefaultStaticMeshTraitsIdLj2ELj2EffdEEE21VerifyRequestedRegionEv@Base 5.0.0
 (optional=templinst)_ZN3itk8PointSetIdLj2ENS_23DefaultStaticMeshTraitsIdLj2ELj2EffdEEE23UpdateOutputInformationEv@Base 5.0.0
 (optional=templinst)_ZN3itk8PointSetIdLj2ENS_23DefaultStaticMeshTraitsIdLj2ELj2EffdEEE3NewEv@Base 5.0.0
 (optional=templinst)_ZN3itk8PointSetIdLj2ENS_23DefaultStaticMeshTraitsIdLj2ELj2EffdEEE41SetRequestedRegionToLargestPossibleRegionEv@Base 5.0.0
 (optional=templinst)_ZN3itk8PointSetIdLj2ENS_23DefaultStaticMeshTraitsIdLj2ELj2EffdEEE43RequestedRegionIsOutsideOfTheBufferedRegionEv@Base 5.0.0
 (optional=templinst)_ZN3itk8PointSetIdLj2ENS_23DefaultStaticMeshTraitsIdLj2ELj2EffdEEE5GraftEPKNS_10DataObjectE@Base 5.0.0
 (optional=templinst)_ZN3itk8PointSetIdLj2ENS_23DefaultStaticMeshTraitsIdLj2ELj2EffdEEE8SetPointEmNS_5PointIfLj2EEE@Base 5.0.0
 (optional=templinst)_ZN3itk8PointSetIdLj2ENS_23DefaultStaticMeshTraitsIdLj2ELj2EffdEEED0Ev@Base 5.0.0
 (optional=templinst)_ZN3itk8PointSetIdLj2ENS_23DefaultStaticMeshTraitsIdLj2ELj2EffdEEED1Ev@Base 5.0.0
 (optional=templinst)_ZN3itk8PointSetIdLj2ENS_23DefaultStaticMeshTraitsIdLj2ELj2EffdEEED2Ev@Base 5.0.0
 (optional=templinst|arch=i386)_ZN3itklsIdEERSoS1_RKNS_20VariableLengthVectorIT_EE@Base 5.0.0
 (optional=templinst)_ZN3otb10ObjectListINS_20FilterFunctionValuesEE3NewEv@Base 5.0.0
 (optional=templinst)_ZN3otb10ObjectListINS_20FilterFunctionValuesEE8PushBackEPS1_@Base 5.0.0
 (optional=templinst)_ZN3otb10ObjectListINS_20FilterFunctionValuesEED0Ev@Base 5.0.0
 (optional=templinst)_ZN3otb10ObjectListINS_20FilterFunctionValuesEED1Ev@Base 5.0.0
 (optional=templinst)_ZN3otb10ObjectListINS_20FilterFunctionValuesEED2Ev@Base 5.0.0
 _ZN3otb20FilterFunctionValues11SetUserStepEf@Base 5.0.0
 _ZN3otb20FilterFunctionValues19SetMaxSpectralValueEf@Base 5.0.0
 _ZN3otb20FilterFunctionValues19SetMinSpectralValueEf@Base 5.0.0
 _ZN3otb25SarImageMetadataInterfaceC1Ev@Base 5.0.0
 _ZN3otb25SarImageMetadataInterfaceC2Ev@Base 5.0.0
 _ZN3otb26ImageMetadataInterfaceBase13PrintMetadataERSoN3itk6IndentERKNS2_18MetaDataDictionaryE@Base 5.0.0
 _ZN3otb26ImageMetadataInterfaceBase19GetImageKeywordlistEv@Base 5.0.0
 _ZN3otb26ImageMetadataInterfaceBase7GetGCPsEj@Base 5.0.0
 _ZN3otb26ImageMetadataInterfaceBaseC1Ev@Base 5.0.0
 _ZN3otb26ImageMetadataInterfaceBaseC2Ev@Base 5.0.0
 _ZN3otb26SpotImageMetadataInterfaceC1Ev@Base 5.0.0
 _ZN3otb26SpotImageMetadataInterfaceC2Ev@Base 5.0.0
 _ZN3otb26SpotImageMetadataInterfaceD0Ev@Base 5.0.0
 _ZN3otb26SpotImageMetadataInterfaceD1Ev@Base 5.0.0
 _ZN3otb26SpotImageMetadataInterfaceD2Ev@Base 5.0.0
 _ZN3otb27Spot6ImageMetadataInterfaceC1Ev@Base 5.0.0
 _ZN3otb27Spot6ImageMetadataInterfaceC2Ev@Base 5.0.0
 _ZN3otb27Spot6ImageMetadataInterfaceD0Ev@Base 5.0.0
 _ZN3otb27Spot6ImageMetadataInterfaceD1Ev@Base 5.0.0
 _ZN3otb27Spot6ImageMetadataInterfaceD2Ev@Base 5.0.0
 _ZN3otb28IkonosImageMetadataInterfaceC1Ev@Base 5.0.0
 _ZN3otb28IkonosImageMetadataInterfaceC2Ev@Base 5.0.0
 _ZN3otb28IkonosImageMetadataInterfaceD0Ev@Base 5.0.0
 _ZN3otb28IkonosImageMetadataInterfaceD1Ev@Base 5.0.0
 _ZN3otb28IkonosImageMetadataInterfaceD2Ev@Base 5.0.0
 _ZN3otb29DefaultImageMetadataInterfaceD0Ev@Base 5.0.0
 _ZN3otb29DefaultImageMetadataInterfaceD1Ev@Base 5.0.0
 _ZN3otb29DefaultImageMetadataInterfaceD2Ev@Base 5.0.0
 _ZN3otb29ImageMetadataInterfaceFactory24RegisterBuiltInFactoriesEv@Base 5.0.0
 _ZN3otb29ImageMetadataInterfaceFactory9CreateIMIERKN3itk18MetaDataDictionaryE@Base 5.0.0
 _ZN3otb29OpticalImageMetadataInterfaceC1Ev@Base 5.0.0
 _ZN3otb29OpticalImageMetadataInterfaceC2Ev@Base 5.0.0
 _ZN3otb30FormosatImageMetadataInterfaceC1Ev@Base 5.0.0
 _ZN3otb30FormosatImageMetadataInterfaceC2Ev@Base 5.0.0
 _ZN3otb30FormosatImageMetadataInterfaceD0Ev@Base 5.0.0
 _ZN3otb30FormosatImageMetadataInterfaceD1Ev@Base 5.0.0
 _ZN3otb30FormosatImageMetadataInterfaceD2Ev@Base 5.0.0
 _ZN3otb30PleiadesImageMetadataInterfaceC1Ev@Base 5.0.0
 _ZN3otb30PleiadesImageMetadataInterfaceC2Ev@Base 5.0.0
 _ZN3otb30PleiadesImageMetadataInterfaceD0Ev@Base 5.0.0
 _ZN3otb30PleiadesImageMetadataInterfaceD1Ev@Base 5.0.0
 _ZN3otb30PleiadesImageMetadataInterfaceD2Ev@Base 5.0.0
 _ZN3otb30TerraSarImageMetadataInterfaceC1Ev@Base 5.0.0
 _ZN3otb30TerraSarImageMetadataInterfaceC2Ev@Base 5.0.0
 _ZN3otb30TerraSarImageMetadataInterfaceD0Ev@Base 5.0.0
 _ZN3otb30TerraSarImageMetadataInterfaceD1Ev@Base 5.0.0
 _ZN3otb30TerraSarImageMetadataInterfaceD2Ev@Base 5.0.0
 _ZN3otb31QuickBirdImageMetadataInterfaceC1Ev@Base 5.0.0
 _ZN3otb31QuickBirdImageMetadataInterfaceC2Ev@Base 5.0.0
 _ZN3otb31QuickBirdImageMetadataInterfaceD0Ev@Base 5.0.0
 _ZN3otb31QuickBirdImageMetadataInterfaceD1Ev@Base 5.0.0
 _ZN3otb31QuickBirdImageMetadataInterfaceD2Ev@Base 5.0.0
 _ZN3otb32SarDefaultImageMetadataInterfaceD0Ev@Base 5.0.0
 _ZN3otb32SarDefaultImageMetadataInterfaceD1Ev@Base 5.0.0
 _ZN3otb32SarDefaultImageMetadataInterfaceD2Ev@Base 5.0.0
 _ZN3otb32SarImageMetadataInterfaceFactory24RegisterBuiltInFactoriesEv@Base 5.0.0
 _ZN3otb32SarImageMetadataInterfaceFactory9CreateIMIERKN3itk18MetaDataDictionaryE@Base 5.0.0
 _ZN3otb32WorldView2ImageMetadataInterfaceC1Ev@Base 5.0.0
 _ZN3otb32WorldView2ImageMetadataInterfaceC2Ev@Base 5.0.0
 _ZN3otb32WorldView2ImageMetadataInterfaceD0Ev@Base 5.0.0
 _ZN3otb32WorldView2ImageMetadataInterfaceD1Ev@Base 5.0.0
 _ZN3otb32WorldView2ImageMetadataInterfaceD2Ev@Base 5.0.0
 _ZN3otb33SpotImageMetadataInterfaceFactoryC1Ev@Base 5.0.0
 _ZN3otb33SpotImageMetadataInterfaceFactoryC2Ev@Base 5.0.0
 _ZN3otb33SpotImageMetadataInterfaceFactoryD0Ev@Base 5.0.0
 _ZN3otb33SpotImageMetadataInterfaceFactoryD1Ev@Base 5.0.0
 _ZN3otb33SpotImageMetadataInterfaceFactoryD2Ev@Base 5.0.0
 _ZN3otb34Spot6ImageMetadataInterfaceFactoryC1Ev@Base 5.0.0
 _ZN3otb34Spot6ImageMetadataInterfaceFactoryC2Ev@Base 5.0.0
 _ZN3otb34Spot6ImageMetadataInterfaceFactoryD0Ev@Base 5.0.0
 _ZN3otb34Spot6ImageMetadataInterfaceFactoryD1Ev@Base 5.0.0
 _ZN3otb34Spot6ImageMetadataInterfaceFactoryD2Ev@Base 5.0.0
 _ZN3otb35IkonosImageMetadataInterfaceFactoryC1Ev@Base 5.0.0
 _ZN3otb35IkonosImageMetadataInterfaceFactoryC2Ev@Base 5.0.0
 _ZN3otb35IkonosImageMetadataInterfaceFactoryD0Ev@Base 5.0.0
 _ZN3otb35IkonosImageMetadataInterfaceFactoryD1Ev@Base 5.0.0
 _ZN3otb35IkonosImageMetadataInterfaceFactoryD2Ev@Base 5.0.0
 _ZN3otb36DefaultImageMetadataInterfaceFactoryC1Ev@Base 5.0.0
 _ZN3otb36DefaultImageMetadataInterfaceFactoryC2Ev@Base 5.0.0
 _ZN3otb36DefaultImageMetadataInterfaceFactoryD0Ev@Base 5.0.0
 _ZN3otb36DefaultImageMetadataInterfaceFactoryD1Ev@Base 5.0.0
 _ZN3otb36DefaultImageMetadataInterfaceFactoryD2Ev@Base 5.0.0
 _ZN3otb36OpticalDefaultImageMetadataInterfaceD0Ev@Base 5.0.0
 _ZN3otb36OpticalDefaultImageMetadataInterfaceD1Ev@Base 5.0.0
 _ZN3otb36OpticalDefaultImageMetadataInterfaceD2Ev@Base 5.0.0
 _ZN3otb36OpticalImageMetadataInterfaceFactory24RegisterBuiltInFactoriesEv@Base 5.0.0
 _ZN3otb36OpticalImageMetadataInterfaceFactory9CreateIMIERKN3itk18MetaDataDictionaryE@Base 5.0.0
 _ZN3otb37FormosatImageMetadataInterfaceFactoryC1Ev@Base 5.0.0
 _ZN3otb37FormosatImageMetadataInterfaceFactoryC2Ev@Base 5.0.0
 _ZN3otb37FormosatImageMetadataInterfaceFactoryD0Ev@Base 5.0.0
 _ZN3otb37FormosatImageMetadataInterfaceFactoryD1Ev@Base 5.0.0
 _ZN3otb37FormosatImageMetadataInterfaceFactoryD2Ev@Base 5.0.0
 _ZN3otb37PleiadesImageMetadataInterfaceFactoryC1Ev@Base 5.0.0
 _ZN3otb37PleiadesImageMetadataInterfaceFactoryC2Ev@Base 5.0.0
 _ZN3otb37PleiadesImageMetadataInterfaceFactoryD0Ev@Base 5.0.0
 _ZN3otb37PleiadesImageMetadataInterfaceFactoryD1Ev@Base 5.0.0
 _ZN3otb37PleiadesImageMetadataInterfaceFactoryD2Ev@Base 5.0.0
 _ZN3otb37TerraSarImageMetadataInterfaceFactoryC1Ev@Base 5.0.0
 _ZN3otb37TerraSarImageMetadataInterfaceFactoryC2Ev@Base 5.0.0
 _ZN3otb37TerraSarImageMetadataInterfaceFactoryD0Ev@Base 5.0.0
 _ZN3otb37TerraSarImageMetadataInterfaceFactoryD1Ev@Base 5.0.0
 _ZN3otb37TerraSarImageMetadataInterfaceFactoryD2Ev@Base 5.0.0
 _ZN3otb38QuickBirdImageMetadataInterfaceFactoryC1Ev@Base 5.0.0
 _ZN3otb38QuickBirdImageMetadataInterfaceFactoryC2Ev@Base 5.0.0
 _ZN3otb38QuickBirdImageMetadataInterfaceFactoryD0Ev@Base 5.0.0
 _ZN3otb38QuickBirdImageMetadataInterfaceFactoryD1Ev@Base 5.0.0
 _ZN3otb38QuickBirdImageMetadataInterfaceFactoryD2Ev@Base 5.0.0
 _ZN3otb39SarDefaultImageMetadataInterfaceFactoryC1Ev@Base 5.0.0
 _ZN3otb39SarDefaultImageMetadataInterfaceFactoryC2Ev@Base 5.0.0
 _ZN3otb39SarDefaultImageMetadataInterfaceFactoryD0Ev@Base 5.0.0
 _ZN3otb39SarDefaultImageMetadataInterfaceFactoryD1Ev@Base 5.0.0
 _ZN3otb39SarDefaultImageMetadataInterfaceFactoryD2Ev@Base 5.0.0
 _ZN3otb39WorldView2ImageMetadataInterfaceFactoryC1Ev@Base 5.0.0
 _ZN3otb39WorldView2ImageMetadataInterfaceFactoryC2Ev@Base 5.0.0
 _ZN3otb39WorldView2ImageMetadataInterfaceFactoryD0Ev@Base 5.0.0
 _ZN3otb39WorldView2ImageMetadataInterfaceFactoryD1Ev@Base 5.0.0
 _ZN3otb39WorldView2ImageMetadataInterfaceFactoryD2Ev@Base 5.0.0
 _ZN3otb43OpticalDefaultImageMetadataInterfaceFactoryC1Ev@Base 5.0.0
 _ZN3otb43OpticalDefaultImageMetadataInterfaceFactoryC2Ev@Base 5.0.0
 _ZN3otb43OpticalDefaultImageMetadataInterfaceFactoryD0Ev@Base 5.0.0
 _ZN3otb43OpticalDefaultImageMetadataInterfaceFactoryD1Ev@Base 5.0.0
 _ZN3otb43OpticalDefaultImageMetadataInterfaceFactoryD2Ev@Base 5.0.0
 (optional=templinst)_ZN5boost12lexical_castIiNSt7__cxx1112basic_stringIcSt11char_traitsIcESaIcEEEEET_RKT0_@Base 5.0.0
 (optional=templinst)_ZN5boost15throw_exceptionINS_16bad_lexical_castEEEvRKT_@Base 5.0.0
 (optional=templinst)_ZN5boost15throw_exceptionINS_17bad_function_callEEEvRKT_@Base 5.0.0
 _ZN5boost16bad_lexical_castD0Ev@Base 5.0.0
 _ZN5boost16bad_lexical_castD1Ev@Base 5.0.0
 _ZN5boost16bad_lexical_castD2Ev@Base 5.0.0
 (optional=templinst)_ZN5boost16exception_detail10clone_implINS0_19error_info_injectorINS_16bad_lexical_castEEEED0Ev@Base 5.0.0
 (optional=templinst)_ZN5boost16exception_detail10clone_implINS0_19error_info_injectorINS_16bad_lexical_castEEEED1Ev@Base 5.0.0
 (optional=templinst)_ZN5boost16exception_detail10clone_implINS0_19error_info_injectorINS_17bad_function_callEEEED0Ev@Base 5.0.0
 (optional=templinst)_ZN5boost16exception_detail10clone_implINS0_19error_info_injectorINS_17bad_function_callEEEED1Ev@Base 5.0.0
 (optional=templinst)_ZN5boost16exception_detail12refcount_ptrINS0_20error_info_containerEE7releaseEv@Base 5.0.0
 (optional=templinst)_ZN5boost16exception_detail19error_info_injectorINS_16bad_lexical_castEEC1ERKS3_@Base 5.0.0
 (optional=templinst)_ZN5boost16exception_detail19error_info_injectorINS_16bad_lexical_castEEC2ERKS3_@Base 5.0.0
 (optional=templinst)_ZN5boost16exception_detail19error_info_injectorINS_16bad_lexical_castEED0Ev@Base 5.0.0
 (optional=templinst)_ZN5boost16exception_detail19error_info_injectorINS_16bad_lexical_castEED1Ev@Base 5.0.0
 (optional=templinst)_ZN5boost16exception_detail19error_info_injectorINS_16bad_lexical_castEED2Ev@Base 5.0.0
 (optional=templinst)_ZN5boost16exception_detail19error_info_injectorINS_17bad_function_callEEC1ERKS3_@Base 5.0.0
 (optional=templinst)_ZN5boost16exception_detail19error_info_injectorINS_17bad_function_callEEC2ERKS3_@Base 5.0.0
 (optional=templinst)_ZN5boost16exception_detail19error_info_injectorINS_17bad_function_callEED0Ev@Base 5.0.0
 (optional=templinst)_ZN5boost16exception_detail19error_info_injectorINS_17bad_function_callEED1Ev@Base 5.0.0
 (optional=templinst)_ZN5boost16exception_detail19error_info_injectorINS_17bad_function_callEED2Ev@Base 5.0.0
 _ZN5boost16exception_detail20copy_boost_exceptionEPNS_9exceptionEPKS1_@Base 5.0.0
 _ZN5boost17bad_function_callC1Ev@Base 5.0.0
 _ZN5boost17bad_function_callC2Ev@Base 5.0.0
 _ZN5boost17bad_function_callD0Ev@Base 5.0.0
 _ZN5boost17bad_function_callD1Ev@Base 5.0.0
 _ZN5boost17bad_function_callD2Ev@Base 5.0.0
 (optional=templinst)_ZN5boost6detail20lexical_cast_do_castIiSsE17lexical_cast_implERKSs@Base 5.0.0
 (optional=templinst)_ZN5boost6detail8function15functor_managerINS_9algorithm6detail13token_finderFINS4_10is_any_ofFIcEEEEE6manageERKNS1_15function_bufferERSA_NS1_30functor_manager_operation_typeE@Base 5.0.0
 _ZN5boost6detail8function16has_empty_targetEz@Base 5.0.0
 (optional=templinst)_ZN5boost6detail8function21function_obj_invoker2INS_9algorithm6detail13token_finderFINS4_10is_any_ofFIcEEEENS_14iterator_rangeIN9__gnu_cxx17__normal_iteratorIPKcNSt7__cxx1112basic_stringIcSt11char_traitsIcESaIcEEEEEEESK_SK_E6invokeERNS1_15function_bufferESK_SK_@Base 5.0.0
 (optional=templinst)_ZN5boost6detail8function21function_obj_invoker2INS_9algorithm6detail13token_finderFINS4_10is_any_ofFIcEEEENS_14iterator_rangeIN9__gnu_cxx17__normal_iteratorIPKcSsEEEESE_SE_E6invokeERNS1_15function_bufferESE_SE_@Base 5.0.0
 (optional=templinst)_ZN5boost6detail8function21function_obj_invoker2INS_9algorithm6detail13token_finderFINS4_10is_any_ofFIcEEEENS_14iterator_rangeIN9__gnu_cxx17__normal_iteratorIPcNSt7__cxx1112basic_stringIcSt11char_traitsIcESaIcEEEEEEESJ_SJ_E6invokeERNS1_15function_bufferESJ_SJ_@Base 5.0.0
 (optional=templinst)_ZN5boost6detail8function21function_obj_invoker2INS_9algorithm6detail13token_finderFINS4_10is_any_ofFIcEEEENS_14iterator_rangeIN9__gnu_cxx17__normal_iteratorIPcSsEEEESD_SD_E6invokeERNS1_15function_bufferESD_SD_@Base 5.0.0
 (optional=templinst)_ZN5boost9algorithm10iter_splitISt6vectorINSt7__cxx1112basic_stringIcSt11char_traitsIcESaIcEEESaIS8_EEKS8_NS0_6detail13token_finderFINSC_10is_any_ofFIcEEEEEERT_SI_RT0_T1_@Base 5.0.0
 (optional=templinst)_ZN5boost9algorithm10iter_splitISt6vectorINSt7__cxx1112basic_stringIcSt11char_traitsIcESaIcEEESaIS8_EES8_NS0_6detail13token_finderFINSB_10is_any_ofFIcEEEEEERT_SH_RT0_T1_@Base 5.0.0
 (optional=templinst)_ZN5boost9algorithm10iter_splitISt6vectorISsSaISsEEKSsNS0_6detail13token_finderFINS6_10is_any_ofFIcEEEEEERT_SC_RT0_T1_@Base 5.0.0
 (optional=templinst)_ZN5boost9algorithm10iter_splitISt6vectorISsSaISsEESsNS0_6detail13token_finderFINS5_10is_any_ofFIcEEEEEERT_SB_RT0_T1_@Base 5.0.0
 (optional=templinst)_ZN5boost9algorithm4trimINSt7__cxx1112basic_stringIcSt11char_traitsIcESaIcEEEEEvRT_RKSt6locale@Base 5.0.0
 (optional=templinst)_ZN5boost9algorithm4trimISsEEvRT_RKSt6locale@Base 5.0.0
 (optional=templinst)_ZN5boost9algorithm5splitISt6vectorINSt7__cxx1112basic_stringIcSt11char_traitsIcESaIcEEESaIS8_EES8_NS0_6detail10is_any_ofFIcEEEERT_SF_RT0_T1_NS0_24token_compress_mode_typeE@Base 5.0.0
 (optional=templinst)_ZN5boost9algorithm5splitISt6vectorISsSaISsEESsNS0_6detail10is_any_ofFIcEEEERT_S9_RT0_T1_NS0_24token_compress_mode_typeE@Base 5.0.0
 (optional=templinst)_ZN5boost9algorithm6detail10is_any_ofFIcEC1ERKS3_@Base 5.0.0
 (optional=templinst)_ZN5boost9algorithm6detail10is_any_ofFIcEC1INS_14iterator_rangeIPKcEEEERKT_@Base 5.0.0
 (optional=templinst)_ZN5boost9algorithm6detail10is_any_ofFIcEC2ERKS3_@Base 5.0.0
 (optional=templinst)_ZN5boost9algorithm6detail10is_any_ofFIcEC2INS_14iterator_rangeIPKcEEEERKT_@Base 5.0.0
 (optional=templinst)_ZN5boost9algorithm6detail10is_any_ofFIcED1Ev@Base 5.0.0
 (optional=templinst)_ZN5boost9algorithm6detail10is_any_ofFIcED2Ev@Base 5.0.0
 _ZN5boost9exceptionD0Ev@Base 5.0.0
 _ZN5boost9exceptionD1Ev@Base 5.0.0
 _ZN5boost9exceptionD2Ev@Base 5.0.0
 (optional=templinst)_ZN5boost9function2INS_14iterator_rangeIN9__gnu_cxx17__normal_iteratorIPKcNSt7__cxx1112basic_stringIcSt11char_traitsIcESaIcEEEEEEESC_SC_EC1ERKSE_@Base 5.0.0
 (optional=templinst)_ZN5boost9function2INS_14iterator_rangeIN9__gnu_cxx17__normal_iteratorIPKcNSt7__cxx1112basic_stringIcSt11char_traitsIcESaIcEEEEEEESC_SC_EC2ERKSE_@Base 5.0.0
 (optional=templinst)_ZN5boost9function2INS_14iterator_rangeIN9__gnu_cxx17__normal_iteratorIPKcSsEEEES6_S6_E5clearEv@Base 5.0.0
 (optional=templinst)_ZN5boost9function2INS_14iterator_rangeIN9__gnu_cxx17__normal_iteratorIPcNSt7__cxx1112basic_stringIcSt11char_traitsIcESaIcEEEEEEESB_SB_EC1ERKSD_@Base 5.0.0
 (optional=templinst)_ZN5boost9function2INS_14iterator_rangeIN9__gnu_cxx17__normal_iteratorIPcNSt7__cxx1112basic_stringIcSt11char_traitsIcESaIcEEEEEEESB_SB_EC2ERKSD_@Base 5.0.0
 (optional=templinst)_ZN5boost9function2INS_14iterator_rangeIN9__gnu_cxx17__normal_iteratorIPcSsEEEES5_S5_E5clearEv@Base 5.0.0
 (optional=templinst)_ZN9__gnu_cxx5__ops10_Iter_predIN5boost9algorithm6detail10is_any_ofFIcEEEclINS_17__normal_iteratorIPKcSsEEEEbT_@Base 5.0.0
 (optional=templinst)_ZN9__gnu_cxx5__ops10_Iter_predIN5boost9algorithm6detail10is_any_ofFIcEEEclINS_17__normal_iteratorIPcSsEEEEbT_@Base 5.0.0
 _ZNK3itk10DataObject16GetPipelineMTimeEv@Base 5.0.0
 _ZNK3itk10DataObject16GetRealTimeStampEv@Base 5.0.0
 _ZNK3itk10DataObject18GetReleaseDataFlagEv@Base 5.0.0
 _ZNK3itk11LightObject17GetReferenceCountEv@Base 5.0.0
 (optional=templinst)_ZNK3itk15VectorContainerImNS_5PointIfLj2EEEE13CreateAnotherEv@Base 5.0.0
 (optional=templinst)_ZNK3itk15VectorContainerImNS_5PointIfLj2EEEE14GetNameOfClassEv@Base 5.0.0
 (optional=templinst)_ZNK3itk15VectorContainerImdE13CreateAnotherEv@Base 5.0.0
 (optional=templinst)_ZNK3itk15VectorContainerImdE14GetNameOfClassEv@Base 5.0.0
 (optional=templinst)_ZNK3itk20CreateObjectFunctionIN3otb26SpotImageMetadataInterfaceEE13CreateAnotherEv@Base 5.0.0
 (optional=templinst)_ZNK3itk20CreateObjectFunctionIN3otb27Spot6ImageMetadataInterfaceEE13CreateAnotherEv@Base 5.0.0
 (optional=templinst)_ZNK3itk20CreateObjectFunctionIN3otb28IkonosImageMetadataInterfaceEE13CreateAnotherEv@Base 5.0.0
 (optional=templinst)_ZNK3itk20CreateObjectFunctionIN3otb29DefaultImageMetadataInterfaceEE13CreateAnotherEv@Base 5.0.0
 (optional=templinst)_ZNK3itk20CreateObjectFunctionIN3otb30FormosatImageMetadataInterfaceEE13CreateAnotherEv@Base 5.0.0
 (optional=templinst)_ZNK3itk20CreateObjectFunctionIN3otb30PleiadesImageMetadataInterfaceEE13CreateAnotherEv@Base 5.0.0
 (optional=templinst)_ZNK3itk20CreateObjectFunctionIN3otb30TerraSarImageMetadataInterfaceEE13CreateAnotherEv@Base 5.0.0
 (optional=templinst)_ZNK3itk20CreateObjectFunctionIN3otb31QuickBirdImageMetadataInterfaceEE13CreateAnotherEv@Base 5.0.0
 (optional=templinst)_ZNK3itk20CreateObjectFunctionIN3otb32SarDefaultImageMetadataInterfaceEE13CreateAnotherEv@Base 5.0.0
 (optional=templinst)_ZNK3itk20CreateObjectFunctionIN3otb32WorldView2ImageMetadataInterfaceEE13CreateAnotherEv@Base 5.0.0
 (optional=templinst)_ZNK3itk20CreateObjectFunctionIN3otb36OpticalDefaultImageMetadataInterfaceEE13CreateAnotherEv@Base 5.0.0
 (optional=templinst)_ZNK3itk20VariableLengthVectorIdE16AllocateElementsEj@Base 5.0.0
 _ZNK3itk6Object13GetObjectNameB5cxx11Ev@Base 5.0.0
 _ZNK3itk6Object13GetObjectNameEv@Base 5.0.0
 _ZNK3itk6Object14GetNameOfClassEv@Base 5.0.0
 (optional=templinst)_ZNK3itk8PointSetIdLj2ENS_23DefaultStaticMeshTraitsIdLj2ELj2EffdEEE13CreateAnotherEv@Base 5.0.0
 (optional=templinst)_ZNK3itk8PointSetIdLj2ENS_23DefaultStaticMeshTraitsIdLj2ELj2EffdEEE14GetNameOfClassEv@Base 5.0.0
 (optional=templinst)_ZNK3itk8PointSetIdLj2ENS_23DefaultStaticMeshTraitsIdLj2ELj2EffdEEE17GetBufferedRegionEv@Base 5.0.0
 (optional=templinst)_ZNK3itk8PointSetIdLj2ENS_23DefaultStaticMeshTraitsIdLj2ELj2EffdEEE18GetRequestedRegionEv@Base 5.0.0
 (optional=templinst)_ZNK3itk8PointSetIdLj2ENS_23DefaultStaticMeshTraitsIdLj2ELj2EffdEEE25GetMaximumNumberOfRegionsEv@Base 5.0.0
 (optional=templinst)_ZNK3itk8PointSetIdLj2ENS_23DefaultStaticMeshTraitsIdLj2ELj2EffdEEE9PrintSelfERSoNS_6IndentE@Base 5.0.0
 (optional=templinst)_ZNK3otb10ObjectListINS_20FilterFunctionValuesEE13CreateAnotherEv@Base 5.0.0
 (optional=templinst)_ZNK3otb10ObjectListINS_20FilterFunctionValuesEE13GetNthElementEj@Base 5.0.0
 (optional=templinst)_ZNK3otb10ObjectListINS_20FilterFunctionValuesEE14GetNameOfClassEv@Base 5.0.0
 (optional=templinst)_ZNK3otb10ObjectListINS_20FilterFunctionValuesEE9PrintSelfERSoN3itk6IndentE@Base 5.0.0
 _ZNK3otb25SarImageMetadataInterface14GetNameOfClassEv@Base 5.0.0
 _ZNK3otb25SarImageMetadataInterface20GetEnhancedBandNamesB5cxx11Ev@Base 5.0.0
 _ZNK3otb25SarImageMetadataInterface20GetEnhancedBandNamesEv@Base 5.0.0
 _ZNK3otb25SarImageMetadataInterface24GetConstantValuePointSetERKd@Base 5.0.0
 _ZNK3otb25SarImageMetadataInterface27GetConstantPolynomialDegreeEv@Base 5.0.0
 _ZNK3otb25SarImageMetadataInterface30GetRadiometricCalibrationNoiseEv@Base 5.0.0
 _ZNK3otb25SarImageMetadataInterface30GetRadiometricCalibrationScaleEv@Base 5.0.0
 _ZNK3otb25SarImageMetadataInterface39GetRadiometricCalibrationIncidenceAngleEv@Base 5.0.0
 _ZNK3otb25SarImageMetadataInterface40GetRadiometricCalibrationRangeSpreadLossEv@Base 5.0.0
 _ZNK3otb25SarImageMetadataInterface46GetRadiometricCalibrationAntennaPatternNewGainEv@Base 5.0.0
 _ZNK3otb25SarImageMetadataInterface46GetRadiometricCalibrationAntennaPatternOldGainEv@Base 5.0.0
 _ZNK3otb25SarImageMetadataInterface46GetRadiometricCalibrationNoisePolynomialDegreeEv@Base 5.0.0
 _ZNK3otb25SarImageMetadataInterface55GetRadiometricCalibrationIncidenceAnglePolynomialDegreeEv@Base 5.0.0
 _ZNK3otb25SarImageMetadataInterface56GetRadiometricCalibrationRangeSpreadLossPolynomialDegreeEv@Base 5.0.0
 _ZNK3otb25SarImageMetadataInterface62GetRadiometricCalibrationAntennaPatternNewGainPolynomialDegreeEv@Base 5.0.0
 _ZNK3otb25SarImageMetadataInterface62GetRadiometricCalibrationAntennaPatternOldGainPolynomialDegreeEv@Base 5.0.0
 _ZNK3otb25SarImageMetadataInterface9PrintSelfERSoN3itk6IndentE@Base 5.0.0
 _ZNK3otb26ImageMetadataInterfaceBase10GetGCPInfoB5cxx11Ej@Base 5.0.0
 _ZNK3otb26ImageMetadataInterfaceBase10GetGCPInfoEj@Base 5.0.0
 _ZNK3otb26ImageMetadataInterfaceBase11GetBandNameB5cxx11Ev@Base 5.0.0
 _ZNK3otb26ImageMetadataInterfaceBase11GetBandNameEv@Base 5.0.0
 _ZNK3otb26ImageMetadataInterfaceBase11GetGCPCountEv@Base 5.0.0
 _ZNK3otb26ImageMetadataInterfaceBase11GetSensorIDB5cxx11Ev@Base 5.0.0
 _ZNK3otb26ImageMetadataInterfaceBase11GetSensorIDEv@Base 5.0.0
 _ZNK3otb26ImageMetadataInterfaceBase14GetNameOfClassEv@Base 5.0.0
 _ZNK3otb26ImageMetadataInterfaceBase15GetGeoTransformEv@Base 5.0.0
 _ZNK3otb26ImageMetadataInterfaceBase16GetGCPProjectionB5cxx11Ev@Base 5.0.0
 _ZNK3otb26ImageMetadataInterfaceBase16GetGCPProjectionEv@Base 5.0.0
 _ZNK3otb26ImageMetadataInterfaceBase16GetNumberOfBandsEv@Base 5.0.0
 _ZNK3otb26ImageMetadataInterfaceBase16GetProjectionRefB5cxx11Ev@Base 5.0.0
 _ZNK3otb26ImageMetadataInterfaceBase16GetProjectionRefEv@Base 5.0.0
 _ZNK3otb26ImageMetadataInterfaceBase16GetXPixelSpacingEv@Base 5.0.0
 _ZNK3otb26ImageMetadataInterfaceBase16GetYPixelSpacingEv@Base 5.0.0
 _ZNK3otb26ImageMetadataInterfaceBase18GetLowerLeftCornerEv@Base 5.0.0
 _ZNK3otb26ImageMetadataInterfaceBase18GetUpperLeftCornerEv@Base 5.0.0
 _ZNK3otb26ImageMetadataInterfaceBase19GetImageKeywordlistEv@Base 5.0.0
 _ZNK3otb26ImageMetadataInterfaceBase19GetLowerRightCornerEv@Base 5.0.0
 _ZNK3otb26ImageMetadataInterfaceBase19GetUpperRightCornerEv@Base 5.0.0
 _ZNK3otb26ImageMetadataInterfaceBase7GetGCPXEj@Base 5.0.0
 _ZNK3otb26ImageMetadataInterfaceBase7GetGCPYEj@Base 5.0.0
 _ZNK3otb26ImageMetadataInterfaceBase7GetGCPZEj@Base 5.0.0
 _ZNK3otb26ImageMetadataInterfaceBase8GetGCPIdB5cxx11Ej@Base 5.0.0
 _ZNK3otb26ImageMetadataInterfaceBase8GetGCPIdEj@Base 5.0.0
 _ZNK3otb26ImageMetadataInterfaceBase9GetGCPColEj@Base 5.0.0
 _ZNK3otb26ImageMetadataInterfaceBase9GetGCPRowEj@Base 5.0.0
 _ZNK3otb26ImageMetadataInterfaceBase9PrintSelfERSoN3itk6IndentE@Base 5.0.0
 _ZNK3otb26SpotImageMetadataInterface13CreateAnotherEv@Base 5.0.0
 _ZNK3otb26SpotImageMetadataInterface13GetInstrumentB5cxx11Ev@Base 5.0.0
 _ZNK3otb26SpotImageMetadataInterface13GetInstrumentEv@Base 5.0.0
 _ZNK3otb26SpotImageMetadataInterface13GetSatAzimuthEv@Base 5.0.0
 _ZNK3otb26SpotImageMetadataInterface14GetNameOfClassEv@Base 5.0.0
 _ZNK3otb26SpotImageMetadataInterface15GetPhysicalBiasEv@Base 5.0.0
 _ZNK3otb26SpotImageMetadataInterface15GetPhysicalGainEv@Base 5.0.0
 _ZNK3otb26SpotImageMetadataInterface15GetSatElevationEv@Base 5.0.0
 _ZNK3otb26SpotImageMetadataInterface16GetProductionDayEv@Base 5.0.0
 _ZNK3otb26SpotImageMetadataInterface17GetDefaultDisplayEv@Base 5.0.0
 _ZNK3otb26SpotImageMetadataInterface17GetProductionYearEv@Base 5.0.0
 _ZNK3otb26SpotImageMetadataInterface18GetInstrumentIndexEv@Base 5.0.0
 _ZNK3otb26SpotImageMetadataInterface18GetLastWavelengthsEv@Base 5.0.0
 _ZNK3otb26SpotImageMetadataInterface18GetProductionMonthEv@Base 5.0.0
 _ZNK3otb26SpotImageMetadataInterface18GetSolarIrradianceEv@Base 5.0.0
 _ZNK3otb26SpotImageMetadataInterface19GetFirstWavelengthsEv@Base 5.0.0
 _ZNK3otb26SpotImageMetadataInterface20GetEnhancedBandNamesB5cxx11Ev@Base 5.0.0
 _ZNK3otb26SpotImageMetadataInterface20GetEnhancedBandNamesEv@Base 5.0.0
 _ZNK3otb26SpotImageMetadataInterface22GetSpectralSensitivityEv@Base 5.0.0
 _ZNK3otb26SpotImageMetadataInterface29BandIndexToWavelengthPositionEj@Base 5.0.0
 _ZNK3otb26SpotImageMetadataInterface6GetDayEv@Base 5.0.0
 _ZNK3otb26SpotImageMetadataInterface7CanReadEv@Base 5.0.0
 _ZNK3otb26SpotImageMetadataInterface7GetHourEv@Base 5.0.0
 _ZNK3otb26SpotImageMetadataInterface7GetYearEv@Base 5.0.0
 _ZNK3otb26SpotImageMetadataInterface8GetMonthEv@Base 5.0.0
 _ZNK3otb26SpotImageMetadataInterface9GetMinuteEv@Base 5.0.0
 _ZNK3otb27Spot6ImageMetadataInterface13CreateAnotherEv@Base 5.0.0
 _ZNK3otb27Spot6ImageMetadataInterface13GetInstrumentB5cxx11Ev@Base 5.0.0
 _ZNK3otb27Spot6ImageMetadataInterface13GetInstrumentEv@Base 5.0.0
 _ZNK3otb27Spot6ImageMetadataInterface13GetSatAzimuthEv@Base 5.0.0
 _ZNK3otb27Spot6ImageMetadataInterface14GetNameOfClassEv@Base 5.0.0
 _ZNK3otb27Spot6ImageMetadataInterface15GetPhysicalBiasEv@Base 5.0.0
 _ZNK3otb27Spot6ImageMetadataInterface15GetPhysicalGainEv@Base 5.0.0
 _ZNK3otb27Spot6ImageMetadataInterface15GetSatElevationEv@Base 5.0.0
 _ZNK3otb27Spot6ImageMetadataInterface16GetProductionDayEv@Base 5.0.0
 _ZNK3otb27Spot6ImageMetadataInterface17GetDefaultDisplayEv@Base 5.0.0
 _ZNK3otb27Spot6ImageMetadataInterface17GetProductionYearEv@Base 5.0.0
 _ZNK3otb27Spot6ImageMetadataInterface18GetInstrumentIndexB5cxx11Ev@Base 5.0.0
 _ZNK3otb27Spot6ImageMetadataInterface18GetInstrumentIndexEv@Base 5.0.0
 _ZNK3otb27Spot6ImageMetadataInterface18GetLastWavelengthsEv@Base 5.0.0
 _ZNK3otb27Spot6ImageMetadataInterface18GetProductionMonthEv@Base 5.0.0
 _ZNK3otb27Spot6ImageMetadataInterface18GetSolarIrradianceEv@Base 5.0.0
 _ZNK3otb27Spot6ImageMetadataInterface19GetFirstWavelengthsEv@Base 5.0.0
 _ZNK3otb27Spot6ImageMetadataInterface20GetEnhancedBandNamesB5cxx11Ev@Base 5.0.0
 _ZNK3otb27Spot6ImageMetadataInterface20GetEnhancedBandNamesEv@Base 5.0.0
 _ZNK3otb27Spot6ImageMetadataInterface22GetSpectralSensitivityEv@Base 5.0.0
 _ZNK3otb27Spot6ImageMetadataInterface29BandIndexToWavelengthPositionEj@Base 5.0.0
 _ZNK3otb27Spot6ImageMetadataInterface6GetDayEv@Base 5.0.0
 _ZNK3otb27Spot6ImageMetadataInterface7CanReadEv@Base 5.0.0
 _ZNK3otb27Spot6ImageMetadataInterface7GetHourEv@Base 5.0.0
 _ZNK3otb27Spot6ImageMetadataInterface7GetYearEv@Base 5.0.0
 _ZNK3otb27Spot6ImageMetadataInterface8GetMonthEv@Base 5.0.0
 _ZNK3otb27Spot6ImageMetadataInterface9GetMinuteEv@Base 5.0.0
 _ZNK3otb28IkonosImageMetadataInterface13CreateAnotherEv@Base 5.0.0
 _ZNK3otb28IkonosImageMetadataInterface13GetSatAzimuthEv@Base 5.0.0
 _ZNK3otb28IkonosImageMetadataInterface14GetNameOfClassEv@Base 5.0.0
 _ZNK3otb28IkonosImageMetadataInterface15GetPhysicalBiasEv@Base 5.0.0
 _ZNK3otb28IkonosImageMetadataInterface15GetPhysicalGainEv@Base 5.0.0
 _ZNK3otb28IkonosImageMetadataInterface15GetSatElevationEv@Base 5.0.0
 _ZNK3otb28IkonosImageMetadataInterface16GetProductionDayEv@Base 5.0.0
 _ZNK3otb28IkonosImageMetadataInterface17GetDefaultDisplayEv@Base 5.0.0
 _ZNK3otb28IkonosImageMetadataInterface17GetProductionYearEv@Base 5.0.0
 _ZNK3otb28IkonosImageMetadataInterface18GetLastWavelengthsEv@Base 5.0.0
 _ZNK3otb28IkonosImageMetadataInterface18GetProductionMonthEv@Base 5.0.0
 _ZNK3otb28IkonosImageMetadataInterface18GetSolarIrradianceEv@Base 5.0.0
 _ZNK3otb28IkonosImageMetadataInterface19GetFirstWavelengthsEv@Base 5.0.0
 _ZNK3otb28IkonosImageMetadataInterface20GetEnhancedBandNamesB5cxx11Ev@Base 5.0.0
 _ZNK3otb28IkonosImageMetadataInterface20GetEnhancedBandNamesEv@Base 5.0.0
 _ZNK3otb28IkonosImageMetadataInterface22GetSpectralSensitivityEv@Base 5.0.0
 _ZNK3otb28IkonosImageMetadataInterface6GetDayEv@Base 5.0.0
 _ZNK3otb28IkonosImageMetadataInterface7CanReadEv@Base 5.0.0
 _ZNK3otb28IkonosImageMetadataInterface7GetHourEv@Base 5.0.0
 _ZNK3otb28IkonosImageMetadataInterface7GetYearEv@Base 5.0.0
 _ZNK3otb28IkonosImageMetadataInterface8GetMonthEv@Base 5.0.0
 _ZNK3otb28IkonosImageMetadataInterface9GetMinuteEv@Base 5.0.0
 _ZNK3otb29DefaultImageMetadataInterface13CreateAnotherEv@Base 5.0.0
 _ZNK3otb29DefaultImageMetadataInterface14GetNameOfClassEv@Base 5.0.0
 _ZNK3otb29DefaultImageMetadataInterface16GetProductionDayEv@Base 5.0.0
 _ZNK3otb29DefaultImageMetadataInterface17GetDefaultDisplayEv@Base 5.0.0
 _ZNK3otb29DefaultImageMetadataInterface17GetProductionYearEv@Base 5.0.0
 _ZNK3otb29DefaultImageMetadataInterface18GetProductionMonthEv@Base 5.0.0
 _ZNK3otb29DefaultImageMetadataInterface20GetEnhancedBandNamesB5cxx11Ev@Base 5.0.0
 _ZNK3otb29DefaultImageMetadataInterface20GetEnhancedBandNamesEv@Base 5.0.0
 _ZNK3otb29DefaultImageMetadataInterface6GetDayEv@Base 5.0.0
 _ZNK3otb29DefaultImageMetadataInterface7CanReadEv@Base 5.0.0
 _ZNK3otb29DefaultImageMetadataInterface7GetHourEv@Base 5.0.0
 _ZNK3otb29DefaultImageMetadataInterface7GetYearEv@Base 5.0.0
 _ZNK3otb29DefaultImageMetadataInterface8GetMonthEv@Base 5.0.0
 _ZNK3otb29DefaultImageMetadataInterface9GetMinuteEv@Base 5.0.0
 _ZNK3otb29OpticalImageMetadataInterface13GetSunAzimuthEv@Base 5.0.0
 _ZNK3otb29OpticalImageMetadataInterface14GetNameOfClassEv@Base 5.0.0
 _ZNK3otb29OpticalImageMetadataInterface15GetSunElevationEv@Base 5.0.0
 _ZNK3otb29OpticalImageMetadataInterface29BandIndexToWavelengthPositionEj@Base 5.0.0
 _ZNK3otb29OpticalImageMetadataInterface9PrintSelfERSoN3itk6IndentE@Base 5.0.0
 _ZNK3otb30FormosatImageMetadataInterface13CreateAnotherEv@Base 5.0.0
 _ZNK3otb30FormosatImageMetadataInterface13GetInstrumentB5cxx11Ev@Base 5.0.0
 _ZNK3otb30FormosatImageMetadataInterface13GetInstrumentEv@Base 5.0.0
 _ZNK3otb30FormosatImageMetadataInterface13GetSatAzimuthEv@Base 5.0.0
 _ZNK3otb30FormosatImageMetadataInterface14GetNameOfClassEv@Base 5.0.0
 _ZNK3otb30FormosatImageMetadataInterface15GetPhysicalBiasEv@Base 5.0.0
 _ZNK3otb30FormosatImageMetadataInterface15GetPhysicalGainEv@Base 5.0.0
 _ZNK3otb30FormosatImageMetadataInterface15GetSatElevationEv@Base 5.0.0
 _ZNK3otb30FormosatImageMetadataInterface16GetProductionDayEv@Base 5.0.0
 _ZNK3otb30FormosatImageMetadataInterface17GetDefaultDisplayEv@Base 5.0.0
 _ZNK3otb30FormosatImageMetadataInterface17GetProductionYearEv@Base 5.0.0
 _ZNK3otb30FormosatImageMetadataInterface18GetInstrumentIndexEv@Base 5.0.0
 _ZNK3otb30FormosatImageMetadataInterface18GetLastWavelengthsEv@Base 5.0.0
 _ZNK3otb30FormosatImageMetadataInterface18GetProductionMonthEv@Base 5.0.0
 _ZNK3otb30FormosatImageMetadataInterface18GetSolarIrradianceEv@Base 5.0.0
 _ZNK3otb30FormosatImageMetadataInterface19GetFirstWavelengthsEv@Base 5.0.0
 _ZNK3otb30FormosatImageMetadataInterface20GetEnhancedBandNamesB5cxx11Ev@Base 5.0.0
 _ZNK3otb30FormosatImageMetadataInterface20GetEnhancedBandNamesEv@Base 5.0.0
 _ZNK3otb30FormosatImageMetadataInterface22GetSpectralSensitivityEv@Base 5.0.0
 _ZNK3otb30FormosatImageMetadataInterface29BandIndexToWavelengthPositionEj@Base 5.0.0
 _ZNK3otb30FormosatImageMetadataInterface6GetDayEv@Base 5.0.0
 _ZNK3otb30FormosatImageMetadataInterface7CanReadEv@Base 5.0.0
 _ZNK3otb30FormosatImageMetadataInterface7GetHourEv@Base 5.0.0
 _ZNK3otb30FormosatImageMetadataInterface7GetYearEv@Base 5.0.0
 _ZNK3otb30FormosatImageMetadataInterface8GetMonthEv@Base 5.0.0
 _ZNK3otb30FormosatImageMetadataInterface9GetMinuteEv@Base 5.0.0
 _ZNK3otb30PleiadesImageMetadataInterface13CreateAnotherEv@Base 5.0.0
 _ZNK3otb30PleiadesImageMetadataInterface13GetInstrumentB5cxx11Ev@Base 5.0.0
 _ZNK3otb30PleiadesImageMetadataInterface13GetInstrumentEv@Base 5.0.0
 _ZNK3otb30PleiadesImageMetadataInterface13GetSatAzimuthEv@Base 5.0.0
 _ZNK3otb30PleiadesImageMetadataInterface14GetNameOfClassEv@Base 5.0.0
 _ZNK3otb30PleiadesImageMetadataInterface15GetPhysicalBiasEv@Base 5.0.0
 _ZNK3otb30PleiadesImageMetadataInterface15GetPhysicalGainEv@Base 5.0.0
 _ZNK3otb30PleiadesImageMetadataInterface15GetSatElevationEv@Base 5.0.0
 _ZNK3otb30PleiadesImageMetadataInterface16GetProductionDayEv@Base 5.0.0
 _ZNK3otb30PleiadesImageMetadataInterface17GetDefaultDisplayEv@Base 5.0.0
 _ZNK3otb30PleiadesImageMetadataInterface17GetProductionYearEv@Base 5.0.0
 _ZNK3otb30PleiadesImageMetadataInterface18GetInstrumentIndexB5cxx11Ev@Base 5.0.0
 _ZNK3otb30PleiadesImageMetadataInterface18GetInstrumentIndexEv@Base 5.0.0
 _ZNK3otb30PleiadesImageMetadataInterface18GetLastWavelengthsEv@Base 5.0.0
 _ZNK3otb30PleiadesImageMetadataInterface18GetProductionMonthEv@Base 5.0.0
 _ZNK3otb30PleiadesImageMetadataInterface18GetSolarIrradianceEv@Base 5.0.0
 _ZNK3otb30PleiadesImageMetadataInterface19GetFirstWavelengthsEv@Base 5.0.0
 _ZNK3otb30PleiadesImageMetadataInterface20GetEnhancedBandNamesB5cxx11Ev@Base 5.0.0
 _ZNK3otb30PleiadesImageMetadataInterface20GetEnhancedBandNamesEv@Base 5.0.0
 _ZNK3otb30PleiadesImageMetadataInterface22GetSpectralSensitivityEv@Base 5.0.0
 _ZNK3otb30PleiadesImageMetadataInterface29BandIndexToWavelengthPositionEj@Base 5.0.0
 _ZNK3otb30PleiadesImageMetadataInterface6GetDayEv@Base 5.0.0
 _ZNK3otb30PleiadesImageMetadataInterface7CanReadEv@Base 5.0.0
 _ZNK3otb30PleiadesImageMetadataInterface7GetHourEv@Base 5.0.0
 _ZNK3otb30PleiadesImageMetadataInterface7GetYearEv@Base 5.0.0
 _ZNK3otb30PleiadesImageMetadataInterface8GetMonthEv@Base 5.0.0
 _ZNK3otb30PleiadesImageMetadataInterface9GetMinuteEv@Base 5.0.0
 _ZNK3otb30TerraSarImageMetadataInterface13CreateAnotherEv@Base 5.0.0
 _ZNK3otb30TerraSarImageMetadataInterface14GetNameOfClassEv@Base 5.0.0
 _ZNK3otb30TerraSarImageMetadataInterface14GetStopTimeUTCEv@Base 5.0.0
 _ZNK3otb30TerraSarImageMetadataInterface15GetNoiseTimeUTCEj@Base 5.0.0
 _ZNK3otb30TerraSarImageMetadataInterface15GetStartTimeUTCEv@Base 5.0.0
 _ZNK3otb30TerraSarImageMetadataInterface16GetProductionDayEv@Base 5.0.0
 _ZNK3otb30TerraSarImageMetadataInterface17GetDefaultDisplayEv@Base 5.0.0
 _ZNK3otb30TerraSarImageMetadataInterface17GetProductionYearEv@Base 5.0.0
 _ZNK3otb30TerraSarImageMetadataInterface17GetRadarFrequencyEv@Base 5.0.0
 _ZNK3otb30TerraSarImageMetadataInterface18GetProductionMonthEv@Base 5.0.0
 _ZNK3otb30TerraSarImageMetadataInterface19GetNoiseTimeUTCListEv@Base 5.0.0
 _ZNK3otb30TerraSarImageMetadataInterface20GetCalibrationFactorEv@Base 5.0.0
 _ZNK3otb30TerraSarImageMetadataInterface21GetRangeTimeLastPixelEv@Base 5.0.0
 _ZNK3otb30TerraSarImageMetadataInterface22GetMeanIncidenceAnglesEv@Base 5.0.0
 _ZNK3otb30TerraSarImageMetadataInterface22GetNoiseReferencePointEj@Base 5.0.0
 _ZNK3otb30TerraSarImageMetadataInterface22GetRangeTimeFirstPixelEv@Base 5.0.0
 _ZNK3otb30TerraSarImageMetadataInterface23GetCenterIncidenceAngleEv@Base 5.0.0
 _ZNK3otb30TerraSarImageMetadataInterface23GetNumberOfNoiseRecordsEv@Base 5.0.0
 _ZNK3otb30TerraSarImageMetadataInterface25GetCornersIncidenceAnglesEv@Base 5.0.0
 _ZNK3otb30TerraSarImageMetadataInterface25GetNoisePolynomialDegreesEj@Base 5.0.0
 _ZNK3otb30TerraSarImageMetadataInterface25GetNoisePolynomialDegreesEv@Base 5.0.0
 _ZNK3otb30TerraSarImageMetadataInterface26GetNoiseReferencePointListEv@Base 5.0.0
 _ZNK3otb30TerraSarImageMetadataInterface28GetCenterIncidenceAngleIndexEv@Base 5.0.0
 _ZNK3otb30TerraSarImageMetadataInterface28GetNoiseValidityRangeMaxListEv@Base 5.0.0
 _ZNK3otb30TerraSarImageMetadataInterface28GetNoiseValidityRangeMinListEv@Base 5.0.0
 _ZNK3otb30TerraSarImageMetadataInterface30GetCornersIncidenceAnglesIndexEv@Base 5.0.0
 _ZNK3otb30TerraSarImageMetadataInterface30GetNoisePolynomialCoefficientsEj@Base 5.0.0
 _ZNK3otb30TerraSarImageMetadataInterface30GetRadiometricCalibrationNoiseEv@Base 5.0.0
 _ZNK3otb30TerraSarImageMetadataInterface30GetRadiometricCalibrationScaleEv@Base 5.0.0
 _ZNK3otb30TerraSarImageMetadataInterface31ConvertStringTimeUTCToJulianDayERKNSt7__cxx1112basic_stringIcSt11char_traitsIcESaIcEEE@Base 5.0.0
 _ZNK3otb30TerraSarImageMetadataInterface31ConvertStringTimeUTCToJulianDayERKSs@Base 5.0.0
 _ZNK3otb30TerraSarImageMetadataInterface32GetNumberOfCornerIncidenceAnglesEv@Base 5.0.0
 _ZNK3otb30TerraSarImageMetadataInterface34GetNoisePolynomialCoefficientsListEv@Base 5.0.0
 _ZNK3otb30TerraSarImageMetadataInterface39GetRadiometricCalibrationIncidenceAngleEv@Base 5.0.0
 _ZNK3otb30TerraSarImageMetadataInterface46GetRadiometricCalibrationNoisePolynomialDegreeEv@Base 5.0.0
 _ZNK3otb30TerraSarImageMetadataInterface55GetRadiometricCalibrationIncidenceAnglePolynomialDegreeEv@Base 5.0.0
 _ZNK3otb30TerraSarImageMetadataInterface6GetDayEv@Base 5.0.0
 _ZNK3otb30TerraSarImageMetadataInterface6GetPRFEv@Base 5.0.0
 _ZNK3otb30TerraSarImageMetadataInterface6GetRSFEv@Base 5.0.0
 _ZNK3otb30TerraSarImageMetadataInterface7CanReadEv@Base 5.0.0
 _ZNK3otb30TerraSarImageMetadataInterface7GetHourEv@Base 5.0.0
 _ZNK3otb30TerraSarImageMetadataInterface7GetYearEv@Base 5.0.0
 _ZNK3otb30TerraSarImageMetadataInterface8GetMonthEv@Base 5.0.0
 _ZNK3otb30TerraSarImageMetadataInterface9GetMinuteEv@Base 5.0.0
 _ZNK3otb30TerraSarImageMetadataInterface9PrintSelfERSoN3itk6IndentE@Base 5.0.0
 _ZNK3otb31QuickBirdImageMetadataInterface13CreateAnotherEv@Base 5.0.0
 _ZNK3otb31QuickBirdImageMetadataInterface13GetSatAzimuthEv@Base 5.0.0
 _ZNK3otb31QuickBirdImageMetadataInterface14GetNameOfClassEv@Base 5.0.0
 _ZNK3otb31QuickBirdImageMetadataInterface15GetPhysicalBiasEv@Base 5.0.0
 _ZNK3otb31QuickBirdImageMetadataInterface15GetPhysicalGainEv@Base 5.0.0
 _ZNK3otb31QuickBirdImageMetadataInterface15GetSatElevationEv@Base 5.0.0
 _ZNK3otb31QuickBirdImageMetadataInterface16GetProductionDayEv@Base 5.0.0
 _ZNK3otb31QuickBirdImageMetadataInterface17GetDefaultDisplayEv@Base 5.0.0
 _ZNK3otb31QuickBirdImageMetadataInterface17GetProductionYearEv@Base 5.0.0
 _ZNK3otb31QuickBirdImageMetadataInterface18GetLastWavelengthsEv@Base 5.0.0
 _ZNK3otb31QuickBirdImageMetadataInterface18GetProductionMonthEv@Base 5.0.0
 _ZNK3otb31QuickBirdImageMetadataInterface18GetSolarIrradianceEv@Base 5.0.0
 _ZNK3otb31QuickBirdImageMetadataInterface19GetFirstWavelengthsEv@Base 5.0.0
 _ZNK3otb31QuickBirdImageMetadataInterface20GetEnhancedBandNamesB5cxx11Ev@Base 5.0.0
 _ZNK3otb31QuickBirdImageMetadataInterface20GetEnhancedBandNamesEv@Base 5.0.0
 _ZNK3otb31QuickBirdImageMetadataInterface22GetSpectralSensitivityEv@Base 5.0.0
 _ZNK3otb31QuickBirdImageMetadataInterface6GetDayEv@Base 5.0.0
 _ZNK3otb31QuickBirdImageMetadataInterface7CanReadEv@Base 5.0.0
 _ZNK3otb31QuickBirdImageMetadataInterface7GetHourEv@Base 5.0.0
 _ZNK3otb31QuickBirdImageMetadataInterface7GetYearEv@Base 5.0.0
 _ZNK3otb31QuickBirdImageMetadataInterface8GetMonthEv@Base 5.0.0
 _ZNK3otb31QuickBirdImageMetadataInterface9GetMinuteEv@Base 5.0.0
 _ZNK3otb32SarDefaultImageMetadataInterface13CreateAnotherEv@Base 5.0.0
 _ZNK3otb32SarDefaultImageMetadataInterface14GetNameOfClassEv@Base 5.0.0
 _ZNK3otb32SarDefaultImageMetadataInterface16GetProductionDayEv@Base 5.0.0
 _ZNK3otb32SarDefaultImageMetadataInterface17GetDefaultDisplayEv@Base 5.0.0
 _ZNK3otb32SarDefaultImageMetadataInterface17GetProductionYearEv@Base 5.0.0
 _ZNK3otb32SarDefaultImageMetadataInterface17GetRadarFrequencyEv@Base 5.0.0
 _ZNK3otb32SarDefaultImageMetadataInterface18GetProductionMonthEv@Base 5.0.0
 _ZNK3otb32SarDefaultImageMetadataInterface23GetCenterIncidenceAngleEv@Base 5.0.0
 _ZNK3otb32SarDefaultImageMetadataInterface30GetRadiometricCalibrationNoiseEv@Base 5.0.0
 _ZNK3otb32SarDefaultImageMetadataInterface30GetRadiometricCalibrationScaleEv@Base 5.0.0
 _ZNK3otb32SarDefaultImageMetadataInterface39GetRadiometricCalibrationIncidenceAngleEv@Base 5.0.0
 _ZNK3otb32SarDefaultImageMetadataInterface40GetRadiometricCalibrationRangeSpreadLossEv@Base 5.0.0
 _ZNK3otb32SarDefaultImageMetadataInterface46GetRadiometricCalibrationAntennaPatternNewGainEv@Base 5.0.0
 _ZNK3otb32SarDefaultImageMetadataInterface46GetRadiometricCalibrationAntennaPatternOldGainEv@Base 5.0.0
 _ZNK3otb32SarDefaultImageMetadataInterface46GetRadiometricCalibrationNoisePolynomialDegreeEv@Base 5.0.0
 _ZNK3otb32SarDefaultImageMetadataInterface55GetRadiometricCalibrationIncidenceAnglePolynomialDegreeEv@Base 5.0.0
 _ZNK3otb32SarDefaultImageMetadataInterface56GetRadiometricCalibrationRangeSpreadLossPolynomialDegreeEv@Base 5.0.0
 _ZNK3otb32SarDefaultImageMetadataInterface62GetRadiometricCalibrationAntennaPatternNewGainPolynomialDegreeEv@Base 5.0.0
 _ZNK3otb32SarDefaultImageMetadataInterface62GetRadiometricCalibrationAntennaPatternOldGainPolynomialDegreeEv@Base 5.0.0
 _ZNK3otb32SarDefaultImageMetadataInterface6GetDayEv@Base 5.0.0
 _ZNK3otb32SarDefaultImageMetadataInterface6GetPRFEv@Base 5.0.0
 _ZNK3otb32SarDefaultImageMetadataInterface6GetRSFEv@Base 5.0.0
 _ZNK3otb32SarDefaultImageMetadataInterface7CanReadEv@Base 5.0.0
 _ZNK3otb32SarDefaultImageMetadataInterface7GetHourEv@Base 5.0.0
 _ZNK3otb32SarDefaultImageMetadataInterface7GetYearEv@Base 5.0.0
 _ZNK3otb32SarDefaultImageMetadataInterface8GetMonthEv@Base 5.0.0
 _ZNK3otb32SarDefaultImageMetadataInterface9GetMinuteEv@Base 5.0.0
 _ZNK3otb32WorldView2ImageMetadataInterface13CreateAnotherEv@Base 5.0.0
 _ZNK3otb32WorldView2ImageMetadataInterface13GetSatAzimuthEv@Base 5.0.0
 _ZNK3otb32WorldView2ImageMetadataInterface14GetNameOfClassEv@Base 5.0.0
 _ZNK3otb32WorldView2ImageMetadataInterface15GetPhysicalBiasEv@Base 5.0.0
 _ZNK3otb32WorldView2ImageMetadataInterface15GetPhysicalGainEv@Base 5.0.0
 _ZNK3otb32WorldView2ImageMetadataInterface15GetSatElevationEv@Base 5.0.0
 _ZNK3otb32WorldView2ImageMetadataInterface16GetProductionDayEv@Base 5.0.0
 _ZNK3otb32WorldView2ImageMetadataInterface17GetDefaultDisplayEv@Base 5.0.0
 _ZNK3otb32WorldView2ImageMetadataInterface17GetProductionYearEv@Base 5.0.0
 _ZNK3otb32WorldView2ImageMetadataInterface18GetLastWavelengthsEv@Base 5.0.0
 _ZNK3otb32WorldView2ImageMetadataInterface18GetProductionMonthEv@Base 5.0.0
 _ZNK3otb32WorldView2ImageMetadataInterface18GetSolarIrradianceEv@Base 5.0.0
 _ZNK3otb32WorldView2ImageMetadataInterface19GetFirstWavelengthsEv@Base 5.0.0
 _ZNK3otb32WorldView2ImageMetadataInterface20GetEnhancedBandNamesB5cxx11Ev@Base 5.0.0
 _ZNK3otb32WorldView2ImageMetadataInterface20GetEnhancedBandNamesEv@Base 5.0.0
 _ZNK3otb32WorldView2ImageMetadataInterface22GetSpectralSensitivityEv@Base 5.0.0
 _ZNK3otb32WorldView2ImageMetadataInterface6GetDayEv@Base 5.0.0
 _ZNK3otb32WorldView2ImageMetadataInterface7CanReadEv@Base 5.0.0
 _ZNK3otb32WorldView2ImageMetadataInterface7GetHourEv@Base 5.0.0
 _ZNK3otb32WorldView2ImageMetadataInterface7GetYearEv@Base 5.0.0
 _ZNK3otb32WorldView2ImageMetadataInterface8GetMonthEv@Base 5.0.0
 _ZNK3otb32WorldView2ImageMetadataInterface9GetMinuteEv@Base 5.0.0
 _ZNK3otb33SpotImageMetadataInterfaceFactory13CreateAnotherEv@Base 5.0.0
 _ZNK3otb33SpotImageMetadataInterfaceFactory14GetDescriptionEv@Base 5.0.0
 _ZNK3otb33SpotImageMetadataInterfaceFactory14GetNameOfClassEv@Base 5.0.0
 _ZNK3otb33SpotImageMetadataInterfaceFactory19GetITKSourceVersionEv@Base 5.0.0
 _ZNK3otb34Spot6ImageMetadataInterfaceFactory13CreateAnotherEv@Base 5.0.0
 _ZNK3otb34Spot6ImageMetadataInterfaceFactory14GetDescriptionEv@Base 5.0.0
 _ZNK3otb34Spot6ImageMetadataInterfaceFactory14GetNameOfClassEv@Base 5.0.0
 _ZNK3otb34Spot6ImageMetadataInterfaceFactory19GetITKSourceVersionEv@Base 5.0.0
 _ZNK3otb35IkonosImageMetadataInterfaceFactory13CreateAnotherEv@Base 5.0.0
 _ZNK3otb35IkonosImageMetadataInterfaceFactory14GetDescriptionEv@Base 5.0.0
 _ZNK3otb35IkonosImageMetadataInterfaceFactory14GetNameOfClassEv@Base 5.0.0
 _ZNK3otb35IkonosImageMetadataInterfaceFactory19GetITKSourceVersionEv@Base 5.0.0
 _ZNK3otb36DefaultImageMetadataInterfaceFactory13CreateAnotherEv@Base 5.0.0
 _ZNK3otb36DefaultImageMetadataInterfaceFactory14GetDescriptionEv@Base 5.0.0
 _ZNK3otb36DefaultImageMetadataInterfaceFactory14GetNameOfClassEv@Base 5.0.0
 _ZNK3otb36DefaultImageMetadataInterfaceFactory19GetITKSourceVersionEv@Base 5.0.0
 _ZNK3otb36OpticalDefaultImageMetadataInterface13CreateAnotherEv@Base 5.0.0
 _ZNK3otb36OpticalDefaultImageMetadataInterface13GetSatAzimuthEv@Base 5.0.0
 _ZNK3otb36OpticalDefaultImageMetadataInterface14GetNameOfClassEv@Base 5.0.0
 _ZNK3otb36OpticalDefaultImageMetadataInterface15GetPhysicalBiasEv@Base 5.0.0
 _ZNK3otb36OpticalDefaultImageMetadataInterface15GetPhysicalGainEv@Base 5.0.0
 _ZNK3otb36OpticalDefaultImageMetadataInterface15GetSatElevationEv@Base 5.0.0
 _ZNK3otb36OpticalDefaultImageMetadataInterface16GetProductionDayEv@Base 5.0.0
 _ZNK3otb36OpticalDefaultImageMetadataInterface17GetDefaultDisplayEv@Base 5.0.0
 _ZNK3otb36OpticalDefaultImageMetadataInterface17GetProductionYearEv@Base 5.0.0
 _ZNK3otb36OpticalDefaultImageMetadataInterface18GetLastWavelengthsEv@Base 5.0.0
 _ZNK3otb36OpticalDefaultImageMetadataInterface18GetProductionMonthEv@Base 5.0.0
 _ZNK3otb36OpticalDefaultImageMetadataInterface18GetSolarIrradianceEv@Base 5.0.0
 _ZNK3otb36OpticalDefaultImageMetadataInterface19GetFirstWavelengthsEv@Base 5.0.0
 _ZNK3otb36OpticalDefaultImageMetadataInterface20GetEnhancedBandNamesB5cxx11Ev@Base 5.0.0
 _ZNK3otb36OpticalDefaultImageMetadataInterface20GetEnhancedBandNamesEv@Base 5.0.0
 _ZNK3otb36OpticalDefaultImageMetadataInterface22GetSpectralSensitivityEv@Base 5.0.0
 _ZNK3otb36OpticalDefaultImageMetadataInterface6GetDayEv@Base 5.0.0
 _ZNK3otb36OpticalDefaultImageMetadataInterface7CanReadEv@Base 5.0.0
 _ZNK3otb36OpticalDefaultImageMetadataInterface7GetHourEv@Base 5.0.0
 _ZNK3otb36OpticalDefaultImageMetadataInterface7GetYearEv@Base 5.0.0
 _ZNK3otb36OpticalDefaultImageMetadataInterface8GetMonthEv@Base 5.0.0
 _ZNK3otb36OpticalDefaultImageMetadataInterface9GetMinuteEv@Base 5.0.0
 _ZNK3otb37FormosatImageMetadataInterfaceFactory13CreateAnotherEv@Base 5.0.0
 _ZNK3otb37FormosatImageMetadataInterfaceFactory14GetDescriptionEv@Base 5.0.0
 _ZNK3otb37FormosatImageMetadataInterfaceFactory14GetNameOfClassEv@Base 5.0.0
 _ZNK3otb37FormosatImageMetadataInterfaceFactory19GetITKSourceVersionEv@Base 5.0.0
 _ZNK3otb37PleiadesImageMetadataInterfaceFactory13CreateAnotherEv@Base 5.0.0
 _ZNK3otb37PleiadesImageMetadataInterfaceFactory14GetDescriptionEv@Base 5.0.0
 _ZNK3otb37PleiadesImageMetadataInterfaceFactory14GetNameOfClassEv@Base 5.0.0
 _ZNK3otb37PleiadesImageMetadataInterfaceFactory19GetITKSourceVersionEv@Base 5.0.0
 _ZNK3otb37TerraSarImageMetadataInterfaceFactory13CreateAnotherEv@Base 5.0.0
 _ZNK3otb37TerraSarImageMetadataInterfaceFactory14GetDescriptionEv@Base 5.0.0
 _ZNK3otb37TerraSarImageMetadataInterfaceFactory14GetNameOfClassEv@Base 5.0.0
 _ZNK3otb37TerraSarImageMetadataInterfaceFactory19GetITKSourceVersionEv@Base 5.0.0
 _ZNK3otb38QuickBirdImageMetadataInterfaceFactory13CreateAnotherEv@Base 5.0.0
 _ZNK3otb38QuickBirdImageMetadataInterfaceFactory14GetDescriptionEv@Base 5.0.0
 _ZNK3otb38QuickBirdImageMetadataInterfaceFactory14GetNameOfClassEv@Base 5.0.0
 _ZNK3otb38QuickBirdImageMetadataInterfaceFactory19GetITKSourceVersionEv@Base 5.0.0
 _ZNK3otb39SarDefaultImageMetadataInterfaceFactory13CreateAnotherEv@Base 5.0.0
 _ZNK3otb39SarDefaultImageMetadataInterfaceFactory14GetDescriptionEv@Base 5.0.0
 _ZNK3otb39SarDefaultImageMetadataInterfaceFactory14GetNameOfClassEv@Base 5.0.0
 _ZNK3otb39SarDefaultImageMetadataInterfaceFactory19GetITKSourceVersionEv@Base 5.0.0
 _ZNK3otb39WorldView2ImageMetadataInterfaceFactory13CreateAnotherEv@Base 5.0.0
 _ZNK3otb39WorldView2ImageMetadataInterfaceFactory14GetDescriptionEv@Base 5.0.0
 _ZNK3otb39WorldView2ImageMetadataInterfaceFactory14GetNameOfClassEv@Base 5.0.0
 _ZNK3otb39WorldView2ImageMetadataInterfaceFactory19GetITKSourceVersionEv@Base 5.0.0
 _ZNK3otb43OpticalDefaultImageMetadataInterfaceFactory13CreateAnotherEv@Base 5.0.0
 _ZNK3otb43OpticalDefaultImageMetadataInterfaceFactory14GetDescriptionEv@Base 5.0.0
 _ZNK3otb43OpticalDefaultImageMetadataInterfaceFactory14GetNameOfClassEv@Base 5.0.0
 _ZNK3otb43OpticalDefaultImageMetadataInterfaceFactory19GetITKSourceVersionEv@Base 5.0.0
 _ZNK5boost16bad_lexical_cast4whatEv@Base 5.0.0
 (optional=templinst)_ZNK5boost16exception_detail10clone_implINS0_19error_info_injectorINS_16bad_lexical_castEEEE5cloneEv@Base 5.0.0
 (optional=templinst)_ZNK5boost16exception_detail10clone_implINS0_19error_info_injectorINS_16bad_lexical_castEEEE7rethrowEv@Base 5.0.0
 (optional=templinst)_ZNK5boost16exception_detail10clone_implINS0_19error_info_injectorINS_17bad_function_callEEEE5cloneEv@Base 5.0.0
 (optional=templinst)_ZNK5boost16exception_detail10clone_implINS0_19error_info_injectorINS_17bad_function_callEEEE7rethrowEv@Base 5.0.0
 (optional=templinst)_ZNK5boost9algorithm6detail10is_any_ofFIcEclIcEEbT_@Base 5.0.0
 (optional=templinst)_ZNKSt5ctypeIcE8do_widenEc@Base 5.0.0
 (optional=templinst)_ZNSt10_List_baseIN3itk12SmartPointerINS0_11LightObjectEEESaIS3_EE8_M_clearEv@Base 5.0.0
 (optional=templinst)_ZNSt10_List_baseISt6vectorIfSaIfEESaIS2_EE8_M_clearEv@Base 5.0.0
 (optional=templinst)_ZNSt12_Destroy_auxILb0EE9__destroyIPSsEEvT_S3_@Base 5.0.0
 (optional=templinst)_ZNSt15basic_stringbufIcSt11char_traitsIcESaIcEED0Ev@Base 5.0.0
 (optional=templinst)_ZNSt15basic_stringbufIcSt11char_traitsIcESaIcEED1Ev@Base 5.0.0
 (optional=templinst)_ZNSt15basic_stringbufIcSt11char_traitsIcESaIcEED2Ev@Base 5.0.0
 (optional=templinst|arch=i386)_ZNSt16istream_iteratorIdcSt11char_traitsIcEiE7_M_readEv@Base 5.0.0
 (optional=templinst|arch=amd64)_ZNSt16istream_iteratorIdcSt11char_traitsIcElE7_M_readEv@Base 5.0.0
 (optional=templinst)_ZNSt20__uninitialized_copyILb0EE13__uninit_copyIPN3itk12SmartPointerIN3otb20FilterFunctionValuesEEES7_EET0_T_S9_S8_@Base 5.0.0
 (optional=templinst)_ZNSt20__uninitialized_copyILb0EE13__uninit_copyIPNSt7__cxx1112basic_stringIcSt11char_traitsIcESaIcEEES8_EET0_T_SA_S9_@Base 5.0.0
 (optional=templinst)_ZNSt20__uninitialized_copyILb0EE13__uninit_copyIPSt6vectorIdSaIdEES5_EET0_T_S7_S6_@Base 5.0.0
 (optional=templinst)_ZNSt6vectorIN3itk12SmartPointerIN3otb20FilterFunctionValuesEEESaIS4_EE13_M_insert_auxEN9__gnu_cxx17__normal_iteratorIPS4_S6_EERKS4_@Base 5.0.0
 (optional=templinst)_ZNSt6vectorIN3itk5IndexILj2EEESaIS2_EE13_M_insert_auxEN9__gnu_cxx17__normal_iteratorIPS2_S4_EERKS2_@Base 5.0.0
 (optional=templinst|arch=i386)_ZNSt6vectorIN3itk5PointIfLj2EEESaIS2_EE14_M_fill_insertEN9__gnu_cxx17__normal_iteratorIPS2_S4_EEjRKS2_@Base 5.0.0
 (optional=templinst)_ZNSt6vectorIN3itk5PointIfLj2EEESaIS2_EE14_M_fill_insertEN9__gnu_cxx17__normal_iteratorIPS2_S4_EEmRKS2_@Base 5.0.0
 (optional=templinst)_ZNSt6vectorINSt7__cxx1112basic_stringIcSt11char_traitsIcESaIcEEESaIS5_EE13_M_insert_auxEN9__gnu_cxx17__normal_iteratorIPS5_S7_EERKS5_@Base 5.0.0
 (optional=templinst)_ZNSt6vectorINSt7__cxx1112basic_stringIcSt11char_traitsIcESaIcEEESaIS5_EE9push_backERKS5_@Base 5.0.0
 (optional=templinst)_ZNSt6vectorINSt7__cxx1112basic_stringIcSt11char_traitsIcESaIcEEESaIS5_EED1Ev@Base 5.0.0
 (optional=templinst)_ZNSt6vectorINSt7__cxx1112basic_stringIcSt11char_traitsIcESaIcEEESaIS5_EED2Ev@Base 5.0.0
 (optional=templinst)_ZNSt6vectorIS_IdSaIdEESaIS1_EE13_M_insert_auxEN9__gnu_cxx17__normal_iteratorIPS1_S3_EERKS1_@Base 5.0.0
 (optional=templinst)_ZNSt6vectorISsSaISsEE13_M_insert_auxEN9__gnu_cxx17__normal_iteratorIPSsS1_EERKSs@Base 5.0.0
 (optional=templinst)_ZNSt6vectorISsSaISsEE9push_backERKSs@Base 5.0.0
 (optional=templinst)_ZNSt6vectorISsSaISsEED1Ev@Base 5.0.0
 (optional=templinst)_ZNSt6vectorISsSaISsEED2Ev@Base 5.0.0
 (optional=templinst)_ZNSt6vectorIdSaIdEE13_M_insert_auxEN9__gnu_cxx17__normal_iteratorIPdS1_EERKd@Base 5.0.0
 (optional=templinst|arch=i386)_ZNSt6vectorIdSaIdEE14_M_fill_insertEN9__gnu_cxx17__normal_iteratorIPdS1_EEjRKd@Base 5.0.0
 (optional=templinst)_ZNSt6vectorIdSaIdEE14_M_fill_insertEN9__gnu_cxx17__normal_iteratorIPdS1_EEmRKd@Base 5.0.0
 (optional=templinst)_ZNSt6vectorIdSaIdEE9push_backERKd@Base 5.0.0
 (optional=templinst|arch=i386)_ZNSt6vectorIdSaIdEEC1ISt16istream_iteratorIdcSt11char_traitsIcEiEEET_S7_RKS0_@Base 5.0.0
 (optional=templinst)_ZNSt6vectorIdSaIdEEC1ISt16istream_iteratorIdcSt11char_traitsIcElEEET_S7_RKS0_@Base 5.0.0
 (optional=templinst|arch=i386)_ZNSt6vectorIdSaIdEEC2ISt16istream_iteratorIdcSt11char_traitsIcEiEEET_S7_RKS0_@Base 5.0.0
 (optional=templinst)_ZNSt6vectorIdSaIdEEC2ISt16istream_iteratorIdcSt11char_traitsIcElEEET_S7_RKS0_@Base 5.0.0
 (optional=templinst)_ZNSt6vectorIdSaIdEEaSERKS1_@Base 5.0.0
 (optional=templinst)_ZNSt6vectorIfSaIfEEC1IPKfEET_S5_RKS0_@Base 5.0.0
 (optional=templinst)_ZNSt6vectorIfSaIfEEC2IPKfEET_S5_RKS0_@Base 5.0.0
 (optional=templinst)_ZNSt6vectorIfSaIfEEaSERKS1_@Base 5.0.0
 (optional=templinst)_ZNSt6vectorIjSaIjEE13_M_insert_auxEN9__gnu_cxx17__normal_iteratorIPjS1_EERKj@Base 5.0.0
 (optional=templinst)_ZNSt7__cxx1110_List_baseIN3itk12SmartPointerINS1_11LightObjectEEESaIS4_EE8_M_clearEv@Base 5.0.0
 (optional=templinst)_ZNSt7__cxx1115basic_stringbufIcSt11char_traitsIcESaIcEED0Ev@Base 5.0.0
 (optional=templinst)_ZNSt7__cxx1115basic_stringbufIcSt11char_traitsIcESaIcEED1Ev@Base 5.0.0
 (optional=templinst)_ZNSt7__cxx1115basic_stringbufIcSt11char_traitsIcESaIcEED2Ev@Base 5.0.0
 (optional=templinst)_ZNSt7__cxx114listISt6vectorIfSaIfEESaIS3_EE9push_backERKS3_@Base 5.0.0
 (optional=templinst|arch=i386)_ZSt13__adjust_heapIPcicN9__gnu_cxx5__ops15_Iter_less_iterEEvT_T0_S5_T1_T2_@Base 5.0.0
 (optional=templinst|arch=amd64)_ZSt13__adjust_heapIPclcN9__gnu_cxx5__ops15_Iter_less_iterEEvT_T0_S5_T1_T2_@Base 5.0.0
 (optional=templinst)_ZSt9__find_ifIN9__gnu_cxx17__normal_iteratorIPKcNSt7__cxx1112basic_stringIcSt11char_traitsIcESaIcEEEEENS0_5__ops10_Iter_predIN5boost9algorithm6detail10is_any_ofFIcEEEEET_SJ_SJ_T0_St26random_access_iterator_tag@Base 5.0.0
 (optional=templinst)_ZSt9__find_ifIN9__gnu_cxx17__normal_iteratorIPKcSsEENS0_5__ops10_Iter_predIN5boost9algorithm6detail10is_any_ofFIcEEEEET_SD_SD_T0_St26random_access_iterator_tag@Base 5.0.0
 (optional=templinst)_ZSt9__find_ifIN9__gnu_cxx17__normal_iteratorIPcNSt7__cxx1112basic_stringIcSt11char_traitsIcESaIcEEEEENS0_5__ops10_Iter_predIN5boost9algorithm6detail10is_any_ofFIcEEEEET_SI_SI_T0_St26random_access_iterator_tag@Base 5.0.0
 (optional=templinst)_ZSt9__find_ifIN9__gnu_cxx17__normal_iteratorIPcSsEENS0_5__ops10_Iter_predIN5boost9algorithm6detail10is_any_ofFIcEEEEET_SC_SC_T0_St26random_access_iterator_tag@Base 5.0.0
 (optional=templinst)_ZSteqIcEN9__gnu_cxx11__enable_ifIXsrSt9__is_charIT_E7__valueEbE6__typeERKNSt7__cxx1112basic_stringIS3_St11char_traitsIS3_ESaIS3_EEESE_@Base 5.0.0
 (optional=templinst)_ZSteqIcEN9__gnu_cxx11__enable_ifIXsrSt9__is_charIT_E7__valueEbE6__typeERKSbIS3_St11char_traitsIS3_ESaIS3_EESC_@Base 5.0.0
 _ZTIN3itk14MetaDataObjectIN3otb16ImageKeywordlistEEE@Base 5.0.0
 _ZTIN3itk14MetaDataObjectIN3otb7OTB_GCPEEE@Base 5.0.0
 _ZTIN3itk15VectorContainerImNS_5PointIfLj2EEEEE@Base 5.0.0
 _ZTIN3itk15VectorContainerImdEE@Base 5.0.0
 _ZTIN3itk20CreateObjectFunctionIN3otb26SpotImageMetadataInterfaceEEE@Base 5.0.0
 _ZTIN3itk20CreateObjectFunctionIN3otb27Spot6ImageMetadataInterfaceEEE@Base 5.0.0
 _ZTIN3itk20CreateObjectFunctionIN3otb28IkonosImageMetadataInterfaceEEE@Base 5.0.0
 _ZTIN3itk20CreateObjectFunctionIN3otb29DefaultImageMetadataInterfaceEEE@Base 5.0.0
 _ZTIN3itk20CreateObjectFunctionIN3otb30FormosatImageMetadataInterfaceEEE@Base 5.0.0
 _ZTIN3itk20CreateObjectFunctionIN3otb30PleiadesImageMetadataInterfaceEEE@Base 5.0.0
 _ZTIN3itk20CreateObjectFunctionIN3otb30TerraSarImageMetadataInterfaceEEE@Base 5.0.0
 _ZTIN3itk20CreateObjectFunctionIN3otb31QuickBirdImageMetadataInterfaceEEE@Base 5.0.0
 _ZTIN3itk20CreateObjectFunctionIN3otb32SarDefaultImageMetadataInterfaceEEE@Base 5.0.0
 _ZTIN3itk20CreateObjectFunctionIN3otb32WorldView2ImageMetadataInterfaceEEE@Base 5.0.0
 _ZTIN3itk20CreateObjectFunctionIN3otb36OpticalDefaultImageMetadataInterfaceEEE@Base 5.0.0
 _ZTIN3itk24CreateObjectFunctionBaseE@Base 5.0.0
 _ZTIN3itk8PointSetIdLj2ENS_23DefaultStaticMeshTraitsIdLj2ELj2EffdEEEE@Base 5.0.0
 _ZTIN3otb10ObjectListINS_20FilterFunctionValuesEEE@Base 5.0.0
 _ZTIN3otb25SarImageMetadataInterfaceE@Base 5.0.0
 _ZTIN3otb26ImageMetadataInterfaceBaseE@Base 5.0.0
 _ZTIN3otb26SpotImageMetadataInterfaceE@Base 5.0.0
 _ZTIN3otb27Spot6ImageMetadataInterfaceE@Base 5.0.0
 _ZTIN3otb28IkonosImageMetadataInterfaceE@Base 5.0.0
 _ZTIN3otb29DefaultImageMetadataInterfaceE@Base 5.0.0
 _ZTIN3otb29OpticalImageMetadataInterfaceE@Base 5.0.0
 _ZTIN3otb30FormosatImageMetadataInterfaceE@Base 5.0.0
 _ZTIN3otb30PleiadesImageMetadataInterfaceE@Base 5.0.0
 _ZTIN3otb30TerraSarImageMetadataInterfaceE@Base 5.0.0
 _ZTIN3otb31QuickBirdImageMetadataInterfaceE@Base 5.0.0
 _ZTIN3otb32SarDefaultImageMetadataInterfaceE@Base 5.0.0
 _ZTIN3otb32WorldView2ImageMetadataInterfaceE@Base 5.0.0
 _ZTIN3otb33SpotImageMetadataInterfaceFactoryE@Base 5.0.0
 _ZTIN3otb34Spot6ImageMetadataInterfaceFactoryE@Base 5.0.0
 _ZTIN3otb35IkonosImageMetadataInterfaceFactoryE@Base 5.0.0
 _ZTIN3otb36DefaultImageMetadataInterfaceFactoryE@Base 5.0.0
 _ZTIN3otb36OpticalDefaultImageMetadataInterfaceE@Base 5.0.0
 _ZTIN3otb37FormosatImageMetadataInterfaceFactoryE@Base 5.0.0
 _ZTIN3otb37PleiadesImageMetadataInterfaceFactoryE@Base 5.0.0
 _ZTIN3otb37TerraSarImageMetadataInterfaceFactoryE@Base 5.0.0
 _ZTIN3otb38QuickBirdImageMetadataInterfaceFactoryE@Base 5.0.0
 _ZTIN3otb39SarDefaultImageMetadataInterfaceFactoryE@Base 5.0.0
 _ZTIN3otb39WorldView2ImageMetadataInterfaceFactoryE@Base 5.0.0
 _ZTIN3otb43OpticalDefaultImageMetadataInterfaceFactoryE@Base 5.0.0
 _ZTIN5boost16bad_lexical_castE@Base 5.0.0
 _ZTIN5boost16exception_detail10clone_baseE@Base 5.0.0
 _ZTIN5boost16exception_detail10clone_implINS0_19error_info_injectorINS_16bad_lexical_castEEEEE@Base 5.0.0
 _ZTIN5boost16exception_detail10clone_implINS0_19error_info_injectorINS_17bad_function_callEEEEE@Base 5.0.0
 _ZTIN5boost16exception_detail19error_info_injectorINS_16bad_lexical_castEEE@Base 5.0.0
 _ZTIN5boost16exception_detail19error_info_injectorINS_17bad_function_callEEE@Base 5.0.0
 _ZTIN5boost17bad_function_callE@Base 5.0.0
 _ZTIN5boost9algorithm6detail13token_finderFINS1_10is_any_ofFIcEEEE@Base 5.0.0
 _ZTIN5boost9exceptionE@Base 5.0.0
 _ZTINSt7__cxx1112basic_stringIcSt11char_traitsIcESaIcEEE@Base 5.0.0
 _ZTISs@Base 5.0.0
 _ZTISt12_Vector_baseIN3itk5PointIfLj2EEESaIS2_EE@Base 5.0.0
 _ZTISt12_Vector_baseIdSaIdEE@Base 5.0.0
 _ZTISt6vectorIN3itk5PointIfLj2EEESaIS2_EE@Base 5.0.0
 _ZTISt6vectorIdSaIdEE@Base 5.0.0
 _ZTSN3itk14MetaDataObjectIN3otb16ImageKeywordlistEEE@Base 5.0.0
 _ZTSN3itk14MetaDataObjectIN3otb7OTB_GCPEEE@Base 5.0.0
 _ZTSN3itk15VectorContainerImNS_5PointIfLj2EEEEE@Base 5.0.0
 _ZTSN3itk15VectorContainerImdEE@Base 5.0.0
 _ZTSN3itk20CreateObjectFunctionIN3otb26SpotImageMetadataInterfaceEEE@Base 5.0.0
 _ZTSN3itk20CreateObjectFunctionIN3otb27Spot6ImageMetadataInterfaceEEE@Base 5.0.0
 _ZTSN3itk20CreateObjectFunctionIN3otb28IkonosImageMetadataInterfaceEEE@Base 5.0.0
 _ZTSN3itk20CreateObjectFunctionIN3otb29DefaultImageMetadataInterfaceEEE@Base 5.0.0
 _ZTSN3itk20CreateObjectFunctionIN3otb30FormosatImageMetadataInterfaceEEE@Base 5.0.0
 _ZTSN3itk20CreateObjectFunctionIN3otb30PleiadesImageMetadataInterfaceEEE@Base 5.0.0
 _ZTSN3itk20CreateObjectFunctionIN3otb30TerraSarImageMetadataInterfaceEEE@Base 5.0.0
 _ZTSN3itk20CreateObjectFunctionIN3otb31QuickBirdImageMetadataInterfaceEEE@Base 5.0.0
 _ZTSN3itk20CreateObjectFunctionIN3otb32SarDefaultImageMetadataInterfaceEEE@Base 5.0.0
 _ZTSN3itk20CreateObjectFunctionIN3otb32WorldView2ImageMetadataInterfaceEEE@Base 5.0.0
 _ZTSN3itk20CreateObjectFunctionIN3otb36OpticalDefaultImageMetadataInterfaceEEE@Base 5.0.0
 _ZTSN3itk24CreateObjectFunctionBaseE@Base 5.0.0
 _ZTSN3itk8PointSetIdLj2ENS_23DefaultStaticMeshTraitsIdLj2ELj2EffdEEEE@Base 5.0.0
 _ZTSN3otb10ObjectListINS_20FilterFunctionValuesEEE@Base 5.0.0
 _ZTSN3otb25SarImageMetadataInterfaceE@Base 5.0.0
 _ZTSN3otb26ImageMetadataInterfaceBaseE@Base 5.0.0
 _ZTSN3otb26SpotImageMetadataInterfaceE@Base 5.0.0
 _ZTSN3otb27Spot6ImageMetadataInterfaceE@Base 5.0.0
 _ZTSN3otb28IkonosImageMetadataInterfaceE@Base 5.0.0
 _ZTSN3otb29DefaultImageMetadataInterfaceE@Base 5.0.0
 _ZTSN3otb29OpticalImageMetadataInterfaceE@Base 5.0.0
 _ZTSN3otb30FormosatImageMetadataInterfaceE@Base 5.0.0
 _ZTSN3otb30PleiadesImageMetadataInterfaceE@Base 5.0.0
 _ZTSN3otb30TerraSarImageMetadataInterfaceE@Base 5.0.0
 _ZTSN3otb31QuickBirdImageMetadataInterfaceE@Base 5.0.0
 _ZTSN3otb32SarDefaultImageMetadataInterfaceE@Base 5.0.0
 _ZTSN3otb32WorldView2ImageMetadataInterfaceE@Base 5.0.0
 _ZTSN3otb33SpotImageMetadataInterfaceFactoryE@Base 5.0.0
 _ZTSN3otb34Spot6ImageMetadataInterfaceFactoryE@Base 5.0.0
 _ZTSN3otb35IkonosImageMetadataInterfaceFactoryE@Base 5.0.0
 _ZTSN3otb36DefaultImageMetadataInterfaceFactoryE@Base 5.0.0
 _ZTSN3otb36OpticalDefaultImageMetadataInterfaceE@Base 5.0.0
 _ZTSN3otb37FormosatImageMetadataInterfaceFactoryE@Base 5.0.0
 _ZTSN3otb37PleiadesImageMetadataInterfaceFactoryE@Base 5.0.0
 _ZTSN3otb37TerraSarImageMetadataInterfaceFactoryE@Base 5.0.0
 _ZTSN3otb38QuickBirdImageMetadataInterfaceFactoryE@Base 5.0.0
 _ZTSN3otb39SarDefaultImageMetadataInterfaceFactoryE@Base 5.0.0
 _ZTSN3otb39WorldView2ImageMetadataInterfaceFactoryE@Base 5.0.0
 _ZTSN3otb43OpticalDefaultImageMetadataInterfaceFactoryE@Base 5.0.0
 _ZTSN5boost16bad_lexical_castE@Base 5.0.0
 _ZTSN5boost16exception_detail10clone_baseE@Base 5.0.0
 _ZTSN5boost16exception_detail10clone_implINS0_19error_info_injectorINS_16bad_lexical_castEEEEE@Base 5.0.0
 _ZTSN5boost16exception_detail10clone_implINS0_19error_info_injectorINS_17bad_function_callEEEEE@Base 5.0.0
 _ZTSN5boost16exception_detail19error_info_injectorINS_16bad_lexical_castEEE@Base 5.0.0
 _ZTSN5boost16exception_detail19error_info_injectorINS_17bad_function_callEEE@Base 5.0.0
 _ZTSN5boost17bad_function_callE@Base 5.0.0
 _ZTSN5boost9algorithm6detail13token_finderFINS1_10is_any_ofFIcEEEE@Base 5.0.0
 _ZTSN5boost9exceptionE@Base 5.0.0
 _ZTSNSt7__cxx1112basic_stringIcSt11char_traitsIcESaIcEEE@Base 5.0.0
 _ZTSPKN3itk10DataObjectE@Base 5.0.0
 _ZTSPN3itk8PointSetIdLj2ENS_23DefaultStaticMeshTraitsIdLj2ELj2EffdEEEE@Base 5.0.0
 _ZTSSs@Base 5.0.0
 _ZTSSt12_Vector_baseIN3itk5PointIfLj2EEESaIS2_EE@Base 5.0.0
 _ZTSSt12_Vector_baseIdSaIdEE@Base 5.0.0
 _ZTSSt6vectorIN3itk5PointIfLj2EEESaIS2_EE@Base 5.0.0
 _ZTSSt6vectorIdSaIdEE@Base 5.0.0
 _ZTTN5boost16exception_detail10clone_implINS0_19error_info_injectorINS_16bad_lexical_castEEEEE@Base 5.0.0
 _ZTTN5boost16exception_detail10clone_implINS0_19error_info_injectorINS_17bad_function_callEEEEE@Base 5.0.0
 _ZTVN3itk15VectorContainerImNS_5PointIfLj2EEEEE@Base 5.0.0
 _ZTVN3itk15VectorContainerImdEE@Base 5.0.0
 _ZTVN3itk20CreateObjectFunctionIN3otb26SpotImageMetadataInterfaceEEE@Base 5.0.0
 _ZTVN3itk20CreateObjectFunctionIN3otb27Spot6ImageMetadataInterfaceEEE@Base 5.0.0
 _ZTVN3itk20CreateObjectFunctionIN3otb28IkonosImageMetadataInterfaceEEE@Base 5.0.0
 _ZTVN3itk20CreateObjectFunctionIN3otb29DefaultImageMetadataInterfaceEEE@Base 5.0.0
 _ZTVN3itk20CreateObjectFunctionIN3otb30FormosatImageMetadataInterfaceEEE@Base 5.0.0
 _ZTVN3itk20CreateObjectFunctionIN3otb30PleiadesImageMetadataInterfaceEEE@Base 5.0.0
 _ZTVN3itk20CreateObjectFunctionIN3otb30TerraSarImageMetadataInterfaceEEE@Base 5.0.0
 _ZTVN3itk20CreateObjectFunctionIN3otb31QuickBirdImageMetadataInterfaceEEE@Base 5.0.0
 _ZTVN3itk20CreateObjectFunctionIN3otb32SarDefaultImageMetadataInterfaceEEE@Base 5.0.0
 _ZTVN3itk20CreateObjectFunctionIN3otb32WorldView2ImageMetadataInterfaceEEE@Base 5.0.0
 _ZTVN3itk20CreateObjectFunctionIN3otb36OpticalDefaultImageMetadataInterfaceEEE@Base 5.0.0
 _ZTVN3itk24CreateObjectFunctionBaseE@Base 5.0.0
 _ZTVN3itk8PointSetIdLj2ENS_23DefaultStaticMeshTraitsIdLj2ELj2EffdEEEE@Base 5.0.0
 _ZTVN3otb10ObjectListINS_20FilterFunctionValuesEEE@Base 5.0.0
 _ZTVN3otb25SarImageMetadataInterfaceE@Base 5.0.0
 _ZTVN3otb26ImageMetadataInterfaceBaseE@Base 5.0.0
 _ZTVN3otb26SpotImageMetadataInterfaceE@Base 5.0.0
 _ZTVN3otb27Spot6ImageMetadataInterfaceE@Base 5.0.0
 _ZTVN3otb28IkonosImageMetadataInterfaceE@Base 5.0.0
 _ZTVN3otb29DefaultImageMetadataInterfaceE@Base 5.0.0
 _ZTVN3otb29OpticalImageMetadataInterfaceE@Base 5.0.0
 _ZTVN3otb30FormosatImageMetadataInterfaceE@Base 5.0.0
 _ZTVN3otb30PleiadesImageMetadataInterfaceE@Base 5.0.0
 _ZTVN3otb30TerraSarImageMetadataInterfaceE@Base 5.0.0
 _ZTVN3otb31QuickBirdImageMetadataInterfaceE@Base 5.0.0
 _ZTVN3otb32SarDefaultImageMetadataInterfaceE@Base 5.0.0
 _ZTVN3otb32WorldView2ImageMetadataInterfaceE@Base 5.0.0
 _ZTVN3otb33SpotImageMetadataInterfaceFactoryE@Base 5.0.0
 _ZTVN3otb34Spot6ImageMetadataInterfaceFactoryE@Base 5.0.0
 _ZTVN3otb35IkonosImageMetadataInterfaceFactoryE@Base 5.0.0
 _ZTVN3otb36DefaultImageMetadataInterfaceFactoryE@Base 5.0.0
 _ZTVN3otb36OpticalDefaultImageMetadataInterfaceE@Base 5.0.0
 _ZTVN3otb37FormosatImageMetadataInterfaceFactoryE@Base 5.0.0
 _ZTVN3otb37PleiadesImageMetadataInterfaceFactoryE@Base 5.0.0
 _ZTVN3otb37TerraSarImageMetadataInterfaceFactoryE@Base 5.0.0
 _ZTVN3otb38QuickBirdImageMetadataInterfaceFactoryE@Base 5.0.0
 _ZTVN3otb39SarDefaultImageMetadataInterfaceFactoryE@Base 5.0.0
 _ZTVN3otb39WorldView2ImageMetadataInterfaceFactoryE@Base 5.0.0
 _ZTVN3otb43OpticalDefaultImageMetadataInterfaceFactoryE@Base 5.0.0
 _ZTVN5boost16bad_lexical_castE@Base 5.0.0
 _ZTVN5boost16exception_detail10clone_baseE@Base 5.0.0
 _ZTVN5boost16exception_detail10clone_implINS0_19error_info_injectorINS_16bad_lexical_castEEEEE@Base 5.0.0
 _ZTVN5boost16exception_detail10clone_implINS0_19error_info_injectorINS_17bad_function_callEEEEE@Base 5.0.0
 _ZTVN5boost16exception_detail19error_info_injectorINS_16bad_lexical_castEEE@Base 5.0.0
 _ZTVN5boost16exception_detail19error_info_injectorINS_17bad_function_callEEE@Base 5.0.0
 _ZTVN5boost17bad_function_callE@Base 5.0.0
 _ZTVN5boost9exceptionE@Base 5.0.0
 (optional=templinst)_ZZN5boost9function2INS_14iterator_rangeIN9__gnu_cxx17__normal_iteratorIPKcNSt7__cxx1112basic_stringIcSt11char_traitsIcESaIcEEEEEEESC_SC_E9assign_toINS_9algorithm6detail13token_finderFINSH_10is_any_ofFIcEEEEEEvT_E13stored_vtable@Base 5.0.0
 (optional=templinst)_ZZN5boost9function2INS_14iterator_rangeIN9__gnu_cxx17__normal_iteratorIPKcSsEEEES6_S6_E9assign_toINS_9algorithm6detail13token_finderFINSB_10is_any_ofFIcEEEEEEvT_E13stored_vtable@Base 5.0.0
 (optional=templinst)_ZZN5boost9function2INS_14iterator_rangeIN9__gnu_cxx17__normal_iteratorIPcNSt7__cxx1112basic_stringIcSt11char_traitsIcESaIcEEEEEEESB_SB_E9assign_toINS_9algorithm6detail13token_finderFINSG_10is_any_ofFIcEEEEEEvT_E13stored_vtable@Base 5.0.0
 (optional=templinst)_ZZN5boost9function2INS_14iterator_rangeIN9__gnu_cxx17__normal_iteratorIPcSsEEEES5_S5_E9assign_toINS_9algorithm6detail13token_finderFINSA_10is_any_ofFIcEEEEEEvT_E13stored_vtable@Base 5.0.0
 (c++)"non-virtual thunk to boost::exception_detail::clone_impl<boost::exception_detail::error_info_injector<boost::bad_function_call> >::~clone_impl()@Base" 5.0.0
 (c++)"non-virtual thunk to boost::exception_detail::clone_impl<boost::exception_detail::error_info_injector<boost::bad_lexical_cast> >::~clone_impl()@Base" 5.0.0
 (c++)"non-virtual thunk to boost::exception_detail::error_info_injector<boost::bad_function_call>::~error_info_injector()@Base" 5.0.0
 (c++)"non-virtual thunk to boost::exception_detail::error_info_injector<boost::bad_lexical_cast>::~error_info_injector()@Base" 5.0.0
 (c++)"virtual thunk to boost::exception_detail::clone_impl<boost::exception_detail::error_info_injector<boost::bad_function_call> >::clone() const@Base" 5.0.0
 (c++)"virtual thunk to boost::exception_detail::clone_impl<boost::exception_detail::error_info_injector<boost::bad_function_call> >::rethrow() const@Base" 5.0.0
 (c++)"virtual thunk to boost::exception_detail::clone_impl<boost::exception_detail::error_info_injector<boost::bad_function_call> >::~clone_impl()@Base" 5.0.0
 (c++)"virtual thunk to boost::exception_detail::clone_impl<boost::exception_detail::error_info_injector<boost::bad_lexical_cast> >::clone() const@Base" 5.0.0
 (c++)"virtual thunk to boost::exception_detail::clone_impl<boost::exception_detail::error_info_injector<boost::bad_lexical_cast> >::rethrow() const@Base" 5.0.0
 (c++)"virtual thunk to boost::exception_detail::clone_impl<boost::exception_detail::error_info_injector<boost::bad_lexical_cast> >::~clone_impl()@Base" 5.0.0
