# SymbolsHelper-Confirmed: 5.2.0 amd64
libOTBIOLUM-5.2.so.1 libotbiolum-5.2-1 #MINVER#
 (optional=templinst)_ZN3itk11ByteSwapperIdE10Swap8RangeEPvm@Base 5.2.0
 _ZN3itk18LightProcessObject11SetProgressEf@Base 5.2.0
 _ZN3itk18LightProcessObject12GenerateDataEv@Base 5.2.0
 _ZN3itk18LightProcessObject19AbortGenerateDataOnEv@Base 5.2.0
 _ZN3itk18LightProcessObject20AbortGenerateDataOffEv@Base 5.2.0
 _ZN3itk18LightProcessObject20SetAbortGenerateDataEb@Base 5.2.0
 (optional=templinst)_ZN3itk20CreateObjectFunctionIN3otb10LUMImageIOEE12CreateObjectEv@Base 5.2.0
 (optional=templinst)_ZN3itk20CreateObjectFunctionIN3otb10LUMImageIOEED0Ev@Base 5.2.0
 (optional=templinst)_ZN3itk20CreateObjectFunctionIN3otb10LUMImageIOEED1Ev@Base 5.2.0
 (optional=templinst)_ZN3itk20CreateObjectFunctionIN3otb10LUMImageIOEED2Ev@Base 5.2.0
 _ZN3itk6Object13SetObjectNameENSt7__cxx1112basic_stringIcSt11char_traitsIcESaIcEEE@Base 5.2.0
 _ZN3itk6Object13SetObjectNameESs@Base 5.2.0
 _ZN3otb10LUMImageIO10ReadVolumeEPv@Base 5.2.0
 _ZN3otb10LUMImageIO11CanReadFileEPKc@Base 5.2.0
 _ZN3otb10LUMImageIO12CanWriteFileEPKc@Base 5.2.0
 _ZN3otb10LUMImageIO13CaiGetTypeLumEPKcRNSt7__cxx1112basic_stringIcSt11char_traitsIcESaIcEEERiS9_@Base 5.2.0
 _ZN3otb10LUMImageIO13CaiGetTypeLumEPKcRSsRiS3_@Base 5.2.0
 _ZN3otb10LUMImageIO13CanStreamReadEv@Base 5.2.0
 _ZN3otb10LUMImageIO14CanStreamWriteEv@Base 5.2.0
 _ZN3otb10LUMImageIO16GetOverviewsInfoB5cxx11Ev@Base 5.2.0
 _ZN3otb10LUMImageIO16GetOverviewsInfoEv@Base 5.2.0
 _ZN3otb10LUMImageIO17GetOverviewsCountEv@Base 5.2.0
 _ZN3otb10LUMImageIO20ReadImageInformationEv@Base 5.2.0
 _ZN3otb10LUMImageIO21WriteImageInformationEv@Base 5.2.0
 _ZN3otb10LUMImageIO23SetOutputImagePixelTypeEbb@Base 5.2.0
 _ZN3otb10LUMImageIO29InternalReadHeaderInformationERSt13basic_fstreamIcSt11char_traitsIcEEb@Base 5.2.0
 _ZN3otb10LUMImageIO4ReadEPv@Base 5.2.0
 _ZN3otb10LUMImageIO5WriteEPKv@Base 5.2.0
 _ZN3otb10LUMImageIOC1Ev@Base 5.2.0
 _ZN3otb10LUMImageIOC2Ev@Base 5.2.0
 _ZN3otb10LUMImageIOD0Ev@Base 5.2.0
 _ZN3otb10LUMImageIOD1Ev@Base 5.2.0
 _ZN3otb10LUMImageIOD2Ev@Base 5.2.0
 _ZN3otb11ImageIOBase11SetFileNameEPKc@Base 5.2.0
 _ZN3otb11ImageIOBase11SetFileNameERKNSt7__cxx1112basic_stringIcSt11char_traitsIcESaIcEEE@Base 5.2.0
 _ZN3otb11ImageIOBase11SetFileNameERKSs@Base 5.2.0
 _ZN3otb11ImageIOBase11SetFileTypeENS0_8FileTypeE@Base 5.2.0
 _ZN3otb11ImageIOBase11SetIORegionEN3itk13ImageIORegionE@Base 5.2.0
 _ZN3otb11ImageIOBase12SetByteOrderENS0_9ByteOrderE@Base 5.2.0
 _ZN3otb11ImageIOBase12SetPixelTypeENS0_11IOPixelTypeE@Base 5.2.0
 _ZN3otb11ImageIOBase16SetComponentTypeENS0_15IOComponentTypeE@Base 5.2.0
 _ZN3otb11ImageIOBase16UseCompressionOnEv@Base 5.2.0
 _ZN3otb11ImageIOBase17SetUseCompressionEb@Base 5.2.0
 _ZN3otb11ImageIOBase17SupportsDimensionEm@Base 5.2.0
 _ZN3otb11ImageIOBase17UseCompressionOffEv@Base 5.2.0
 _ZN3otb11ImageIOBase20UseStreamedReadingOnEv@Base 5.2.0
 _ZN3otb11ImageIOBase20UseStreamedWritingOnEv@Base 5.2.0
 _ZN3otb11ImageIOBase21SetNumberOfComponentsEj@Base 5.2.0
 _ZN3otb11ImageIOBase21SetUseStreamedReadingEb@Base 5.2.0
 _ZN3otb11ImageIOBase21SetUseStreamedWritingEb@Base 5.2.0
 _ZN3otb11ImageIOBase21UseStreamedReadingOffEv@Base 5.2.0
 _ZN3otb11ImageIOBase21UseStreamedWritingOffEv@Base 5.2.0
 _ZN3otb17LUMImageIOFactoryC1Ev@Base 5.2.0
 _ZN3otb17LUMImageIOFactoryC2Ev@Base 5.2.0
 _ZN3otb17LUMImageIOFactoryD0Ev@Base 5.2.0
 _ZN3otb17LUMImageIOFactoryD1Ev@Base 5.2.0
 _ZN3otb17LUMImageIOFactoryD2Ev@Base 5.2.0
 _ZN3otb34LUMImageIOFactoryRegister__PrivateEv@Base 5.2.0
 _ZNK3itk11LightObject17GetReferenceCountEv@Base 5.2.0
 _ZNK3itk18LightProcessObject11GetProgressEv@Base 5.2.0
 _ZNK3itk18LightProcessObject20GetAbortGenerateDataEv@Base 5.2.0
 (optional=templinst)_ZNK3itk20CreateObjectFunctionIN3otb10LUMImageIOEE13CreateAnotherEv@Base 5.2.0
 _ZNK3itk6Object13GetObjectNameB5cxx11Ev@Base 5.2.0
 _ZNK3itk6Object13GetObjectNameEv@Base 5.2.0
 _ZNK3itk6Object14GetNameOfClassEv@Base 5.2.0
 _ZNK3otb10LUMImageIO13CreateAnotherEv@Base 5.2.0
 _ZNK3otb10LUMImageIO14GetNameOfClassEv@Base 5.2.0
 _ZNK3otb10LUMImageIO9PrintSelfERSoN3itk6IndentE@Base 5.2.0
 _ZNK3otb11ImageIOBase10GetSpacingEj@Base 5.2.0
 _ZNK3otb11ImageIOBase11GetFileNameEv@Base 5.2.0
 _ZNK3otb11ImageIOBase11GetFileTypeEv@Base 5.2.0
 _ZNK3otb11ImageIOBase11GetIORegionEv@Base 5.2.0
 _ZNK3otb11ImageIOBase12GetByteOrderEv@Base 5.2.0
 _ZNK3otb11ImageIOBase12GetDirectionEj@Base 5.2.0
 _ZNK3otb11ImageIOBase12GetPixelTypeEv@Base 5.2.0
 _ZNK3otb11ImageIOBase13GetDimensionsEj@Base 5.2.0
 _ZNK3otb11ImageIOBase16GetComponentTypeEv@Base 5.2.0
 _ZNK3otb11ImageIOBase17GetUseCompressionEv@Base 5.2.0
 _ZNK3otb11ImageIOBase21GetNumberOfComponentsEv@Base 5.2.0
 _ZNK3otb11ImageIOBase21GetNumberOfDimensionsEv@Base 5.2.0
 _ZNK3otb11ImageIOBase21GetUseStreamedReadingEv@Base 5.2.0
 _ZNK3otb11ImageIOBase21GetUseStreamedWritingEv@Base 5.2.0
 _ZNK3otb11ImageIOBase9GetOriginEj@Base 5.2.0
 _ZNK3otb17LUMImageIOFactory13CreateAnotherEv@Base 5.2.0
 _ZNK3otb17LUMImageIOFactory14GetDescriptionEv@Base 5.2.0
 _ZNK3otb17LUMImageIOFactory14GetNameOfClassEv@Base 5.2.0
 _ZNK3otb17LUMImageIOFactory19GetITKSourceVersionEv@Base 5.2.0
 (optional=templinst)_ZNSt12_Destroy_auxILb0EE9__destroyIPSsEEvT_S3_@Base 5.2.0
 (optional=templinst)_ZNSt15basic_stringbufIcSt11char_traitsIcESaIcEED0Ev@Base 5.2.0
 (optional=templinst)_ZNSt15basic_stringbufIcSt11char_traitsIcESaIcEED1Ev@Base 5.2.0
 (optional=templinst)_ZNSt15basic_stringbufIcSt11char_traitsIcESaIcEED2Ev@Base 5.2.0
 (optional=templinst)_ZNSt6vectorINSt7__cxx1112basic_stringIcSt11char_traitsIcESaIcEEESaIS5_EE13_M_insert_auxEN9__gnu_cxx17__normal_iteratorIPS5_S7_EERKS5_@Base 5.2.0
 (optional=templinst)_ZNSt6vectorINSt7__cxx1112basic_stringIcSt11char_traitsIcESaIcEEESaIS5_EED1Ev@Base 5.2.0
 (optional=templinst)_ZNSt6vectorINSt7__cxx1112basic_stringIcSt11char_traitsIcESaIcEEESaIS5_EED2Ev@Base 5.2.0
 (optional=templinst)_ZNSt6vectorISsSaISsEE13_M_insert_auxEN9__gnu_cxx17__normal_iteratorIPSsS1_EERKSs@Base 5.2.0
 (optional=templinst)_ZNSt6vectorISsSaISsEED1Ev@Base 5.2.0
 (optional=templinst)_ZNSt6vectorISsSaISsEED2Ev@Base 5.2.0
 (optional=templinst)_ZNSt7__cxx1115basic_stringbufIcSt11char_traitsIcESaIcEED0Ev@Base 5.2.0
 (optional=templinst)_ZNSt7__cxx1115basic_stringbufIcSt11char_traitsIcESaIcEED1Ev@Base 5.2.0
 (optional=templinst)_ZNSt7__cxx1115basic_stringbufIcSt11char_traitsIcESaIcEED2Ev@Base 5.2.0
 _ZTIN3itk20CreateObjectFunctionIN3otb10LUMImageIOEEE@Base 5.2.0
 _ZTIN3itk24CreateObjectFunctionBaseE@Base 5.2.0
 _ZTIN3otb10LUMImageIOE@Base 5.2.0
 _ZTIN3otb17LUMImageIOFactoryE@Base 5.2.0
 _ZTSN3itk20CreateObjectFunctionIN3otb10LUMImageIOEEE@Base 5.2.0
 _ZTSN3itk24CreateObjectFunctionBaseE@Base 5.2.0
 _ZTSN3otb10LUMImageIOE@Base 5.2.0
 _ZTSN3otb17LUMImageIOFactoryE@Base 5.2.0
 _ZTVN3itk20CreateObjectFunctionIN3otb10LUMImageIOEEE@Base 5.2.0
 _ZTVN3itk24CreateObjectFunctionBaseE@Base 5.2.0
 _ZTVN3otb10LUMImageIOE@Base 5.2.0
 _ZTVN3otb17LUMImageIOFactoryE@Base 5.2.0
