# SymbolsHelper-Confirmed: 5.2.0 amd64
libotbossimplugins-5.2.so.1 libotbossimplugins-5.2-1 #MINVER#
 (optional=templinst)_ZN11ossimRefPtrI15ossimProjectionEaSEPS0_@Base 5.2.0
 _ZN11ossimStringD1Ev@Base 5.2.0
 _ZN11ossimStringD2Ev@Base 5.2.0
 _ZN12ossimplugins10Coordinate15set_coordinatesEddd@Base 5.2.0
 _ZN12ossimplugins10CoordinateC1ERKS0_@Base 5.2.0
 _ZN12ossimplugins10CoordinateC1Eddd@Base 5.2.0
 _ZN12ossimplugins10CoordinateC1Ev@Base 5.2.0
 _ZN12ossimplugins10CoordinateC2ERKS0_@Base 5.2.0
 _ZN12ossimplugins10CoordinateC2Eddd@Base 5.2.0
 _ZN12ossimplugins10CoordinateC2Ev@Base 5.2.0
 _ZN12ossimplugins10CoordinateD1Ev@Base 5.2.0
 _ZN12ossimplugins10CoordinateD2Ev@Base 5.2.0
 _ZN12ossimplugins10CoordinateaSERKS0_@Base 5.2.0
 _ZN12ossimplugins10ImageNoise9loadStateERK16ossimKeywordlistPKc@Base 5.2.0
 _ZN12ossimplugins10ImageNoiseC1ERKS0_@Base 5.2.0
 _ZN12ossimplugins10ImageNoiseC1Ev@Base 5.2.0
 _ZN12ossimplugins10ImageNoiseC2ERKS0_@Base 5.2.0
 _ZN12ossimplugins10ImageNoiseC2Ev@Base 5.2.0
 _ZN12ossimplugins10ImageNoiseD0Ev@Base 5.2.0
 _ZN12ossimplugins10ImageNoiseD1Ev@Base 5.2.0
 _ZN12ossimplugins10ImageNoiseD2Ev@Base 5.2.0
 _ZN12ossimplugins10ImageNoiseaSERKS0_@Base 5.2.0
 _ZN12ossimplugins10JulianDate13AsJSDDateTimeEPNS_11JSDDateTimeE@Base 5.2.0
 _ZN12ossimplugins10JulianDate14AsGMSTDateTimeEPNS_12GMSTDateTimeE@Base 5.2.0
 _ZN12ossimplugins10JulianDateC1ERKS0_@Base 5.2.0
 _ZN12ossimplugins10JulianDateC1ERNS_11JSDDateTimeE@Base 5.2.0
 _ZN12ossimplugins10JulianDateC1ERNS_13CivilDateTimeE@Base 5.2.0
 _ZN12ossimplugins10JulianDateC1Ed@Base 5.2.0
 _ZN12ossimplugins10JulianDateC1Ev@Base 5.2.0
 _ZN12ossimplugins10JulianDateC2ERKS0_@Base 5.2.0
 _ZN12ossimplugins10JulianDateC2ERNS_11JSDDateTimeE@Base 5.2.0
 _ZN12ossimplugins10JulianDateC2ERNS_13CivilDateTimeE@Base 5.2.0
 _ZN12ossimplugins10JulianDateC2Ed@Base 5.2.0
 _ZN12ossimplugins10JulianDateC2Ev@Base 5.2.0
 _ZN12ossimplugins10JulianDateD1Ev@Base 5.2.0
 _ZN12ossimplugins10JulianDateD2Ev@Base 5.2.0
 _ZN12ossimplugins10JulianDateaSERKS0_@Base 5.2.0
 _ZN12ossimplugins10JulianDatecvNS_11JSDDateTimeEEv@Base 5.2.0
 _ZN12ossimplugins10JulianDatecvNS_12GMSTDateTimeEEv@Base 5.2.0
 _ZN12ossimplugins10JulianDateplERKS0_@Base 5.2.0
 _ZN12ossimplugins10SceneCoord9loadStateERK16ossimKeywordlistPKc@Base 5.2.0
 _ZN12ossimplugins10SceneCoordC1ERKS0_@Base 5.2.0
 _ZN12ossimplugins10SceneCoordC1Ev@Base 5.2.0
 _ZN12ossimplugins10SceneCoordC2ERKS0_@Base 5.2.0
 _ZN12ossimplugins10SceneCoordC2Ev@Base 5.2.0
 _ZN12ossimplugins10SceneCoordD0Ev@Base 5.2.0
 _ZN12ossimplugins10SceneCoordD1Ev@Base 5.2.0
 _ZN12ossimplugins10SceneCoordD2Ev@Base 5.2.0
 _ZN12ossimplugins10SceneCoordaSERKS0_@Base 5.2.0
 _ZN12ossimplugins10TextRecord11InstanciateEv@Base 5.2.0
 _ZN12ossimplugins10TextRecord4ReadERSi@Base 5.2.0
 _ZN12ossimplugins10TextRecord5CloneEv@Base 5.2.0
 _ZN12ossimplugins10TextRecord5WriteERSo@Base 5.2.0
 _ZN12ossimplugins10TextRecordC1ERKS0_@Base 5.2.0
 _ZN12ossimplugins10TextRecordC1Ev@Base 5.2.0
 _ZN12ossimplugins10TextRecordC2ERKS0_@Base 5.2.0
 _ZN12ossimplugins10TextRecordC2Ev@Base 5.2.0
 _ZN12ossimplugins10TextRecordD0Ev@Base 5.2.0
 _ZN12ossimplugins10TextRecordD1Ev@Base 5.2.0
 _ZN12ossimplugins10TextRecordD2Ev@Base 5.2.0
 _ZN12ossimplugins10TextRecordaSERKS0_@Base 5.2.0
 _ZN12ossimplugins10_ds_offsetE@Base 5.2.0
 _ZN12ossimplugins11DataFactoryC1Ev@Base 5.2.0
 _ZN12ossimplugins11DataFactoryC2Ev@Base 5.2.0
 _ZN12ossimplugins11DataFactoryD1Ev@Base 5.2.0
 _ZN12ossimplugins11DataFactoryD2Ev@Base 5.2.0
 _ZN12ossimplugins11DataQuality11InstanciateEv@Base 5.2.0
 _ZN12ossimplugins11DataQuality4ReadERSi@Base 5.2.0
 _ZN12ossimplugins11DataQuality5CloneEv@Base 5.2.0
 _ZN12ossimplugins11DataQuality5WriteERSo@Base 5.2.0
 _ZN12ossimplugins11DataQualityC1ERKS0_@Base 5.2.0
 _ZN12ossimplugins11DataQualityC1Ev@Base 5.2.0
 _ZN12ossimplugins11DataQualityC2ERKS0_@Base 5.2.0
 _ZN12ossimplugins11DataQualityC2Ev@Base 5.2.0
 _ZN12ossimplugins11DataQualityD0Ev@Base 5.2.0
 _ZN12ossimplugins11DataQualityD1Ev@Base 5.2.0
 _ZN12ossimplugins11DataQualityD2Ev@Base 5.2.0
 _ZN12ossimplugins11DataQualityaSERKS0_@Base 5.2.0
 _ZN12ossimplugins11JSDDateTime12AsJulianDateEPNS_10JulianDateE@Base 5.2.0
 _ZN12ossimplugins11JSDDateTime14AsGMSTDateTimeEPNS_12GMSTDateTimeE@Base 5.2.0
 _ZN12ossimplugins11JSDDateTime8NormDateEv@Base 5.2.0
 _ZN12ossimplugins11JSDDateTimeC1ENS_10JulianDateEdd@Base 5.2.0
 _ZN12ossimplugins11JSDDateTimeC1ERKS0_@Base 5.2.0
 _ZN12ossimplugins11JSDDateTimeC1ERNS_10JulianDateE@Base 5.2.0
 _ZN12ossimplugins11JSDDateTimeC1ERNS_11MJDDateTimeE@Base 5.2.0
 _ZN12ossimplugins11JSDDateTimeC1ERNS_13CivilDateTimeE@Base 5.2.0
 _ZN12ossimplugins11JSDDateTimeC1Ev@Base 5.2.0
 _ZN12ossimplugins11JSDDateTimeC2ENS_10JulianDateEdd@Base 5.2.0
 _ZN12ossimplugins11JSDDateTimeC2ERKS0_@Base 5.2.0
 _ZN12ossimplugins11JSDDateTimeC2ERNS_10JulianDateE@Base 5.2.0
 _ZN12ossimplugins11JSDDateTimeC2ERNS_11MJDDateTimeE@Base 5.2.0
 _ZN12ossimplugins11JSDDateTimeC2ERNS_13CivilDateTimeE@Base 5.2.0
 _ZN12ossimplugins11JSDDateTimeC2Ev@Base 5.2.0
 _ZN12ossimplugins11JSDDateTimeD1Ev@Base 5.2.0
 _ZN12ossimplugins11JSDDateTimeD2Ev@Base 5.2.0
 _ZN12ossimplugins11JSDDateTimeaSERKS0_@Base 5.2.0
 _ZN12ossimplugins11JSDDateTimecvNS_10JulianDateEEv@Base 5.2.0
 _ZN12ossimplugins11JSDDateTimecvNS_12GMSTDateTimeEEv@Base 5.2.0
 _ZN12ossimplugins11MJDDateTimeC1ERKS0_@Base 5.2.0
 _ZN12ossimplugins11MJDDateTimeC1Elmm@Base 5.2.0
 _ZN12ossimplugins11MJDDateTimeC1Ev@Base 5.2.0
 _ZN12ossimplugins11MJDDateTimeC2ERKS0_@Base 5.2.0
 _ZN12ossimplugins11MJDDateTimeC2Elmm@Base 5.2.0
 _ZN12ossimplugins11MJDDateTimeC2Ev@Base 5.2.0
 _ZN12ossimplugins11MJDDateTimeD1Ev@Base 5.2.0
 _ZN12ossimplugins11MJDDateTimeD2Ev@Base 5.2.0
 _ZN12ossimplugins11MJDDateTimeaSERKS0_@Base 5.2.0
 _ZN12ossimplugins12AttitudeData11InstanciateEv@Base 5.2.0
 _ZN12ossimplugins12AttitudeData4ReadERSi@Base 5.2.0
 _ZN12ossimplugins12AttitudeData5CloneEv@Base 5.2.0
 _ZN12ossimplugins12AttitudeData5WriteERSo@Base 5.2.0
 _ZN12ossimplugins12AttitudeDataC1ERKS0_@Base 5.2.0
 _ZN12ossimplugins12AttitudeDataC1Ev@Base 5.2.0
 _ZN12ossimplugins12AttitudeDataC2ERKS0_@Base 5.2.0
 _ZN12ossimplugins12AttitudeDataC2Ev@Base 5.2.0
 _ZN12ossimplugins12AttitudeDataD0Ev@Base 5.2.0
 _ZN12ossimplugins12AttitudeDataD1Ev@Base 5.2.0
 _ZN12ossimplugins12AttitudeDataD2Ev@Base 5.2.0
 _ZN12ossimplugins12AttitudeDataaSERKS0_@Base 5.2.0
 _ZN12ossimplugins12ErsSarLeader12ClearRecordsEv@Base 5.2.0
 _ZN12ossimplugins12ErsSarLeader20ErsSarFacilityDataIDE@Base 5.2.0
 _ZN12ossimplugins12ErsSarLeader22ErsSarDataSetSummaryIDE@Base 5.2.0
 _ZN12ossimplugins12ErsSarLeader22ErsSarFileDescriptorIDE@Base 5.2.0
 _ZN12ossimplugins12ErsSarLeader25ErsSarMapProjectionDataIDE@Base 5.2.0
 _ZN12ossimplugins12ErsSarLeader28ErsSarPlatformPositionDataIDE@Base 5.2.0
 _ZN12ossimplugins12ErsSarLeaderC1ERKS0_@Base 5.2.0
 _ZN12ossimplugins12ErsSarLeaderC1Ev@Base 5.2.0
 _ZN12ossimplugins12ErsSarLeaderC2ERKS0_@Base 5.2.0
 _ZN12ossimplugins12ErsSarLeaderC2Ev@Base 5.2.0
 _ZN12ossimplugins12ErsSarLeaderD0Ev@Base 5.2.0
 _ZN12ossimplugins12ErsSarLeaderD1Ev@Base 5.2.0
 _ZN12ossimplugins12ErsSarLeaderD2Ev@Base 5.2.0
 _ZN12ossimplugins12ErsSarLeaderaSERKS0_@Base 5.2.0
 _ZN12ossimplugins12ErsSarRecordC1ERKS0_@Base 5.2.0
 _ZN12ossimplugins12ErsSarRecordC1ESs@Base 5.2.0
 _ZN12ossimplugins12ErsSarRecordC2ERKS0_@Base 5.2.0
 _ZN12ossimplugins12ErsSarRecordC2ESs@Base 5.2.0
 _ZN12ossimplugins12ErsSarRecordD0Ev@Base 5.2.0
 _ZN12ossimplugins12ErsSarRecordD1Ev@Base 5.2.0
 _ZN12ossimplugins12ErsSarRecordD2Ev@Base 5.2.0
 _ZN12ossimplugins12GMSTDateTimeC1ERKS0_@Base 5.2.0
 _ZN12ossimplugins12GMSTDateTimeC1ERNS_13CivilDateTimeE@Base 5.2.0
 _ZN12ossimplugins12GMSTDateTimeC1EdNS0_13Ori_TSM_GreenE@Base 5.2.0
 _ZN12ossimplugins12GMSTDateTimeC1Ev@Base 5.2.0
 _ZN12ossimplugins12GMSTDateTimeC2ERKS0_@Base 5.2.0
 _ZN12ossimplugins12GMSTDateTimeC2ERNS_13CivilDateTimeE@Base 5.2.0
 _ZN12ossimplugins12GMSTDateTimeC2EdNS0_13Ori_TSM_GreenE@Base 5.2.0
 _ZN12ossimplugins12GMSTDateTimeC2Ev@Base 5.2.0
 _ZN12ossimplugins12GMSTDateTimeD1Ev@Base 5.2.0
 _ZN12ossimplugins12GMSTDateTimeD2Ev@Base 5.2.0
 _ZN12ossimplugins12GMSTDateTimeaSERKS0_@Base 5.2.0
 _ZN12ossimplugins12SensorParams5CloneEv@Base 5.2.0
 _ZN12ossimplugins12SensorParams9loadStateERK16ossimKeywordlistPKc@Base 5.2.0
 _ZN12ossimplugins12SensorParamsC1ERKS0_@Base 5.2.0
 _ZN12ossimplugins12SensorParamsC1Ev@Base 5.2.0
 _ZN12ossimplugins12SensorParamsC2ERKS0_@Base 5.2.0
 _ZN12ossimplugins12SensorParamsC2Ev@Base 5.2.0
 _ZN12ossimplugins12SensorParamsD0Ev@Base 5.2.0
 _ZN12ossimplugins12SensorParamsD1Ev@Base 5.2.0
 _ZN12ossimplugins12SensorParamsD2Ev@Base 5.2.0
 _ZN12ossimplugins12SensorParamsaSERKS0_@Base 5.2.0
 _ZN12ossimplugins12SwitchEndianERi@Base 5.2.0
 _ZN12ossimplugins13CivilDateTime12AsJulianDateEPNS_10JulianDateE@Base 5.2.0
 _ZN12ossimplugins13CivilDateTime13AsJSDDateTimeEPNS_11JSDDateTimeE@Base 5.2.0
 _ZN12ossimplugins13CivilDateTime14AsGMSTDateTimeEPNS_12GMSTDateTimeE@Base 5.2.0
 _ZN12ossimplugins13CivilDateTime14SetUtcDateTimeEPKc@Base 5.2.0
 _ZN12ossimplugins13CivilDateTime14SetUtcDateTimeEPc@Base 5.2.0
 _ZN12ossimplugins13CivilDateTime16JOURCIVIL_LENGTHE@Base 5.2.0
 _ZN12ossimplugins13CivilDateTimeC1EPKc@Base 5.2.0
 _ZN12ossimplugins13CivilDateTimeC1EPc@Base 5.2.0
 _ZN12ossimplugins13CivilDateTimeC1ERKS0_@Base 5.2.0
 _ZN12ossimplugins13CivilDateTimeC1Eiiiid@Base 5.2.0
 _ZN12ossimplugins13CivilDateTimeC1Ev@Base 5.2.0
 _ZN12ossimplugins13CivilDateTimeC2EPKc@Base 5.2.0
 _ZN12ossimplugins13CivilDateTimeC2EPc@Base 5.2.0
 _ZN12ossimplugins13CivilDateTimeC2ERKS0_@Base 5.2.0
 _ZN12ossimplugins13CivilDateTimeC2Eiiiid@Base 5.2.0
 _ZN12ossimplugins13CivilDateTimeC2Ev@Base 5.2.0
 _ZN12ossimplugins13CivilDateTimeD1Ev@Base 5.2.0
 _ZN12ossimplugins13CivilDateTimeD2Ev@Base 5.2.0
 _ZN12ossimplugins13CivilDateTimeaSERKS0_@Base 5.2.0
 _ZN12ossimplugins13CivilDateTimecvNS_10JulianDateEEv@Base 5.2.0
 _ZN12ossimplugins13CivilDateTimecvNS_11JSDDateTimeEEv@Base 5.2.0
 _ZN12ossimplugins13CivilDateTimecvNS_12GMSTDateTimeEEv@Base 5.2.0
 _ZN12ossimplugins13LeaderFactoryC1Ev@Base 5.2.0
 _ZN12ossimplugins13LeaderFactoryC2Ev@Base 5.2.0
 _ZN12ossimplugins13LeaderFactoryD1Ev@Base 5.2.0
 _ZN12ossimplugins13LeaderFactoryD2Ev@Base 5.2.0
 _ZN12ossimplugins14AlosPalsarData12ClearRecordsEv@Base 5.2.0
 _ZN12ossimplugins14AlosPalsarData22AlosPalsarSignalDataIDE@Base 5.2.0
 _ZN12ossimplugins14AlosPalsarData30AlosPalsarDataFileDescriptorIDE@Base 5.2.0
 _ZN12ossimplugins14AlosPalsarDataC1ERKS0_@Base 5.2.0
 _ZN12ossimplugins14AlosPalsarDataC1Ev@Base 5.2.0
 _ZN12ossimplugins14AlosPalsarDataC2ERKS0_@Base 5.2.0
 _ZN12ossimplugins14AlosPalsarDataC2Ev@Base 5.2.0
 _ZN12ossimplugins14AlosPalsarDataD0Ev@Base 5.2.0
 _ZN12ossimplugins14AlosPalsarDataD1Ev@Base 5.2.0
 _ZN12ossimplugins14AlosPalsarDataD2Ev@Base 5.2.0
 _ZN12ossimplugins14AlosPalsarDataaSERKS0_@Base 5.2.0
 _ZN12ossimplugins14DataSetSummary11InstanciateEv@Base 5.2.0
 _ZN12ossimplugins14DataSetSummary4ReadERSi@Base 5.2.0
 _ZN12ossimplugins14DataSetSummary5CloneEv@Base 5.2.0
 _ZN12ossimplugins14DataSetSummary5WriteERSo@Base 5.2.0
 _ZN12ossimplugins14DataSetSummaryC1ERKS0_@Base 5.2.0
 _ZN12ossimplugins14DataSetSummaryC1Ev@Base 5.2.0
 _ZN12ossimplugins14DataSetSummaryC2ERKS0_@Base 5.2.0
 _ZN12ossimplugins14DataSetSummaryC2Ev@Base 5.2.0
 _ZN12ossimplugins14DataSetSummaryD0Ev@Base 5.2.0
 _ZN12ossimplugins14DataSetSummaryD1Ev@Base 5.2.0
 _ZN12ossimplugins14DataSetSummaryD2Ev@Base 5.2.0
 _ZN12ossimplugins14DataSetSummaryaSERKS0_@Base 5.2.0
 _ZN12ossimplugins14FileDescriptor11InstanciateEv@Base 5.2.0
 _ZN12ossimplugins14FileDescriptor4ReadERSi@Base 5.2.0
 _ZN12ossimplugins14FileDescriptor5CloneEv@Base 5.2.0
 _ZN12ossimplugins14FileDescriptor5WriteERSo@Base 5.2.0
 _ZN12ossimplugins14FileDescriptorC1ERKS0_@Base 5.2.0
 _ZN12ossimplugins14FileDescriptorC1Ev@Base 5.2.0
 _ZN12ossimplugins14FileDescriptorC2ERKS0_@Base 5.2.0
 _ZN12ossimplugins14FileDescriptorC2Ev@Base 5.2.0
 _ZN12ossimplugins14FileDescriptorD0Ev@Base 5.2.0
 _ZN12ossimplugins14FileDescriptorD1Ev@Base 5.2.0
 _ZN12ossimplugins14FileDescriptorD2Ev@Base 5.2.0
 _ZN12ossimplugins14FileDescriptoraSERKS0_@Base 5.2.0
 _ZN12ossimplugins14InfoSceneCoord9loadStateERK16ossimKeywordlistPKc@Base 5.2.0
 _ZN12ossimplugins14InfoSceneCoordC1ERKS0_@Base 5.2.0
 _ZN12ossimplugins14InfoSceneCoordC1Ev@Base 5.2.0
 _ZN12ossimplugins14InfoSceneCoordC2ERKS0_@Base 5.2.0
 _ZN12ossimplugins14InfoSceneCoordC2Ev@Base 5.2.0
 _ZN12ossimplugins14InfoSceneCoordD0Ev@Base 5.2.0
 _ZN12ossimplugins14InfoSceneCoordD1Ev@Base 5.2.0
 _ZN12ossimplugins14InfoSceneCoordD2Ev@Base 5.2.0
 _ZN12ossimplugins14InfoSceneCoordaSERKS0_@Base 5.2.0
 _ZN12ossimplugins14RadarSatRecordC1ERKS0_@Base 5.2.0
 _ZN12ossimplugins14RadarSatRecordC1ESs@Base 5.2.0
 _ZN12ossimplugins14RadarSatRecordC2ERKS0_@Base 5.2.0
 _ZN12ossimplugins14RadarSatRecordC2ESs@Base 5.2.0
 _ZN12ossimplugins14RadarSatRecordD0Ev@Base 5.2.0
 _ZN12ossimplugins14RadarSatRecordD1Ev@Base 5.2.0
 _ZN12ossimplugins14RadarSatRecordD2Ev@Base 5.2.0
 _ZN12ossimplugins14TrailerFactoryC1Ev@Base 5.2.0
 _ZN12ossimplugins14TrailerFactoryC2Ev@Base 5.2.0
 _ZN12ossimplugins14TrailerFactoryD1Ev@Base 5.2.0
 _ZN12ossimplugins14TrailerFactoryD2Ev@Base 5.2.0
 _ZN12ossimplugins15ChirpParameters11InstanciateEv@Base 5.2.0
 _ZN12ossimplugins15ChirpParameters4ReadERSi@Base 5.2.0
 _ZN12ossimplugins15ChirpParameters5CloneEv@Base 5.2.0
 _ZN12ossimplugins15ChirpParameters5WriteERSo@Base 5.2.0
 _ZN12ossimplugins15ChirpParametersC1ERKS0_@Base 5.2.0
 _ZN12ossimplugins15ChirpParametersC1Ev@Base 5.2.0
 _ZN12ossimplugins15ChirpParametersC2ERKS0_@Base 5.2.0
 _ZN12ossimplugins15ChirpParametersC2Ev@Base 5.2.0
 _ZN12ossimplugins15ChirpParametersD0Ev@Base 5.2.0
 _ZN12ossimplugins15ChirpParametersD1Ev@Base 5.2.0
 _ZN12ossimplugins15ChirpParametersD2Ev@Base 5.2.0
 _ZN12ossimplugins15ChirpParametersaSERKS0_@Base 5.2.0
 _ZN12ossimplugins15EnvisatAsarData10get_num_dsEPNS_17EnvisatAsarRecordE@Base 5.2.0
 _ZN12ossimplugins15EnvisatAsarData11get_SQ_ADSREv@Base 5.2.0
 _ZN12ossimplugins15EnvisatAsarData12ClearRecordsEv@Base 5.2.0
 _ZN12ossimplugins15EnvisatAsarData19get_ChirpParametersEv@Base 5.2.0
 _ZN12ossimplugins15EnvisatAsarData19get_GeolocationGridEi@Base 5.2.0
 _ZN12ossimplugins15EnvisatAsarData28get_AntennaElevationPatternsEv@Base 5.2.0
 _ZN12ossimplugins15EnvisatAsarData28get_MainProcessingParametersEv@Base 5.2.0
 _ZN12ossimplugins15EnvisatAsarData28get_SRGRConversionParametersEi@Base 5.2.0
 _ZN12ossimplugins15EnvisatAsarData29get_DopplerCentroidParametersEv@Base 5.2.0
 _ZN12ossimplugins15EnvisatAsarData7get_mphEv@Base 5.2.0
 _ZN12ossimplugins15EnvisatAsarData7get_sphEv@Base 5.2.0
 _ZN12ossimplugins15EnvisatAsarDataC1ERKS0_@Base 5.2.0
 _ZN12ossimplugins15EnvisatAsarDataC1Ev@Base 5.2.0
 _ZN12ossimplugins15EnvisatAsarDataC2ERKS0_@Base 5.2.0
 _ZN12ossimplugins15EnvisatAsarDataC2Ev@Base 5.2.0
 _ZN12ossimplugins15EnvisatAsarDataD1Ev@Base 5.2.0
 _ZN12ossimplugins15EnvisatAsarDataD2Ev@Base 5.2.0
 _ZN12ossimplugins15EnvisatAsarDataaSERKS0_@Base 5.2.0
 _ZN12ossimplugins15GeolocationGrid11InstanciateEv@Base 5.2.0
 _ZN12ossimplugins15GeolocationGrid4ReadERSi@Base 5.2.0
 _ZN12ossimplugins15GeolocationGrid5CloneEv@Base 5.2.0
 _ZN12ossimplugins15GeolocationGrid5WriteERSo@Base 5.2.0
 _ZN12ossimplugins15GeolocationGridC1ERKS0_@Base 5.2.0
 _ZN12ossimplugins15GeolocationGridC1Ev@Base 5.2.0
 _ZN12ossimplugins15GeolocationGridC2ERKS0_@Base 5.2.0
 _ZN12ossimplugins15GeolocationGridC2Ev@Base 5.2.0
 _ZN12ossimplugins15GeolocationGridD0Ev@Base 5.2.0
 _ZN12ossimplugins15GeolocationGridD1Ev@Base 5.2.0
 _ZN12ossimplugins15GeolocationGridD2Ev@Base 5.2.0
 _ZN12ossimplugins15GeolocationGridaSERKS0_@Base 5.2.0
 _ZN12ossimplugins15IncidenceAngles9loadStateERK16ossimKeywordlistPKc@Base 5.2.0
 _ZN12ossimplugins15IncidenceAnglesC1ERKS0_@Base 5.2.0
 _ZN12ossimplugins15IncidenceAnglesC1Ev@Base 5.2.0
 _ZN12ossimplugins15IncidenceAnglesC2ERKS0_@Base 5.2.0
 _ZN12ossimplugins15IncidenceAnglesC2Ev@Base 5.2.0
 _ZN12ossimplugins15IncidenceAnglesD0Ev@Base 5.2.0
 _ZN12ossimplugins15IncidenceAnglesD1Ev@Base 5.2.0
 _ZN12ossimplugins15IncidenceAnglesD2Ev@Base 5.2.0
 _ZN12ossimplugins15IncidenceAnglesaSERKS0_@Base 5.2.0
 _ZN12ossimplugins15RadiometricData11InstanciateEv@Base 5.2.0
 _ZN12ossimplugins15RadiometricData4ReadERSi@Base 5.2.0
 _ZN12ossimplugins15RadiometricData5CloneEv@Base 5.2.0
 _ZN12ossimplugins15RadiometricData5WriteERSo@Base 5.2.0
 _ZN12ossimplugins15RadiometricDataC1ERKS0_@Base 5.2.0
 _ZN12ossimplugins15RadiometricDataC1Ev@Base 5.2.0
 _ZN12ossimplugins15RadiometricDataC2ERKS0_@Base 5.2.0
 _ZN12ossimplugins15RadiometricDataC2Ev@Base 5.2.0
 _ZN12ossimplugins15RadiometricDataD0Ev@Base 5.2.0
 _ZN12ossimplugins15RadiometricDataD1Ev@Base 5.2.0
 _ZN12ossimplugins15RadiometricDataD2Ev@Base 5.2.0
 _ZN12ossimplugins15RadiometricDataaSERKS0_@Base 5.2.0
 _ZN12ossimplugins15ossimSpot6Model10RTTI_scastEiPv@Base 5.2.0
 _ZN12ossimplugins15ossimSpot6Model18finishConstructionEv@Base 5.2.0
 _ZN12ossimplugins15ossimSpot6Model4openERK13ossimFilename@Base 5.2.0
 _ZN12ossimplugins15ossimSpot6Model8RTTI_objE@Base 5.2.0
 _ZN12ossimplugins15ossimSpot6Model9RTTI_castE10RTTItypeid@Base 5.2.0
 _ZN12ossimplugins15ossimSpot6Model9loadStateERK16ossimKeywordlistPKc@Base 5.2.0
 _ZN12ossimplugins15ossimSpot6ModelC1ERKS0_@Base 5.2.0
 _ZN12ossimplugins15ossimSpot6ModelC1Ev@Base 5.2.0
 _ZN12ossimplugins15ossimSpot6ModelC2ERKS0_@Base 5.2.0
 _ZN12ossimplugins15ossimSpot6ModelC2Ev@Base 5.2.0
 _ZN12ossimplugins15ossimSpot6ModelD0Ev@Base 5.2.0
 _ZN12ossimplugins15ossimSpot6ModelD1Ev@Base 5.2.0
 _ZN12ossimplugins15ossimSpot6ModelD2Ev@Base 5.2.0
 _ZN12ossimplugins16AlosPalsarLeader12ClearRecordsEv@Base 5.2.0
 _ZN12ossimplugins16AlosPalsarLeader24AlosPalsarFacilityDataIDE@Base 5.2.0
 _ZN12ossimplugins16AlosPalsarLeader26AlosPalsarDataSetSummaryIDE@Base 5.2.0
 _ZN12ossimplugins16AlosPalsarLeader26AlosPalsarFileDescriptorIDE@Base 5.2.0
 _ZN12ossimplugins16AlosPalsarLeader27AlosPalsarRadiometricDataIDE@Base 5.2.0
 _ZN12ossimplugins16AlosPalsarLeader32AlosPalsarPlatformPositionDataIDE@Base 5.2.0
 _ZN12ossimplugins16AlosPalsarLeaderC1ERKS0_@Base 5.2.0
 _ZN12ossimplugins16AlosPalsarLeaderC1Ev@Base 5.2.0
 _ZN12ossimplugins16AlosPalsarLeaderC2ERKS0_@Base 5.2.0
 _ZN12ossimplugins16AlosPalsarLeaderC2Ev@Base 5.2.0
 _ZN12ossimplugins16AlosPalsarLeaderD0Ev@Base 5.2.0
 _ZN12ossimplugins16AlosPalsarLeaderD1Ev@Base 5.2.0
 _ZN12ossimplugins16AlosPalsarLeaderD2Ev@Base 5.2.0
 _ZN12ossimplugins16AlosPalsarLeaderaSERKS0_@Base 5.2.0
 _ZN12ossimplugins16AlosPalsarRecordC1ERKS0_@Base 5.2.0
 _ZN12ossimplugins16AlosPalsarRecordC1ESs@Base 5.2.0
 _ZN12ossimplugins16AlosPalsarRecordC2ERKS0_@Base 5.2.0
 _ZN12ossimplugins16AlosPalsarRecordC2ESs@Base 5.2.0
 _ZN12ossimplugins16AlosPalsarRecordD0Ev@Base 5.2.0
 _ZN12ossimplugins16AlosPalsarRecordD1Ev@Base 5.2.0
 _ZN12ossimplugins16AlosPalsarRecordD2Ev@Base 5.2.0
 _ZN12ossimplugins16PlatformPosition17InitAuxiliaryDataEv@Base 5.2.0
 _ZN12ossimplugins16PlatformPosition25getPlatformPositionAtTimeENS_11JSDDateTimeERSt6vectorIdSaIdEES5_@Base 5.2.0
 _ZN12ossimplugins16PlatformPosition5ClearEv@Base 5.2.0
 _ZN12ossimplugins16PlatformPosition7setDataEPPNS_9EphemerisEi@Base 5.2.0
 _ZN12ossimplugins16PlatformPosition8InitDataEPPNS_9EphemerisEi@Base 5.2.0
 _ZN12ossimplugins16PlatformPosition9loadStateERK16ossimKeywordlistPKc@Base 5.2.0
 _ZN12ossimplugins16PlatformPositionC1EPPNS_9EphemerisEi@Base 5.2.0
 _ZN12ossimplugins16PlatformPositionC1ERKS0_@Base 5.2.0
 _ZN12ossimplugins16PlatformPositionC1Ev@Base 5.2.0
 _ZN12ossimplugins16PlatformPositionC2EPPNS_9EphemerisEi@Base 5.2.0
 _ZN12ossimplugins16PlatformPositionC2ERKS0_@Base 5.2.0
 _ZN12ossimplugins16PlatformPositionC2Ev@Base 5.2.0
 _ZN12ossimplugins16PlatformPositionD1Ev@Base 5.2.0
 _ZN12ossimplugins16PlatformPositionD2Ev@Base 5.2.0
 _ZN12ossimplugins16PlatformPositionaSERKS0_@Base 5.2.0
 _ZN12ossimplugins16VolumeDirFactoryC1Ev@Base 5.2.0
 _ZN12ossimplugins16VolumeDirFactoryC2Ev@Base 5.2.0
 _ZN12ossimplugins16VolumeDirFactoryD1Ev@Base 5.2.0
 _ZN12ossimplugins16VolumeDirFactoryD2Ev@Base 5.2.0
 _ZN12ossimplugins16ossimErsSarModel10RTTI_scastEiPv@Base 5.2.0
 _ZN12ossimplugins16ossimErsSarModel12InitRefPointERK16ossimKeywordlistPKc@Base 5.2.0
 _ZN12ossimplugins16ossimErsSarModel16InitSensorParamsERK16ossimKeywordlistPKc@Base 5.2.0
 _ZN12ossimplugins16ossimErsSarModel20InitPlatformPositionERK16ossimKeywordlistPKc@Base 5.2.0
 _ZN12ossimplugins16ossimErsSarModel4openERK13ossimFilename@Base 5.2.0
 _ZN12ossimplugins16ossimErsSarModel8InitSRGRERK16ossimKeywordlistPKc@Base 5.2.0
 _ZN12ossimplugins16ossimErsSarModel8RTTI_objE@Base 5.2.0
 _ZN12ossimplugins16ossimErsSarModel9RTTI_castE10RTTItypeid@Base 5.2.0
 _ZN12ossimplugins16ossimErsSarModel9loadStateERK16ossimKeywordlistPKc@Base 5.2.0
 _ZN12ossimplugins16ossimErsSarModelC1Ev@Base 5.2.0
 _ZN12ossimplugins16ossimErsSarModelC2Ev@Base 5.2.0
 _ZN12ossimplugins16ossimErsSarModelD0Ev@Base 5.2.0
 _ZN12ossimplugins16ossimErsSarModelD1Ev@Base 5.2.0
 _ZN12ossimplugins16ossimErsSarModelD2Ev@Base 5.2.0
 _ZN12ossimplugins17EnvisatAsarRecordC1ERKS0_@Base 5.2.0
 _ZN12ossimplugins17EnvisatAsarRecordC1ESs@Base 5.2.0
 _ZN12ossimplugins17EnvisatAsarRecordC2ERKS0_@Base 5.2.0
 _ZN12ossimplugins17EnvisatAsarRecordC2ESs@Base 5.2.0
 _ZN12ossimplugins17EnvisatAsarRecordD0Ev@Base 5.2.0
 _ZN12ossimplugins17EnvisatAsarRecordD1Ev@Base 5.2.0
 _ZN12ossimplugins17EnvisatAsarRecordD2Ev@Base 5.2.0
 _ZN12ossimplugins17FilePointerRecord11InstanciateEv@Base 5.2.0
 _ZN12ossimplugins17FilePointerRecord4ReadERSi@Base 5.2.0
 _ZN12ossimplugins17FilePointerRecord5CloneEv@Base 5.2.0
 _ZN12ossimplugins17FilePointerRecord5WriteERSo@Base 5.2.0
 _ZN12ossimplugins17FilePointerRecordC1ERKS0_@Base 5.2.0
 _ZN12ossimplugins17FilePointerRecordC1Ev@Base 5.2.0
 _ZN12ossimplugins17FilePointerRecordC2ERKS0_@Base 5.2.0
 _ZN12ossimplugins17FilePointerRecordC2Ev@Base 5.2.0
 _ZN12ossimplugins17FilePointerRecordD0Ev@Base 5.2.0
 _ZN12ossimplugins17FilePointerRecordD1Ev@Base 5.2.0
 _ZN12ossimplugins17FilePointerRecordD2Ev@Base 5.2.0
 _ZN12ossimplugins17FilePointerRecordaSERKS0_@Base 5.2.0
 _ZN12ossimplugins17GalileanEphemeris12ToGeographicEPNS_19GeographicEphemerisE@Base 5.2.0
 _ZN12ossimplugins17GalileanEphemeris12ToGeographicEdPNS_19GeographicEphemerisE@Base 5.2.0
 _ZN12ossimplugins17GalileanEphemeris5CloneEv@Base 5.2.0
 _ZN12ossimplugins17GalileanEphemeris6p2nuttEiddPdS1_@Base 5.2.0
 _ZN12ossimplugins17GalileanEphemerisC1ENS_11JSDDateTimeEPdS2_@Base 5.2.0
 _ZN12ossimplugins17GalileanEphemerisC1ERKS0_@Base 5.2.0
 _ZN12ossimplugins17GalileanEphemerisC1ERNS_19GeographicEphemerisE@Base 5.2.0
 _ZN12ossimplugins17GalileanEphemerisC1Ev@Base 5.2.0
 _ZN12ossimplugins17GalileanEphemerisC2ENS_11JSDDateTimeEPdS2_@Base 5.2.0
 _ZN12ossimplugins17GalileanEphemerisC2ERKS0_@Base 5.2.0
 _ZN12ossimplugins17GalileanEphemerisC2ERNS_19GeographicEphemerisE@Base 5.2.0
 _ZN12ossimplugins17GalileanEphemerisC2Ev@Base 5.2.0
 _ZN12ossimplugins17GalileanEphemerisD0Ev@Base 5.2.0
 _ZN12ossimplugins17GalileanEphemerisD1Ev@Base 5.2.0
 _ZN12ossimplugins17GalileanEphemerisD2Ev@Base 5.2.0
 _ZN12ossimplugins17GalileanEphemerisaSERKS0_@Base 5.2.0
 _ZN12ossimplugins17GalileanEphemeriscvNS_19GeographicEphemerisEEv@Base 5.2.0
 _ZN12ossimplugins17ossimTileMapModel10RTTI_scastEiPv@Base 5.2.0
 _ZN12ossimplugins17ossimTileMapModel17writeGeomTemplateERSo@Base 5.2.0
 _ZN12ossimplugins17ossimTileMapModel4openERK13ossimFilename@Base 5.2.0
 _ZN12ossimplugins17ossimTileMapModel8RTTI_objE@Base 5.2.0
 _ZN12ossimplugins17ossimTileMapModel9RTTI_castE10RTTItypeid@Base 5.2.0
 _ZN12ossimplugins17ossimTileMapModel9loadStateERK16ossimKeywordlistPKc@Base 5.2.0
 _ZN12ossimplugins17ossimTileMapModelC1ERK16ossimKeywordlist@Base 5.2.0
 _ZN12ossimplugins17ossimTileMapModelC1ERKS0_@Base 5.2.0
 _ZN12ossimplugins17ossimTileMapModelC1Ev@Base 5.2.0
 _ZN12ossimplugins17ossimTileMapModelC2ERK16ossimKeywordlist@Base 5.2.0
 _ZN12ossimplugins17ossimTileMapModelC2ERKS0_@Base 5.2.0
 _ZN12ossimplugins17ossimTileMapModelC2Ev@Base 5.2.0
 _ZN12ossimplugins17ossimTileMapModelD0Ev@Base 5.2.0
 _ZN12ossimplugins17ossimTileMapModelD1Ev@Base 5.2.0
 _ZN12ossimplugins17ossimTileMapModelD2Ev@Base 5.2.0
 _ZN12ossimplugins18ErsSarFacilityData11InstanciateEv@Base 5.2.0
 _ZN12ossimplugins18ErsSarFacilityData4ReadERSi@Base 5.2.0
 _ZN12ossimplugins18ErsSarFacilityData5CloneEv@Base 5.2.0
 _ZN12ossimplugins18ErsSarFacilityData5WriteERSo@Base 5.2.0
 _ZN12ossimplugins18ErsSarFacilityDataC1ERKS0_@Base 5.2.0
 _ZN12ossimplugins18ErsSarFacilityDataC1Ev@Base 5.2.0
 _ZN12ossimplugins18ErsSarFacilityDataC2ERKS0_@Base 5.2.0
 _ZN12ossimplugins18ErsSarFacilityDataC2Ev@Base 5.2.0
 _ZN12ossimplugins18ErsSarFacilityDataD0Ev@Base 5.2.0
 _ZN12ossimplugins18ErsSarFacilityDataD1Ev@Base 5.2.0
 _ZN12ossimplugins18ErsSarFacilityDataD2Ev@Base 5.2.0
 _ZN12ossimplugins18ErsSarFacilityDataaSERKS0_@Base 5.2.0
 _ZN12ossimplugins18ErsSarRecordHeader12SwitchEndianERj@Base 5.2.0
 _ZN12ossimplugins18ErsSarRecordHeaderC1ERKS0_@Base 5.2.0
 _ZN12ossimplugins18ErsSarRecordHeaderC1Ev@Base 5.2.0
 _ZN12ossimplugins18ErsSarRecordHeaderC2ERKS0_@Base 5.2.0
 _ZN12ossimplugins18ErsSarRecordHeaderC2Ev@Base 5.2.0
 _ZN12ossimplugins18ErsSarRecordHeaderD0Ev@Base 5.2.0
 _ZN12ossimplugins18ErsSarRecordHeaderD1Ev@Base 5.2.0
 _ZN12ossimplugins18ErsSarRecordHeaderD2Ev@Base 5.2.0
 _ZN12ossimplugins18ErsSarRecordHeaderaSERKS0_@Base 5.2.0
 _ZN12ossimplugins18GeodesicCoordinateC1ERKS0_@Base 5.2.0
 _ZN12ossimplugins18GeodesicCoordinateC1Eddd@Base 5.2.0
 _ZN12ossimplugins18GeodesicCoordinateC1Ev@Base 5.2.0
 _ZN12ossimplugins18GeodesicCoordinateC2ERKS0_@Base 5.2.0
 _ZN12ossimplugins18GeodesicCoordinateC2Eddd@Base 5.2.0
 _ZN12ossimplugins18GeodesicCoordinateC2Ev@Base 5.2.0
 _ZN12ossimplugins18GeodesicCoordinateD1Ev@Base 5.2.0
 _ZN12ossimplugins18GeodesicCoordinateD2Ev@Base 5.2.0
 _ZN12ossimplugins18GeodesicCoordinateaSERKS0_@Base 5.2.0
 _ZN12ossimplugins18InfoIncidenceAngle9loadStateERK16ossimKeywordlistPKc@Base 5.2.0
 _ZN12ossimplugins18InfoIncidenceAngleC1ERKS0_@Base 5.2.0
 _ZN12ossimplugins18InfoIncidenceAngleC1Ev@Base 5.2.0
 _ZN12ossimplugins18InfoIncidenceAngleC2ERKS0_@Base 5.2.0
 _ZN12ossimplugins18InfoIncidenceAngleC2Ev@Base 5.2.0
 _ZN12ossimplugins18InfoIncidenceAngleD0Ev@Base 5.2.0
 _ZN12ossimplugins18InfoIncidenceAngleD1Ev@Base 5.2.0
 _ZN12ossimplugins18InfoIncidenceAngleD2Ev@Base 5.2.0
 _ZN12ossimplugins18InfoIncidenceAngleaSERKS0_@Base 5.2.0
 _ZN12ossimplugins18ossimFormosatModel10RTTI_scastEiPv@Base 5.2.0
 _ZN12ossimplugins18ossimFormosatModel11updateModelEv@Base 5.2.0
 _ZN12ossimplugins18ossimFormosatModel14setupOptimizerERK11ossimString@Base 5.2.0
 _ZN12ossimplugins18ossimFormosatModel15loadSupportDataEv@Base 5.2.0
 _ZN12ossimplugins18ossimFormosatModel16initFromMetadataEP29ossimFormosatDimapSupportData@Base 5.2.0
 _ZN12ossimplugins18ossimFormosatModel24initAdjustableParametersEv@Base 5.2.0
 _ZN12ossimplugins18ossimFormosatModel8RTTI_objE@Base 5.2.0
 _ZN12ossimplugins18ossimFormosatModel9RTTI_castE10RTTItypeid@Base 5.2.0
 _ZN12ossimplugins18ossimFormosatModel9loadStateERK16ossimKeywordlistPKc@Base 5.2.0
 _ZN12ossimplugins18ossimFormosatModelC1EP29ossimFormosatDimapSupportData@Base 5.2.0
 _ZN12ossimplugins18ossimFormosatModelC1ERKS0_@Base 5.2.0
 _ZN12ossimplugins18ossimFormosatModelC1Ev@Base 5.2.0
 _ZN12ossimplugins18ossimFormosatModelC2EP29ossimFormosatDimapSupportData@Base 5.2.0
 _ZN12ossimplugins18ossimFormosatModelC2ERKS0_@Base 5.2.0
 _ZN12ossimplugins18ossimFormosatModelC2Ev@Base 5.2.0
 _ZN12ossimplugins18ossimFormosatModelD0Ev@Base 5.2.0
 _ZN12ossimplugins18ossimFormosatModelD1Ev@Base 5.2.0
 _ZN12ossimplugins18ossimFormosatModelD2Ev@Base 5.2.0
 _ZN12ossimplugins18ossimPleiadesModel10RTTI_scastEiPv@Base 5.2.0
 _ZN12ossimplugins18ossimPleiadesModel18finishConstructionEv@Base 5.2.0
 _ZN12ossimplugins18ossimPleiadesModel4openERK13ossimFilename@Base 5.2.0
 _ZN12ossimplugins18ossimPleiadesModel8RTTI_objE@Base 5.2.0
 _ZN12ossimplugins18ossimPleiadesModel9RTTI_castE10RTTItypeid@Base 5.2.0
 _ZN12ossimplugins18ossimPleiadesModel9loadStateERK16ossimKeywordlistPKc@Base 5.2.0
 _ZN12ossimplugins18ossimPleiadesModelC1ERKS0_@Base 5.2.0
 _ZN12ossimplugins18ossimPleiadesModelC1Ev@Base 5.2.0
 _ZN12ossimplugins18ossimPleiadesModelC2ERKS0_@Base 5.2.0
 _ZN12ossimplugins18ossimPleiadesModelC2Ev@Base 5.2.0
 _ZN12ossimplugins18ossimPleiadesModelD0Ev@Base 5.2.0
 _ZN12ossimplugins18ossimPleiadesModelD1Ev@Base 5.2.0
 _ZN12ossimplugins18ossimPleiadesModelD2Ev@Base 5.2.0
 _ZN12ossimplugins18ossimRadarSatModel10RTTI_scastEiPv@Base 5.2.0
 _ZN12ossimplugins18ossimRadarSatModel12InitRefPointERK16ossimKeywordlistPKc@Base 5.2.0
 _ZN12ossimplugins18ossimRadarSatModel16InitSensorParamsERK16ossimKeywordlistPKc@Base 5.2.0
 _ZN12ossimplugins18ossimRadarSatModel17internalLoadStateERK16ossimKeywordlistPKc@Base 5.2.0
 _ZN12ossimplugins18ossimRadarSatModel20InitPlatformPositionERK16ossimKeywordlistPKc@Base 5.2.0
 _ZN12ossimplugins18ossimRadarSatModel4openERK13ossimFilename@Base 5.2.0
 _ZN12ossimplugins18ossimRadarSatModel8InitSRGRERK16ossimKeywordlistPKc@Base 5.2.0
 _ZN12ossimplugins18ossimRadarSatModel8RTTI_objE@Base 5.2.0
 _ZN12ossimplugins18ossimRadarSatModel9RTTI_castE10RTTItypeid@Base 5.2.0
 _ZN12ossimplugins18ossimRadarSatModel9loadStateERK16ossimKeywordlistPKc@Base 5.2.0
 _ZN12ossimplugins18ossimRadarSatModelC1ERKS0_@Base 5.2.0
 _ZN12ossimplugins18ossimRadarSatModelC1Ev@Base 5.2.0
 _ZN12ossimplugins18ossimRadarSatModelC2ERKS0_@Base 5.2.0
 _ZN12ossimplugins18ossimRadarSatModelC2Ev@Base 5.2.0
 _ZN12ossimplugins18ossimRadarSatModelD0Ev@Base 5.2.0
 _ZN12ossimplugins18ossimRadarSatModelD1Ev@Base 5.2.0
 _ZN12ossimplugins18ossimRadarSatModelD2Ev@Base 5.2.0
 _ZN12ossimplugins18ossimTerraSarModel10RTTI_scastEiPv@Base 5.2.0
 _ZN12ossimplugins18ossimTerraSarModel12InitRefPointERK16ossimKeywordlistPKc@Base 5.2.0
 _ZN12ossimplugins18ossimTerraSarModel12initRefPointEPK16ossimXmlDocumentRKNS_23ossimTerraSarProductDocE@Base 5.2.0
 _ZN12ossimplugins18ossimTerraSarModel13findTSXLeaderERK13ossimFilenameRS1_@Base 5.2.0
 _ZN12ossimplugins18ossimTerraSarModel14initSceneCoordEPK16ossimXmlDocumentRKNS_23ossimTerraSarProductDocE@Base 5.2.0
 _ZN12ossimplugins18ossimTerraSarModel15initCalibrationEPK16ossimXmlDocumentRKNS_23ossimTerraSarProductDocE@Base 5.2.0
 _ZN12ossimplugins18ossimTerraSarModel16InitSensorParamsERK16ossimKeywordlistPKc@Base 5.2.0
 _ZN12ossimplugins18ossimTerraSarModel16initSensorParamsEPK16ossimXmlDocumentRKNS_23ossimTerraSarProductDocE@Base 5.2.0
 _ZN12ossimplugins18ossimTerraSarModel19getNoiseAtGivenNodeE11ossimRefPtrI12ossimXmlNodeERNS_5NoiseE@Base 5.2.0
 _ZN12ossimplugins18ossimTerraSarModel19initAcquisitionInfoEPK16ossimXmlDocumentRKNS_23ossimTerraSarProductDocE@Base 5.2.0
 _ZN12ossimplugins18ossimTerraSarModel20InitPlatformPositionERK16ossimKeywordlistPKc@Base 5.2.0
 _ZN12ossimplugins18ossimTerraSarModel20initPlatformPositionEPK16ossimXmlDocumentRKNS_23ossimTerraSarProductDocE@Base 5.2.0
 _ZN12ossimplugins18ossimTerraSarModel24getPolLayerFromImageFileEPK16ossimXmlDocumentRK13ossimFilename@Base 5.2.0
 _ZN12ossimplugins18ossimTerraSarModel4openERK13ossimFilename@Base 5.2.0
 _ZN12ossimplugins18ossimTerraSarModel8InitSRGRERK16ossimKeywordlistPKc@Base 5.2.0
 _ZN12ossimplugins18ossimTerraSarModel8RTTI_objE@Base 5.2.0
 _ZN12ossimplugins18ossimTerraSarModel8initSRGREPK16ossimXmlDocumentRKNS_23ossimTerraSarProductDocE@Base 5.2.0
 _ZN12ossimplugins18ossimTerraSarModel9RTTI_castE10RTTItypeid@Base 5.2.0
 _ZN12ossimplugins18ossimTerraSarModel9initNoiseEPK16ossimXmlDocumentRKNS_23ossimTerraSarProductDocE@Base 5.2.0
 _ZN12ossimplugins18ossimTerraSarModel9loadStateERK16ossimKeywordlistPKc@Base 5.2.0
 _ZN12ossimplugins18ossimTerraSarModelC1ERKS0_@Base 5.2.0
 _ZN12ossimplugins18ossimTerraSarModelC1Ev@Base 5.2.0
 _ZN12ossimplugins18ossimTerraSarModelC2ERKS0_@Base 5.2.0
 _ZN12ossimplugins18ossimTerraSarModelC2Ev@Base 5.2.0
 _ZN12ossimplugins18ossimTerraSarModelD0Ev@Base 5.2.0
 _ZN12ossimplugins18ossimTerraSarModelD1Ev@Base 5.2.0
 _ZN12ossimplugins18ossimTerraSarModelD2Ev@Base 5.2.0
 _ZN12ossimplugins19DataHistogramRecordC1ERKS0_@Base 5.2.0
 _ZN12ossimplugins19DataHistogramRecordC1Ev@Base 5.2.0
 _ZN12ossimplugins19DataHistogramRecordC2ERKS0_@Base 5.2.0
 _ZN12ossimplugins19DataHistogramRecordC2Ev@Base 5.2.0
 _ZN12ossimplugins19DataHistogramRecordD1Ev@Base 5.2.0
 _ZN12ossimplugins19DataHistogramRecordD2Ev@Base 5.2.0
 _ZN12ossimplugins19DataHistogramRecordaSERKS0_@Base 5.2.0
 _ZN12ossimplugins19DataPointDataRecordC1ERKS0_@Base 5.2.0
 _ZN12ossimplugins19DataPointDataRecordC1Ev@Base 5.2.0
 _ZN12ossimplugins19DataPointDataRecordC2ERKS0_@Base 5.2.0
 _ZN12ossimplugins19DataPointDataRecordC2Ev@Base 5.2.0
 _ZN12ossimplugins19DataPointDataRecordD1Ev@Base 5.2.0
 _ZN12ossimplugins19DataPointDataRecordD2Ev@Base 5.2.0
 _ZN12ossimplugins19DataPointDataRecordaSERKS0_@Base 5.2.0
 _ZN12ossimplugins19ErsSarLeaderFactoryC1Ev@Base 5.2.0
 _ZN12ossimplugins19ErsSarLeaderFactoryC2Ev@Base 5.2.0
 _ZN12ossimplugins19ErsSarLeaderFactoryD0Ev@Base 5.2.0
 _ZN12ossimplugins19ErsSarLeaderFactoryD1Ev@Base 5.2.0
 _ZN12ossimplugins19ErsSarLeaderFactoryD2Ev@Base 5.2.0
 _ZN12ossimplugins19ErsSarRecordFactory11InstanciateEi@Base 5.2.0
 _ZN12ossimplugins19ErsSarRecordFactory14RegisterRecordEiPNS_12ErsSarRecordE@Base 5.2.0
 _ZN12ossimplugins19ErsSarRecordFactoryC1Ev@Base 5.2.0
 _ZN12ossimplugins19ErsSarRecordFactoryC2Ev@Base 5.2.0
 _ZN12ossimplugins19ErsSarRecordFactoryD0Ev@Base 5.2.0
 _ZN12ossimplugins19ErsSarRecordFactoryD1Ev@Base 5.2.0
 _ZN12ossimplugins19ErsSarRecordFactoryD2Ev@Base 5.2.0
 _ZN12ossimplugins19GeographicEphemeris10ToGalileanEPNS_17GalileanEphemerisE@Base 5.2.0
 _ZN12ossimplugins19GeographicEphemeris5CloneEv@Base 5.2.0
 _ZN12ossimplugins19GeographicEphemerisC1ENS_11JSDDateTimeEPdS2_@Base 5.2.0
 _ZN12ossimplugins19GeographicEphemerisC1ERKS0_@Base 5.2.0
 _ZN12ossimplugins19GeographicEphemerisC1ERNS_17GalileanEphemerisE@Base 5.2.0
 _ZN12ossimplugins19GeographicEphemerisC1Ev@Base 5.2.0
 _ZN12ossimplugins19GeographicEphemerisC2ENS_11JSDDateTimeEPdS2_@Base 5.2.0
 _ZN12ossimplugins19GeographicEphemerisC2ERKS0_@Base 5.2.0
 _ZN12ossimplugins19GeographicEphemerisC2ERNS_17GalileanEphemerisE@Base 5.2.0
 _ZN12ossimplugins19GeographicEphemerisC2Ev@Base 5.2.0
 _ZN12ossimplugins19GeographicEphemerisD0Ev@Base 5.2.0
 _ZN12ossimplugins19GeographicEphemerisD1Ev@Base 5.2.0
 _ZN12ossimplugins19GeographicEphemerisD2Ev@Base 5.2.0
 _ZN12ossimplugins19GeographicEphemerisaSERKS0_@Base 5.2.0
 _ZN12ossimplugins19GeographicEphemeriscvNS_17GalileanEphemerisEEv@Base 5.2.0
 _ZN12ossimplugins19HermiteInterpolator5ClearEv@Base 5.2.0
 _ZN12ossimplugins19HermiteInterpolatorC1ERKS0_@Base 5.2.0
 _ZN12ossimplugins19HermiteInterpolatorC1EiPdS1_S1_@Base 5.2.0
 _ZN12ossimplugins19HermiteInterpolatorC1Ev@Base 5.2.0
 _ZN12ossimplugins19HermiteInterpolatorC2ERKS0_@Base 5.2.0
 _ZN12ossimplugins19HermiteInterpolatorC2EiPdS1_S1_@Base 5.2.0
 _ZN12ossimplugins19HermiteInterpolatorC2Ev@Base 5.2.0
 _ZN12ossimplugins19HermiteInterpolatorD1Ev@Base 5.2.0
 _ZN12ossimplugins19HermiteInterpolatorD2Ev@Base 5.2.0
 _ZN12ossimplugins19HermiteInterpolatoraSERKS0_@Base 5.2.0
 _ZN12ossimplugins19ProcessedDataRecord11InstanciateEv@Base 5.2.0
 _ZN12ossimplugins19ProcessedDataRecord4ReadERSi@Base 5.2.0
 _ZN12ossimplugins19ProcessedDataRecord5CloneEv@Base 5.2.0
 _ZN12ossimplugins19ProcessedDataRecord5WriteERSo@Base 5.2.0
 _ZN12ossimplugins19ProcessedDataRecordC1ERKS0_@Base 5.2.0
 _ZN12ossimplugins19ProcessedDataRecordC1Ev@Base 5.2.0
 _ZN12ossimplugins19ProcessedDataRecordC2ERKS0_@Base 5.2.0
 _ZN12ossimplugins19ProcessedDataRecordC2Ev@Base 5.2.0
 _ZN12ossimplugins19ProcessedDataRecordD0Ev@Base 5.2.0
 _ZN12ossimplugins19ProcessedDataRecordD1Ev@Base 5.2.0
 _ZN12ossimplugins19ProcessedDataRecordD2Ev@Base 5.2.0
 _ZN12ossimplugins19ProcessedDataRecordaSERKS0_@Base 5.2.0
 _ZN12ossimplugins19RadarSat2NoiseLevel9loadStateERK16ossimKeywordlistPKc@Base 5.2.0
 _ZN12ossimplugins19RadarSat2NoiseLevelC1ERKS0_@Base 5.2.0
 _ZN12ossimplugins19RadarSat2NoiseLevelC1Ev@Base 5.2.0
 _ZN12ossimplugins19RadarSat2NoiseLevelC2ERKS0_@Base 5.2.0
 _ZN12ossimplugins19RadarSat2NoiseLevelC2Ev@Base 5.2.0
 _ZN12ossimplugins19RadarSat2NoiseLevelD0Ev@Base 5.2.0
 _ZN12ossimplugins19RadarSat2NoiseLevelD1Ev@Base 5.2.0
 _ZN12ossimplugins19RadarSat2NoiseLevelD2Ev@Base 5.2.0
 _ZN12ossimplugins19RadarSat2NoiseLevelaSERKS0_@Base 5.2.0
 _ZN12ossimplugins19ossimRadarSat2Model10RTTI_scastEiPv@Base 5.2.0
 _ZN12ossimplugins19ossimRadarSat2Model12InitRefPointERK16ossimKeywordlistPKc@Base 5.2.0
 _ZN12ossimplugins19ossimRadarSat2Model12initRefPointEPK16ossimXmlDocumentRKNS_24ossimRadarSat2ProductDocE@Base 5.2.0
 _ZN12ossimplugins19ossimRadarSat2Model16InitSensorParamsERK16ossimKeywordlistPKc@Base 5.2.0
 _ZN12ossimplugins19ossimRadarSat2Model16initSensorParamsEPK16ossimXmlDocumentRKNS_24ossimRadarSat2ProductDocE@Base 5.2.0
 _ZN12ossimplugins19ossimRadarSat2Model16setModelRefPointERKSt4listI8ossimGptSaIS2_EERKS1_I8ossimDptSaIS7_EE@Base 5.2.0
 _ZN12ossimplugins19ossimRadarSat2Model17InitRefNoiseLevelEPK16ossimXmlDocument@Base 5.2.0
 _ZN12ossimplugins19ossimRadarSat2Model20InitPlatformPositionERK16ossimKeywordlistPKc@Base 5.2.0
 _ZN12ossimplugins19ossimRadarSat2Model20initPlatformPositionEPK16ossimXmlDocumentRKNS_24ossimRadarSat2ProductDocE@Base 5.2.0
 _ZN12ossimplugins19ossimRadarSat2Model4openERK13ossimFilename@Base 5.2.0
 _ZN12ossimplugins19ossimRadarSat2Model7InitLutEPK16ossimXmlDocumentRNS_19RadarSat2NoiseLevelE@Base 5.2.0
 _ZN12ossimplugins19ossimRadarSat2Model8InitSRGRERK16ossimKeywordlistPKc@Base 5.2.0
 _ZN12ossimplugins19ossimRadarSat2Model8RTTI_objE@Base 5.2.0
 _ZN12ossimplugins19ossimRadarSat2Model8initSRGREPK16ossimXmlDocumentRKNS_24ossimRadarSat2ProductDocE@Base 5.2.0
 _ZN12ossimplugins19ossimRadarSat2Model9RTTI_castE10RTTItypeid@Base 5.2.0
 _ZN12ossimplugins19ossimRadarSat2Model9loadStateERK16ossimKeywordlistPKc@Base 5.2.0
 _ZN12ossimplugins19ossimRadarSat2ModelC1ERKS0_@Base 5.2.0
 _ZN12ossimplugins19ossimRadarSat2ModelC1Ev@Base 5.2.0
 _ZN12ossimplugins19ossimRadarSat2ModelC2ERKS0_@Base 5.2.0
 _ZN12ossimplugins19ossimRadarSat2ModelC2Ev@Base 5.2.0
 _ZN12ossimplugins19ossimRadarSat2ModelD0Ev@Base 5.2.0
 _ZN12ossimplugins19ossimRadarSat2ModelD1Ev@Base 5.2.0
 _ZN12ossimplugins19ossimRadarSat2ModelD2Ev@Base 5.2.0
 _ZN12ossimplugins19ossimSentinel1Model10RTTI_scastEiPv@Base 5.2.0
 _ZN12ossimplugins19ossimSentinel1Model11clearFieldsEv@Base 5.2.0
 _ZN12ossimplugins19ossimSentinel1Model11isSentinel1ERK13ossimFilename@Base 5.2.0
 _ZN12ossimplugins19ossimSentinel1Model11readProductERK13ossimFilename@Base 5.2.0
 _ZN12ossimplugins19ossimSentinel1Model12initSensorIDER11ossimString@Base 5.2.0
 _ZN12ossimplugins19ossimSentinel1Model14checkDirectoryERK13ossimFilenamePKcS5_@Base 5.2.0
 _ZN12ossimplugins19ossimSentinel1Model16findSafeManifestERK13ossimFilenameRS1_@Base 5.2.0
 _ZN12ossimplugins19ossimSentinel1Model25getAnnotationFileLocationERK13ossimFilenamePKc@Base 5.2.0
 _ZN12ossimplugins19ossimSentinel1Model28standAloneProductInformationEv@Base 5.2.0
 _ZN12ossimplugins19ossimSentinel1Model4openERK13ossimFilename@Base 5.2.0
 _ZN12ossimplugins19ossimSentinel1Model8RTTI_objE@Base 5.2.0
 _ZN12ossimplugins19ossimSentinel1Model8isLevel0ERK13ossimFilename@Base 5.2.0
 _ZN12ossimplugins19ossimSentinel1Model8isLevel1ERK13ossimFilename@Base 5.2.0
 _ZN12ossimplugins19ossimSentinel1Model8isLevel2ERK13ossimFilename@Base 5.2.0
 _ZN12ossimplugins19ossimSentinel1Model9RTTI_castE10RTTItypeid@Base 5.2.0
 _ZN12ossimplugins19ossimSentinel1Model9loadStateERK16ossimKeywordlistPKc@Base 5.2.0
 _ZN12ossimplugins19ossimSentinel1ModelC1ERKS0_@Base 5.2.0
 _ZN12ossimplugins19ossimSentinel1ModelC1Ev@Base 5.2.0
 _ZN12ossimplugins19ossimSentinel1ModelC2ERKS0_@Base 5.2.0
 _ZN12ossimplugins19ossimSentinel1ModelC2Ev@Base 5.2.0
 _ZN12ossimplugins19ossimSentinel1ModelD0Ev@Base 5.2.0
 _ZN12ossimplugins19ossimSentinel1ModelD1Ev@Base 5.2.0
 _ZN12ossimplugins19ossimSentinel1ModelD2Ev@Base 5.2.0
 _ZN12ossimplugins20AlosPalsarSignalData11InstanciateEv@Base 5.2.0
 _ZN12ossimplugins20AlosPalsarSignalData4ReadERSi@Base 5.2.0
 _ZN12ossimplugins20AlosPalsarSignalData5CloneEv@Base 5.2.0
 _ZN12ossimplugins20AlosPalsarSignalData5WriteERSo@Base 5.2.0
 _ZN12ossimplugins20AlosPalsarSignalDataC1ERKS0_@Base 5.2.0
 _ZN12ossimplugins20AlosPalsarSignalDataC1Ev@Base 5.2.0
 _ZN12ossimplugins20AlosPalsarSignalDataC2ERKS0_@Base 5.2.0
 _ZN12ossimplugins20AlosPalsarSignalDataC2Ev@Base 5.2.0
 _ZN12ossimplugins20AlosPalsarSignalDataD0Ev@Base 5.2.0
 _ZN12ossimplugins20AlosPalsarSignalDataD1Ev@Base 5.2.0
 _ZN12ossimplugins20AlosPalsarSignalDataD2Ev@Base 5.2.0
 _ZN12ossimplugins20AlosPalsarSignalDataaSERKS0_@Base 5.2.0
 _ZN12ossimplugins20BeamPixelCountRecordC1ERKS0_@Base 5.2.0
 _ZN12ossimplugins20BeamPixelCountRecordC1Ev@Base 5.2.0
 _ZN12ossimplugins20BeamPixelCountRecordC2ERKS0_@Base 5.2.0
 _ZN12ossimplugins20BeamPixelCountRecordC2Ev@Base 5.2.0
 _ZN12ossimplugins20BeamPixelCountRecordD1Ev@Base 5.2.0
 _ZN12ossimplugins20BeamPixelCountRecordD2Ev@Base 5.2.0
 _ZN12ossimplugins20BeamPixelCountRecordaSERKS0_@Base 5.2.0
 _ZN12ossimplugins20ErsSarDataSetSummary11InstanciateEv@Base 5.2.0
 _ZN12ossimplugins20ErsSarDataSetSummary4ReadERSi@Base 5.2.0
 _ZN12ossimplugins20ErsSarDataSetSummary5CloneEv@Base 5.2.0
 _ZN12ossimplugins20ErsSarDataSetSummary5WriteERSo@Base 5.2.0
 _ZN12ossimplugins20ErsSarDataSetSummaryC1ERKS0_@Base 5.2.0
 _ZN12ossimplugins20ErsSarDataSetSummaryC1Ev@Base 5.2.0
 _ZN12ossimplugins20ErsSarDataSetSummaryC2ERKS0_@Base 5.2.0
 _ZN12ossimplugins20ErsSarDataSetSummaryC2Ev@Base 5.2.0
 _ZN12ossimplugins20ErsSarDataSetSummaryD0Ev@Base 5.2.0
 _ZN12ossimplugins20ErsSarDataSetSummaryD1Ev@Base 5.2.0
 _ZN12ossimplugins20ErsSarDataSetSummaryD2Ev@Base 5.2.0
 _ZN12ossimplugins20ErsSarDataSetSummaryaSERKS0_@Base 5.2.0
 _ZN12ossimplugins20ErsSarFileDescriptor11InstanciateEv@Base 5.2.0
 _ZN12ossimplugins20ErsSarFileDescriptor4ReadERSi@Base 5.2.0
 _ZN12ossimplugins20ErsSarFileDescriptor5CloneEv@Base 5.2.0
 _ZN12ossimplugins20ErsSarFileDescriptor5WriteERSo@Base 5.2.0
 _ZN12ossimplugins20ErsSarFileDescriptorC1ERKS0_@Base 5.2.0
 _ZN12ossimplugins20ErsSarFileDescriptorC1Ev@Base 5.2.0
 _ZN12ossimplugins20ErsSarFileDescriptorC2ERKS0_@Base 5.2.0
 _ZN12ossimplugins20ErsSarFileDescriptorC2Ev@Base 5.2.0
 _ZN12ossimplugins20ErsSarFileDescriptorD0Ev@Base 5.2.0
 _ZN12ossimplugins20ErsSarFileDescriptorD1Ev@Base 5.2.0
 _ZN12ossimplugins20ErsSarFileDescriptorD2Ev@Base 5.2.0
 _ZN12ossimplugins20ErsSarFileDescriptoraSERKS0_@Base 5.2.0
 _ZN12ossimplugins20PlatformPositionData11InstanciateEv@Base 5.2.0
 _ZN12ossimplugins20PlatformPositionData4ReadERSi@Base 5.2.0
 _ZN12ossimplugins20PlatformPositionData5CloneEv@Base 5.2.0
 _ZN12ossimplugins20PlatformPositionData5WriteERSo@Base 5.2.0
 _ZN12ossimplugins20PlatformPositionDataC1ERKS0_@Base 5.2.0
 _ZN12ossimplugins20PlatformPositionDataC1Ev@Base 5.2.0
 _ZN12ossimplugins20PlatformPositionDataC2ERKS0_@Base 5.2.0
 _ZN12ossimplugins20PlatformPositionDataC2Ev@Base 5.2.0
 _ZN12ossimplugins20PlatformPositionDataD0Ev@Base 5.2.0
 _ZN12ossimplugins20PlatformPositionDataD1Ev@Base 5.2.0
 _ZN12ossimplugins20PlatformPositionDataD2Ev@Base 5.2.0
 _ZN12ossimplugins20PlatformPositionDataaSERKS0_@Base 5.2.0
 _ZN12ossimplugins20PositionVectorRecordC1ERKS0_@Base 5.2.0
 _ZN12ossimplugins20PositionVectorRecordC1Ev@Base 5.2.0
 _ZN12ossimplugins20PositionVectorRecordC2ERKS0_@Base 5.2.0
 _ZN12ossimplugins20PositionVectorRecordC2Ev@Base 5.2.0
 _ZN12ossimplugins20PositionVectorRecordD1Ev@Base 5.2.0
 _ZN12ossimplugins20PositionVectorRecordD2Ev@Base 5.2.0
 _ZN12ossimplugins20PositionVectorRecordaSERKS0_@Base 5.2.0
 _ZN12ossimplugins20ProcessingParameters11InstanciateEv@Base 5.2.0
 _ZN12ossimplugins20ProcessingParameters4ReadERSi@Base 5.2.0
 _ZN12ossimplugins20ProcessingParameters5CloneEv@Base 5.2.0
 _ZN12ossimplugins20ProcessingParameters5WriteERSo@Base 5.2.0
 _ZN12ossimplugins20ProcessingParametersC1ERKS0_@Base 5.2.0
 _ZN12ossimplugins20ProcessingParametersC1Ev@Base 5.2.0
 _ZN12ossimplugins20ProcessingParametersC2ERKS0_@Base 5.2.0
 _ZN12ossimplugins20ProcessingParametersC2Ev@Base 5.2.0
 _ZN12ossimplugins20ProcessingParametersD0Ev@Base 5.2.0
 _ZN12ossimplugins20ProcessingParametersD1Ev@Base 5.2.0
 _ZN12ossimplugins20ProcessingParametersD2Ev@Base 5.2.0
 _ZN12ossimplugins20ProcessingParametersaSERKS0_@Base 5.2.0
 _ZN12ossimplugins20RadarSatRecordHeader12SwitchEndianERi@Base 5.2.0
 _ZN12ossimplugins20RadarSatRecordHeaderC1ERKS0_@Base 5.2.0
 _ZN12ossimplugins20RadarSatRecordHeaderC1Ev@Base 5.2.0
 _ZN12ossimplugins20RadarSatRecordHeaderC2ERKS0_@Base 5.2.0
 _ZN12ossimplugins20RadarSatRecordHeaderC2Ev@Base 5.2.0
 _ZN12ossimplugins20RadarSatRecordHeaderD1Ev@Base 5.2.0
 _ZN12ossimplugins20RadarSatRecordHeaderD2Ev@Base 5.2.0
 _ZN12ossimplugins20RadarSatRecordHeaderaSERKS0_@Base 5.2.0
 _ZN12ossimplugins20ossimAlosPalsarModel10RTTI_scastEiPv@Base 5.2.0
 _ZN12ossimplugins20ossimAlosPalsarModel12InitRefPointERK16ossimKeywordlistPKc@Base 5.2.0
 _ZN12ossimplugins20ossimAlosPalsarModel16InitSensorParamsERK16ossimKeywordlistPKc@Base 5.2.0
 _ZN12ossimplugins20ossimAlosPalsarModel20InitPlatformPositionERK16ossimKeywordlistPKc@Base 5.2.0
 _ZN12ossimplugins20ossimAlosPalsarModel4openERK13ossimFilename@Base 5.2.0
 _ZN12ossimplugins20ossimAlosPalsarModel8InitSRGRERK16ossimKeywordlistPKc@Base 5.2.0
 _ZN12ossimplugins20ossimAlosPalsarModel8RTTI_objE@Base 5.2.0
 _ZN12ossimplugins20ossimAlosPalsarModel9RTTI_castE10RTTItypeid@Base 5.2.0
 _ZN12ossimplugins20ossimAlosPalsarModel9loadStateERK16ossimKeywordlistPKc@Base 5.2.0
 _ZN12ossimplugins20ossimAlosPalsarModelC1Ev@Base 5.2.0
 _ZN12ossimplugins20ossimAlosPalsarModelC2Ev@Base 5.2.0
 _ZN12ossimplugins20ossimAlosPalsarModelD0Ev@Base 5.2.0
 _ZN12ossimplugins20ossimAlosPalsarModelD1Ev@Base 5.2.0
 _ZN12ossimplugins20ossimAlosPalsarModelD2Ev@Base 5.2.0
 _ZN12ossimplugins21BeamInformationRecordC1ERKS0_@Base 5.2.0
 _ZN12ossimplugins21BeamInformationRecordC1Ev@Base 5.2.0
 _ZN12ossimplugins21BeamInformationRecordC2ERKS0_@Base 5.2.0
 _ZN12ossimplugins21BeamInformationRecordC2Ev@Base 5.2.0
 _ZN12ossimplugins21BeamInformationRecordD1Ev@Base 5.2.0
 _ZN12ossimplugins21BeamInformationRecordD2Ev@Base 5.2.0
 _ZN12ossimplugins21BeamInformationRecordaSERKS0_@Base 5.2.0
 _ZN12ossimplugins21MisregistrationRecordC1ERKS0_@Base 5.2.0
 _ZN12ossimplugins21MisregistrationRecordC1Ev@Base 5.2.0
 _ZN12ossimplugins21MisregistrationRecordC2ERKS0_@Base 5.2.0
 _ZN12ossimplugins21MisregistrationRecordC2Ev@Base 5.2.0
 _ZN12ossimplugins21MisregistrationRecordD1Ev@Base 5.2.0
 _ZN12ossimplugins21MisregistrationRecordD2Ev@Base 5.2.0
 _ZN12ossimplugins21MisregistrationRecordaSERKS0_@Base 5.2.0
 _ZN12ossimplugins21RadarSatRecordFactory11InstanciateEi@Base 5.2.0
 _ZN12ossimplugins21RadarSatRecordFactory14RegisterRecordEiPNS_14RadarSatRecordE@Base 5.2.0
 _ZN12ossimplugins21RadarSatRecordFactoryC1Ev@Base 5.2.0
 _ZN12ossimplugins21RadarSatRecordFactoryC2Ev@Base 5.2.0
 _ZN12ossimplugins21RadarSatRecordFactoryD1Ev@Base 5.2.0
 _ZN12ossimplugins21RadarSatRecordFactoryD2Ev@Base 5.2.0
 _ZN12ossimplugins21RectangularCoordinate21AsGeodesicCoordinatesEddPNS_18GeodesicCoordinateE@Base 5.2.0
 _ZN12ossimplugins21RectangularCoordinateC1ERKS0_@Base 5.2.0
 _ZN12ossimplugins21RectangularCoordinateC1Eddd@Base 5.2.0
 _ZN12ossimplugins21RectangularCoordinateC1Ev@Base 5.2.0
 _ZN12ossimplugins21RectangularCoordinateC2ERKS0_@Base 5.2.0
 _ZN12ossimplugins21RectangularCoordinateC2Eddd@Base 5.2.0
 _ZN12ossimplugins21RectangularCoordinateC2Ev@Base 5.2.0
 _ZN12ossimplugins21RectangularCoordinateD1Ev@Base 5.2.0
 _ZN12ossimplugins21RectangularCoordinateD2Ev@Base 5.2.0
 _ZN12ossimplugins21RectangularCoordinateaSERKS0_@Base 5.2.0
 _ZN12ossimplugins21ossimCosmoSkymedModel10RTTI_scastEiPv@Base 5.2.0
 _ZN12ossimplugins21ossimCosmoSkymedModel12InitRefPointERK16ossimKeywordlistPKc@Base 5.2.0
 _ZN12ossimplugins21ossimCosmoSkymedModel16InitSensorParamsERK16ossimKeywordlistPKc@Base 5.2.0
 _ZN12ossimplugins21ossimCosmoSkymedModel20InitPlatformPositionERK16ossimKeywordlistPKc@Base 5.2.0
 _ZN12ossimplugins21ossimCosmoSkymedModel28UtcDateTimeStringToCivilDateERKSsRNS_13CivilDateTimeE@Base 5.2.0
 _ZN12ossimplugins21ossimCosmoSkymedModel8InitSRGRERK16ossimKeywordlistPKc@Base 5.2.0
 _ZN12ossimplugins21ossimCosmoSkymedModel8RTTI_objE@Base 5.2.0
 _ZN12ossimplugins21ossimCosmoSkymedModel9RTTI_castE10RTTItypeid@Base 5.2.0
 _ZN12ossimplugins21ossimCosmoSkymedModelC1Ev@Base 5.2.0
 _ZN12ossimplugins21ossimCosmoSkymedModelC2Ev@Base 5.2.0
 _ZN12ossimplugins21ossimCosmoSkymedModelD0Ev@Base 5.2.0
 _ZN12ossimplugins21ossimCosmoSkymedModelD1Ev@Base 5.2.0
 _ZN12ossimplugins21ossimCosmoSkymedModelD2Ev@Base 5.2.0
 _ZN12ossimplugins21ossimEnvisatAsarModel10RTTI_scastEiPv@Base 5.2.0
 _ZN12ossimplugins21ossimEnvisatAsarModel12InitRefPointERK16ossimKeywordlistPKc@Base 5.2.0
 _ZN12ossimplugins21ossimEnvisatAsarModel16InitSensorParamsERK16ossimKeywordlistPKc@Base 5.2.0
 _ZN12ossimplugins21ossimEnvisatAsarModel20InitPlatformPositionERK16ossimKeywordlistPKc@Base 5.2.0
 _ZN12ossimplugins21ossimEnvisatAsarModel4openERK13ossimFilename@Base 5.2.0
 _ZN12ossimplugins21ossimEnvisatAsarModel8InitSRGRERK16ossimKeywordlistPKc@Base 5.2.0
 _ZN12ossimplugins21ossimEnvisatAsarModel8RTTI_objE@Base 5.2.0
 _ZN12ossimplugins21ossimEnvisatAsarModel9RTTI_castE10RTTItypeid@Base 5.2.0
 _ZN12ossimplugins21ossimEnvisatAsarModel9loadStateERK16ossimKeywordlistPKc@Base 5.2.0
 _ZN12ossimplugins21ossimEnvisatAsarModelC1Ev@Base 5.2.0
 _ZN12ossimplugins21ossimEnvisatAsarModelC2Ev@Base 5.2.0
 _ZN12ossimplugins21ossimEnvisatAsarModelD0Ev@Base 5.2.0
 _ZN12ossimplugins21ossimEnvisatAsarModelD1Ev@Base 5.2.0
 _ZN12ossimplugins21ossimEnvisatAsarModelD2Ev@Base 5.2.0
 _ZN12ossimplugins22AlosPalsarFacilityData11InstanciateEv@Base 5.2.0
 _ZN12ossimplugins22AlosPalsarFacilityData4ReadERSi@Base 5.2.0
 _ZN12ossimplugins22AlosPalsarFacilityData5CloneEv@Base 5.2.0
 _ZN12ossimplugins22AlosPalsarFacilityData5WriteERSo@Base 5.2.0
 _ZN12ossimplugins22AlosPalsarFacilityDataC1ERKS0_@Base 5.2.0
 _ZN12ossimplugins22AlosPalsarFacilityDataC1Ev@Base 5.2.0
 _ZN12ossimplugins22AlosPalsarFacilityDataC2ERKS0_@Base 5.2.0
 _ZN12ossimplugins22AlosPalsarFacilityDataC2Ev@Base 5.2.0
 _ZN12ossimplugins22AlosPalsarFacilityDataD0Ev@Base 5.2.0
 _ZN12ossimplugins22AlosPalsarFacilityDataD1Ev@Base 5.2.0
 _ZN12ossimplugins22AlosPalsarFacilityDataD2Ev@Base 5.2.0
 _ZN12ossimplugins22AlosPalsarFacilityDataaSERKS0_@Base 5.2.0
 _ZN12ossimplugins22AlosPalsarRecordHeader12SwitchEndianERj@Base 5.2.0
 _ZN12ossimplugins22AlosPalsarRecordHeaderC1ERKS0_@Base 5.2.0
 _ZN12ossimplugins22AlosPalsarRecordHeaderC1Ev@Base 5.2.0
 _ZN12ossimplugins22AlosPalsarRecordHeaderC2ERKS0_@Base 5.2.0
 _ZN12ossimplugins22AlosPalsarRecordHeaderC2Ev@Base 5.2.0
 _ZN12ossimplugins22AlosPalsarRecordHeaderD1Ev@Base 5.2.0
 _ZN12ossimplugins22AlosPalsarRecordHeaderD2Ev@Base 5.2.0
 _ZN12ossimplugins22AlosPalsarRecordHeaderaSERKS0_@Base 5.2.0
 _ZN12ossimplugins22CompensationDataRecordC1ERKS0_@Base 5.2.0
 _ZN12ossimplugins22CompensationDataRecordC1Ev@Base 5.2.0
 _ZN12ossimplugins22CompensationDataRecordC2ERKS0_@Base 5.2.0
 _ZN12ossimplugins22CompensationDataRecordC2Ev@Base 5.2.0
 _ZN12ossimplugins22CompensationDataRecordD1Ev@Base 5.2.0
 _ZN12ossimplugins22CompensationDataRecordD2Ev@Base 5.2.0
 _ZN12ossimplugins22CompensationDataRecordaSERKS0_@Base 5.2.0
 _ZN12ossimplugins22EnvisatAsarDataFactoryC1Ev@Base 5.2.0
 _ZN12ossimplugins22EnvisatAsarDataFactoryC2Ev@Base 5.2.0
 _ZN12ossimplugins22EnvisatAsarDataFactoryD1Ev@Base 5.2.0
 _ZN12ossimplugins22EnvisatAsarDataFactoryD2Ev@Base 5.2.0
 _ZN12ossimplugins22VolumeDescriptorRecord11InstanciateEv@Base 5.2.0
 _ZN12ossimplugins22VolumeDescriptorRecord4ReadERSi@Base 5.2.0
 _ZN12ossimplugins22VolumeDescriptorRecord5CloneEv@Base 5.2.0
 _ZN12ossimplugins22VolumeDescriptorRecord5WriteERSo@Base 5.2.0
 _ZN12ossimplugins22VolumeDescriptorRecordC1ERKS0_@Base 5.2.0
 _ZN12ossimplugins22VolumeDescriptorRecordC1Ev@Base 5.2.0
 _ZN12ossimplugins22VolumeDescriptorRecordC2ERKS0_@Base 5.2.0
 _ZN12ossimplugins22VolumeDescriptorRecordC2Ev@Base 5.2.0
 _ZN12ossimplugins22VolumeDescriptorRecordD0Ev@Base 5.2.0
 _ZN12ossimplugins22VolumeDescriptorRecordD1Ev@Base 5.2.0
 _ZN12ossimplugins22VolumeDescriptorRecordD2Ev@Base 5.2.0
 _ZN12ossimplugins22VolumeDescriptorRecordaSERKS0_@Base 5.2.0
 _ZN12ossimplugins22ossimRadarSat2RPCModel10RTTI_scastEiPv@Base 5.2.0
 _ZN12ossimplugins22ossimRadarSat2RPCModel16InitSensorParamsERK16ossimKeywordlistPKc@Base 5.2.0
 _ZN12ossimplugins22ossimRadarSat2RPCModel16initSensorParamsEPK16ossimXmlDocumentRKNS_24ossimRadarSat2ProductDocE@Base 5.2.0
 _ZN12ossimplugins22ossimRadarSat2RPCModel4openERK13ossimFilename@Base 5.2.0
 _ZN12ossimplugins22ossimRadarSat2RPCModel8RTTI_objE@Base 5.2.0
 _ZN12ossimplugins22ossimRadarSat2RPCModel9RTTI_castE10RTTItypeid@Base 5.2.0
 _ZN12ossimplugins22ossimRadarSat2RPCModel9loadStateERK16ossimKeywordlistPKc@Base 5.2.0
 _ZN12ossimplugins22ossimRadarSat2RPCModelC1ERK13ossimFilename@Base 5.2.0
 _ZN12ossimplugins22ossimRadarSat2RPCModelC1ERKS0_@Base 5.2.0
 _ZN12ossimplugins22ossimRadarSat2RPCModelC1Ev@Base 5.2.0
 _ZN12ossimplugins22ossimRadarSat2RPCModelC2ERK13ossimFilename@Base 5.2.0
 _ZN12ossimplugins22ossimRadarSat2RPCModelC2ERKS0_@Base 5.2.0
 _ZN12ossimplugins22ossimRadarSat2RPCModelC2Ev@Base 5.2.0
 _ZN12ossimplugins22ossimRadarSat2RPCModelD0Ev@Base 5.2.0
 _ZN12ossimplugins22ossimRadarSat2RPCModelD1Ev@Base 5.2.0
 _ZN12ossimplugins22ossimRadarSat2RPCModelD2Ev@Base 5.2.0
 _ZN12ossimplugins23AlosPalsarLeaderFactoryC1Ev@Base 5.2.0
 _ZN12ossimplugins23AlosPalsarLeaderFactoryC2Ev@Base 5.2.0
 _ZN12ossimplugins23AlosPalsarLeaderFactoryD1Ev@Base 5.2.0
 _ZN12ossimplugins23AlosPalsarLeaderFactoryD2Ev@Base 5.2.0
 _ZN12ossimplugins23AlosPalsarRecordFactory11InstanciateEi@Base 5.2.0
 _ZN12ossimplugins23AlosPalsarRecordFactory14RegisterRecordEiPNS_16AlosPalsarRecordE@Base 5.2.0
 _ZN12ossimplugins23AlosPalsarRecordFactoryC1Ev@Base 5.2.0
 _ZN12ossimplugins23AlosPalsarRecordFactoryC2Ev@Base 5.2.0
 _ZN12ossimplugins23AlosPalsarRecordFactoryD1Ev@Base 5.2.0
 _ZN12ossimplugins23AlosPalsarRecordFactoryD2Ev@Base 5.2.0
 _ZN12ossimplugins23DataHistogramSignalData11InstanciateEv@Base 5.2.0
 _ZN12ossimplugins23DataHistogramSignalData4ReadERSi@Base 5.2.0
 _ZN12ossimplugins23DataHistogramSignalData5CloneEv@Base 5.2.0
 _ZN12ossimplugins23DataHistogramSignalData5WriteERSo@Base 5.2.0
 _ZN12ossimplugins23DataHistogramSignalDataC1ERKS0_@Base 5.2.0
 _ZN12ossimplugins23DataHistogramSignalDataC1Ev@Base 5.2.0
 _ZN12ossimplugins23DataHistogramSignalDataC2ERKS0_@Base 5.2.0
 _ZN12ossimplugins23DataHistogramSignalDataC2Ev@Base 5.2.0
 _ZN12ossimplugins23DataHistogramSignalDataD0Ev@Base 5.2.0
 _ZN12ossimplugins23DataHistogramSignalDataD1Ev@Base 5.2.0
 _ZN12ossimplugins23DataHistogramSignalDataD2Ev@Base 5.2.0
 _ZN12ossimplugins23DataHistogramSignalDataaSERKS0_@Base 5.2.0
 _ZN12ossimplugins23ErsSarMapProjectionData11InstanciateEv@Base 5.2.0
 _ZN12ossimplugins23ErsSarMapProjectionData4ReadERSi@Base 5.2.0
 _ZN12ossimplugins23ErsSarMapProjectionData5CloneEv@Base 5.2.0
 _ZN12ossimplugins23ErsSarMapProjectionData5WriteERSo@Base 5.2.0
 _ZN12ossimplugins23ErsSarMapProjectionDataC1ERKS0_@Base 5.2.0
 _ZN12ossimplugins23ErsSarMapProjectionDataC1Ev@Base 5.2.0
 _ZN12ossimplugins23ErsSarMapProjectionDataC2ERKS0_@Base 5.2.0
 _ZN12ossimplugins23ErsSarMapProjectionDataC2Ev@Base 5.2.0
 _ZN12ossimplugins23ErsSarMapProjectionDataD0Ev@Base 5.2.0
 _ZN12ossimplugins23ErsSarMapProjectionDataD1Ev@Base 5.2.0
 _ZN12ossimplugins23ErsSarMapProjectionDataD2Ev@Base 5.2.0
 _ZN12ossimplugins23ErsSarMapProjectionDataaSERKS0_@Base 5.2.0
 _ZN12ossimplugins23ossimTerraSarProductDocC1Ev@Base 5.2.0
 _ZN12ossimplugins23ossimTerraSarProductDocC2Ev@Base 5.2.0
 _ZN12ossimplugins23ossimTerraSarProductDocD1Ev@Base 5.2.0
 _ZN12ossimplugins23ossimTerraSarProductDocD2Ev@Base 5.2.0
 _ZN12ossimplugins23ossimTerraSarTiffReader10RTTI_scastEiPv@Base 5.2.0
 _ZN12ossimplugins23ossimTerraSarTiffReader16getImageGeometryEv@Base 5.2.0
 _ZN12ossimplugins23ossimTerraSarTiffReader4openERK13ossimFilename@Base 5.2.0
 _ZN12ossimplugins23ossimTerraSarTiffReader5closeEv@Base 5.2.0
 _ZN12ossimplugins23ossimTerraSarTiffReader8RTTI_objE@Base 5.2.0
 _ZN12ossimplugins23ossimTerraSarTiffReader9RTTI_castE10RTTItypeid@Base 5.2.0
 _ZN12ossimplugins23ossimTerraSarTiffReader9loadStateERK16ossimKeywordlistPKc@Base 5.2.0
 _ZN12ossimplugins23ossimTerraSarTiffReaderC1Ev@Base 5.2.0
 _ZN12ossimplugins23ossimTerraSarTiffReaderC2Ev@Base 5.2.0
 _ZN12ossimplugins23ossimTerraSarTiffReaderD0Ev@Base 5.2.0
 _ZN12ossimplugins23ossimTerraSarTiffReaderD1Ev@Base 5.2.0
 _ZN12ossimplugins23ossimTerraSarTiffReaderD2Ev@Base 5.2.0
 _ZN12ossimplugins24AlosPalsarDataSetSummary11InstanciateEv@Base 5.2.0
 _ZN12ossimplugins24AlosPalsarDataSetSummary4ReadERSi@Base 5.2.0
 _ZN12ossimplugins24AlosPalsarDataSetSummary5CloneEv@Base 5.2.0
 _ZN12ossimplugins24AlosPalsarDataSetSummary5WriteERSo@Base 5.2.0
 _ZN12ossimplugins24AlosPalsarDataSetSummaryC1ERKS0_@Base 5.2.0
 _ZN12ossimplugins24AlosPalsarDataSetSummaryC1Ev@Base 5.2.0
 _ZN12ossimplugins24AlosPalsarDataSetSummaryC2ERKS0_@Base 5.2.0
 _ZN12ossimplugins24AlosPalsarDataSetSummaryC2Ev@Base 5.2.0
 _ZN12ossimplugins24AlosPalsarDataSetSummaryD0Ev@Base 5.2.0
 _ZN12ossimplugins24AlosPalsarDataSetSummaryD1Ev@Base 5.2.0
 _ZN12ossimplugins24AlosPalsarDataSetSummaryD2Ev@Base 5.2.0
 _ZN12ossimplugins24AlosPalsarDataSetSummaryaSERKS0_@Base 5.2.0
 _ZN12ossimplugins24AlosPalsarFileDescriptor11InstanciateEv@Base 5.2.0
 _ZN12ossimplugins24AlosPalsarFileDescriptor4ReadERSi@Base 5.2.0
 _ZN12ossimplugins24AlosPalsarFileDescriptor5CloneEv@Base 5.2.0
 _ZN12ossimplugins24AlosPalsarFileDescriptor5WriteERSo@Base 5.2.0
 _ZN12ossimplugins24AlosPalsarFileDescriptorC1ERKS0_@Base 5.2.0
 _ZN12ossimplugins24AlosPalsarFileDescriptorC1Ev@Base 5.2.0
 _ZN12ossimplugins24AlosPalsarFileDescriptorC2ERKS0_@Base 5.2.0
 _ZN12ossimplugins24AlosPalsarFileDescriptorC2Ev@Base 5.2.0
 _ZN12ossimplugins24AlosPalsarFileDescriptorD0Ev@Base 5.2.0
 _ZN12ossimplugins24AlosPalsarFileDescriptorD1Ev@Base 5.2.0
 _ZN12ossimplugins24AlosPalsarFileDescriptorD2Ev@Base 5.2.0
 _ZN12ossimplugins24AlosPalsarFileDescriptoraSERKS0_@Base 5.2.0
 _ZN12ossimplugins24AntennaElevationPatterns11InstanciateEv@Base 5.2.0
 _ZN12ossimplugins24AntennaElevationPatterns4ReadERSi@Base 5.2.0
 _ZN12ossimplugins24AntennaElevationPatterns5CloneEv@Base 5.2.0
 _ZN12ossimplugins24AntennaElevationPatterns5WriteERSo@Base 5.2.0
 _ZN12ossimplugins24AntennaElevationPatternsC1ERKS0_@Base 5.2.0
 _ZN12ossimplugins24AntennaElevationPatternsC1Ev@Base 5.2.0
 _ZN12ossimplugins24AntennaElevationPatternsC2ERKS0_@Base 5.2.0
 _ZN12ossimplugins24AntennaElevationPatternsC2Ev@Base 5.2.0
 _ZN12ossimplugins24AntennaElevationPatternsD0Ev@Base 5.2.0
 _ZN12ossimplugins24AntennaElevationPatternsD1Ev@Base 5.2.0
 _ZN12ossimplugins24AntennaElevationPatternsD2Ev@Base 5.2.0
 _ZN12ossimplugins24AntennaElevationPatternsaSERKS0_@Base 5.2.0
 _ZN12ossimplugins24EnvisatAsarRecordFactory11InstanciateESs@Base 5.2.0
 _ZN12ossimplugins24EnvisatAsarRecordFactory14RegisterRecordESsPNS_17EnvisatAsarRecordE@Base 5.2.0
 _ZN12ossimplugins24EnvisatAsarRecordFactoryC1Ev@Base 5.2.0
 _ZN12ossimplugins24EnvisatAsarRecordFactoryC2Ev@Base 5.2.0
 _ZN12ossimplugins24EnvisatAsarRecordFactoryD1Ev@Base 5.2.0
 _ZN12ossimplugins24EnvisatAsarRecordFactoryD2Ev@Base 5.2.0
 _ZN12ossimplugins24MainProcessingParameters11InstanciateEv@Base 5.2.0
 _ZN12ossimplugins24MainProcessingParameters4ReadERSi@Base 5.2.0
 _ZN12ossimplugins24MainProcessingParameters5CloneEv@Base 5.2.0
 _ZN12ossimplugins24MainProcessingParameters5WriteERSo@Base 5.2.0
 _ZN12ossimplugins24MainProcessingParametersC1ERKS0_@Base 5.2.0
 _ZN12ossimplugins24MainProcessingParametersC1Ev@Base 5.2.0
 _ZN12ossimplugins24MainProcessingParametersC2ERKS0_@Base 5.2.0
 _ZN12ossimplugins24MainProcessingParametersC2Ev@Base 5.2.0
 _ZN12ossimplugins24MainProcessingParametersD0Ev@Base 5.2.0
 _ZN12ossimplugins24MainProcessingParametersD1Ev@Base 5.2.0
 _ZN12ossimplugins24MainProcessingParametersD2Ev@Base 5.2.0
 _ZN12ossimplugins24MainProcessingParametersaSERKS0_@Base 5.2.0
 _ZN12ossimplugins24SRGRCoefficientSetRecordC1ERKS0_@Base 5.2.0
 _ZN12ossimplugins24SRGRCoefficientSetRecordC1Ev@Base 5.2.0
 _ZN12ossimplugins24SRGRCoefficientSetRecordC2ERKS0_@Base 5.2.0
 _ZN12ossimplugins24SRGRCoefficientSetRecordC2Ev@Base 5.2.0
 _ZN12ossimplugins24SRGRCoefficientSetRecordD1Ev@Base 5.2.0
 _ZN12ossimplugins24SRGRCoefficientSetRecordD2Ev@Base 5.2.0
 _ZN12ossimplugins24SRGRCoefficientSetRecordaSERKS0_@Base 5.2.0
 _ZN12ossimplugins24SRGRConversionParameters11InstanciateEv@Base 5.2.0
 _ZN12ossimplugins24SRGRConversionParameters4ReadERSi@Base 5.2.0
 _ZN12ossimplugins24SRGRConversionParameters5CloneEv@Base 5.2.0
 _ZN12ossimplugins24SRGRConversionParameters5WriteERSo@Base 5.2.0
 _ZN12ossimplugins24SRGRConversionParametersC1ERKS0_@Base 5.2.0
 _ZN12ossimplugins24SRGRConversionParametersC1Ev@Base 5.2.0
 _ZN12ossimplugins24SRGRConversionParametersC2ERKS0_@Base 5.2.0
 _ZN12ossimplugins24SRGRConversionParametersC2Ev@Base 5.2.0
 _ZN12ossimplugins24SRGRConversionParametersD0Ev@Base 5.2.0
 _ZN12ossimplugins24SRGRConversionParametersD1Ev@Base 5.2.0
 _ZN12ossimplugins24SRGRConversionParametersD2Ev@Base 5.2.0
 _ZN12ossimplugins24SRGRConversionParametersaSERKS0_@Base 5.2.0
 _ZN12ossimplugins24ossimPluginReaderFactory10RTTI_scastEiPv@Base 5.2.0
 _ZN12ossimplugins24ossimPluginReaderFactory11theInstanceE@Base 5.2.0
 _ZN12ossimplugins24ossimPluginReaderFactory8RTTI_objE@Base 5.2.0
 _ZN12ossimplugins24ossimPluginReaderFactory8instanceEv@Base 5.2.0
 _ZN12ossimplugins24ossimPluginReaderFactory9RTTI_castE10RTTItypeid@Base 5.2.0
 _ZN12ossimplugins24ossimPluginReaderFactoryC1ERKS0_@Base 5.2.0
 _ZN12ossimplugins24ossimPluginReaderFactoryC1Ev@Base 5.2.0
 _ZN12ossimplugins24ossimPluginReaderFactoryC2ERKS0_@Base 5.2.0
 _ZN12ossimplugins24ossimPluginReaderFactoryC2Ev@Base 5.2.0
 _ZN12ossimplugins24ossimPluginReaderFactoryD0Ev@Base 5.2.0
 _ZN12ossimplugins24ossimPluginReaderFactoryD1Ev@Base 5.2.0
 _ZN12ossimplugins24ossimPluginReaderFactoryD2Ev@Base 5.2.0
 _ZN12ossimplugins24ossimPluginReaderFactoryaSERKS0_@Base 5.2.0
 _ZN12ossimplugins24ossimRadarSat2ProductDoc17getAcquistionDateEPK16ossimXmlDocumentR11ossimString@Base 5.2.0
 _ZN12ossimplugins24ossimRadarSat2ProductDoc17getProductionDateEPK16ossimXmlDocumentR11ossimString@Base 5.2.0
 _ZN12ossimplugins24ossimRadarSat2ProductDocC1Ev@Base 5.2.0
 _ZN12ossimplugins24ossimRadarSat2ProductDocC2Ev@Base 5.2.0
 _ZN12ossimplugins24ossimRadarSat2ProductDocD1Ev@Base 5.2.0
 _ZN12ossimplugins24ossimRadarSat2ProductDocD2Ev@Base 5.2.0
 _ZN12ossimplugins24ossimRadarSat2TiffReader10RTTI_scastEiPv@Base 5.2.0
 _ZN12ossimplugins24ossimRadarSat2TiffReader16getImageGeometryEv@Base 5.2.0
 _ZN12ossimplugins24ossimRadarSat2TiffReader4openERK13ossimFilename@Base 5.2.0
 _ZN12ossimplugins24ossimRadarSat2TiffReader5closeEv@Base 5.2.0
 _ZN12ossimplugins24ossimRadarSat2TiffReader8RTTI_objE@Base 5.2.0
 _ZN12ossimplugins24ossimRadarSat2TiffReader9RTTI_castE10RTTItypeid@Base 5.2.0
 _ZN12ossimplugins24ossimRadarSat2TiffReader9loadStateERK16ossimKeywordlistPKc@Base 5.2.0
 _ZN12ossimplugins24ossimRadarSat2TiffReaderC1Ev@Base 5.2.0
 _ZN12ossimplugins24ossimRadarSat2TiffReaderC2Ev@Base 5.2.0
 _ZN12ossimplugins24ossimRadarSat2TiffReaderD0Ev@Base 5.2.0
 _ZN12ossimplugins24ossimRadarSat2TiffReaderD1Ev@Base 5.2.0
 _ZN12ossimplugins24ossimRadarSat2TiffReaderD2Ev@Base 5.2.0
 _ZN12ossimplugins24ossimSentinel1ProductDoc11clearFieldsEv@Base 5.2.0
 _ZN12ossimplugins24ossimSentinel1ProductDoc17readNoiseMetadataEv@Base 5.2.0
 _ZN12ossimplugins24ossimSentinel1ProductDoc19addSRGRCoefficientsEPKcRK11ossimRefPtrI12ossimXmlNodeE@Base 5.2.0
 _ZN12ossimplugins24ossimSentinel1ProductDoc19readProductMetadataEv@Base 5.2.0
 _ZN12ossimplugins24ossimSentinel1ProductDoc20addOrbitStateVectorsERK11ossimRefPtrI12ossimXmlNodeE@Base 5.2.0
 _ZN12ossimplugins24ossimSentinel1ProductDoc20getBandTerrainHeightERK11ossimRefPtrI16ossimXmlDocumentE@Base 5.2.0
 _ZN12ossimplugins24ossimSentinel1ProductDoc21getModifiedJulianDateE11ossimString@Base 5.2.0
 _ZN12ossimplugins24ossimSentinel1ProductDoc23readCalibrationMetadataEv@Base 5.2.0
 _ZN12ossimplugins24ossimSentinel1ProductDoc30addDopplerCentroidCoefficientsERK11ossimRefPtrI12ossimXmlNodeE@Base 5.2.0
 _ZN12ossimplugins24ossimSentinel1ProductDocC1Ev@Base 5.2.0
 _ZN12ossimplugins24ossimSentinel1ProductDocC2Ev@Base 5.2.0
 _ZN12ossimplugins24ossimSentinel1ProductDocD0Ev@Base 5.2.0
 _ZN12ossimplugins24ossimSentinel1ProductDocD1Ev@Base 5.2.0
 _ZN12ossimplugins24ossimSentinel1ProductDocD2Ev@Base 5.2.0
 _ZN12ossimplugins25AlosPalsarRadiometricData11InstanciateEv@Base 5.2.0
 _ZN12ossimplugins25AlosPalsarRadiometricData4ReadERSi@Base 5.2.0
 _ZN12ossimplugins25AlosPalsarRadiometricData5CloneEv@Base 5.2.0
 _ZN12ossimplugins25AlosPalsarRadiometricData5WriteERSo@Base 5.2.0
 _ZN12ossimplugins25AlosPalsarRadiometricDataC1ERKS0_@Base 5.2.0
 _ZN12ossimplugins25AlosPalsarRadiometricDataC1Ev@Base 5.2.0
 _ZN12ossimplugins25AlosPalsarRadiometricDataC2ERKS0_@Base 5.2.0
 _ZN12ossimplugins25AlosPalsarRadiometricDataC2Ev@Base 5.2.0
 _ZN12ossimplugins25AlosPalsarRadiometricDataD0Ev@Base 5.2.0
 _ZN12ossimplugins25AlosPalsarRadiometricDataD1Ev@Base 5.2.0
 _ZN12ossimplugins25AlosPalsarRadiometricDataD2Ev@Base 5.2.0
 _ZN12ossimplugins25AlosPalsarRadiometricDataaSERKS0_@Base 5.2.0
 _ZN12ossimplugins25DopplerCentroidParameters11InstanciateEv@Base 5.2.0
 _ZN12ossimplugins25DopplerCentroidParameters4ReadERSi@Base 5.2.0
 _ZN12ossimplugins25DopplerCentroidParameters5CloneEv@Base 5.2.0
 _ZN12ossimplugins25DopplerCentroidParameters5WriteERSo@Base 5.2.0
 _ZN12ossimplugins25DopplerCentroidParametersC1ERKS0_@Base 5.2.0
 _ZN12ossimplugins25DopplerCentroidParametersC1Ev@Base 5.2.0
 _ZN12ossimplugins25DopplerCentroidParametersC2ERKS0_@Base 5.2.0
 _ZN12ossimplugins25DopplerCentroidParametersC2Ev@Base 5.2.0
 _ZN12ossimplugins25DopplerCentroidParametersD0Ev@Base 5.2.0
 _ZN12ossimplugins25DopplerCentroidParametersD1Ev@Base 5.2.0
 _ZN12ossimplugins25DopplerCentroidParametersD2Ev@Base 5.2.0
 _ZN12ossimplugins25DopplerCentroidParametersaSERKS0_@Base 5.2.0
 _ZN12ossimplugins25TemperatureSettingsRecordC1ERKS0_@Base 5.2.0
 _ZN12ossimplugins25TemperatureSettingsRecordC1Ev@Base 5.2.0
 _ZN12ossimplugins25TemperatureSettingsRecordC2ERKS0_@Base 5.2.0
 _ZN12ossimplugins25TemperatureSettingsRecordC2Ev@Base 5.2.0
 _ZN12ossimplugins25TemperatureSettingsRecordD1Ev@Base 5.2.0
 _ZN12ossimplugins25TemperatureSettingsRecordD2Ev@Base 5.2.0
 _ZN12ossimplugins25TemperatureSettingsRecordaSERKS0_@Base 5.2.0
 _ZN12ossimplugins26DataHistogramProcessedData11InstanciateEv@Base 5.2.0
 _ZN12ossimplugins26DataHistogramProcessedData4ReadERSi@Base 5.2.0
 _ZN12ossimplugins26DataHistogramProcessedData5CloneEv@Base 5.2.0
 _ZN12ossimplugins26DataHistogramProcessedData5WriteERSo@Base 5.2.0
 _ZN12ossimplugins26DataHistogramProcessedDataC1ERKS0_@Base 5.2.0
 _ZN12ossimplugins26DataHistogramProcessedDataC1Ev@Base 5.2.0
 _ZN12ossimplugins26DataHistogramProcessedDataC2ERKS0_@Base 5.2.0
 _ZN12ossimplugins26DataHistogramProcessedDataC2Ev@Base 5.2.0
 _ZN12ossimplugins26DataHistogramProcessedDataD0Ev@Base 5.2.0
 _ZN12ossimplugins26DataHistogramProcessedDataD1Ev@Base 5.2.0
 _ZN12ossimplugins26DataHistogramProcessedDataD2Ev@Base 5.2.0
 _ZN12ossimplugins26DataHistogramProcessedDataaSERKS0_@Base 5.2.0
 _ZN12ossimplugins26ErsSarPlatformPositionData11InstanciateEv@Base 5.2.0
 _ZN12ossimplugins26ErsSarPlatformPositionData4ReadERSi@Base 5.2.0
 _ZN12ossimplugins26ErsSarPlatformPositionData5CloneEv@Base 5.2.0
 _ZN12ossimplugins26ErsSarPlatformPositionData5WriteERSo@Base 5.2.0
 _ZN12ossimplugins26ErsSarPlatformPositionDataC1ERKS0_@Base 5.2.0
 _ZN12ossimplugins26ErsSarPlatformPositionDataC1Ev@Base 5.2.0
 _ZN12ossimplugins26ErsSarPlatformPositionDataC2ERKS0_@Base 5.2.0
 _ZN12ossimplugins26ErsSarPlatformPositionDataC2Ev@Base 5.2.0
 _ZN12ossimplugins26ErsSarPlatformPositionDataD0Ev@Base 5.2.0
 _ZN12ossimplugins26ErsSarPlatformPositionDataD1Ev@Base 5.2.0
 _ZN12ossimplugins26ErsSarPlatformPositionDataD2Ev@Base 5.2.0
 _ZN12ossimplugins26ErsSarPlatformPositionDataaSERKS0_@Base 5.2.0
 _ZN12ossimplugins26ErsSarPositionVectorRecordC1ERKS0_@Base 5.2.0
 _ZN12ossimplugins26ErsSarPositionVectorRecordC1Ev@Base 5.2.0
 _ZN12ossimplugins26ErsSarPositionVectorRecordC2ERKS0_@Base 5.2.0
 _ZN12ossimplugins26ErsSarPositionVectorRecordC2Ev@Base 5.2.0
 _ZN12ossimplugins26ErsSarPositionVectorRecordD0Ev@Base 5.2.0
 _ZN12ossimplugins26ErsSarPositionVectorRecordD1Ev@Base 5.2.0
 _ZN12ossimplugins26ErsSarPositionVectorRecordD2Ev@Base 5.2.0
 _ZN12ossimplugins26ErsSarPositionVectorRecordaSERKS0_@Base 5.2.0
 _ZN12ossimplugins26ImageOptionsFileDescriptor11InstanciateEv@Base 5.2.0
 _ZN12ossimplugins26ImageOptionsFileDescriptor4ReadERSi@Base 5.2.0
 _ZN12ossimplugins26ImageOptionsFileDescriptor5CloneEv@Base 5.2.0
 _ZN12ossimplugins26ImageOptionsFileDescriptor5WriteERSo@Base 5.2.0
 _ZN12ossimplugins26ImageOptionsFileDescriptorC1ERKS0_@Base 5.2.0
 _ZN12ossimplugins26ImageOptionsFileDescriptorC1Ev@Base 5.2.0
 _ZN12ossimplugins26ImageOptionsFileDescriptorC2ERKS0_@Base 5.2.0
 _ZN12ossimplugins26ImageOptionsFileDescriptorC2Ev@Base 5.2.0
 _ZN12ossimplugins26ImageOptionsFileDescriptorD0Ev@Base 5.2.0
 _ZN12ossimplugins26ImageOptionsFileDescriptorD1Ev@Base 5.2.0
 _ZN12ossimplugins26ImageOptionsFileDescriptorD2Ev@Base 5.2.0
 _ZN12ossimplugins26ImageOptionsFileDescriptoraSERKS0_@Base 5.2.0
 _ZN12ossimplugins26ossimSpot6DimapSupportData11clearFieldsEv@Base 5.2.0
 _ZN12ossimplugins26ossimSpot6DimapSupportData12parseXmlFileERK13ossimFilename@Base 5.2.0
 _ZN12ossimplugins26ossimSpot6DimapSupportData15parseRasterDataE11ossimRefPtrI16ossimXmlDocumentE@Base 5.2.0
 _ZN12ossimplugins26ossimSpot6DimapSupportData16parseGeopositionE11ossimRefPtrI16ossimXmlDocumentE@Base 5.2.0
 _ZN12ossimplugins26ossimSpot6DimapSupportData16parseRPCMetadataE11ossimRefPtrI16ossimXmlDocumentE@Base 5.2.0
 _ZN12ossimplugins26ossimSpot6DimapSupportData18parseGeometricDataE11ossimRefPtrI16ossimXmlDocumentE@Base 5.2.0
 _ZN12ossimplugins26ossimSpot6DimapSupportData19parseDatasetContentE11ossimRefPtrI16ossimXmlDocumentE@Base 5.2.0
 _ZN12ossimplugins26ossimSpot6DimapSupportData19parseDatasetSourcesE11ossimRefPtrI16ossimXmlDocumentE@Base 5.2.0
 _ZN12ossimplugins26ossimSpot6DimapSupportData20parseRadiometricDataE11ossimRefPtrI16ossimXmlDocumentE@Base 5.2.0
 _ZN12ossimplugins26ossimSpot6DimapSupportData22parseQualityAssessmentE11ossimRefPtrI16ossimXmlDocumentE@Base 5.2.0
 _ZN12ossimplugins26ossimSpot6DimapSupportData23parseProductInformationE11ossimRefPtrI16ossimXmlDocumentE@Base 5.2.0
 _ZN12ossimplugins26ossimSpot6DimapSupportData26parseDatasetIdentificationE11ossimRefPtrI16ossimXmlDocumentE@Base 5.2.0
 _ZN12ossimplugins26ossimSpot6DimapSupportData26parseProcessingInformationE11ossimRefPtrI16ossimXmlDocumentE@Base 5.2.0
 _ZN12ossimplugins26ossimSpot6DimapSupportData30parseCoordinateReferenceSystemE11ossimRefPtrI16ossimXmlDocumentE@Base 5.2.0
 _ZN12ossimplugins26ossimSpot6DimapSupportData34parseMetadataIdentificationDIMAPv2E11ossimRefPtrI16ossimXmlDocumentE@Base 5.2.0
 _ZN12ossimplugins26ossimSpot6DimapSupportData9loadStateERK16ossimKeywordlistPKc@Base 5.2.0
 _ZN12ossimplugins26ossimSpot6DimapSupportDataC1Ev@Base 5.2.0
 _ZN12ossimplugins26ossimSpot6DimapSupportDataC2Ev@Base 5.2.0
 _ZN12ossimplugins26ossimSpot6DimapSupportDataD0Ev@Base 5.2.0
 _ZN12ossimplugins26ossimSpot6DimapSupportDataD1Ev@Base 5.2.0
 _ZN12ossimplugins26ossimSpot6DimapSupportDataD2Ev@Base 5.2.0
 _ZN12ossimplugins27AlosPalsarMapProjectionData11InstanciateEv@Base 5.2.0
 _ZN12ossimplugins27AlosPalsarMapProjectionData4ReadERSi@Base 5.2.0
 _ZN12ossimplugins27AlosPalsarMapProjectionData5CloneEv@Base 5.2.0
 _ZN12ossimplugins27AlosPalsarMapProjectionData5WriteERSo@Base 5.2.0
 _ZN12ossimplugins27AlosPalsarMapProjectionDataC1ERKS0_@Base 5.2.0
 _ZN12ossimplugins27AlosPalsarMapProjectionDataC1Ev@Base 5.2.0
 _ZN12ossimplugins27AlosPalsarMapProjectionDataC2ERKS0_@Base 5.2.0
 _ZN12ossimplugins27AlosPalsarMapProjectionDataC2Ev@Base 5.2.0
 _ZN12ossimplugins27AlosPalsarMapProjectionDataD0Ev@Base 5.2.0
 _ZN12ossimplugins27AlosPalsarMapProjectionDataD1Ev@Base 5.2.0
 _ZN12ossimplugins27AlosPalsarMapProjectionDataD2Ev@Base 5.2.0
 _ZN12ossimplugins27AlosPalsarMapProjectionDataaSERKS0_@Base 5.2.0
 _ZN12ossimplugins27RadiometricCompensationData11InstanciateEv@Base 5.2.0
 _ZN12ossimplugins27RadiometricCompensationData4ReadERSi@Base 5.2.0
 _ZN12ossimplugins27RadiometricCompensationData5CloneEv@Base 5.2.0
 _ZN12ossimplugins27RadiometricCompensationData5WriteERSo@Base 5.2.0
 _ZN12ossimplugins27RadiometricCompensationDataC1ERKS0_@Base 5.2.0
 _ZN12ossimplugins27RadiometricCompensationDataC1Ev@Base 5.2.0
 _ZN12ossimplugins27RadiometricCompensationDataC2ERKS0_@Base 5.2.0
 _ZN12ossimplugins27RadiometricCompensationDataC2Ev@Base 5.2.0
 _ZN12ossimplugins27RadiometricCompensationDataD0Ev@Base 5.2.0
 _ZN12ossimplugins27RadiometricCompensationDataD1Ev@Base 5.2.0
 _ZN12ossimplugins27RadiometricCompensationDataD2Ev@Base 5.2.0
 _ZN12ossimplugins27RadiometricCompensationDataaSERKS0_@Base 5.2.0
 _ZN12ossimplugins27RadiometryUncertaintyRecordC1ERKS0_@Base 5.2.0
 _ZN12ossimplugins27RadiometryUncertaintyRecordC1Ev@Base 5.2.0
 _ZN12ossimplugins27RadiometryUncertaintyRecordC2ERKS0_@Base 5.2.0
 _ZN12ossimplugins27RadiometryUncertaintyRecordC2Ev@Base 5.2.0
 _ZN12ossimplugins27RadiometryUncertaintyRecordD1Ev@Base 5.2.0
 _ZN12ossimplugins27RadiometryUncertaintyRecordD2Ev@Base 5.2.0
 _ZN12ossimplugins27RadiometryUncertaintyRecordaSERKS0_@Base 5.2.0
 _ZN12ossimplugins28AlosPalsarDataFileDescriptor11InstanciateEv@Base 5.2.0
 _ZN12ossimplugins28AlosPalsarDataFileDescriptor4ReadERSi@Base 5.2.0
 _ZN12ossimplugins28AlosPalsarDataFileDescriptor5CloneEv@Base 5.2.0
 _ZN12ossimplugins28AlosPalsarDataFileDescriptor5WriteERSo@Base 5.2.0
 _ZN12ossimplugins28AlosPalsarDataFileDescriptorC1ERKS0_@Base 5.2.0
 _ZN12ossimplugins28AlosPalsarDataFileDescriptorC1Ev@Base 5.2.0
 _ZN12ossimplugins28AlosPalsarDataFileDescriptorC2ERKS0_@Base 5.2.0
 _ZN12ossimplugins28AlosPalsarDataFileDescriptorC2Ev@Base 5.2.0
 _ZN12ossimplugins28AlosPalsarDataFileDescriptorD0Ev@Base 5.2.0
 _ZN12ossimplugins28AlosPalsarDataFileDescriptorD1Ev@Base 5.2.0
 _ZN12ossimplugins28AlosPalsarDataFileDescriptorD2Ev@Base 5.2.0
 _ZN12ossimplugins28AlosPalsarDataFileDescriptoraSERKS0_@Base 5.2.0
 _ZN12ossimplugins28ossimGeometricSarSensorModel10RTTI_scastEiPv@Base 5.2.0
 _ZN12ossimplugins28ossimGeometricSarSensorModel10getGCPlistERSt4listI8ossimGptSaIS2_EERS1_I8ossimDptSaIS6_EE@Base 5.2.0
 _ZN12ossimplugins28ossimGeometricSarSensorModel12clearGCPlistEv@Base 5.2.0
 _ZN12ossimplugins28ossimGeometricSarSensorModel12set_refPointEPNS_8RefPointE@Base 5.2.0
 _ZN12ossimplugins28ossimGeometricSarSensorModel13optimizeModelERKSt4listI8ossimGptSaIS2_EERKS1_I8ossimDptSaIS7_EE@Base 5.2.0
 _ZN12ossimplugins28ossimGeometricSarSensorModel16set_sensorParamsEPNS_12SensorParamsE@Base 5.2.0
 _ZN12ossimplugins28ossimGeometricSarSensorModel18CREATE_OCG_PREF_KWE@Base 5.2.0
 _ZN12ossimplugins28ossimGeometricSarSensorModel20createReplacementOCGEv@Base 5.2.0
 _ZN12ossimplugins28ossimGeometricSarSensorModel20set_platformPositionEPNS_16PlatformPositionE@Base 5.2.0
 _ZN12ossimplugins28ossimGeometricSarSensorModel25getPlatformPositionAtLineEdRSt6vectorIdSaIdEES4_@Base 5.2.0
 _ZN12ossimplugins28ossimGeometricSarSensorModel8RTTI_objE@Base 5.2.0
 _ZN12ossimplugins28ossimGeometricSarSensorModel9RTTI_castE10RTTItypeid@Base 5.2.0
 _ZN12ossimplugins28ossimGeometricSarSensorModel9loadStateERK16ossimKeywordlistPKc@Base 5.2.0
 _ZN12ossimplugins28ossimGeometricSarSensorModelC1ERKS0_@Base 5.2.0
 _ZN12ossimplugins28ossimGeometricSarSensorModelC1Ev@Base 5.2.0
 _ZN12ossimplugins28ossimGeometricSarSensorModelC2ERKS0_@Base 5.2.0
 _ZN12ossimplugins28ossimGeometricSarSensorModelC2Ev@Base 5.2.0
 _ZN12ossimplugins28ossimGeometricSarSensorModelD0Ev@Base 5.2.0
 _ZN12ossimplugins28ossimGeometricSarSensorModelD1Ev@Base 5.2.0
 _ZN12ossimplugins28ossimGeometricSarSensorModelD2Ev@Base 5.2.0
 _ZN12ossimplugins28ossimPluginProjectionFactory11initalized_E@Base 5.2.0
 _ZN12ossimplugins28ossimPluginProjectionFactory15factoryInstanceE@Base 5.2.0
 _ZN12ossimplugins28ossimPluginProjectionFactory8instanceEv@Base 5.2.0
 _ZN12ossimplugins28ossimPluginProjectionFactoryD0Ev@Base 5.2.0
 _ZN12ossimplugins28ossimPluginProjectionFactoryD1Ev@Base 5.2.0
 _ZN12ossimplugins28ossimPluginProjectionFactoryD2Ev@Base 5.2.0
 _ZN12ossimplugins29DopplerCentroidEstimateRecordC1ERKS0_@Base 5.2.0
 _ZN12ossimplugins29DopplerCentroidEstimateRecordC1Ev@Base 5.2.0
 _ZN12ossimplugins29DopplerCentroidEstimateRecordC2ERKS0_@Base 5.2.0
 _ZN12ossimplugins29DopplerCentroidEstimateRecordC2Ev@Base 5.2.0
 _ZN12ossimplugins29DopplerCentroidEstimateRecordD1Ev@Base 5.2.0
 _ZN12ossimplugins29DopplerCentroidEstimateRecordD2Ev@Base 5.2.0
 _ZN12ossimplugins29DopplerCentroidEstimateRecordaSERKS0_@Base 5.2.0
 _ZN12ossimplugins29ossimPleiadesDimapSupportData11clearFieldsEv@Base 5.2.0
 _ZN12ossimplugins29ossimPleiadesDimapSupportData12parseXmlFileERK13ossimFilename@Base 5.2.0
 _ZN12ossimplugins29ossimPleiadesDimapSupportData15parseRasterDataE11ossimRefPtrI16ossimXmlDocumentE@Base 5.2.0
 _ZN12ossimplugins29ossimPleiadesDimapSupportData16parseGeopositionE11ossimRefPtrI16ossimXmlDocumentE@Base 5.2.0
 _ZN12ossimplugins29ossimPleiadesDimapSupportData16parseRPCMetadataE11ossimRefPtrI16ossimXmlDocumentE@Base 5.2.0
 _ZN12ossimplugins29ossimPleiadesDimapSupportData18parseGeometricDataE11ossimRefPtrI16ossimXmlDocumentE@Base 5.2.0
 _ZN12ossimplugins29ossimPleiadesDimapSupportData19parseDatasetContentE11ossimRefPtrI16ossimXmlDocumentE@Base 5.2.0
 _ZN12ossimplugins29ossimPleiadesDimapSupportData19parseDatasetSourcesE11ossimRefPtrI16ossimXmlDocumentE@Base 5.2.0
 _ZN12ossimplugins29ossimPleiadesDimapSupportData20parseRadiometricDataE11ossimRefPtrI16ossimXmlDocumentE@Base 5.2.0
 _ZN12ossimplugins29ossimPleiadesDimapSupportData22parseQualityAssessmentE11ossimRefPtrI16ossimXmlDocumentE@Base 5.2.0
 _ZN12ossimplugins29ossimPleiadesDimapSupportData23parseProductInformationE11ossimRefPtrI16ossimXmlDocumentE@Base 5.2.0
 _ZN12ossimplugins29ossimPleiadesDimapSupportData26parseDatasetIdentificationE11ossimRefPtrI16ossimXmlDocumentE@Base 5.2.0
 _ZN12ossimplugins29ossimPleiadesDimapSupportData26parseProcessingInformationE11ossimRefPtrI16ossimXmlDocumentE@Base 5.2.0
 _ZN12ossimplugins29ossimPleiadesDimapSupportData30parseCoordinateReferenceSystemE11ossimRefPtrI16ossimXmlDocumentE@Base 5.2.0
 _ZN12ossimplugins29ossimPleiadesDimapSupportData34parseMetadataIdentificationDIMAPv1E11ossimRefPtrI16ossimXmlDocumentE@Base 5.2.0
 _ZN12ossimplugins29ossimPleiadesDimapSupportData34parseMetadataIdentificationDIMAPv2E11ossimRefPtrI16ossimXmlDocumentE@Base 5.2.0
 _ZN12ossimplugins29ossimPleiadesDimapSupportData9loadStateERK16ossimKeywordlistPKc@Base 5.2.0
 _ZN12ossimplugins29ossimPleiadesDimapSupportDataC1Ev@Base 5.2.0
 _ZN12ossimplugins29ossimPleiadesDimapSupportDataC2Ev@Base 5.2.0
 _ZN12ossimplugins29ossimPleiadesDimapSupportDataD0Ev@Base 5.2.0
 _ZN12ossimplugins29ossimPleiadesDimapSupportDataD1Ev@Base 5.2.0
 _ZN12ossimplugins29ossimPleiadesDimapSupportDataD2Ev@Base 5.2.0
 _ZN12ossimplugins30AlosPalsarPlatformPositionData11InstanciateEv@Base 5.2.0
 _ZN12ossimplugins30AlosPalsarPlatformPositionData4ReadERSi@Base 5.2.0
 _ZN12ossimplugins30AlosPalsarPlatformPositionData5CloneEv@Base 5.2.0
 _ZN12ossimplugins30AlosPalsarPlatformPositionData5WriteERSo@Base 5.2.0
 _ZN12ossimplugins30AlosPalsarPlatformPositionDataC1ERKS0_@Base 5.2.0
 _ZN12ossimplugins30AlosPalsarPlatformPositionDataC1Ev@Base 5.2.0
 _ZN12ossimplugins30AlosPalsarPlatformPositionDataC2ERKS0_@Base 5.2.0
 _ZN12ossimplugins30AlosPalsarPlatformPositionDataC2Ev@Base 5.2.0
 _ZN12ossimplugins30AlosPalsarPlatformPositionDataD0Ev@Base 5.2.0
 _ZN12ossimplugins30AlosPalsarPlatformPositionDataD1Ev@Base 5.2.0
 _ZN12ossimplugins30AlosPalsarPlatformPositionDataD2Ev@Base 5.2.0
 _ZN12ossimplugins30AlosPalsarPlatformPositionDataaSERKS0_@Base 5.2.0
 _ZN12ossimplugins30AlosPalsarPositionVectorRecordC1ERKS0_@Base 5.2.0
 _ZN12ossimplugins30AlosPalsarPositionVectorRecordC1Ev@Base 5.2.0
 _ZN12ossimplugins30AlosPalsarPositionVectorRecordC2ERKS0_@Base 5.2.0
 _ZN12ossimplugins30AlosPalsarPositionVectorRecordC2Ev@Base 5.2.0
 _ZN12ossimplugins30AlosPalsarPositionVectorRecordD1Ev@Base 5.2.0
 _ZN12ossimplugins30AlosPalsarPositionVectorRecordD2Ev@Base 5.2.0
 _ZN12ossimplugins30AlosPalsarPositionVectorRecordaSERKS0_@Base 5.2.0
 _ZN12ossimplugins3dsd11InstanciateEv@Base 5.2.0
 _ZN12ossimplugins3dsd4ReadERSi@Base 5.2.0
 _ZN12ossimplugins3dsd5CloneEv@Base 5.2.0
 _ZN12ossimplugins3dsd5WriteERSo@Base 5.2.0
 _ZN12ossimplugins3dsdC1ERKS0_@Base 5.2.0
 _ZN12ossimplugins3dsdC1Ev@Base 5.2.0
 _ZN12ossimplugins3dsdC2ERKS0_@Base 5.2.0
 _ZN12ossimplugins3dsdC2Ev@Base 5.2.0
 _ZN12ossimplugins3dsdD0Ev@Base 5.2.0
 _ZN12ossimplugins3dsdD1Ev@Base 5.2.0
 _ZN12ossimplugins3dsdD2Ev@Base 5.2.0
 _ZN12ossimplugins3dsdaSERKS0_@Base 5.2.0
 _ZN12ossimplugins3mph11InstanciateEv@Base 5.2.0
 _ZN12ossimplugins3mph4ReadERSi@Base 5.2.0
 _ZN12ossimplugins3mph5CloneEv@Base 5.2.0
 _ZN12ossimplugins3mph5WriteERSo@Base 5.2.0
 _ZN12ossimplugins3mphC1ERKS0_@Base 5.2.0
 _ZN12ossimplugins3mphC1Ev@Base 5.2.0
 _ZN12ossimplugins3mphC2ERKS0_@Base 5.2.0
 _ZN12ossimplugins3mphC2Ev@Base 5.2.0
 _ZN12ossimplugins3mphD0Ev@Base 5.2.0
 _ZN12ossimplugins3mphD1Ev@Base 5.2.0
 _ZN12ossimplugins3mphD2Ev@Base 5.2.0
 _ZN12ossimplugins3mphaSERKS0_@Base 5.2.0
 _ZN12ossimplugins3sph11InstanciateEv@Base 5.2.0
 _ZN12ossimplugins3sph4ReadERSi@Base 5.2.0
 _ZN12ossimplugins3sph5CloneEv@Base 5.2.0
 _ZN12ossimplugins3sph5WriteERSo@Base 5.2.0
 _ZN12ossimplugins3sphC1ERKNS_3mphE@Base 5.2.0
 _ZN12ossimplugins3sphC1ERKS0_@Base 5.2.0
 _ZN12ossimplugins3sphC1Ev@Base 5.2.0
 _ZN12ossimplugins3sphC2ERKNS_3mphE@Base 5.2.0
 _ZN12ossimplugins3sphC2ERKS0_@Base 5.2.0
 _ZN12ossimplugins3sphC2Ev@Base 5.2.0
 _ZN12ossimplugins3sphD0Ev@Base 5.2.0
 _ZN12ossimplugins3sphD1Ev@Base 5.2.0
 _ZN12ossimplugins3sphD2Ev@Base 5.2.0
 _ZN12ossimplugins3sphaSERKS0_@Base 5.2.0
 _ZN12ossimplugins4Data12ClearRecordsEv@Base 5.2.0
 _ZN12ossimplugins4Data12InsertRecordEiPNS_14RadarSatRecordE@Base 5.2.0
 _ZN12ossimplugins4Data25LastProcessedDataRecordIDE@Base 5.2.0
 _ZN12ossimplugins4Data26FirstProcessedDataRecordIDE@Base 5.2.0
 _ZN12ossimplugins4Data27get_LastProcessedDataRecordEv@Base 5.2.0
 _ZN12ossimplugins4Data28ImageOptionsFileDescriptorIDE@Base 5.2.0
 _ZN12ossimplugins4Data28get_FirstProcessedDataRecordEv@Base 5.2.0
 _ZN12ossimplugins4Data30get_ImageOptionsFileDescriptorEv@Base 5.2.0
 _ZN12ossimplugins4DataC1ERKS0_@Base 5.2.0
 _ZN12ossimplugins4DataC1Ev@Base 5.2.0
 _ZN12ossimplugins4DataC2ERKS0_@Base 5.2.0
 _ZN12ossimplugins4DataC2Ev@Base 5.2.0
 _ZN12ossimplugins4DataD1Ev@Base 5.2.0
 _ZN12ossimplugins4DataD2Ev@Base 5.2.0
 _ZN12ossimplugins4DataaSERKS0_@Base 5.2.0
 _ZN12ossimplugins5Noise9loadStateERK16ossimKeywordlistPKc@Base 5.2.0
 _ZN12ossimplugins5NoiseC1ERKS0_@Base 5.2.0
 _ZN12ossimplugins5NoiseC1Ev@Base 5.2.0
 _ZN12ossimplugins5NoiseC2ERKS0_@Base 5.2.0
 _ZN12ossimplugins5NoiseC2Ev@Base 5.2.0
 _ZN12ossimplugins5NoiseD0Ev@Base 5.2.0
 _ZN12ossimplugins5NoiseD1Ev@Base 5.2.0
 _ZN12ossimplugins5NoiseD2Ev@Base 5.2.0
 _ZN12ossimplugins5NoiseaSERKS0_@Base 5.2.0
 _ZN12ossimplugins5fnintEd@Base 5.2.0
 _ZN12ossimplugins5inintEd@Base 5.2.0
 _ZN12ossimplugins5ossim13findFirstNodeERK11ossimString11ossimRefPtrI12ossimXmlNodeERS1_@Base 5.2.0
 _ZN12ossimplugins5ossim28iso8601TimeStringToCivilDateERKSsRNS_13CivilDateTimeE@Base 5.2.0
 _ZN12ossimplugins5ossim7getPathERK11ossimStringPK16ossimXmlDocumentRS1_@Base 5.2.0
 _ZN12ossimplugins5ossim7getPathERK11ossimStringPK16ossimXmlDocumentRSt6vectorIS1_SaIS1_EE@Base 5.2.0
 _ZN12ossimplugins6Leader12ClearRecordsEv@Base 5.2.0
 _ZN12ossimplugins6Leader13DataQualityIDE@Base 5.2.0
 _ZN12ossimplugins6Leader14AttitudeDataIDE@Base 5.2.0
 _ZN12ossimplugins6Leader15get_DataQualityEv@Base 5.2.0
 _ZN12ossimplugins6Leader16DataSetSummaryIDE@Base 5.2.0
 _ZN12ossimplugins6Leader16FileDescriptorIDE@Base 5.2.0
 _ZN12ossimplugins6Leader16get_AttitudeDataEv@Base 5.2.0
 _ZN12ossimplugins6Leader17RadiometricDataIDE@Base 5.2.0
 _ZN12ossimplugins6Leader18get_DataSetSummaryEv@Base 5.2.0
 _ZN12ossimplugins6Leader18get_FileDescriptorEv@Base 5.2.0
 _ZN12ossimplugins6Leader19get_RadiometricDataEv@Base 5.2.0
 _ZN12ossimplugins6Leader22PlatformPositionDataIDE@Base 5.2.0
 _ZN12ossimplugins6Leader22ProcessingParametersIDE@Base 5.2.0
 _ZN12ossimplugins6Leader24get_PlatformPositionDataEv@Base 5.2.0
 _ZN12ossimplugins6Leader24get_ProcessingParametersEv@Base 5.2.0
 _ZN12ossimplugins6Leader25DataHistogramSignalDataIDE@Base 5.2.0
 _ZN12ossimplugins6Leader27get_DataHistogramSignalDataEv@Base 5.2.0
 _ZN12ossimplugins6Leader28DataHistogramProcessedDataIDE@Base 5.2.0
 _ZN12ossimplugins6Leader29RadiometricCompensationDataIDE@Base 5.2.0
 _ZN12ossimplugins6Leader30get_DataHistogramProcessedDataEv@Base 5.2.0
 _ZN12ossimplugins6Leader31get_RadiometricCompensationDataEv@Base 5.2.0
 _ZN12ossimplugins6LeaderC1ERKS0_@Base 5.2.0
 _ZN12ossimplugins6LeaderC1Ev@Base 5.2.0
 _ZN12ossimplugins6LeaderC2ERKS0_@Base 5.2.0
 _ZN12ossimplugins6LeaderC2Ev@Base 5.2.0
 _ZN12ossimplugins6LeaderD1Ev@Base 5.2.0
 _ZN12ossimplugins6LeaderD2Ev@Base 5.2.0
 _ZN12ossimplugins6LeaderaSERKS0_@Base 5.2.0
 _ZN12ossimplugins6SensorC1EPNS_12SensorParamsEPNS_16PlatformPositionE@Base 5.2.0
 _ZN12ossimplugins6SensorC2EPNS_12SensorParamsEPNS_16PlatformPositionE@Base 5.2.0
 _ZN12ossimplugins6SensorD0Ev@Base 5.2.0
 _ZN12ossimplugins6SensorD1Ev@Base 5.2.0
 _ZN12ossimplugins6SensorD2Ev@Base 5.2.0
 _ZN12ossimplugins7SQ_ADSR11InstanciateEv@Base 5.2.0
 _ZN12ossimplugins7SQ_ADSR4ReadERSi@Base 5.2.0
 _ZN12ossimplugins7SQ_ADSR5CloneEv@Base 5.2.0
 _ZN12ossimplugins7SQ_ADSR5WriteERSo@Base 5.2.0
 _ZN12ossimplugins7SQ_ADSRC1ERKS0_@Base 5.2.0
 _ZN12ossimplugins7SQ_ADSRC1Ev@Base 5.2.0
 _ZN12ossimplugins7SQ_ADSRC2ERKS0_@Base 5.2.0
 _ZN12ossimplugins7SQ_ADSRC2Ev@Base 5.2.0
 _ZN12ossimplugins7SQ_ADSRD0Ev@Base 5.2.0
 _ZN12ossimplugins7SQ_ADSRD1Ev@Base 5.2.0
 _ZN12ossimplugins7SQ_ADSRD2Ev@Base 5.2.0
 _ZN12ossimplugins7SQ_ADSRaSERKS0_@Base 5.2.0
 _ZN12ossimplugins7Trailer12ClearRecordsEv@Base 5.2.0
 _ZN12ossimplugins7Trailer13DataQualityIDE@Base 5.2.0
 _ZN12ossimplugins7Trailer14AttitudeDataIDE@Base 5.2.0
 _ZN12ossimplugins7Trailer15get_DataQualityEv@Base 5.2.0
 _ZN12ossimplugins7Trailer16DataSetSummaryIDE@Base 5.2.0
 _ZN12ossimplugins7Trailer16FileDescriptorIDE@Base 5.2.0
 _ZN12ossimplugins7Trailer16get_AttitudeDataEv@Base 5.2.0
 _ZN12ossimplugins7Trailer17RadiometricDataIDE@Base 5.2.0
 _ZN12ossimplugins7Trailer18get_DataSetSummaryEv@Base 5.2.0
 _ZN12ossimplugins7Trailer18get_FileDescriptorEv@Base 5.2.0
 _ZN12ossimplugins7Trailer19get_RadiometricDataEv@Base 5.2.0
 _ZN12ossimplugins7Trailer22ProcessingParametersIDE@Base 5.2.0
 _ZN12ossimplugins7Trailer24get_ProcessingParametersEv@Base 5.2.0
 _ZN12ossimplugins7Trailer25DataHistogramSignalDataIDE@Base 5.2.0
 _ZN12ossimplugins7Trailer27get_DataHistogramSignalDataEv@Base 5.2.0
 _ZN12ossimplugins7Trailer29DataHistogramProcessedData8IDE@Base 5.2.0
 _ZN12ossimplugins7Trailer29RadiometricCompensationDataIDE@Base 5.2.0
 _ZN12ossimplugins7Trailer31get_DataHistogramProcessedData8Ev@Base 5.2.0
 _ZN12ossimplugins7Trailer31get_RadiometricCompensationDataEv@Base 5.2.0
 _ZN12ossimplugins7TrailerC1ERKS0_@Base 5.2.0
 _ZN12ossimplugins7TrailerC1Ev@Base 5.2.0
 _ZN12ossimplugins7TrailerC2ERKS0_@Base 5.2.0
 _ZN12ossimplugins7TrailerC2Ev@Base 5.2.0
 _ZN12ossimplugins7TrailerD1Ev@Base 5.2.0
 _ZN12ossimplugins7TrailerD2Ev@Base 5.2.0
 _ZN12ossimplugins7TraileraSERKS0_@Base 5.2.0
 _ZN12ossimplugins8Equation13NormalisationEv@Base 5.2.0
 _ZN12ossimplugins8Equation14CreateEquationEiPSt7complexIdE@Base 5.2.0
 _ZN12ossimplugins8Equation15DeNormalisationEv@Base 5.2.0
 _ZN12ossimplugins8Equation15TestDegree4QuadEPSt7complexIdEd@Base 5.2.0
 _ZN12ossimplugins8Equation17ComputeTrueDegreeEv@Base 5.2.0
 _ZN12ossimplugins8Equation17TestDegree3TripleEPSt7complexIdEd@Base 5.2.0
 _ZN12ossimplugins8Equation23TestDegree3SimpleDoubleEPSt7complexIdEd@Base 5.2.0
 _ZN12ossimplugins8Equation23TestDegree4DoubleDoubleEPSt7complexIdES3_d@Base 5.2.0
 _ZN12ossimplugins8Equation23TestDegree4SimpleTripleEPSt7complexIdES3_d@Base 5.2.0
 _ZN12ossimplugins8Equation28TestDegreeSimpleSimpleDoubleEPSt7complexIdEd@Base 5.2.0
 _ZN12ossimplugins8Equation5SolveEv@Base 5.2.0
 _ZN12ossimplugins8Equation6ProcheESt7complexIdEd@Base 5.2.0
 _ZN12ossimplugins8Equation6Solve1Ev@Base 5.2.0
 _ZN12ossimplugins8Equation6Solve2Ev@Base 5.2.0
 _ZN12ossimplugins8Equation6Solve3Ei@Base 5.2.0
 _ZN12ossimplugins8Equation6Solve4Ev@Base 5.2.0
 _ZN12ossimplugins8Equation7EpsilonE@Base 5.2.0
 _ZN12ossimplugins8Equation9IndiceMaxEiPd@Base 5.2.0
 _ZN12ossimplugins8Equation9IndiceMinEiPd@Base 5.2.0
 _ZN12ossimplugins8EquationC1ERKS0_@Base 5.2.0
 _ZN12ossimplugins8EquationC1EiPSt7complexIdE@Base 5.2.0
 _ZN12ossimplugins8EquationC1Ev@Base 5.2.0
 _ZN12ossimplugins8EquationC2ERKS0_@Base 5.2.0
 _ZN12ossimplugins8EquationC2EiPSt7complexIdE@Base 5.2.0
 _ZN12ossimplugins8EquationC2Ev@Base 5.2.0
 _ZN12ossimplugins8EquationD1Ev@Base 5.2.0
 _ZN12ossimplugins8EquationD2Ev@Base 5.2.0
 _ZN12ossimplugins8EquationaSERKS0_@Base 5.2.0
 _ZN12ossimplugins8RefPoint11set_pix_colEd@Base 5.2.0
 _ZN12ossimplugins8RefPoint12set_distanceEd@Base 5.2.0
 _ZN12ossimplugins8RefPoint12set_pix_lineEd@Base 5.2.0
 _ZN12ossimplugins8RefPoint13get_ephemerisEv@Base 5.2.0
 _ZN12ossimplugins8RefPoint13set_ephemerisEPNS_9EphemerisE@Base 5.2.0
 _ZN12ossimplugins8RefPoint9loadStateERK16ossimKeywordlistPKc@Base 5.2.0
 _ZN12ossimplugins8RefPointC1ERKS0_@Base 5.2.0
 _ZN12ossimplugins8RefPointC1Ev@Base 5.2.0
 _ZN12ossimplugins8RefPointC2ERKS0_@Base 5.2.0
 _ZN12ossimplugins8RefPointC2Ev@Base 5.2.0
 _ZN12ossimplugins8RefPointD1Ev@Base 5.2.0
 _ZN12ossimplugins8RefPointD2Ev@Base 5.2.0
 _ZN12ossimplugins8RefPointaSERKS0_@Base 5.2.0
 _ZN12ossimplugins8_ds_nameE@Base 5.2.0
 _ZN12ossimplugins8_ds_sizeE@Base 5.2.0
 _ZN12ossimplugins8_ds_typeE@Base 5.2.0
 _ZN12ossimplugins8_num_dsrE@Base 5.2.0
 _ZN12ossimplugins9Ephemeris5CloneEv@Base 5.2.0
 _ZN12ossimplugins9Ephemeris9loadStateERK16ossimKeywordlistPKc@Base 5.2.0
 _ZN12ossimplugins9EphemerisC1ENS_11JSDDateTimeEPdS2_@Base 5.2.0
 _ZN12ossimplugins9EphemerisC1ERKS0_@Base 5.2.0
 _ZN12ossimplugins9EphemerisC1Ev@Base 5.2.0
 _ZN12ossimplugins9EphemerisC2ENS_11JSDDateTimeEPdS2_@Base 5.2.0
 _ZN12ossimplugins9EphemerisC2ERKS0_@Base 5.2.0
 _ZN12ossimplugins9EphemerisC2Ev@Base 5.2.0
 _ZN12ossimplugins9EphemerisD0Ev@Base 5.2.0
 _ZN12ossimplugins9EphemerisD1Ev@Base 5.2.0
 _ZN12ossimplugins9EphemerisD2Ev@Base 5.2.0
 _ZN12ossimplugins9EphemerisaSERKS0_@Base 5.2.0
 _ZN12ossimplugins9SarSensorC1EPNS_12SensorParamsEPNS_16PlatformPositionE@Base 5.2.0
 _ZN12ossimplugins9SarSensorC2EPNS_12SensorParamsEPNS_16PlatformPositionE@Base 5.2.0
 _ZN12ossimplugins9SarSensorD0Ev@Base 5.2.0
 _ZN12ossimplugins9SarSensorD1Ev@Base 5.2.0
 _ZN12ossimplugins9SarSensorD2Ev@Base 5.2.0
 _ZN12ossimplugins9VolumeDir12ClearRecordsEv@Base 5.2.0
 _ZN12ossimplugins9VolumeDir12TextRecordIDE@Base 5.2.0
 _ZN12ossimplugins9VolumeDir14get_TextRecordEv@Base 5.2.0
 _ZN12ossimplugins9VolumeDir24VolumeDescriptorRecordIDE@Base 5.2.0
 _ZN12ossimplugins9VolumeDir26get_VolumeDescriptorRecordEv@Base 5.2.0
 _ZN12ossimplugins9VolumeDir28SARLeaderFilePointerRecordIDE@Base 5.2.0
 _ZN12ossimplugins9VolumeDir29SARTrailerFilePointerRecordIDE@Base 5.2.0
 _ZN12ossimplugins9VolumeDir30get_SARLeaderFilePointerRecordEv@Base 5.2.0
 _ZN12ossimplugins9VolumeDir31ImageOptionsFilePointerRecordIDE@Base 5.2.0
 _ZN12ossimplugins9VolumeDir31get_SARTrailerFilePointerRecordEv@Base 5.2.0
 _ZN12ossimplugins9VolumeDir33get_ImageOptionsFilePointerRecordEv@Base 5.2.0
 _ZN12ossimplugins9VolumeDirC1ERKS0_@Base 5.2.0
 _ZN12ossimplugins9VolumeDirC1Ev@Base 5.2.0
 _ZN12ossimplugins9VolumeDirC2ERKS0_@Base 5.2.0
 _ZN12ossimplugins9VolumeDirC2Ev@Base 5.2.0
 _ZN12ossimplugins9VolumeDirD1Ev@Base 5.2.0
 _ZN12ossimplugins9VolumeDirD2Ev@Base 5.2.0
 _ZN12ossimplugins9VolumeDiraSERKS0_@Base 5.2.0
 _ZN12ossimplugins9_dsr_sizeE@Base 5.2.0
 _ZN12ossimplugins9_filenameE@Base 5.2.0
 _ZN12ossimpluginslsERSoRKNS_10TextRecordE@Base 5.2.0
 _ZN12ossimpluginslsERSoRKNS_11DataQualityE@Base 5.2.0
 _ZN12ossimpluginslsERSoRKNS_12AttitudeDataE@Base 5.2.0
 _ZN12ossimpluginslsERSoRKNS_12ErsSarLeaderE@Base 5.2.0
 _ZN12ossimpluginslsERSoRKNS_13CivilDateTimeE@Base 5.2.0
 _ZN12ossimpluginslsERSoRKNS_14AlosPalsarDataE@Base 5.2.0
 _ZN12ossimpluginslsERSoRKNS_14DataSetSummaryE@Base 5.2.0
 _ZN12ossimpluginslsERSoRKNS_14FileDescriptorE@Base 5.2.0
 _ZN12ossimpluginslsERSoRKNS_15ChirpParametersE@Base 5.2.0
 _ZN12ossimpluginslsERSoRKNS_15EnvisatAsarDataE@Base 5.2.0
 _ZN12ossimpluginslsERSoRKNS_15GeolocationGridE@Base 5.2.0
 _ZN12ossimpluginslsERSoRKNS_15RadiometricDataE@Base 5.2.0
 _ZN12ossimpluginslsERSoRKNS_16AlosPalsarLeaderE@Base 5.2.0
 _ZN12ossimpluginslsERSoRKNS_17FilePointerRecordE@Base 5.2.0
 _ZN12ossimpluginslsERSoRKNS_18ErsSarFacilityDataE@Base 5.2.0
 _ZN12ossimpluginslsERSoRKNS_18ErsSarRecordHeaderE@Base 5.2.0
 _ZN12ossimpluginslsERSoRKNS_19DataHistogramRecordE@Base 5.2.0
 _ZN12ossimpluginslsERSoRKNS_19DataPointDataRecordE@Base 5.2.0
 _ZN12ossimpluginslsERSoRKNS_19ProcessedDataRecordE@Base 5.2.0
 _ZN12ossimpluginslsERSoRKNS_20AlosPalsarSignalDataE@Base 5.2.0
 _ZN12ossimpluginslsERSoRKNS_20BeamPixelCountRecordE@Base 5.2.0
 _ZN12ossimpluginslsERSoRKNS_20ErsSarDataSetSummaryE@Base 5.2.0
 _ZN12ossimpluginslsERSoRKNS_20ErsSarFileDescriptorE@Base 5.2.0
 _ZN12ossimpluginslsERSoRKNS_20PlatformPositionDataE@Base 5.2.0
 _ZN12ossimpluginslsERSoRKNS_20PositionVectorRecordE@Base 5.2.0
 _ZN12ossimpluginslsERSoRKNS_20ProcessingParametersE@Base 5.2.0
 _ZN12ossimpluginslsERSoRKNS_20RadarSatRecordHeaderE@Base 5.2.0
 _ZN12ossimpluginslsERSoRKNS_21BeamInformationRecordE@Base 5.2.0
 _ZN12ossimpluginslsERSoRKNS_21MisregistrationRecordE@Base 5.2.0
 _ZN12ossimpluginslsERSoRKNS_22AlosPalsarFacilityDataE@Base 5.2.0
 _ZN12ossimpluginslsERSoRKNS_22AlosPalsarRecordHeaderE@Base 5.2.0
 _ZN12ossimpluginslsERSoRKNS_22CompensationDataRecordE@Base 5.2.0
 _ZN12ossimpluginslsERSoRKNS_22VolumeDescriptorRecordE@Base 5.2.0
 _ZN12ossimpluginslsERSoRKNS_23DataHistogramSignalDataE@Base 5.2.0
 _ZN12ossimpluginslsERSoRKNS_23ErsSarMapProjectionDataE@Base 5.2.0
 _ZN12ossimpluginslsERSoRKNS_24AlosPalsarDataSetSummaryE@Base 5.2.0
 _ZN12ossimpluginslsERSoRKNS_24AlosPalsarFileDescriptorE@Base 5.2.0
 _ZN12ossimpluginslsERSoRKNS_24AntennaElevationPatternsE@Base 5.2.0
 _ZN12ossimpluginslsERSoRKNS_24MainProcessingParametersE@Base 5.2.0
 _ZN12ossimpluginslsERSoRKNS_24SRGRCoefficientSetRecordE@Base 5.2.0
 _ZN12ossimpluginslsERSoRKNS_24SRGRConversionParametersE@Base 5.2.0
 _ZN12ossimpluginslsERSoRKNS_25AlosPalsarRadiometricDataE@Base 5.2.0
 _ZN12ossimpluginslsERSoRKNS_25DopplerCentroidParametersE@Base 5.2.0
 _ZN12ossimpluginslsERSoRKNS_25TemperatureSettingsRecordE@Base 5.2.0
 _ZN12ossimpluginslsERSoRKNS_26DataHistogramProcessedDataE@Base 5.2.0
 _ZN12ossimpluginslsERSoRKNS_26ErsSarPlatformPositionDataE@Base 5.2.0
 _ZN12ossimpluginslsERSoRKNS_26ErsSarPositionVectorRecordE@Base 5.2.0
 _ZN12ossimpluginslsERSoRKNS_26ImageOptionsFileDescriptorE@Base 5.2.0
 _ZN12ossimpluginslsERSoRKNS_27AlosPalsarMapProjectionDataE@Base 5.2.0
 _ZN12ossimpluginslsERSoRKNS_27RadiometricCompensationDataE@Base 5.2.0
 _ZN12ossimpluginslsERSoRKNS_27RadiometryUncertaintyRecordE@Base 5.2.0
 _ZN12ossimpluginslsERSoRKNS_28AlosPalsarDataFileDescriptorE@Base 5.2.0
 _ZN12ossimpluginslsERSoRKNS_29DopplerCentroidEstimateRecordE@Base 5.2.0
 _ZN12ossimpluginslsERSoRKNS_30AlosPalsarPlatformPositionDataE@Base 5.2.0
 _ZN12ossimpluginslsERSoRKNS_30AlosPalsarPositionVectorRecordE@Base 5.2.0
 _ZN12ossimpluginslsERSoRKNS_3dsdE@Base 5.2.0
 _ZN12ossimpluginslsERSoRKNS_3mphE@Base 5.2.0
 _ZN12ossimpluginslsERSoRKNS_3sphE@Base 5.2.0
 _ZN12ossimpluginslsERSoRKNS_4DataE@Base 5.2.0
 _ZN12ossimpluginslsERSoRKNS_6LeaderE@Base 5.2.0
 _ZN12ossimpluginslsERSoRKNS_7SQ_ADSRE@Base 5.2.0
 _ZN12ossimpluginslsERSoRKNS_7TrailerE@Base 5.2.0
 _ZN12ossimpluginslsERSoRKNS_9VolumeDirE@Base 5.2.0
 _ZN12ossimpluginsrsERSiRNS_10TextRecordE@Base 5.2.0
 _ZN12ossimpluginsrsERSiRNS_11DataQualityE@Base 5.2.0
 _ZN12ossimpluginsrsERSiRNS_12AttitudeDataE@Base 5.2.0
 _ZN12ossimpluginsrsERSiRNS_12ErsSarLeaderE@Base 5.2.0
 _ZN12ossimpluginsrsERSiRNS_14AlosPalsarDataE@Base 5.2.0
 _ZN12ossimpluginsrsERSiRNS_14DataSetSummaryE@Base 5.2.0
 _ZN12ossimpluginsrsERSiRNS_14FileDescriptorE@Base 5.2.0
 _ZN12ossimpluginsrsERSiRNS_15ChirpParametersE@Base 5.2.0
 _ZN12ossimpluginsrsERSiRNS_15EnvisatAsarDataE@Base 5.2.0
 _ZN12ossimpluginsrsERSiRNS_15GeolocationGridE@Base 5.2.0
 _ZN12ossimpluginsrsERSiRNS_15RadiometricDataE@Base 5.2.0
 _ZN12ossimpluginsrsERSiRNS_16AlosPalsarLeaderE@Base 5.2.0
 _ZN12ossimpluginsrsERSiRNS_17FilePointerRecordE@Base 5.2.0
 _ZN12ossimpluginsrsERSiRNS_18ErsSarFacilityDataE@Base 5.2.0
 _ZN12ossimpluginsrsERSiRNS_18ErsSarRecordHeaderE@Base 5.2.0
 _ZN12ossimpluginsrsERSiRNS_19DataHistogramRecordE@Base 5.2.0
 _ZN12ossimpluginsrsERSiRNS_19DataPointDataRecordE@Base 5.2.0
 _ZN12ossimpluginsrsERSiRNS_19ProcessedDataRecordE@Base 5.2.0
 _ZN12ossimpluginsrsERSiRNS_20AlosPalsarSignalDataE@Base 5.2.0
 _ZN12ossimpluginsrsERSiRNS_20BeamPixelCountRecordE@Base 5.2.0
 _ZN12ossimpluginsrsERSiRNS_20ErsSarDataSetSummaryE@Base 5.2.0
 _ZN12ossimpluginsrsERSiRNS_20ErsSarFileDescriptorE@Base 5.2.0
 _ZN12ossimpluginsrsERSiRNS_20PlatformPositionDataE@Base 5.2.0
 _ZN12ossimpluginsrsERSiRNS_20PositionVectorRecordE@Base 5.2.0
 _ZN12ossimpluginsrsERSiRNS_20ProcessingParametersE@Base 5.2.0
 _ZN12ossimpluginsrsERSiRNS_20RadarSatRecordHeaderE@Base 5.2.0
 _ZN12ossimpluginsrsERSiRNS_21BeamInformationRecordE@Base 5.2.0
 _ZN12ossimpluginsrsERSiRNS_21MisregistrationRecordE@Base 5.2.0
 _ZN12ossimpluginsrsERSiRNS_22AlosPalsarFacilityDataE@Base 5.2.0
 _ZN12ossimpluginsrsERSiRNS_22AlosPalsarRecordHeaderE@Base 5.2.0
 _ZN12ossimpluginsrsERSiRNS_22CompensationDataRecordE@Base 5.2.0
 _ZN12ossimpluginsrsERSiRNS_22VolumeDescriptorRecordE@Base 5.2.0
 _ZN12ossimpluginsrsERSiRNS_23DataHistogramSignalDataE@Base 5.2.0
 _ZN12ossimpluginsrsERSiRNS_23ErsSarMapProjectionDataE@Base 5.2.0
 _ZN12ossimpluginsrsERSiRNS_24AlosPalsarDataSetSummaryE@Base 5.2.0
 _ZN12ossimpluginsrsERSiRNS_24AlosPalsarFileDescriptorE@Base 5.2.0
 _ZN12ossimpluginsrsERSiRNS_24AntennaElevationPatternsE@Base 5.2.0
 _ZN12ossimpluginsrsERSiRNS_24MainProcessingParametersE@Base 5.2.0
 _ZN12ossimpluginsrsERSiRNS_24SRGRCoefficientSetRecordE@Base 5.2.0
 _ZN12ossimpluginsrsERSiRNS_24SRGRConversionParametersE@Base 5.2.0
 _ZN12ossimpluginsrsERSiRNS_25AlosPalsarRadiometricDataE@Base 5.2.0
 _ZN12ossimpluginsrsERSiRNS_25DopplerCentroidParametersE@Base 5.2.0
 _ZN12ossimpluginsrsERSiRNS_25TemperatureSettingsRecordE@Base 5.2.0
 _ZN12ossimpluginsrsERSiRNS_26DataHistogramProcessedDataE@Base 5.2.0
 _ZN12ossimpluginsrsERSiRNS_26ErsSarPlatformPositionDataE@Base 5.2.0
 _ZN12ossimpluginsrsERSiRNS_26ErsSarPositionVectorRecordE@Base 5.2.0
 _ZN12ossimpluginsrsERSiRNS_26ImageOptionsFileDescriptorE@Base 5.2.0
 _ZN12ossimpluginsrsERSiRNS_27AlosPalsarMapProjectionDataE@Base 5.2.0
 _ZN12ossimpluginsrsERSiRNS_27RadiometricCompensationDataE@Base 5.2.0
 _ZN12ossimpluginsrsERSiRNS_27RadiometryUncertaintyRecordE@Base 5.2.0
 _ZN12ossimpluginsrsERSiRNS_28AlosPalsarDataFileDescriptorE@Base 5.2.0
 _ZN12ossimpluginsrsERSiRNS_29DopplerCentroidEstimateRecordE@Base 5.2.0
 _ZN12ossimpluginsrsERSiRNS_30AlosPalsarPlatformPositionDataE@Base 5.2.0
 _ZN12ossimpluginsrsERSiRNS_30AlosPalsarPositionVectorRecordE@Base 5.2.0
 _ZN12ossimpluginsrsERSiRNS_3dsdE@Base 5.2.0
 _ZN12ossimpluginsrsERSiRNS_3mphE@Base 5.2.0
 _ZN12ossimpluginsrsERSiRNS_3sphE@Base 5.2.0
 _ZN12ossimpluginsrsERSiRNS_4DataE@Base 5.2.0
 _ZN12ossimpluginsrsERSiRNS_6LeaderE@Base 5.2.0
 _ZN12ossimpluginsrsERSiRNS_7SQ_ADSRE@Base 5.2.0
 _ZN12ossimpluginsrsERSiRNS_7TrailerE@Base 5.2.0
 _ZN12ossimpluginsrsERSiRNS_9VolumeDirE@Base 5.2.0
 _ZN14ossimEllipsoidD0Ev@Base 5.2.0
 _ZN14ossimEllipsoidD1Ev@Base 5.2.0
 _ZN14ossimEllipsoidD2Ev@Base 5.2.0
 _ZN16ossimImageSource9getObjectEv@Base 5.2.0
 _ZN16ossimSensorModel11updateModelEv@Base 5.2.0
 _ZN16ossimSensorModel18setNominalPosErrorERKd@Base 5.2.0
 _ZN16ossimSensorModel19setRelativePosErrorERKd@Base 5.2.0
 _ZN16ossimSensorModel27adjustableParametersChangedEv@Base 5.2.0
 _ZN21ossimOgcWktTranslator20initializeDatumTableEv@Base 5.2.0
 _ZN21ossimOgcWktTranslator25initializeProjectionTableEv@Base 5.2.0
 _ZN21ossimOgcWktTranslatorC1Ev@Base 5.2.0
 _ZN21ossimOgcWktTranslatorC2Ev@Base 5.2.0
 _ZN29ossimFormosatDimapSupportData10parsePart1E11ossimRefPtrI16ossimXmlDocumentE@Base 5.2.0
 _ZN29ossimFormosatDimapSupportData10parsePart2E11ossimRefPtrI16ossimXmlDocumentE@Base 5.2.0
 _ZN29ossimFormosatDimapSupportData10parsePart3E11ossimRefPtrI16ossimXmlDocumentE@Base 5.2.0
 _ZN29ossimFormosatDimapSupportData10parsePart4E11ossimRefPtrI16ossimXmlDocumentE@Base 5.2.0
 _ZN29ossimFormosatDimapSupportData11clearFieldsEv@Base 5.2.0
 _ZN29ossimFormosatDimapSupportData11initImageIdE11ossimRefPtrI16ossimXmlDocumentE@Base 5.2.0
 _ZN29ossimFormosatDimapSupportData11loadXmlFileERK13ossimFilename@Base 5.2.0
 _ZN29ossimFormosatDimapSupportData15initFramePointsE11ossimRefPtrI16ossimXmlDocumentE@Base 5.2.0
 _ZN29ossimFormosatDimapSupportData15initSceneSourceE11ossimRefPtrI16ossimXmlDocumentE@Base 5.2.0
 _ZN29ossimFormosatDimapSupportData19initMetadataVersionE11ossimRefPtrI16ossimXmlDocumentE@Base 5.2.0
 _ZN29ossimFormosatDimapSupportData9loadStateERK16ossimKeywordlistPKc@Base 5.2.0
 _ZN29ossimFormosatDimapSupportDataC1ERK13ossimFilename@Base 5.2.0
 _ZN29ossimFormosatDimapSupportDataC1ERKS_@Base 5.2.0
 _ZN29ossimFormosatDimapSupportDataC1Ev@Base 5.2.0
 _ZN29ossimFormosatDimapSupportDataC2ERK13ossimFilename@Base 5.2.0
 _ZN29ossimFormosatDimapSupportDataC2ERKS_@Base 5.2.0
 _ZN29ossimFormosatDimapSupportDataC2Ev@Base 5.2.0
 _ZN29ossimFormosatDimapSupportDataD0Ev@Base 5.2.0
 _ZN29ossimFormosatDimapSupportDataD1Ev@Base 5.2.0
 _ZN29ossimFormosatDimapSupportDataD2Ev@Base 5.2.0
 _ZN8RPCModelD1Ev@Base 5.2.0
 _ZN8RPCModelD2Ev@Base 5.2.0
 _ZNK10ossimDatum4codeEv@Base 5.2.0
 _ZNK11ossimObject10RTTI_vinfoEv@Base 5.2.0
 _ZNK11ossimStringeqEPKc@Base 5.2.0
 _ZNK11ossimStringneEPKc@Base 5.2.0
 _ZNK11ossimStringplEPKc@Base 5.2.0
 _ZNK11ossimStringplERKS_@Base 5.2.0
 _ZNK12ossimplugins10ImageNoise9saveStateER16ossimKeywordlistPKc@Base 5.2.0
 _ZNK12ossimplugins10SceneCoord5printERSo@Base 5.2.0
 _ZNK12ossimplugins10SceneCoord9saveStateER16ossimKeywordlistPKc@Base 5.2.0
 _ZNK12ossimplugins12ErsSarLeader22get_ErsSarFacilityDataEv@Base 5.2.0
 _ZNK12ossimplugins12ErsSarLeader24get_ErsSarDataSetSummaryEv@Base 5.2.0
 _ZNK12ossimplugins12ErsSarLeader24get_ErsSarFileDescriptorEv@Base 5.2.0
 _ZNK12ossimplugins12ErsSarLeader27get_ErsSarMapProjectionDataEv@Base 5.2.0
 _ZNK12ossimplugins12ErsSarLeader30get_ErsSarPlatformPositionDataEv@Base 5.2.0
 _ZNK12ossimplugins12ErsSarLeader9saveStateER16ossimKeywordlistPKc@Base 5.2.0
 _ZNK12ossimplugins12SensorParams9saveStateER16ossimKeywordlistPKc@Base 5.2.0
 _ZNK12ossimplugins13CivilDateTime5printERSo@Base 5.2.0
 _ZNK12ossimplugins14AlosPalsarData24get_AlosPalsarSignalDataEv@Base 5.2.0
 _ZNK12ossimplugins14AlosPalsarData32get_AlosPalsarDataFileDescriptorEv@Base 5.2.0
 _ZNK12ossimplugins14AlosPalsarData9saveStateER16ossimKeywordlistPKc@Base 5.2.0
 _ZNK12ossimplugins14InfoSceneCoord9saveStateER16ossimKeywordlistPKc@Base 5.2.0
 _ZNK12ossimplugins15IncidenceAngles5printERSo@Base 5.2.0
 _ZNK12ossimplugins15IncidenceAngles9saveStateER16ossimKeywordlistPKc@Base 5.2.0
 _ZNK12ossimplugins15ossimSpot6Model10RTTI_vinfoEv@Base 5.2.0
 _ZNK12ossimplugins15ossimSpot6Model3dupEv@Base 5.2.0
 _ZNK12ossimplugins15ossimSpot6Model5printERSo@Base 5.2.0
 _ZNK12ossimplugins15ossimSpot6Model9RTTI_castE10RTTItypeid@Base 5.2.0
 _ZNK12ossimplugins15ossimSpot6Model9saveStateER16ossimKeywordlistPKc@Base 5.2.0
 _ZNK12ossimplugins16AlosPalsarLeader26get_AlosPalsarFacilityDataEv@Base 5.2.0
 _ZNK12ossimplugins16AlosPalsarLeader28get_AlosPalsarDataSetSummaryEv@Base 5.2.0
 _ZNK12ossimplugins16AlosPalsarLeader28get_AlosPalsarFileDescriptorEv@Base 5.2.0
 _ZNK12ossimplugins16AlosPalsarLeader29get_AlosPalsarRadiometricDataEv@Base 5.2.0
 _ZNK12ossimplugins16AlosPalsarLeader34get_AlosPalsarPlatformPositionDataEv@Base 5.2.0
 _ZNK12ossimplugins16AlosPalsarLeader9saveStateER16ossimKeywordlistPKc@Base 5.2.0
 _ZNK12ossimplugins16PlatformPosition10getNbrDataEv@Base 5.2.0
 _ZNK12ossimplugins16PlatformPosition11InterpolateENS_11JSDDateTimeE@Base 5.2.0
 _ZNK12ossimplugins16PlatformPosition7getDataEi@Base 5.2.0
 _ZNK12ossimplugins16PlatformPosition9saveStateER16ossimKeywordlistPKc@Base 5.2.0
 _ZNK12ossimplugins16ossimErsSarModel10RTTI_vinfoEv@Base 5.2.0
 _ZNK12ossimplugins16ossimErsSarModel11isErsLeaderERK13ossimFilename@Base 5.2.0
 _ZNK12ossimplugins16ossimErsSarModel12getClassNameEv@Base 5.2.0
 _ZNK12ossimplugins16ossimErsSarModel13findErsLeaderERK13ossimFilename@Base 5.2.0
 _ZNK12ossimplugins16ossimErsSarModel30getSlantRangeFromGeoreferencedEd@Base 5.2.0
 _ZNK12ossimplugins16ossimErsSarModel3dupEv@Base 5.2.0
 _ZNK12ossimplugins16ossimErsSarModel9RTTI_castE10RTTItypeid@Base 5.2.0
 _ZNK12ossimplugins16ossimErsSarModel9saveStateER16ossimKeywordlistPKc@Base 5.2.0
 _ZNK12ossimplugins17ossimTileMapModel10RTTI_vinfoEv@Base 5.2.0
 _ZNK12ossimplugins17ossimTileMapModel10useForwardEv@Base 5.2.0
 _ZNK12ossimplugins17ossimTileMapModel17lineSampleToWorldERK8ossimDptR8ossimGpt@Base 5.2.0
 _ZNK12ossimplugins17ossimTileMapModel17worldToLineSampleERK8ossimGptR8ossimDpt@Base 5.2.0
 _ZNK12ossimplugins17ossimTileMapModel23lineSampleHeightToWorldERK8ossimDptRKdR8ossimGpt@Base 5.2.0
 _ZNK12ossimplugins17ossimTileMapModel3dupEv@Base 5.2.0
 _ZNK12ossimplugins17ossimTileMapModel5printERSo@Base 5.2.0
 _ZNK12ossimplugins17ossimTileMapModel9RTTI_castE10RTTItypeid@Base 5.2.0
 _ZNK12ossimplugins17ossimTileMapModel9saveStateER16ossimKeywordlistPKc@Base 5.2.0
 _ZNK12ossimplugins18InfoIncidenceAngle9saveStateER16ossimKeywordlistPKc@Base 5.2.0
 _ZNK12ossimplugins18ossimFormosatModel10RTTI_vinfoEv@Base 5.2.0
 _ZNK12ossimplugins18ossimFormosatModel10imagingRayERK8ossimDptR12ossimEcefRay@Base 5.2.0
 _ZNK12ossimplugins18ossimFormosatModel10useForwardEv@Base 5.2.0
 _ZNK12ossimplugins18ossimFormosatModel23computeSatToOrbRotationERN6NEWMAT6MatrixEd@Base 5.2.0
 _ZNK12ossimplugins18ossimFormosatModel23lineSampleHeightToWorldERK8ossimDptRKdR8ossimGpt@Base 5.2.0
 _ZNK12ossimplugins18ossimFormosatModel3dupEv@Base 5.2.0
 _ZNK12ossimplugins18ossimFormosatModel5printERSo@Base 5.2.0
 _ZNK12ossimplugins18ossimFormosatModel9RTTI_castE10RTTItypeid@Base 5.2.0
 _ZNK12ossimplugins18ossimFormosatModel9saveStateER16ossimKeywordlistPKc@Base 5.2.0
 _ZNK12ossimplugins18ossimPleiadesModel10RTTI_vinfoEv@Base 5.2.0
 _ZNK12ossimplugins18ossimPleiadesModel3dupEv@Base 5.2.0
 _ZNK12ossimplugins18ossimPleiadesModel5printERSo@Base 5.2.0
 _ZNK12ossimplugins18ossimPleiadesModel9RTTI_castE10RTTItypeid@Base 5.2.0
 _ZNK12ossimplugins18ossimPleiadesModel9saveStateER16ossimKeywordlistPKc@Base 5.2.0
 _ZNK12ossimplugins18ossimRadarSatModel10RTTI_vinfoEv@Base 5.2.0
 _ZNK12ossimplugins18ossimRadarSatModel12getClassNameEv@Base 5.2.0
 _ZNK12ossimplugins18ossimRadarSatModel17FindSRGRSetNumberENS_11JSDDateTimeE@Base 5.2.0
 _ZNK12ossimplugins18ossimRadarSatModel17internalSaveStateER16ossimKeywordlistPKc@Base 5.2.0
 _ZNK12ossimplugins18ossimRadarSatModel30getSlantRangeFromGeoreferencedEd@Base 5.2.0
 _ZNK12ossimplugins18ossimRadarSatModel3dupEv@Base 5.2.0
 _ZNK12ossimplugins18ossimRadarSatModel9RTTI_castE10RTTItypeid@Base 5.2.0
 _ZNK12ossimplugins18ossimRadarSatModel9saveStateER16ossimKeywordlistPKc@Base 5.2.0
 _ZNK12ossimplugins18ossimTerraSarModel10RTTI_vinfoEv@Base 5.2.0
 _ZNK12ossimplugins18ossimTerraSarModel12getClassNameEv@Base 5.2.0
 _ZNK12ossimplugins18ossimTerraSarModel30getSlantRangeFromGeoreferencedEd@Base 5.2.0
 _ZNK12ossimplugins18ossimTerraSarModel3dupEv@Base 5.2.0
 _ZNK12ossimplugins18ossimTerraSarModel5printERSo@Base 5.2.0
 _ZNK12ossimplugins18ossimTerraSarModel9RTTI_castE10RTTItypeid@Base 5.2.0
 _ZNK12ossimplugins18ossimTerraSarModel9printInfoERSo@Base 5.2.0
 _ZNK12ossimplugins18ossimTerraSarModel9saveStateER16ossimKeywordlistPKc@Base 5.2.0
 _ZNK12ossimplugins19HermiteInterpolator10PrecomputeEv@Base 5.2.0
 _ZNK12ossimplugins19HermiteInterpolator11InterpolateEdRd@Base 5.2.0
 _ZNK12ossimplugins19HermiteInterpolator11InterpolateEdRdS1_@Base 5.2.0
 _ZNK12ossimplugins19RadarSat2NoiseLevel5printERSo@Base 5.2.0
 _ZNK12ossimplugins19RadarSat2NoiseLevel9saveStateER16ossimKeywordlistPKc@Base 5.2.0
 _ZNK12ossimplugins19ossimRadarSat2Model10RTTI_vinfoEv@Base 5.2.0
 _ZNK12ossimplugins19ossimRadarSat2Model12getClassNameEv@Base 5.2.0
 _ZNK12ossimplugins19ossimRadarSat2Model17FindSRGRSetNumberENS_11JSDDateTimeE@Base 5.2.0
 _ZNK12ossimplugins19ossimRadarSat2Model30getSlantRangeFromGeoreferencedEd@Base 5.2.0
 _ZNK12ossimplugins19ossimRadarSat2Model3dupEv@Base 5.2.0
 _ZNK12ossimplugins19ossimRadarSat2Model5printERSo@Base 5.2.0
 _ZNK12ossimplugins19ossimRadarSat2Model9RTTI_castE10RTTItypeid@Base 5.2.0
 _ZNK12ossimplugins19ossimRadarSat2Model9saveStateER16ossimKeywordlistPKc@Base 5.2.0
 _ZNK12ossimplugins19ossimSentinel1Model10RTTI_vinfoEv@Base 5.2.0
 _ZNK12ossimplugins19ossimSentinel1Model10getImageIdER11ossimString@Base 5.2.0
 _ZNK12ossimplugins19ossimSentinel1Model3dupEv@Base 5.2.0
 _ZNK12ossimplugins19ossimSentinel1Model5printERSo@Base 5.2.0
 _ZNK12ossimplugins19ossimSentinel1Model9RTTI_castE10RTTItypeid@Base 5.2.0
 _ZNK12ossimplugins19ossimSentinel1Model9saveStateER16ossimKeywordlistPKc@Base 5.2.0
 _ZNK12ossimplugins20ossimAlosPalsarModel10RTTI_vinfoEv@Base 5.2.0
 _ZNK12ossimplugins20ossimAlosPalsarModel12getClassNameEv@Base 5.2.0
 _ZNK12ossimplugins20ossimAlosPalsarModel16isAlosPalsarDataERK13ossimFilename@Base 5.2.0
 _ZNK12ossimplugins20ossimAlosPalsarModel18findAlosPalsarDataERK13ossimFilename@Base 5.2.0
 _ZNK12ossimplugins20ossimAlosPalsarModel18isAlosPalsarLeaderERK13ossimFilename@Base 5.2.0
 _ZNK12ossimplugins20ossimAlosPalsarModel20findAlosPalsarLeaderERK13ossimFilename@Base 5.2.0
 _ZNK12ossimplugins20ossimAlosPalsarModel30getSlantRangeFromGeoreferencedEd@Base 5.2.0
 _ZNK12ossimplugins20ossimAlosPalsarModel3dupEv@Base 5.2.0
 _ZNK12ossimplugins20ossimAlosPalsarModel9RTTI_castE10RTTItypeid@Base 5.2.0
 _ZNK12ossimplugins20ossimAlosPalsarModel9saveStateER16ossimKeywordlistPKc@Base 5.2.0
 _ZNK12ossimplugins21ossimCosmoSkymedModel10RTTI_vinfoEv@Base 5.2.0
 _ZNK12ossimplugins21ossimCosmoSkymedModel30getSlantRangeFromGeoreferencedEd@Base 5.2.0
 _ZNK12ossimplugins21ossimCosmoSkymedModel9RTTI_castE10RTTItypeid@Base 5.2.0
 _ZNK12ossimplugins21ossimEnvisatAsarModel10RTTI_vinfoEv@Base 5.2.0
 _ZNK12ossimplugins21ossimEnvisatAsarModel12getClassNameEv@Base 5.2.0
 _ZNK12ossimplugins21ossimEnvisatAsarModel17FindSRGRSetNumberENS_11JSDDateTimeE@Base 5.2.0
 _ZNK12ossimplugins21ossimEnvisatAsarModel30getSlantRangeFromGeoreferencedEd@Base 5.2.0
 _ZNK12ossimplugins21ossimEnvisatAsarModel3dupEv@Base 5.2.0
 _ZNK12ossimplugins21ossimEnvisatAsarModel5printERSo@Base 5.2.0
 _ZNK12ossimplugins21ossimEnvisatAsarModel9RTTI_castE10RTTItypeid@Base 5.2.0
 _ZNK12ossimplugins21ossimEnvisatAsarModel9saveStateER16ossimKeywordlistPKc@Base 5.2.0
 _ZNK12ossimplugins22ossimRadarSat2RPCModel10RTTI_vinfoEv@Base 5.2.0
 _ZNK12ossimplugins22ossimRadarSat2RPCModel12getClassNameEv@Base 5.2.0
 _ZNK12ossimplugins22ossimRadarSat2RPCModel17worldToLineSampleERK8ossimGptR8ossimDpt@Base 5.2.0
 _ZNK12ossimplugins22ossimRadarSat2RPCModel23lineSampleHeightToWorldERK8ossimDptRKdR8ossimGpt@Base 5.2.0
 _ZNK12ossimplugins22ossimRadarSat2RPCModel3dupEv@Base 5.2.0
 _ZNK12ossimplugins22ossimRadarSat2RPCModel5printERSo@Base 5.2.0
 _ZNK12ossimplugins22ossimRadarSat2RPCModel9RTTI_castE10RTTItypeid@Base 5.2.0
 _ZNK12ossimplugins22ossimRadarSat2RPCModel9saveStateER16ossimKeywordlistPKc@Base 5.2.0
 _ZNK12ossimplugins23ossimTerraSarProductDoc10getMissionEPK16ossimXmlDocumentR11ossimString@Base 5.2.0
 _ZNK12ossimplugins23ossimTerraSarProductDoc10getSceneIdEPK16ossimXmlDocumentR11ossimString@Base 5.2.0
 _ZNK12ossimplugins23ossimTerraSarProductDoc11isTerraSarXEPK16ossimXmlDocument@Base 5.2.0
 _ZNK12ossimplugins23ossimTerraSarProductDoc12getCalFactorEPK16ossimXmlDocumentRSt6vectorI11ossimStringSaIS5_EE@Base 5.2.0
 _ZNK12ossimplugins23ossimTerraSarProductDoc12getCommonPrfEPK16ossimXmlDocumentR11ossimString@Base 5.2.0
 _ZNK12ossimplugins23ossimTerraSarProductDoc12getCommonRsfEPK16ossimXmlDocumentR11ossimString@Base 5.2.0
 _ZNK12ossimplugins23ossimTerraSarProductDoc12getImageFileEPK16ossimXmlDocumentR11ossimString@Base 5.2.0
 _ZNK12ossimplugins23ossimTerraSarProductDoc13getProjectionEPK16ossimXmlDocumentR11ossimString@Base 5.2.0
 _ZNK12ossimplugins23ossimTerraSarProductDoc13getRowSpacingEPK16ossimXmlDocumentR11ossimString@Base 5.2.0
 _ZNK12ossimplugins23ossimTerraSarProductDoc13initImageSizeEPK16ossimXmlDocumentR8ossimIpt@Base 5.2.0
 _ZNK12ossimplugins23ossimTerraSarProductDoc13initTiePointsEPK16ossimXmlDocumentRSt4listI8ossimGptSaIS5_EERS4_I8ossimDptSaIS9_EE@Base 5.2.0
 _ZNK12ossimplugins23ossimTerraSarProductDoc14getImagingModeEPK16ossimXmlDocumentR11ossimString@Base 5.2.0
 _ZNK12ossimplugins23ossimTerraSarProductDoc14getProductTypeEPK16ossimXmlDocumentR11ossimString@Base 5.2.0
 _ZNK12ossimplugins23ossimTerraSarProductDoc14initSceneCoordEPK16ossimXmlDocumentPNS_10SceneCoordE@Base 5.2.0
 _ZNK12ossimplugins23ossimTerraSarProductDoc15getNumberOfRowsEPK16ossimXmlDocumentR11ossimString@Base 5.2.0
 _ZNK12ossimplugins23ossimTerraSarProductDoc15getPolLayerListEPK16ossimXmlDocumentRSt6vectorI11ossimStringSaIS5_EE@Base 5.2.0
 _ZNK12ossimplugins23ossimTerraSarProductDoc16geNumberOfLayersEPK16ossimXmlDocumentR11ossimString@Base 5.2.0
 _ZNK12ossimplugins23ossimTerraSarProductDoc16getColumnSpacingEPK16ossimXmlDocumentR11ossimString@Base 5.2.0
 _ZNK12ossimplugins23ossimTerraSarProductDoc16getLookDirectionEPK16ossimXmlDocumentR11ossimString@Base 5.2.0
 _ZNK12ossimplugins23ossimTerraSarProductDoc16initSensorParamsEPK16ossimXmlDocumentPNS_12SensorParamsE@Base 5.2.0
 _ZNK12ossimplugins23ossimTerraSarProductDoc17getGenerationTimeEPK16ossimXmlDocumentR11ossimString@Base 5.2.0
 _ZNK12ossimplugins23ossimTerraSarProductDoc17getOrbitDirectionEPK16ossimXmlDocumentR11ossimString@Base 5.2.0
 _ZNK12ossimplugins23ossimTerraSarProductDoc17getProductVariantEPK16ossimXmlDocumentR11ossimString@Base 5.2.0
 _ZNK12ossimplugins23ossimTerraSarProductDoc17getRadarFrequencyEPK16ossimXmlDocumentR11ossimString@Base 5.2.0
 _ZNK12ossimplugins23ossimTerraSarProductDoc17getReferencePointEPK16ossimXmlDocumentR11ossimString@Base 5.2.0
 _ZNK12ossimplugins23ossimTerraSarProductDoc17getSceneCenterLatEPK16ossimXmlDocumentR11ossimString@Base 5.2.0
 _ZNK12ossimplugins23ossimTerraSarProductDoc17getSceneCenterLonEPK16ossimXmlDocumentR11ossimString@Base 5.2.0
 _ZNK12ossimplugins23ossimTerraSarProductDoc18getAzimuthStopTimeEPK16ossimXmlDocumentR11ossimString@Base 5.2.0
 _ZNK12ossimplugins23ossimTerraSarProductDoc18getNumberOfColumnsEPK16ossimXmlDocumentR11ossimString@Base 5.2.0
 _ZNK12ossimplugins23ossimTerraSarProductDoc19getAzimuthStartTimeEPK16ossimXmlDocumentR11ossimString@Base 5.2.0
 _ZNK12ossimplugins23ossimTerraSarProductDoc19getPolarisationModeEPK16ossimXmlDocumentR11ossimString@Base 5.2.0
 _ZNK12ossimplugins23ossimTerraSarProductDoc20getAcquisitionSensorEPK16ossimXmlDocumentR11ossimString@Base 5.2.0
 _ZNK12ossimplugins23ossimTerraSarProductDoc20getSceneCenterRefRowEPK16ossimXmlDocumentR11ossimString@Base 5.2.0
 _ZNK12ossimplugins23ossimTerraSarProductDoc20initPlatformPositionEPK16ossimXmlDocumentPNS_16PlatformPositionE@Base 5.2.0
 _ZNK12ossimplugins23ossimTerraSarProductDoc21getNumberOfRangeLooksEPK16ossimXmlDocumentR11ossimString@Base 5.2.0
 _ZNK12ossimplugins23ossimTerraSarProductDoc21getRangeGateLastPixelEPK16ossimXmlDocumentR11ossimString@Base 5.2.0
 _ZNK12ossimplugins23ossimTerraSarProductDoc21getRangeLastPixelTimeEPK16ossimXmlDocumentR11ossimString@Base 5.2.0
 _ZNK12ossimplugins23ossimTerraSarProductDoc21getSceneAverageHeightEPK16ossimXmlDocumentR11ossimString@Base 5.2.0
 _ZNK12ossimplugins23ossimTerraSarProductDoc22getImageDataStrartWithEPK16ossimXmlDocumentR11ossimString@Base 5.2.0
 _ZNK12ossimplugins23ossimTerraSarProductDoc22getRangeFirstPixelTimeEPK16ossimXmlDocumentR11ossimString@Base 5.2.0
 _ZNK12ossimplugins23ossimTerraSarProductDoc22getRangeGateFirstPixelEPK16ossimXmlDocumentR11ossimString@Base 5.2.0
 _ZNK12ossimplugins23ossimTerraSarProductDoc22isProductGeoreferencedEPK16ossimXmlDocument@Base 5.2.0
 _ZNK12ossimplugins23ossimTerraSarProductDoc23getNumberOfAzimuthLooksEPK16ossimXmlDocumentR11ossimString@Base 5.2.0
 _ZNK12ossimplugins23ossimTerraSarProductDoc23getRadarCenterFrequencyEPK16ossimXmlDocumentR11ossimString@Base 5.2.0
 _ZNK12ossimplugins23ossimTerraSarProductDoc23getSceneCenterRangeTimeEPK16ossimXmlDocumentR11ossimString@Base 5.2.0
 _ZNK12ossimplugins23ossimTerraSarProductDoc23getSceneCenterRefColumnEPK16ossimXmlDocumentR11ossimString@Base 5.2.0
 _ZNK12ossimplugins23ossimTerraSarProductDoc24getRadiometricCorrectionEPK16ossimXmlDocumentR11ossimString@Base 5.2.0
 _ZNK12ossimplugins23ossimTerraSarProductDoc25getSceneCenterAzimuthTimeEPK16ossimXmlDocumentR11ossimString@Base 5.2.0
 _ZNK12ossimplugins23ossimTerraSarProductDoc26getProjectedSpacingAzimuthEPK16ossimXmlDocumentR11ossimString@Base 5.2.0
 _ZNK12ossimplugins23ossimTerraSarProductDoc29getProjectedSpacingSlantRangeEPK16ossimXmlDocumentR11ossimString@Base 5.2.0
 _ZNK12ossimplugins23ossimTerraSarProductDoc7initGsdEPK16ossimXmlDocumentR8ossimDpt@Base 5.2.0
 _ZNK12ossimplugins23ossimTerraSarProductDoc9initNoiseEPK16ossimXmlDocumentPNS_5NoiseE@Base 5.2.0
 _ZNK12ossimplugins23ossimTerraSarTiffReader10RTTI_vinfoEv@Base 5.2.0
 _ZNK12ossimplugins23ossimTerraSarTiffReader11getLongNameEv@Base 5.2.0
 _ZNK12ossimplugins23ossimTerraSarTiffReader12getClassNameEv@Base 5.2.0
 _ZNK12ossimplugins23ossimTerraSarTiffReader12getShortNameEv@Base 5.2.0
 _ZNK12ossimplugins23ossimTerraSarTiffReader21isTerraSarProductFileEPK16ossimXmlDocument@Base 5.2.0
 _ZNK12ossimplugins23ossimTerraSarTiffReader21isTerraSarProductFileERK13ossimFilename@Base 5.2.0
 _ZNK12ossimplugins23ossimTerraSarTiffReader24getInternalImageGeometryEv@Base 5.2.0
 _ZNK12ossimplugins23ossimTerraSarTiffReader9RTTI_castE10RTTItypeid@Base 5.2.0
 _ZNK12ossimplugins23ossimTerraSarTiffReader9saveStateER16ossimKeywordlistPKc@Base 5.2.0
 _ZNK12ossimplugins24ossimPluginReaderFactory10RTTI_vinfoEv@Base 5.2.0
 _ZNK12ossimplugins24ossimPluginReaderFactory12createObjectERK11ossimString@Base 5.2.0
 _ZNK12ossimplugins24ossimPluginReaderFactory12createObjectERK16ossimKeywordlistPKc@Base 5.2.0
 _ZNK12ossimplugins24ossimPluginReaderFactory15getTypeNameListERSt6vectorI11ossimStringSaIS2_EE@Base 5.2.0
 _ZNK12ossimplugins24ossimPluginReaderFactory22getSupportedExtensionsERN28ossimImageHandlerFactoryBase10UniqueListI11ossimStringEE@Base 5.2.0
 _ZNK12ossimplugins24ossimPluginReaderFactory4openERK13ossimFilenameb@Base 5.2.0
 _ZNK12ossimplugins24ossimPluginReaderFactory4openERK16ossimKeywordlistPKc@Base 5.2.0
 _ZNK12ossimplugins24ossimPluginReaderFactory9RTTI_castE10RTTItypeid@Base 5.2.0
 _ZNK12ossimplugins24ossimRadarSat2ProductDoc10getImageIdEPK16ossimXmlDocumentR11ossimString@Base 5.2.0
 _ZNK12ossimplugins24ossimRadarSat2ProductDoc10getRpcDataEPK16ossimXmlDocument@Base 5.2.0
 _ZNK12ossimplugins24ossimRadarSat2ProductDoc11isRadarSat2EPK16ossimXmlDocument@Base 5.2.0
 _ZNK12ossimplugins24ossimRadarSat2ProductDoc12getImageFileEPK16ossimXmlDocumentR11ossimString@Base 5.2.0
 _ZNK12ossimplugins24ossimRadarSat2ProductDoc12getSatelliteEPK16ossimXmlDocumentR11ossimString@Base 5.2.0
 _ZNK12ossimplugins24ossimRadarSat2ProductDoc13getNominalPrfEPK16ossimXmlDocumentRd@Base 5.2.0
 _ZNK12ossimplugins24ossimRadarSat2ProductDoc13initImageSizeEPK16ossimXmlDocumentR8ossimIpt@Base 5.2.0
 _ZNK12ossimplugins24ossimRadarSat2ProductDoc13initTiePointsEPK16ossimXmlDocumentRSt4listI8ossimGptSaIS5_EERS4_I8ossimDptSaIS9_EE@Base 5.2.0
 _ZNK12ossimplugins24ossimRadarSat2ProductDoc14getProductTypeEPK16ossimXmlDocumentR11ossimString@Base 5.2.0
 _ZNK12ossimplugins24ossimRadarSat2ProductDoc16getNumberOfLinesEPK16ossimXmlDocumentR11ossimString@Base 5.2.0
 _ZNK12ossimplugins24ossimRadarSat2ProductDoc16getPassDirectionEPK16ossimXmlDocumentR11ossimString@Base 5.2.0
 _ZNK12ossimplugins24ossimRadarSat2ProductDoc16getSemiMajorAxisEPK16ossimXmlDocumentR11ossimString@Base 5.2.0
 _ZNK12ossimplugins24ossimRadarSat2ProductDoc16getSemiMinorAxisEPK16ossimXmlDocumentR11ossimString@Base 5.2.0
 _ZNK12ossimplugins24ossimRadarSat2ProductDoc16initSensorParamsEPK16ossimXmlDocumentPNS_12SensorParamsE@Base 5.2.0
 _ZNK12ossimplugins24ossimRadarSat2ProductDoc18getAcquisitionTypeEPK16ossimXmlDocumentR11ossimString@Base 5.2.0
 _ZNK12ossimplugins24ossimRadarSat2ProductDoc18getAdcSamplingRateEPK16ossimXmlDocumentR11ossimString@Base 5.2.0
 _ZNK12ossimplugins24ossimRadarSat2ProductDoc18getAntennaPointingEPK16ossimXmlDocumentR11ossimString@Base 5.2.0
 _ZNK12ossimplugins24ossimRadarSat2ProductDoc18getSatelliteHeightEPK16ossimXmlDocumentR11ossimString@Base 5.2.0
 _ZNK12ossimplugins24ossimRadarSat2ProductDoc19getBeamModeMnemonicEPK16ossimXmlDocumentR11ossimString@Base 5.2.0
 _ZNK12ossimplugins24ossimRadarSat2ProductDoc19getLineTimeOrderingEPK16ossimXmlDocumentR11ossimString@Base 5.2.0
 _ZNK12ossimplugins24ossimRadarSat2ProductDoc20getGroundRangeOriginEPK16ossimXmlDocumentRSt6vectorI11ossimStringSaIS5_EE@Base 5.2.0
 _ZNK12ossimplugins24ossimRadarSat2ProductDoc20getPixelTimeOrderingEPK16ossimXmlDocumentR11ossimString@Base 5.2.0
 _ZNK12ossimplugins24ossimRadarSat2ProductDoc20initPlatformPositionEPK16ossimXmlDocumentPNS_16PlatformPositionE@Base 5.2.0
 _ZNK12ossimplugins24ossimRadarSat2ProductDoc21getNumberOfRangeLooksEPK16ossimXmlDocumentR11ossimString@Base 5.2.0
 _ZNK12ossimplugins24ossimRadarSat2ProductDoc21getSampledLineSpacingEPK16ossimXmlDocumentR11ossimString@Base 5.2.0
 _ZNK12ossimplugins24ossimRadarSat2ProductDoc21getSlantRangeNearEdgeEPK16ossimXmlDocumentR11ossimString@Base 5.2.0
 _ZNK12ossimplugins24ossimRadarSat2ProductDoc22getSampledPixelSpacingEPK16ossimXmlDocumentR11ossimString@Base 5.2.0
 _ZNK12ossimplugins24ossimRadarSat2ProductDoc23getNumberOfAzimuthLooksEPK16ossimXmlDocumentR11ossimString@Base 5.2.0
 _ZNK12ossimplugins24ossimRadarSat2ProductDoc23getRadarCenterFrequencyEPK16ossimXmlDocumentR11ossimString@Base 5.2.0
 _ZNK12ossimplugins24ossimRadarSat2ProductDoc24getGeodeticTerrainHeightEPK16ossimXmlDocumentR11ossimString@Base 5.2.0
 _ZNK12ossimplugins24ossimRadarSat2ProductDoc25getIncidenceAngleFarRangeEPK16ossimXmlDocumentR11ossimString@Base 5.2.0
 _ZNK12ossimplugins24ossimRadarSat2ProductDoc25getNumberOfSamplesPerLineEPK16ossimXmlDocumentR11ossimString@Base 5.2.0
 _ZNK12ossimplugins24ossimRadarSat2ProductDoc25getZeroDopplerAzimuthTimeEPK16ossimXmlDocumentRSt6vectorI11ossimStringSaIS5_EE@Base 5.2.0
 _ZNK12ossimplugins24ossimRadarSat2ProductDoc26getIncidenceAngleNearRangeEPK16ossimXmlDocumentR11ossimString@Base 5.2.0
 _ZNK12ossimplugins24ossimRadarSat2ProductDoc27getPulseRepetitionFrequencyEPK16ossimXmlDocumentRSt6vectorI11ossimStringSaIS5_EE@Base 5.2.0
 _ZNK12ossimplugins24ossimRadarSat2ProductDoc27getZeroDopplerTimeFirstLineEPK16ossimXmlDocumentR11ossimString@Base 5.2.0
 _ZNK12ossimplugins24ossimRadarSat2ProductDoc33getGroundToSlantRangeCoefficientsEPK16ossimXmlDocumentRSt6vectorI11ossimStringSaIS5_EE@Base 5.2.0
 _ZNK12ossimplugins24ossimRadarSat2ProductDoc7initGsdEPK16ossimXmlDocumentR8ossimDpt@Base 5.2.0
 _ZNK12ossimplugins24ossimRadarSat2ProductDoc9getSensorEPK16ossimXmlDocumentR11ossimString@Base 5.2.0
 _ZNK12ossimplugins24ossimRadarSat2TiffReader10RTTI_vinfoEv@Base 5.2.0
 _ZNK12ossimplugins24ossimRadarSat2TiffReader11getLongNameEv@Base 5.2.0
 _ZNK12ossimplugins24ossimRadarSat2TiffReader12getShortNameEv@Base 5.2.0
 _ZNK12ossimplugins24ossimRadarSat2TiffReader22isRadarSat2ProductFileEPK16ossimXmlDocument@Base 5.2.0
 _ZNK12ossimplugins24ossimRadarSat2TiffReader22isRadarSat2ProductFileERK13ossimFilename@Base 5.2.0
 _ZNK12ossimplugins24ossimRadarSat2TiffReader24getInternalImageGeometryEv@Base 5.2.0
 _ZNK12ossimplugins24ossimRadarSat2TiffReader9RTTI_castE10RTTItypeid@Base 5.2.0
 _ZNK12ossimplugins24ossimRadarSat2TiffReader9saveStateER16ossimKeywordlistPKc@Base 5.2.0
 _ZNK12ossimplugins24ossimSentinel1ProductDoc13initImageSizeER8ossimIpt@Base 5.2.0
 _ZNK12ossimplugins24ossimSentinel1ProductDoc16openMetadataFileER11ossimRefPtrI16ossimXmlDocumentE11ossimString@Base 5.2.0
 _ZNK12ossimplugins24ossimSentinel1ProductDoc7initGsdER8ossimDpt@Base 5.2.0
 _ZNK12ossimplugins26ossimSpot6DimapSupportData10getImageIDEv@Base 5.2.0
 _ZNK12ossimplugins26ossimSpot6DimapSupportData11getLlCornerER8ossimGpt@Base 5.2.0
 _ZNK12ossimplugins26ossimSpot6DimapSupportData11getLrCornerER8ossimGpt@Base 5.2.0
 _ZNK12ossimplugins26ossimSpot6DimapSupportData11getSensorIDEv@Base 5.2.0
 _ZNK12ossimplugins26ossimSpot6DimapSupportData11getUlCornerER8ossimGpt@Base 5.2.0
 _ZNK12ossimplugins26ossimSpot6DimapSupportData11getUrCornerER8ossimGpt@Base 5.2.0
 _ZNK12ossimplugins26ossimSpot6DimapSupportData12createGroundERK11ossimString@Base 5.2.0
 _ZNK12ossimplugins26ossimSpot6DimapSupportData12getImageRectER10ossimDrect@Base 5.2.0
 _ZNK12ossimplugins26ossimSpot6DimapSupportData12getImageSizeER8ossimIpt@Base 5.2.0
 _ZNK12ossimplugins26ossimSpot6DimapSupportData13getInstrumentEv@Base 5.2.0
 _ZNK12ossimplugins26ossimSpot6DimapSupportData13getSunAzimuthERSt6vectorIdSaIdEE@Base 5.2.0
 _ZNK12ossimplugins26ossimSpot6DimapSupportData15getSunElevationERSt6vectorIdSaIdEE@Base 5.2.0
 _ZNK12ossimplugins26ossimSpot6DimapSupportData15getViewingAngleERSt6vectorIdSaIdEE@Base 5.2.0
 _ZNK12ossimplugins26ossimSpot6DimapSupportData16getNumberOfBandsEv@Base 5.2.0
 _ZNK12ossimplugins26ossimSpot6DimapSupportData16getRefImagePointER8ossimDpt@Base 5.2.0
 _ZNK12ossimplugins26ossimSpot6DimapSupportData17getIncidenceAngleERSt6vectorIdSaIdEE@Base 5.2.0
 _ZNK12ossimplugins26ossimSpot6DimapSupportData17getProductionDateEv@Base 5.2.0
 _ZNK12ossimplugins26ossimSpot6DimapSupportData17getRefGroundPointER8ossimGpt@Base 5.2.0
 _ZNK12ossimplugins26ossimSpot6DimapSupportData18getAcquisitionDateEv@Base 5.2.0
 _ZNK12ossimplugins26ossimSpot6DimapSupportData18getInstrumentIndexEv@Base 5.2.0
 _ZNK12ossimplugins26ossimSpot6DimapSupportData18getProcessingLevelEv@Base 5.2.0
 _ZNK12ossimplugins26ossimSpot6DimapSupportData9createDptERK11ossimString@Base 5.2.0
 _ZNK12ossimplugins26ossimSpot6DimapSupportData9createIptERK11ossimString@Base 5.2.0
 _ZNK12ossimplugins26ossimSpot6DimapSupportData9printInfoERSo@Base 5.2.0
 _ZNK12ossimplugins26ossimSpot6DimapSupportData9saveStateER16ossimKeywordlistPKc@Base 5.2.0
 _ZNK12ossimplugins28ossimGeometricSarSensorModel10RTTI_vinfoEv@Base 5.2.0
 _ZNK12ossimplugins28ossimGeometricSarSensorModel10useForwardEv@Base 5.2.0
 _ZNK12ossimplugins28ossimGeometricSarSensorModel12get_refPointEv@Base 5.2.0
 _ZNK12ossimplugins28ossimGeometricSarSensorModel13getSlantRangeEd@Base 5.2.0
 _ZNK12ossimplugins28ossimGeometricSarSensorModel16get_sensorParamsEv@Base 5.2.0
 _ZNK12ossimplugins28ossimGeometricSarSensorModel17lineSampleToWorldERK8ossimDptR8ossimGpt@Base 5.2.0
 _ZNK12ossimplugins28ossimGeometricSarSensorModel20get_platformPositionEv@Base 5.2.0
 _ZNK12ossimplugins28ossimGeometricSarSensorModel23lineSampleHeightToWorldERK8ossimDptRKdR8ossimGpt@Base 5.2.0
 _ZNK12ossimplugins28ossimGeometricSarSensorModel5printERSo@Base 5.2.0
 _ZNK12ossimplugins28ossimGeometricSarSensorModel7getTimeEd@Base 5.2.0
 _ZNK12ossimplugins28ossimGeometricSarSensorModel9RTTI_castE10RTTItypeid@Base 5.2.0
 _ZNK12ossimplugins28ossimGeometricSarSensorModel9saveStateER16ossimKeywordlistPKc@Base 5.2.0
 _ZNK12ossimplugins28ossimPluginProjectionFactory12createObjectERK11ossimString@Base 5.2.0
 _ZNK12ossimplugins28ossimPluginProjectionFactory12createObjectERK16ossimKeywordlistPKc@Base 5.2.0
 _ZNK12ossimplugins28ossimPluginProjectionFactory15getTypeNameListERSt6vectorI11ossimStringSaIS2_EE@Base 5.2.0
 _ZNK12ossimplugins28ossimPluginProjectionFactory16createProjectionERK11ossimString@Base 5.2.0
 _ZNK12ossimplugins28ossimPluginProjectionFactory16createProjectionERK13ossimFilenamej@Base 5.2.0
 _ZNK12ossimplugins28ossimPluginProjectionFactory16createProjectionERK16ossimKeywordlistPKc@Base 5.2.0
 _ZNK12ossimplugins28ossimPluginProjectionFactory9isTileMapERK13ossimFilename@Base 5.2.0
 _ZNK12ossimplugins29ossimPleiadesDimapSupportData10getImageIDEv@Base 5.2.0
 _ZNK12ossimplugins29ossimPleiadesDimapSupportData11getLlCornerER8ossimGpt@Base 5.2.0
 _ZNK12ossimplugins29ossimPleiadesDimapSupportData11getLrCornerER8ossimGpt@Base 5.2.0
 _ZNK12ossimplugins29ossimPleiadesDimapSupportData11getSensorIDEv@Base 5.2.0
 _ZNK12ossimplugins29ossimPleiadesDimapSupportData11getUlCornerER8ossimGpt@Base 5.2.0
 _ZNK12ossimplugins29ossimPleiadesDimapSupportData11getUrCornerER8ossimGpt@Base 5.2.0
 _ZNK12ossimplugins29ossimPleiadesDimapSupportData12createGroundERK11ossimString@Base 5.2.0
 _ZNK12ossimplugins29ossimPleiadesDimapSupportData12getImageRectER10ossimDrect@Base 5.2.0
 _ZNK12ossimplugins29ossimPleiadesDimapSupportData12getImageSizeER8ossimIpt@Base 5.2.0
 _ZNK12ossimplugins29ossimPleiadesDimapSupportData13getInstrumentEv@Base 5.2.0
 _ZNK12ossimplugins29ossimPleiadesDimapSupportData13getSunAzimuthERSt6vectorIdSaIdEE@Base 5.2.0
 _ZNK12ossimplugins29ossimPleiadesDimapSupportData15getSunElevationERSt6vectorIdSaIdEE@Base 5.2.0
 _ZNK12ossimplugins29ossimPleiadesDimapSupportData15getViewingAngleERSt6vectorIdSaIdEE@Base 5.2.0
 _ZNK12ossimplugins29ossimPleiadesDimapSupportData16getNumberOfBandsEv@Base 5.2.0
 _ZNK12ossimplugins29ossimPleiadesDimapSupportData16getRefImagePointER8ossimDpt@Base 5.2.0
 _ZNK12ossimplugins29ossimPleiadesDimapSupportData17getIncidenceAngleERSt6vectorIdSaIdEE@Base 5.2.0
 _ZNK12ossimplugins29ossimPleiadesDimapSupportData17getProductionDateEv@Base 5.2.0
 _ZNK12ossimplugins29ossimPleiadesDimapSupportData17getRefGroundPointER8ossimGpt@Base 5.2.0
 _ZNK12ossimplugins29ossimPleiadesDimapSupportData18getAcquisitionDateEv@Base 5.2.0
 _ZNK12ossimplugins29ossimPleiadesDimapSupportData18getInstrumentIndexEv@Base 5.2.0
 _ZNK12ossimplugins29ossimPleiadesDimapSupportData18getProcessingLevelEv@Base 5.2.0
 _ZNK12ossimplugins29ossimPleiadesDimapSupportData27getAlongTrackIncidenceAngleERSt6vectorIdSaIdEE@Base 5.2.0
 _ZNK12ossimplugins29ossimPleiadesDimapSupportData28getAcrossTrackIncidenceAngleERSt6vectorIdSaIdEE@Base 5.2.0
 _ZNK12ossimplugins29ossimPleiadesDimapSupportData9createDptERK11ossimString@Base 5.2.0
 _ZNK12ossimplugins29ossimPleiadesDimapSupportData9createIptERK11ossimString@Base 5.2.0
 _ZNK12ossimplugins29ossimPleiadesDimapSupportData9printInfoERSo@Base 5.2.0
 _ZNK12ossimplugins29ossimPleiadesDimapSupportData9saveStateER16ossimKeywordlistPKc@Base 5.2.0
 _ZNK12ossimplugins5Noise5printERSo@Base 5.2.0
 _ZNK12ossimplugins5Noise9saveStateER16ossimKeywordlistPKc@Base 5.2.0
 _ZNK12ossimplugins8RefPoint11get_pix_colEv@Base 5.2.0
 _ZNK12ossimplugins8RefPoint12get_distanceEv@Base 5.2.0
 _ZNK12ossimplugins8RefPoint12get_pix_lineEv@Base 5.2.0
 _ZNK12ossimplugins8RefPoint9saveStateER16ossimKeywordlistPKc@Base 5.2.0
 _ZNK12ossimplugins9Ephemeris9saveStateER16ossimKeywordlistPKc@Base 5.2.0
 _ZNK12ossimplugins9SarSensor12ImageToWorldEdNS_11JSDDateTimeEdRdS2_@Base 5.2.0
 _ZNK12ossimplugins9SarSensor15localisationSARENS_19GeographicEphemerisEdddidddPNS_21RectangularCoordinateE@Base 5.2.0
 _ZNK13ossimRpcModel10useForwardEv@Base 5.2.0
 _ZNK13ossimSarModel10useForwardEv@Base 5.2.0
 _ZNK14ossimEllipsoid9isEqualToERKS_16ossimCompareType@Base 5.2.0
 _ZNK15ossimProjection10RTTI_vinfoEv@Base 5.2.0
 _ZNK15ossimProjection7forwardERK8ossimGpt@Base 5.2.0
 _ZNK15ossimProjection7inverseERK8ossimDpt@Base 5.2.0
 _ZNK15ossimProjection9isEqualToERK11ossimObject16ossimCompareType@Base 5.2.0
 _ZNK15ossimProjectionneERKS_@Base 5.2.0
 _ZNK15ossimReferenced5unrefEv@Base 5.2.0
 _ZNK16ossimImageSource9getObjectEv@Base 5.2.0
 _ZNK16ossimSensorModel11insideImageERK8ossimDpt@Base 5.2.0
 _ZNK16ossimSensorModel17getMetersPerPixelEv@Base 5.2.0
 _ZNK16ossimSensorModel17needsInitialStateEv@Base 5.2.0
 _ZNK16ossimSensorModel18getNominalPosErrorEv@Base 5.2.0
 _ZNK16ossimSensorModel19getRelativePosErrorEv@Base 5.2.0
 _ZNK16ossimSensorModel21isAffectedByElevationEv@Base 5.2.0
 _ZNK16ossimSensorModel6originEv@Base 5.2.0
 _ZNK16ossimSensorModeleqERK15ossimProjection@Base 5.2.0
 _ZNK21ossimOgcWktTranslator10toOssimKwlERK11ossimStringR16ossimKeywordlistPKc@Base 5.2.0
 _ZNK21ossimOgcWktTranslator12fromOssimKwlERK16ossimKeywordlistPKc@Base 5.2.0
 _ZNK21ossimOgcWktTranslator15ossimToWktDatumERK11ossimString@Base 5.2.0
 _ZNK21ossimOgcWktTranslator15wktToOssimDatumERK11ossimString@Base 5.2.0
 _ZNK21ossimOgcWktTranslator20ossimToWktProjectionERK11ossimString@Base 5.2.0
 _ZNK21ossimOgcWktTranslator20wktToOssimProjectionERK11ossimString@Base 5.2.0
 _ZNK25ossimErrorStatusInterface10RTTI_vinfoEv@Base 5.2.0
 _ZNK26ossimProjectionFactoryBase10RTTI_vinfoEv@Base 5.2.0
 _ZNK29ossimFormosatDimapSupportData10getImageIDEv@Base 5.2.0
 _ZNK29ossimFormosatDimapSupportData11getAttitudeERKdR10ossimDpt3d@Base 5.2.0
 _ZNK29ossimFormosatDimapSupportData11getAttitudeEjR10ossimDpt3d@Base 5.2.0
 _ZNK29ossimFormosatDimapSupportData11getSensorIDEv@Base 5.2.0
 _ZNK29ossimFormosatDimapSupportData12createGroundERK11ossimString@Base 5.2.0
 _ZNK29ossimFormosatDimapSupportData12getImageRectER10ossimDrect@Base 5.2.0
 _ZNK29ossimFormosatDimapSupportData12getImageSizeER8ossimDpt@Base 5.2.0
 _ZNK29ossimFormosatDimapSupportData13getInstrumentEv@Base 5.2.0
 _ZNK29ossimFormosatDimapSupportData13getSatAzimuthERd@Base 5.2.0
 _ZNK29ossimFormosatDimapSupportData13getSunAzimuthERd@Base 5.2.0
 _ZNK29ossimFormosatDimapSupportData14getAttSampTimeEjRd@Base 5.2.0
 _ZNK29ossimFormosatDimapSupportData14getEphSampTimeEjRd@Base 5.2.0
 _ZNK29ossimFormosatDimapSupportData14getGeoPosPointEjR8ossimDptR8ossimGpt@Base 5.2.0
 _ZNK29ossimFormosatDimapSupportData14getPositionEcfERKdR14ossimEcefPoint@Base 5.2.0
 _ZNK29ossimFormosatDimapSupportData14getPositionEcfEjR14ossimEcefPoint@Base 5.2.0
 _ZNK29ossimFormosatDimapSupportData14getRefLineTimeERd@Base 5.2.0
 _ZNK29ossimFormosatDimapSupportData14getVelocityEcfERKdR14ossimEcefPoint@Base 5.2.0
 _ZNK29ossimFormosatDimapSupportData14getVelocityEcfEjR14ossimEcefPoint@Base 5.2.0
 _ZNK29ossimFormosatDimapSupportData15getMetadataFileEv@Base 5.2.0
 _ZNK29ossimFormosatDimapSupportData15getSunElevationERd@Base 5.2.0
 _ZNK29ossimFormosatDimapSupportData15getViewingAngleERd@Base 5.2.0
 _ZNK29ossimFormosatDimapSupportData16convertTimeStampERK11ossimString@Base 5.2.0
 _ZNK29ossimFormosatDimapSupportData16convertTimeStampERK11ossimStringRd@Base 5.2.0
 _ZNK29ossimFormosatDimapSupportData16getNumAttSamplesEv@Base 5.2.0
 _ZNK29ossimFormosatDimapSupportData16getNumEphSamplesEv@Base 5.2.0
 _ZNK29ossimFormosatDimapSupportData16getNumberOfBandsEv@Base 5.2.0
 _ZNK29ossimFormosatDimapSupportData16getRefImagePointER8ossimDpt@Base 5.2.0
 _ZNK29ossimFormosatDimapSupportData17getIncidenceAngleERd@Base 5.2.0
 _ZNK29ossimFormosatDimapSupportData17getProductionDateEv@Base 5.2.0
 _ZNK29ossimFormosatDimapSupportData17getRefGroundPointER8ossimGpt@Base 5.2.0
 _ZNK29ossimFormosatDimapSupportData17getSubImageOffsetER8ossimDpt@Base 5.2.0
 _ZNK29ossimFormosatDimapSupportData17isStarTrackerUsedEv@Base 5.2.0
 _ZNK29ossimFormosatDimapSupportData18getAcquisitionDateEv@Base 5.2.0
 _ZNK29ossimFormosatDimapSupportData18getInstrumentIndexEv@Base 5.2.0
 _ZNK29ossimFormosatDimapSupportData18getNumGeoPosPointsEv@Base 5.2.0
 _ZNK29ossimFormosatDimapSupportData18getPixelLookAngleXERKdRd@Base 5.2.0
 _ZNK29ossimFormosatDimapSupportData18getPixelLookAngleXEjRd@Base 5.2.0
 _ZNK29ossimFormosatDimapSupportData18getPixelLookAngleYERKdRd@Base 5.2.0
 _ZNK29ossimFormosatDimapSupportData18getPixelLookAngleYEjRd@Base 5.2.0
 _ZNK29ossimFormosatDimapSupportData18getRefLineTimeLineERd@Base 5.2.0
 _ZNK29ossimFormosatDimapSupportData18getSoftwareVersionEv@Base 5.2.0
 _ZNK29ossimFormosatDimapSupportData19getSceneOrientationERd@Base 5.2.0
 _ZNK29ossimFormosatDimapSupportData21getLineSamplingPeriodERd@Base 5.2.0
 _ZNK29ossimFormosatDimapSupportData24getBilinearInterpolationERKdRKSt6vectorI10ossimDpt3dSaIS3_EERKS2_IdSaIdEERS3_@Base 5.2.0
 _ZNK29ossimFormosatDimapSupportData24getInterpolatedLookAngleERKdRKSt6vectorIdSaIdEERd@Base 5.2.0
 _ZNK29ossimFormosatDimapSupportData24getLagrangeInterpolationERKdRKSt6vectorI10ossimDpt3dSaIS3_EERKS2_IdSaIdEERS3_@Base 5.2.0
 _ZNK29ossimFormosatDimapSupportData24getMetadataVersionStringEv@Base 5.2.0
 _ZNK29ossimFormosatDimapSupportData25getViewingAngleAlongTrackERd@Base 5.2.0
 _ZNK29ossimFormosatDimapSupportData26getViewingAngleAcrossTrackERd@Base 5.2.0
 _ZNK29ossimFormosatDimapSupportData3dupEv@Base 5.2.0
 _ZNK29ossimFormosatDimapSupportData9createDptERK11ossimString@Base 5.2.0
 _ZNK29ossimFormosatDimapSupportData9printInfoERSo@Base 5.2.0
 _ZNK29ossimFormosatDimapSupportData9saveStateER16ossimKeywordlistPKc@Base 5.2.0
 (optional=templinst)_ZNKSt5ctypeIcE8do_widenEc@Base 5.2.0
 (optional=templinst)_ZNKSt8_Rb_treeISsSt4pairIKSsSsESt10_Select1stIS2_ESt4lessISsESaIS2_EE4findERS1_@Base 5.2.0
 (optional=templinst)_ZNSt12_Destroy_auxILb0EE9__destroyIP11ossimRefPtrI12ossimXmlNodeEEEvT_S6_@Base 5.2.0
 (optional=templinst)_ZNSt12_Destroy_auxILb0EE9__destroyIP11ossimStringEEvT_S4_@Base 5.2.0
 (optional=templinst)_ZNSt12_Destroy_auxILb0EE9__destroyIP13ossimFilenameEEvT_S4_@Base 5.2.0
 (optional=templinst)_ZNSt15basic_stringbufIcSt11char_traitsIcESaIcEED0Ev@Base 5.2.0
 (optional=templinst)_ZNSt15basic_stringbufIcSt11char_traitsIcESaIcEED1Ev@Base 5.2.0
 (optional=templinst)_ZNSt15basic_stringbufIcSt11char_traitsIcESaIcEED2Ev@Base 5.2.0
 (optional=templinst)_ZNSt4listI8ossimGptSaIS0_EEaSERKS2_@Base 5.2.0
 (optional=templinst)_ZNSt4pairIKSsSsED1Ev@Base 5.2.0
 (optional=templinst)_ZNSt4pairIKSsSsED2Ev@Base 5.2.0
 (optional=templinst)_ZNSt4pairISsSsED1Ev@Base 5.2.0
 (optional=templinst)_ZNSt4pairISsSsED2Ev@Base 5.2.0
 (optional=templinst)_ZNSt6vectorI10ossimDpt3dSaIS0_EE13_M_insert_auxEN9__gnu_cxx17__normal_iteratorIPS0_S2_EERKS0_@Base 5.2.0
 (optional=templinst)_ZNSt6vectorI10ossimDpt3dSaIS0_EE14_M_fill_insertEN9__gnu_cxx17__normal_iteratorIPS0_S2_EEmRKS0_@Base 5.2.0
 (optional=templinst)_ZNSt6vectorI11ossimRefPtrI12ossimXmlNodeESaIS2_EED1Ev@Base 5.2.0
 (optional=templinst)_ZNSt6vectorI11ossimRefPtrI12ossimXmlNodeESaIS2_EED2Ev@Base 5.2.0
 (optional=templinst)_ZNSt6vectorI11ossimStringSaIS0_EE13_M_insert_auxEN9__gnu_cxx17__normal_iteratorIPS0_S2_EERKS0_@Base 5.2.0
 (optional=templinst)_ZNSt6vectorI11ossimStringSaIS0_EE14_M_fill_insertEN9__gnu_cxx17__normal_iteratorIPS0_S2_EEmRKS0_@Base 5.2.0
 (optional=templinst)_ZNSt6vectorI11ossimStringSaIS0_EE9push_backERKS0_@Base 5.2.0
 (optional=templinst)_ZNSt6vectorI11ossimStringSaIS0_EED1Ev@Base 5.2.0
 (optional=templinst)_ZNSt6vectorI11ossimStringSaIS0_EED2Ev@Base 5.2.0
 (optional=templinst)_ZNSt6vectorI11ossimStringSaIS0_EEaSERKS2_@Base 5.2.0
 (optional=templinst)_ZNSt6vectorI13ossimFilenameSaIS0_EE13_M_insert_auxEN9__gnu_cxx17__normal_iteratorIPS0_S2_EERKS0_@Base 5.2.0
 (optional=templinst)_ZNSt6vectorI13ossimFilenameSaIS0_EED1Ev@Base 5.2.0
 (optional=templinst)_ZNSt6vectorI13ossimFilenameSaIS0_EED2Ev@Base 5.2.0
 (optional=templinst)_ZNSt6vectorI8ossimDptSaIS0_EE13_M_insert_auxEN9__gnu_cxx17__normal_iteratorIPS0_S2_EERKS0_@Base 5.2.0
 (optional=templinst)_ZNSt6vectorI8ossimGptSaIS0_EE13_M_insert_auxEN9__gnu_cxx17__normal_iteratorIPS0_S2_EERKS0_@Base 5.2.0
 (optional=templinst)_ZNSt6vectorIN12ossimplugins10ImageNoiseESaIS1_EE13_M_insert_auxEN9__gnu_cxx17__normal_iteratorIPS1_S3_EERKS1_@Base 5.2.0
 (optional=templinst)_ZNSt6vectorIN12ossimplugins10ImageNoiseESaIS1_EED1Ev@Base 5.2.0
 (optional=templinst)_ZNSt6vectorIN12ossimplugins10ImageNoiseESaIS1_EED2Ev@Base 5.2.0
 (optional=templinst)_ZNSt6vectorIN12ossimplugins10ImageNoiseESaIS1_EEaSERKS3_@Base 5.2.0
 (optional=templinst)_ZNSt6vectorIN12ossimplugins11JSDDateTimeESaIS1_EE13_M_insert_auxEN9__gnu_cxx17__normal_iteratorIPS1_S3_EERKS1_@Base 5.2.0
 (optional=templinst)_ZNSt6vectorIN12ossimplugins14InfoSceneCoordESaIS1_EE13_M_insert_auxEN9__gnu_cxx17__normal_iteratorIPS1_S3_EERKS1_@Base 5.2.0
 (optional=templinst)_ZNSt6vectorIN12ossimplugins14InfoSceneCoordESaIS1_EEaSERKS3_@Base 5.2.0
 (optional=templinst)_ZNSt6vectorIN12ossimplugins18InfoIncidenceAngleESaIS1_EE13_M_insert_auxEN9__gnu_cxx17__normal_iteratorIPS1_S3_EERKS1_@Base 5.2.0
 (optional=templinst)_ZNSt6vectorIN12ossimplugins18InfoIncidenceAngleESaIS1_EEaSERKS3_@Base 5.2.0
 (optional=templinst)_ZNSt6vectorIN12ossimplugins19RadarSat2NoiseLevelESaIS1_EE13_M_insert_auxEN9__gnu_cxx17__normal_iteratorIPS1_S3_EERKS1_@Base 5.2.0
 (optional=templinst)_ZNSt6vectorIN12ossimplugins3dsdESaIS1_EE13_M_insert_auxEN9__gnu_cxx17__normal_iteratorIPS1_S3_EERKS1_@Base 5.2.0
 (optional=templinst)_ZNSt6vectorIN12ossimplugins5NoiseESaIS1_EE14_M_fill_insertEN9__gnu_cxx17__normal_iteratorIPS1_S3_EEmRKS1_@Base 5.2.0
 (optional=templinst)_ZNSt6vectorIN12ossimplugins5NoiseESaIS1_EED1Ev@Base 5.2.0
 (optional=templinst)_ZNSt6vectorIN12ossimplugins5NoiseESaIS1_EED2Ev@Base 5.2.0
 (optional=templinst)_ZNSt6vectorIP26ossimProjectionFactoryBaseSaIS1_EE13_M_insert_auxEN9__gnu_cxx17__normal_iteratorIPS1_S3_EERKS1_@Base 5.2.0
 (optional=templinst)_ZNSt6vectorIP28ossimImageHandlerFactoryBaseSaIS1_EE13_M_insert_auxEN9__gnu_cxx17__normal_iteratorIPS1_S3_EERKS1_@Base 5.2.0
 (optional=templinst)_ZNSt6vectorIPN12ossimplugins9EphemerisESaIS2_EE13_M_insert_auxEN9__gnu_cxx17__normal_iteratorIPS2_S4_EERKS2_@Base 5.2.0
 (optional=templinst)_ZNSt6vectorIS_IdSaIdEESaIS1_EE13_M_insert_auxEN9__gnu_cxx17__normal_iteratorIPS1_S3_EERKS1_@Base 5.2.0
 (optional=templinst)_ZNSt6vectorIS_IdSaIdEESaIS1_EE14_M_fill_insertEN9__gnu_cxx17__normal_iteratorIPS1_S3_EEmRKS1_@Base 5.2.0
 (optional=templinst)_ZNSt6vectorIS_IdSaIdEESaIS1_EED1Ev@Base 5.2.0
 (optional=templinst)_ZNSt6vectorIS_IdSaIdEESaIS1_EED2Ev@Base 5.2.0
 (optional=templinst)_ZNSt6vectorIcSaIcEE14_M_fill_insertEN9__gnu_cxx17__normal_iteratorIPcS1_EEmRKc@Base 5.2.0
 (optional=templinst)_ZNSt6vectorIdSaIdEE13_M_insert_auxEN9__gnu_cxx17__normal_iteratorIPdS1_EERKd@Base 5.2.0
 (optional=templinst)_ZNSt6vectorIdSaIdEE14_M_fill_assignEmRKd@Base 5.2.0
 (optional=templinst)_ZNSt6vectorIdSaIdEE14_M_fill_insertEN9__gnu_cxx17__normal_iteratorIPdS1_EEmRKd@Base 5.2.0
 (optional=templinst)_ZNSt6vectorIdSaIdEE6resizeEmd@Base 5.2.0
 (optional=templinst)_ZNSt6vectorIdSaIdEEaSERKS1_@Base 5.2.0
 (optional=templinst)_ZNSt6vectorIiSaIiEE13_M_insert_auxEN9__gnu_cxx17__normal_iteratorIPiS1_EERKi@Base 5.2.0
 (optional=templinst)_ZNSt6vectorIiSaIiEE14_M_fill_insertEN9__gnu_cxx17__normal_iteratorIPiS1_EEmRKi@Base 5.2.0
 (optional=templinst)_ZNSt8_Rb_treeISsSt4pairIKSsPN12ossimplugins17EnvisatAsarRecordEESt10_Select1stIS5_ESt4lessISsESaIS5_EE17_M_insert_unique_ESt23_Rb_tree_const_iteratorIS5_ERKS5_@Base 5.2.0
 (optional=templinst)_ZNSt8_Rb_treeISsSt4pairIKSsPN12ossimplugins17EnvisatAsarRecordEESt10_Select1stIS5_ESt4lessISsESaIS5_EE24_M_get_insert_unique_posERS1_@Base 5.2.0
 (optional=templinst)_ZNSt8_Rb_treeISsSt4pairIKSsPN12ossimplugins17EnvisatAsarRecordEESt10_Select1stIS5_ESt4lessISsESaIS5_EE8_M_eraseEPSt13_Rb_tree_nodeIS5_E@Base 5.2.0
 (optional=templinst)_ZNSt8_Rb_treeISsSt4pairIKSsSsESt10_Select1stIS2_ESt4lessISsESaIS2_EE16_M_insert_uniqueERKS2_@Base 5.2.0
 (optional=templinst)_ZNSt8_Rb_treeISsSt4pairIKSsSsESt10_Select1stIS2_ESt4lessISsESaIS2_EE8_M_eraseEPSt13_Rb_tree_nodeIS2_E@Base 5.2.0
 (optional=templinst)_ZNSt8_Rb_treeIiSt4pairIKiPN12ossimplugins12ErsSarRecordEESt10_Select1stIS5_ESt4lessIiESaIS5_EE29_M_get_insert_hint_unique_posESt23_Rb_tree_const_iteratorIS5_ERS1_@Base 5.2.0
 (optional=templinst)_ZNSt8_Rb_treeIiSt4pairIKiPN12ossimplugins12ErsSarRecordEESt10_Select1stIS5_ESt4lessIiESaIS5_EE8_M_eraseEPSt13_Rb_tree_nodeIS5_E@Base 5.2.0
 (optional=templinst)_ZNSt8_Rb_treeIiSt4pairIKiPN12ossimplugins14RadarSatRecordEESt10_Select1stIS5_ESt4lessIiESaIS5_EE29_M_get_insert_hint_unique_posESt23_Rb_tree_const_iteratorIS5_ERS1_@Base 5.2.0
 (optional=templinst)_ZNSt8_Rb_treeIiSt4pairIKiPN12ossimplugins14RadarSatRecordEESt10_Select1stIS5_ESt4lessIiESaIS5_EE8_M_eraseEPSt13_Rb_tree_nodeIS5_E@Base 5.2.0
 (optional=templinst)_ZNSt8_Rb_treeIiSt4pairIKiPN12ossimplugins16AlosPalsarRecordEESt10_Select1stIS5_ESt4lessIiESaIS5_EE29_M_get_insert_hint_unique_posESt23_Rb_tree_const_iteratorIS5_ERS1_@Base 5.2.0
 (optional=templinst)_ZNSt8_Rb_treeIiSt4pairIKiPN12ossimplugins16AlosPalsarRecordEESt10_Select1stIS5_ESt4lessIiESaIS5_EE8_M_eraseEPSt13_Rb_tree_nodeIS5_E@Base 5.2.0
 (optional=templinst)_ZSt3powIdESt7complexIT_ERKS2_RKS1_@Base 5.2.0
 (optional=templinst)_ZSt9__find_ifIN9__gnu_cxx17__normal_iteratorIP11ossimStringSt6vectorIS2_SaIS2_EEEENS0_5__ops16_Iter_equals_valIKS2_EEET_SC_SC_T0_St26random_access_iterator_tag@Base 5.2.0
 _ZTI14ossimEllipsoid@Base 5.2.0
 _ZTI15ossimProjection@Base 5.2.0
 _ZTI29ossimFormosatDimapSupportData@Base 5.2.0
 _ZTIN12ossimplugins10ImageNoiseE@Base 5.2.0
 _ZTIN12ossimplugins10SceneCoordE@Base 5.2.0
 _ZTIN12ossimplugins10TextRecordE@Base 5.2.0
 _ZTIN12ossimplugins11DataQualityE@Base 5.2.0
 _ZTIN12ossimplugins12AttitudeDataE@Base 5.2.0
 _ZTIN12ossimplugins12ErsSarLeaderE@Base 5.2.0
 _ZTIN12ossimplugins12ErsSarRecordE@Base 5.2.0
 _ZTIN12ossimplugins12SensorParamsE@Base 5.2.0
 _ZTIN12ossimplugins14AlosPalsarDataE@Base 5.2.0
 _ZTIN12ossimplugins14DataSetSummaryE@Base 5.2.0
 _ZTIN12ossimplugins14FileDescriptorE@Base 5.2.0
 _ZTIN12ossimplugins14InfoSceneCoordE@Base 5.2.0
 _ZTIN12ossimplugins14RadarSatRecordE@Base 5.2.0
 _ZTIN12ossimplugins15ChirpParametersE@Base 5.2.0
 _ZTIN12ossimplugins15GeolocationGridE@Base 5.2.0
 _ZTIN12ossimplugins15IncidenceAnglesE@Base 5.2.0
 _ZTIN12ossimplugins15RadiometricDataE@Base 5.2.0
 _ZTIN12ossimplugins15ossimSpot6ModelE@Base 5.2.0
 _ZTIN12ossimplugins16AlosPalsarLeaderE@Base 5.2.0
 _ZTIN12ossimplugins16AlosPalsarRecordE@Base 5.2.0
 _ZTIN12ossimplugins16ossimErsSarModelE@Base 5.2.0
 _ZTIN12ossimplugins17EnvisatAsarRecordE@Base 5.2.0
 _ZTIN12ossimplugins17FilePointerRecordE@Base 5.2.0
 _ZTIN12ossimplugins17GalileanEphemerisE@Base 5.2.0
 _ZTIN12ossimplugins17ossimTileMapModelE@Base 5.2.0
 _ZTIN12ossimplugins18ErsSarFacilityDataE@Base 5.2.0
 _ZTIN12ossimplugins18ErsSarRecordHeaderE@Base 5.2.0
 _ZTIN12ossimplugins18InfoIncidenceAngleE@Base 5.2.0
 _ZTIN12ossimplugins18ossimFormosatModelE@Base 5.2.0
 _ZTIN12ossimplugins18ossimPleiadesModelE@Base 5.2.0
 _ZTIN12ossimplugins18ossimRadarSatModelE@Base 5.2.0
 _ZTIN12ossimplugins18ossimTerraSarModelE@Base 5.2.0
 _ZTIN12ossimplugins19ErsSarLeaderFactoryE@Base 5.2.0
 _ZTIN12ossimplugins19ErsSarRecordFactoryE@Base 5.2.0
 _ZTIN12ossimplugins19GeographicEphemerisE@Base 5.2.0
 _ZTIN12ossimplugins19ProcessedDataRecordE@Base 5.2.0
 _ZTIN12ossimplugins19RadarSat2NoiseLevelE@Base 5.2.0
 _ZTIN12ossimplugins19ossimRadarSat2ModelE@Base 5.2.0
 _ZTIN12ossimplugins19ossimSentinel1ModelE@Base 5.2.0
 _ZTIN12ossimplugins20AlosPalsarSignalDataE@Base 5.2.0
 _ZTIN12ossimplugins20ErsSarDataSetSummaryE@Base 5.2.0
 _ZTIN12ossimplugins20ErsSarFileDescriptorE@Base 5.2.0
 _ZTIN12ossimplugins20PlatformPositionDataE@Base 5.2.0
 _ZTIN12ossimplugins20ProcessingParametersE@Base 5.2.0
 _ZTIN12ossimplugins20ossimAlosPalsarModelE@Base 5.2.0
 _ZTIN12ossimplugins21ossimCosmoSkymedModelE@Base 5.2.0
 _ZTIN12ossimplugins21ossimEnvisatAsarModelE@Base 5.2.0
 _ZTIN12ossimplugins22AlosPalsarFacilityDataE@Base 5.2.0
 _ZTIN12ossimplugins22VolumeDescriptorRecordE@Base 5.2.0
 _ZTIN12ossimplugins22ossimRadarSat2RPCModelE@Base 5.2.0
 _ZTIN12ossimplugins23DataHistogramSignalDataE@Base 5.2.0
 _ZTIN12ossimplugins23ErsSarMapProjectionDataE@Base 5.2.0
 _ZTIN12ossimplugins23ossimTerraSarTiffReaderE@Base 5.2.0
 _ZTIN12ossimplugins24AlosPalsarDataSetSummaryE@Base 5.2.0
 _ZTIN12ossimplugins24AlosPalsarFileDescriptorE@Base 5.2.0
 _ZTIN12ossimplugins24AntennaElevationPatternsE@Base 5.2.0
 _ZTIN12ossimplugins24MainProcessingParametersE@Base 5.2.0
 _ZTIN12ossimplugins24SRGRConversionParametersE@Base 5.2.0
 _ZTIN12ossimplugins24ossimPluginReaderFactoryE@Base 5.2.0
 _ZTIN12ossimplugins24ossimRadarSat2TiffReaderE@Base 5.2.0
 _ZTIN12ossimplugins24ossimSentinel1ProductDocE@Base 5.2.0
 _ZTIN12ossimplugins25AlosPalsarRadiometricDataE@Base 5.2.0
 _ZTIN12ossimplugins25DopplerCentroidParametersE@Base 5.2.0
 _ZTIN12ossimplugins26DataHistogramProcessedDataE@Base 5.2.0
 _ZTIN12ossimplugins26ErsSarPlatformPositionDataE@Base 5.2.0
 _ZTIN12ossimplugins26ErsSarPositionVectorRecordE@Base 5.2.0
 _ZTIN12ossimplugins26ImageOptionsFileDescriptorE@Base 5.2.0
 _ZTIN12ossimplugins26ossimSpot6DimapSupportDataE@Base 5.2.0
 _ZTIN12ossimplugins27AlosPalsarMapProjectionDataE@Base 5.2.0
 _ZTIN12ossimplugins27RadiometricCompensationDataE@Base 5.2.0
 _ZTIN12ossimplugins28AlosPalsarDataFileDescriptorE@Base 5.2.0
 _ZTIN12ossimplugins28ossimGeometricSarSensorModelE@Base 5.2.0
 _ZTIN12ossimplugins28ossimPluginProjectionFactoryE@Base 5.2.0
 _ZTIN12ossimplugins29ossimPleiadesDimapSupportDataE@Base 5.2.0
 _ZTIN12ossimplugins30AlosPalsarPlatformPositionDataE@Base 5.2.0
 _ZTIN12ossimplugins3dsdE@Base 5.2.0
 _ZTIN12ossimplugins3mphE@Base 5.2.0
 _ZTIN12ossimplugins3sphE@Base 5.2.0
 _ZTIN12ossimplugins5NoiseE@Base 5.2.0
 _ZTIN12ossimplugins6SensorE@Base 5.2.0
 _ZTIN12ossimplugins7SQ_ADSRE@Base 5.2.0
 _ZTIN12ossimplugins9EphemerisE@Base 5.2.0
 _ZTIN12ossimplugins9SarSensorE@Base 5.2.0
 _ZTS14ossimEllipsoid@Base 5.2.0
 _ZTS15ossimProjection@Base 5.2.0
 _ZTS29ossimFormosatDimapSupportData@Base 5.2.0
 _ZTSN12ossimplugins10ImageNoiseE@Base 5.2.0
 _ZTSN12ossimplugins10SceneCoordE@Base 5.2.0
 _ZTSN12ossimplugins10TextRecordE@Base 5.2.0
 _ZTSN12ossimplugins11DataQualityE@Base 5.2.0
 _ZTSN12ossimplugins12AttitudeDataE@Base 5.2.0
 _ZTSN12ossimplugins12ErsSarLeaderE@Base 5.2.0
 _ZTSN12ossimplugins12ErsSarRecordE@Base 5.2.0
 _ZTSN12ossimplugins12SensorParamsE@Base 5.2.0
 _ZTSN12ossimplugins14AlosPalsarDataE@Base 5.2.0
 _ZTSN12ossimplugins14DataSetSummaryE@Base 5.2.0
 _ZTSN12ossimplugins14FileDescriptorE@Base 5.2.0
 _ZTSN12ossimplugins14InfoSceneCoordE@Base 5.2.0
 _ZTSN12ossimplugins14RadarSatRecordE@Base 5.2.0
 _ZTSN12ossimplugins15ChirpParametersE@Base 5.2.0
 _ZTSN12ossimplugins15GeolocationGridE@Base 5.2.0
 _ZTSN12ossimplugins15IncidenceAnglesE@Base 5.2.0
 _ZTSN12ossimplugins15RadiometricDataE@Base 5.2.0
 _ZTSN12ossimplugins15ossimSpot6ModelE@Base 5.2.0
 _ZTSN12ossimplugins16AlosPalsarLeaderE@Base 5.2.0
 _ZTSN12ossimplugins16AlosPalsarRecordE@Base 5.2.0
 _ZTSN12ossimplugins16ossimErsSarModelE@Base 5.2.0
 _ZTSN12ossimplugins17EnvisatAsarRecordE@Base 5.2.0
 _ZTSN12ossimplugins17FilePointerRecordE@Base 5.2.0
 _ZTSN12ossimplugins17GalileanEphemerisE@Base 5.2.0
 _ZTSN12ossimplugins17ossimTileMapModelE@Base 5.2.0
 _ZTSN12ossimplugins18ErsSarFacilityDataE@Base 5.2.0
 _ZTSN12ossimplugins18ErsSarRecordHeaderE@Base 5.2.0
 _ZTSN12ossimplugins18InfoIncidenceAngleE@Base 5.2.0
 _ZTSN12ossimplugins18ossimFormosatModelE@Base 5.2.0
 _ZTSN12ossimplugins18ossimPleiadesModelE@Base 5.2.0
 _ZTSN12ossimplugins18ossimRadarSatModelE@Base 5.2.0
 _ZTSN12ossimplugins18ossimTerraSarModelE@Base 5.2.0
 _ZTSN12ossimplugins19ErsSarLeaderFactoryE@Base 5.2.0
 _ZTSN12ossimplugins19ErsSarRecordFactoryE@Base 5.2.0
 _ZTSN12ossimplugins19GeographicEphemerisE@Base 5.2.0
 _ZTSN12ossimplugins19ProcessedDataRecordE@Base 5.2.0
 _ZTSN12ossimplugins19RadarSat2NoiseLevelE@Base 5.2.0
 _ZTSN12ossimplugins19ossimRadarSat2ModelE@Base 5.2.0
 _ZTSN12ossimplugins19ossimSentinel1ModelE@Base 5.2.0
 _ZTSN12ossimplugins20AlosPalsarSignalDataE@Base 5.2.0
 _ZTSN12ossimplugins20ErsSarDataSetSummaryE@Base 5.2.0
 _ZTSN12ossimplugins20ErsSarFileDescriptorE@Base 5.2.0
 _ZTSN12ossimplugins20PlatformPositionDataE@Base 5.2.0
 _ZTSN12ossimplugins20ProcessingParametersE@Base 5.2.0
 _ZTSN12ossimplugins20ossimAlosPalsarModelE@Base 5.2.0
 _ZTSN12ossimplugins21ossimCosmoSkymedModelE@Base 5.2.0
 _ZTSN12ossimplugins21ossimEnvisatAsarModelE@Base 5.2.0
 _ZTSN12ossimplugins22AlosPalsarFacilityDataE@Base 5.2.0
 _ZTSN12ossimplugins22VolumeDescriptorRecordE@Base 5.2.0
 _ZTSN12ossimplugins22ossimRadarSat2RPCModelE@Base 5.2.0
 _ZTSN12ossimplugins23DataHistogramSignalDataE@Base 5.2.0
 _ZTSN12ossimplugins23ErsSarMapProjectionDataE@Base 5.2.0
 _ZTSN12ossimplugins23ossimTerraSarTiffReaderE@Base 5.2.0
 _ZTSN12ossimplugins24AlosPalsarDataSetSummaryE@Base 5.2.0
 _ZTSN12ossimplugins24AlosPalsarFileDescriptorE@Base 5.2.0
 _ZTSN12ossimplugins24AntennaElevationPatternsE@Base 5.2.0
 _ZTSN12ossimplugins24MainProcessingParametersE@Base 5.2.0
 _ZTSN12ossimplugins24SRGRConversionParametersE@Base 5.2.0
 _ZTSN12ossimplugins24ossimPluginReaderFactoryE@Base 5.2.0
 _ZTSN12ossimplugins24ossimRadarSat2TiffReaderE@Base 5.2.0
 _ZTSN12ossimplugins24ossimSentinel1ProductDocE@Base 5.2.0
 _ZTSN12ossimplugins25AlosPalsarRadiometricDataE@Base 5.2.0
 _ZTSN12ossimplugins25DopplerCentroidParametersE@Base 5.2.0
 _ZTSN12ossimplugins26DataHistogramProcessedDataE@Base 5.2.0
 _ZTSN12ossimplugins26ErsSarPlatformPositionDataE@Base 5.2.0
 _ZTSN12ossimplugins26ErsSarPositionVectorRecordE@Base 5.2.0
 _ZTSN12ossimplugins26ImageOptionsFileDescriptorE@Base 5.2.0
 _ZTSN12ossimplugins26ossimSpot6DimapSupportDataE@Base 5.2.0
 _ZTSN12ossimplugins27AlosPalsarMapProjectionDataE@Base 5.2.0
 _ZTSN12ossimplugins27RadiometricCompensationDataE@Base 5.2.0
 _ZTSN12ossimplugins28AlosPalsarDataFileDescriptorE@Base 5.2.0
 _ZTSN12ossimplugins28ossimGeometricSarSensorModelE@Base 5.2.0
 _ZTSN12ossimplugins28ossimPluginProjectionFactoryE@Base 5.2.0
 _ZTSN12ossimplugins29ossimPleiadesDimapSupportDataE@Base 5.2.0
 _ZTSN12ossimplugins30AlosPalsarPlatformPositionDataE@Base 5.2.0
 _ZTSN12ossimplugins3dsdE@Base 5.2.0
 _ZTSN12ossimplugins3mphE@Base 5.2.0
 _ZTSN12ossimplugins3sphE@Base 5.2.0
 _ZTSN12ossimplugins5NoiseE@Base 5.2.0
 _ZTSN12ossimplugins6SensorE@Base 5.2.0
 _ZTSN12ossimplugins7SQ_ADSRE@Base 5.2.0
 _ZTSN12ossimplugins9EphemerisE@Base 5.2.0
 _ZTSN12ossimplugins9SarSensorE@Base 5.2.0
 _ZTV14ossimEllipsoid@Base 5.2.0
 _ZTV15ossimProjection@Base 5.2.0
 _ZTV29ossimFormosatDimapSupportData@Base 5.2.0
 _ZTVN12ossimplugins10ImageNoiseE@Base 5.2.0
 _ZTVN12ossimplugins10SceneCoordE@Base 5.2.0
 _ZTVN12ossimplugins10TextRecordE@Base 5.2.0
 _ZTVN12ossimplugins11DataQualityE@Base 5.2.0
 _ZTVN12ossimplugins12AttitudeDataE@Base 5.2.0
 _ZTVN12ossimplugins12ErsSarLeaderE@Base 5.2.0
 _ZTVN12ossimplugins12ErsSarRecordE@Base 5.2.0
 _ZTVN12ossimplugins12SensorParamsE@Base 5.2.0
 _ZTVN12ossimplugins14AlosPalsarDataE@Base 5.2.0
 _ZTVN12ossimplugins14DataSetSummaryE@Base 5.2.0
 _ZTVN12ossimplugins14FileDescriptorE@Base 5.2.0
 _ZTVN12ossimplugins14InfoSceneCoordE@Base 5.2.0
 _ZTVN12ossimplugins14RadarSatRecordE@Base 5.2.0
 _ZTVN12ossimplugins15ChirpParametersE@Base 5.2.0
 _ZTVN12ossimplugins15GeolocationGridE@Base 5.2.0
 _ZTVN12ossimplugins15IncidenceAnglesE@Base 5.2.0
 _ZTVN12ossimplugins15RadiometricDataE@Base 5.2.0
 _ZTVN12ossimplugins15ossimSpot6ModelE@Base 5.2.0
 _ZTVN12ossimplugins16AlosPalsarLeaderE@Base 5.2.0
 _ZTVN12ossimplugins16AlosPalsarRecordE@Base 5.2.0
 _ZTVN12ossimplugins16ossimErsSarModelE@Base 5.2.0
 _ZTVN12ossimplugins17EnvisatAsarRecordE@Base 5.2.0
 _ZTVN12ossimplugins17FilePointerRecordE@Base 5.2.0
 _ZTVN12ossimplugins17GalileanEphemerisE@Base 5.2.0
 _ZTVN12ossimplugins17ossimTileMapModelE@Base 5.2.0
 _ZTVN12ossimplugins18ErsSarFacilityDataE@Base 5.2.0
 _ZTVN12ossimplugins18ErsSarRecordHeaderE@Base 5.2.0
 _ZTVN12ossimplugins18InfoIncidenceAngleE@Base 5.2.0
 _ZTVN12ossimplugins18ossimFormosatModelE@Base 5.2.0
 _ZTVN12ossimplugins18ossimPleiadesModelE@Base 5.2.0
 _ZTVN12ossimplugins18ossimRadarSatModelE@Base 5.2.0
 _ZTVN12ossimplugins18ossimTerraSarModelE@Base 5.2.0
 _ZTVN12ossimplugins19ErsSarLeaderFactoryE@Base 5.2.0
 _ZTVN12ossimplugins19ErsSarRecordFactoryE@Base 5.2.0
 _ZTVN12ossimplugins19GeographicEphemerisE@Base 5.2.0
 _ZTVN12ossimplugins19ProcessedDataRecordE@Base 5.2.0
 _ZTVN12ossimplugins19RadarSat2NoiseLevelE@Base 5.2.0
 _ZTVN12ossimplugins19ossimRadarSat2ModelE@Base 5.2.0
 _ZTVN12ossimplugins19ossimSentinel1ModelE@Base 5.2.0
 _ZTVN12ossimplugins20AlosPalsarSignalDataE@Base 5.2.0
 _ZTVN12ossimplugins20ErsSarDataSetSummaryE@Base 5.2.0
 _ZTVN12ossimplugins20ErsSarFileDescriptorE@Base 5.2.0
 _ZTVN12ossimplugins20PlatformPositionDataE@Base 5.2.0
 _ZTVN12ossimplugins20ProcessingParametersE@Base 5.2.0
 _ZTVN12ossimplugins20ossimAlosPalsarModelE@Base 5.2.0
 _ZTVN12ossimplugins21ossimCosmoSkymedModelE@Base 5.2.0
 _ZTVN12ossimplugins21ossimEnvisatAsarModelE@Base 5.2.0
 _ZTVN12ossimplugins22AlosPalsarFacilityDataE@Base 5.2.0
 _ZTVN12ossimplugins22VolumeDescriptorRecordE@Base 5.2.0
 _ZTVN12ossimplugins22ossimRadarSat2RPCModelE@Base 5.2.0
 _ZTVN12ossimplugins23DataHistogramSignalDataE@Base 5.2.0
 _ZTVN12ossimplugins23ErsSarMapProjectionDataE@Base 5.2.0
 _ZTVN12ossimplugins23ossimTerraSarTiffReaderE@Base 5.2.0
 _ZTVN12ossimplugins24AlosPalsarDataSetSummaryE@Base 5.2.0
 _ZTVN12ossimplugins24AlosPalsarFileDescriptorE@Base 5.2.0
 _ZTVN12ossimplugins24AntennaElevationPatternsE@Base 5.2.0
 _ZTVN12ossimplugins24MainProcessingParametersE@Base 5.2.0
 _ZTVN12ossimplugins24SRGRConversionParametersE@Base 5.2.0
 _ZTVN12ossimplugins24ossimPluginReaderFactoryE@Base 5.2.0
 _ZTVN12ossimplugins24ossimRadarSat2TiffReaderE@Base 5.2.0
 _ZTVN12ossimplugins24ossimSentinel1ProductDocE@Base 5.2.0
 _ZTVN12ossimplugins25AlosPalsarRadiometricDataE@Base 5.2.0
 _ZTVN12ossimplugins25DopplerCentroidParametersE@Base 5.2.0
 _ZTVN12ossimplugins26DataHistogramProcessedDataE@Base 5.2.0
 _ZTVN12ossimplugins26ErsSarPlatformPositionDataE@Base 5.2.0
 _ZTVN12ossimplugins26ErsSarPositionVectorRecordE@Base 5.2.0
 _ZTVN12ossimplugins26ImageOptionsFileDescriptorE@Base 5.2.0
 _ZTVN12ossimplugins26ossimSpot6DimapSupportDataE@Base 5.2.0
 _ZTVN12ossimplugins27AlosPalsarMapProjectionDataE@Base 5.2.0
 _ZTVN12ossimplugins27RadiometricCompensationDataE@Base 5.2.0
 _ZTVN12ossimplugins28AlosPalsarDataFileDescriptorE@Base 5.2.0
 _ZTVN12ossimplugins28ossimGeometricSarSensorModelE@Base 5.2.0
 _ZTVN12ossimplugins28ossimPluginProjectionFactoryE@Base 5.2.0
 _ZTVN12ossimplugins29ossimPleiadesDimapSupportDataE@Base 5.2.0
 _ZTVN12ossimplugins30AlosPalsarPlatformPositionDataE@Base 5.2.0
 _ZTVN12ossimplugins3dsdE@Base 5.2.0
 _ZTVN12ossimplugins3mphE@Base 5.2.0
 _ZTVN12ossimplugins3sphE@Base 5.2.0
 _ZTVN12ossimplugins5NoiseE@Base 5.2.0
 _ZTVN12ossimplugins6SensorE@Base 5.2.0
 _ZTVN12ossimplugins7SQ_ADSRE@Base 5.2.0
 _ZTVN12ossimplugins9EphemerisE@Base 5.2.0
 _ZTVN12ossimplugins9SarSensorE@Base 5.2.0
 getClassName@Base 5.2.0
 getDescription@Base 5.2.0
 getNumberOfClassNames@Base 5.2.0
 myInfo@Base 5.2.0
 (c++)"non-virtual thunk to ossimFormosatDimapSupportData::~ossimFormosatDimapSupportData()@Base" 5.2.0
 (c++)"non-virtual thunk to ossimProjection::RTTI_vinfo() const@Base" 5.2.0
 (c++)"non-virtual thunk to ossimRpcModel::useForward() const@Base" 5.2.0
 (c++)"non-virtual thunk to ossimSarModel::useForward() const@Base" 5.2.0
 (c++)"non-virtual thunk to ossimSensorModel::adjustableParametersChanged()@Base" 5.2.0
 (c++)"non-virtual thunk to ossimSensorModel::needsInitialState() const@Base" 5.2.0
 (c++)"non-virtual thunk to ossimplugins::ossimAlosPalsarModel::RTTI_cast(RTTItypeid) const@Base" 5.2.0
 (c++)"non-virtual thunk to ossimplugins::ossimAlosPalsarModel::RTTI_cast(RTTItypeid)@Base" 5.2.0
 (c++)"non-virtual thunk to ossimplugins::ossimAlosPalsarModel::RTTI_vinfo() const@Base" 5.2.0
 (c++)"non-virtual thunk to ossimplugins::ossimAlosPalsarModel::~ossimAlosPalsarModel()@Base" 5.2.0
 (c++)"non-virtual thunk to ossimplugins::ossimCosmoSkymedModel::RTTI_cast(RTTItypeid) const@Base" 5.2.0
 (c++)"non-virtual thunk to ossimplugins::ossimCosmoSkymedModel::RTTI_cast(RTTItypeid)@Base" 5.2.0
 (c++)"non-virtual thunk to ossimplugins::ossimCosmoSkymedModel::RTTI_vinfo() const@Base" 5.2.0
 (c++)"non-virtual thunk to ossimplugins::ossimCosmoSkymedModel::~ossimCosmoSkymedModel()@Base" 5.2.0
 (c++)"non-virtual thunk to ossimplugins::ossimEnvisatAsarModel::RTTI_cast(RTTItypeid) const@Base" 5.2.0
 (c++)"non-virtual thunk to ossimplugins::ossimEnvisatAsarModel::RTTI_cast(RTTItypeid)@Base" 5.2.0
 (c++)"non-virtual thunk to ossimplugins::ossimEnvisatAsarModel::RTTI_vinfo() const@Base" 5.2.0
 (c++)"non-virtual thunk to ossimplugins::ossimEnvisatAsarModel::print(std::basic_ostream<char, std::char_traits<char> >&) const@Base" 5.2.0
 (c++)"non-virtual thunk to ossimplugins::ossimEnvisatAsarModel::~ossimEnvisatAsarModel()@Base" 5.2.0
 (c++)"non-virtual thunk to ossimplugins::ossimErsSarModel::RTTI_cast(RTTItypeid) const@Base" 5.2.0
 (c++)"non-virtual thunk to ossimplugins::ossimErsSarModel::RTTI_cast(RTTItypeid)@Base" 5.2.0
 (c++)"non-virtual thunk to ossimplugins::ossimErsSarModel::RTTI_vinfo() const@Base" 5.2.0
 (c++)"non-virtual thunk to ossimplugins::ossimErsSarModel::~ossimErsSarModel()@Base" 5.2.0
 (c++)"non-virtual thunk to ossimplugins::ossimFormosatModel::RTTI_cast(RTTItypeid) const@Base" 5.2.0
 (c++)"non-virtual thunk to ossimplugins::ossimFormosatModel::RTTI_cast(RTTItypeid)@Base" 5.2.0
 (c++)"non-virtual thunk to ossimplugins::ossimFormosatModel::RTTI_vinfo() const@Base" 5.2.0
 (c++)"non-virtual thunk to ossimplugins::ossimFormosatModel::initAdjustableParameters()@Base" 5.2.0
 (c++)"non-virtual thunk to ossimplugins::ossimFormosatModel::print(std::basic_ostream<char, std::char_traits<char> >&) const@Base" 5.2.0
 (c++)"non-virtual thunk to ossimplugins::ossimFormosatModel::setupOptimizer(ossimString const&)@Base" 5.2.0
 (c++)"non-virtual thunk to ossimplugins::ossimFormosatModel::useForward() const@Base" 5.2.0
 (c++)"non-virtual thunk to ossimplugins::ossimFormosatModel::~ossimFormosatModel()@Base" 5.2.0
 (c++)"non-virtual thunk to ossimplugins::ossimGeometricSarSensorModel::RTTI_cast(RTTItypeid) const@Base" 5.2.0
 (c++)"non-virtual thunk to ossimplugins::ossimGeometricSarSensorModel::RTTI_cast(RTTItypeid)@Base" 5.2.0
 (c++)"non-virtual thunk to ossimplugins::ossimGeometricSarSensorModel::RTTI_vinfo() const@Base" 5.2.0
 (c++)"non-virtual thunk to ossimplugins::ossimGeometricSarSensorModel::print(std::basic_ostream<char, std::char_traits<char> >&) const@Base" 5.2.0
 (c++)"non-virtual thunk to ossimplugins::ossimGeometricSarSensorModel::useForward() const@Base" 5.2.0
 (c++)"non-virtual thunk to ossimplugins::ossimGeometricSarSensorModel::~ossimGeometricSarSensorModel()@Base" 5.2.0
 (c++)"non-virtual thunk to ossimplugins::ossimPleiadesDimapSupportData::~ossimPleiadesDimapSupportData()@Base" 5.2.0
 (c++)"non-virtual thunk to ossimplugins::ossimPleiadesModel::RTTI_cast(RTTItypeid) const@Base" 5.2.0
 (c++)"non-virtual thunk to ossimplugins::ossimPleiadesModel::RTTI_cast(RTTItypeid)@Base" 5.2.0
 (c++)"non-virtual thunk to ossimplugins::ossimPleiadesModel::RTTI_vinfo() const@Base" 5.2.0
 (c++)"non-virtual thunk to ossimplugins::ossimPleiadesModel::print(std::basic_ostream<char, std::char_traits<char> >&) const@Base" 5.2.0
 (c++)"non-virtual thunk to ossimplugins::ossimPleiadesModel::~ossimPleiadesModel()@Base" 5.2.0
 (c++)"non-virtual thunk to ossimplugins::ossimRadarSat2Model::RTTI_cast(RTTItypeid) const@Base" 5.2.0
 (c++)"non-virtual thunk to ossimplugins::ossimRadarSat2Model::RTTI_cast(RTTItypeid)@Base" 5.2.0
 (c++)"non-virtual thunk to ossimplugins::ossimRadarSat2Model::RTTI_vinfo() const@Base" 5.2.0
 (c++)"non-virtual thunk to ossimplugins::ossimRadarSat2Model::print(std::basic_ostream<char, std::char_traits<char> >&) const@Base" 5.2.0
 (c++)"non-virtual thunk to ossimplugins::ossimRadarSat2Model::~ossimRadarSat2Model()@Base" 5.2.0
 (c++)"non-virtual thunk to ossimplugins::ossimRadarSat2RPCModel::RTTI_cast(RTTItypeid) const@Base" 5.2.0
 (c++)"non-virtual thunk to ossimplugins::ossimRadarSat2RPCModel::RTTI_cast(RTTItypeid)@Base" 5.2.0
 (c++)"non-virtual thunk to ossimplugins::ossimRadarSat2RPCModel::RTTI_vinfo() const@Base" 5.2.0
 (c++)"non-virtual thunk to ossimplugins::ossimRadarSat2RPCModel::print(std::basic_ostream<char, std::char_traits<char> >&) const@Base" 5.2.0
 (c++)"non-virtual thunk to ossimplugins::ossimRadarSat2RPCModel::~ossimRadarSat2RPCModel()@Base" 5.2.0
 (c++)"non-virtual thunk to ossimplugins::ossimRadarSat2TiffReader::RTTI_cast(RTTItypeid) const@Base" 5.2.0
 (c++)"non-virtual thunk to ossimplugins::ossimRadarSat2TiffReader::RTTI_cast(RTTItypeid)@Base" 5.2.0
 (c++)"non-virtual thunk to ossimplugins::ossimRadarSat2TiffReader::RTTI_vinfo() const@Base" 5.2.0
 (c++)"non-virtual thunk to ossimplugins::ossimRadarSat2TiffReader::~ossimRadarSat2TiffReader()@Base" 5.2.0
 (c++)"non-virtual thunk to ossimplugins::ossimRadarSatModel::RTTI_cast(RTTItypeid) const@Base" 5.2.0
 (c++)"non-virtual thunk to ossimplugins::ossimRadarSatModel::RTTI_cast(RTTItypeid)@Base" 5.2.0
 (c++)"non-virtual thunk to ossimplugins::ossimRadarSatModel::RTTI_vinfo() const@Base" 5.2.0
 (c++)"non-virtual thunk to ossimplugins::ossimRadarSatModel::~ossimRadarSatModel()@Base" 5.2.0
 (c++)"non-virtual thunk to ossimplugins::ossimSentinel1Model::RTTI_cast(RTTItypeid) const@Base" 5.2.0
 (c++)"non-virtual thunk to ossimplugins::ossimSentinel1Model::RTTI_cast(RTTItypeid)@Base" 5.2.0
 (c++)"non-virtual thunk to ossimplugins::ossimSentinel1Model::RTTI_vinfo() const@Base" 5.2.0
 (c++)"non-virtual thunk to ossimplugins::ossimSentinel1Model::print(std::basic_ostream<char, std::char_traits<char> >&) const@Base" 5.2.0
 (c++)"non-virtual thunk to ossimplugins::ossimSentinel1Model::~ossimSentinel1Model()@Base" 5.2.0
 (c++)"non-virtual thunk to ossimplugins::ossimSentinel1ProductDoc::~ossimSentinel1ProductDoc()@Base" 5.2.0
 (c++)"non-virtual thunk to ossimplugins::ossimSpot6DimapSupportData::~ossimSpot6DimapSupportData()@Base" 5.2.0
 (c++)"non-virtual thunk to ossimplugins::ossimSpot6Model::RTTI_cast(RTTItypeid) const@Base" 5.2.0
 (c++)"non-virtual thunk to ossimplugins::ossimSpot6Model::RTTI_cast(RTTItypeid)@Base" 5.2.0
 (c++)"non-virtual thunk to ossimplugins::ossimSpot6Model::RTTI_vinfo() const@Base" 5.2.0
 (c++)"non-virtual thunk to ossimplugins::ossimSpot6Model::print(std::basic_ostream<char, std::char_traits<char> >&) const@Base" 5.2.0
 (c++)"non-virtual thunk to ossimplugins::ossimSpot6Model::~ossimSpot6Model()@Base" 5.2.0
 (c++)"non-virtual thunk to ossimplugins::ossimTerraSarModel::RTTI_cast(RTTItypeid) const@Base" 5.2.0
 (c++)"non-virtual thunk to ossimplugins::ossimTerraSarModel::RTTI_cast(RTTItypeid)@Base" 5.2.0
 (c++)"non-virtual thunk to ossimplugins::ossimTerraSarModel::RTTI_vinfo() const@Base" 5.2.0
 (c++)"non-virtual thunk to ossimplugins::ossimTerraSarModel::print(std::basic_ostream<char, std::char_traits<char> >&) const@Base" 5.2.0
 (c++)"non-virtual thunk to ossimplugins::ossimTerraSarModel::~ossimTerraSarModel()@Base" 5.2.0
 (c++)"non-virtual thunk to ossimplugins::ossimTerraSarTiffReader::RTTI_cast(RTTItypeid) const@Base" 5.2.0
 (c++)"non-virtual thunk to ossimplugins::ossimTerraSarTiffReader::RTTI_cast(RTTItypeid)@Base" 5.2.0
 (c++)"non-virtual thunk to ossimplugins::ossimTerraSarTiffReader::RTTI_vinfo() const@Base" 5.2.0
 (c++)"non-virtual thunk to ossimplugins::ossimTerraSarTiffReader::~ossimTerraSarTiffReader()@Base" 5.2.0
 (c++)"non-virtual thunk to ossimplugins::ossimTileMapModel::RTTI_cast(RTTItypeid) const@Base" 5.2.0
 (c++)"non-virtual thunk to ossimplugins::ossimTileMapModel::RTTI_cast(RTTItypeid)@Base" 5.2.0
 (c++)"non-virtual thunk to ossimplugins::ossimTileMapModel::RTTI_vinfo() const@Base" 5.2.0
 (c++)"non-virtual thunk to ossimplugins::ossimTileMapModel::print(std::basic_ostream<char, std::char_traits<char> >&) const@Base" 5.2.0
 (c++)"non-virtual thunk to ossimplugins::ossimTileMapModel::useForward() const@Base" 5.2.0
 (c++)"non-virtual thunk to ossimplugins::ossimTileMapModel::~ossimTileMapModel()@Base" 5.2.0
 ossimSharedLibraryFinalize@Base 5.2.0
 ossimSharedLibraryInitialize@Base 5.2.0
 theDescription@Base 5.2.0
 theObjList@Base 5.2.0
