# SymbolsHelper-Confirmed: 5.0.0 amd64
libOTBIORAD-5.0.so.1 libotbiorad-5.0-1 #MINVER#
 _ZN3itk18LightProcessObject11SetProgressEf@Base 5.0.0
 _ZN3itk18LightProcessObject12GenerateDataEv@Base 5.0.0
 _ZN3itk18LightProcessObject19AbortGenerateDataOnEv@Base 5.0.0
 _ZN3itk18LightProcessObject20AbortGenerateDataOffEv@Base 5.0.0
 _ZN3itk18LightProcessObject20SetAbortGenerateDataEb@Base 5.0.0
 (optional=templinst)_ZN3itk20CreateObjectFunctionIN3otb10RADImageIOEE12CreateObjectEv@Base 5.0.0
 (optional=templinst)_ZN3itk20CreateObjectFunctionIN3otb10RADImageIOEED0Ev@Base 5.0.0
 (optional=templinst)_ZN3itk20CreateObjectFunctionIN3otb10RADImageIOEED1Ev@Base 5.0.0
 (optional=templinst)_ZN3itk20CreateObjectFunctionIN3otb10RADImageIOEED2Ev@Base 5.0.0
 _ZN3itk6Object13SetObjectNameESs@Base 5.0.0
 _ZN3otb10RADImageIO10ReadVolumeEPv@Base 5.0.0
 _ZN3otb10RADImageIO11CanReadFileEPKc@Base 5.0.0
 _ZN3otb10RADImageIO12CanWriteFileEPKc@Base 5.0.0
 _ZN3otb10RADImageIO13CanStreamReadEv@Base 5.0.0
 _ZN3otb10RADImageIO14CanStreamWriteEv@Base 5.0.0
 _ZN3otb10RADImageIO16GetOverviewsInfoEv@Base 5.0.0
 _ZN3otb10RADImageIO17GetOverviewsCountEv@Base 5.0.0
 _ZN3otb10RADImageIO20ReadImageInformationEv@Base 5.0.0
 _ZN3otb10RADImageIO21WriteImageInformationEv@Base 5.0.0
 _ZN3otb10RADImageIO23SetOutputImagePixelTypeEbb@Base 5.0.0
 _ZN3otb10RADImageIO29InternalReadHeaderInformationERKSsRSt13basic_fstreamIcSt11char_traitsIcEEb@Base 5.0.0
 _ZN3otb10RADImageIO4ReadEPv@Base 5.0.0
 _ZN3otb10RADImageIO5WriteEPKv@Base 5.0.0
 _ZN3otb10RADImageIOC1Ev@Base 5.0.0
 _ZN3otb10RADImageIOC2Ev@Base 5.0.0
 _ZN3otb10RADImageIOD0Ev@Base 5.0.0
 _ZN3otb10RADImageIOD1Ev@Base 5.0.0
 _ZN3otb10RADImageIOD2Ev@Base 5.0.0
 _ZN3otb11ImageIOBase11SetFileNameEPKc@Base 5.0.0
 _ZN3otb11ImageIOBase11SetFileNameERKSs@Base 5.0.0
 _ZN3otb11ImageIOBase11SetFileTypeENS0_8FileTypeE@Base 5.0.0
 _ZN3otb11ImageIOBase11SetIORegionEN3itk13ImageIORegionE@Base 5.0.0
 _ZN3otb11ImageIOBase12SetByteOrderENS0_9ByteOrderE@Base 5.0.0
 _ZN3otb11ImageIOBase12SetPixelTypeENS0_11IOPixelTypeE@Base 5.0.0
 _ZN3otb11ImageIOBase16SetComponentTypeENS0_15IOComponentTypeE@Base 5.0.0
 _ZN3otb11ImageIOBase16UseCompressionOnEv@Base 5.0.0
 _ZN3otb11ImageIOBase17SetUseCompressionEb@Base 5.0.0
 _ZN3otb11ImageIOBase17SupportsDimensionEm@Base 5.0.0
 _ZN3otb11ImageIOBase17UseCompressionOffEv@Base 5.0.0
 _ZN3otb11ImageIOBase20UseStreamedReadingOnEv@Base 5.0.0
 _ZN3otb11ImageIOBase20UseStreamedWritingOnEv@Base 5.0.0
 _ZN3otb11ImageIOBase21SetNumberOfComponentsEj@Base 5.0.0
 _ZN3otb11ImageIOBase21SetUseStreamedReadingEb@Base 5.0.0
 _ZN3otb11ImageIOBase21SetUseStreamedWritingEb@Base 5.0.0
 _ZN3otb11ImageIOBase21UseStreamedReadingOffEv@Base 5.0.0
 _ZN3otb11ImageIOBase21UseStreamedWritingOffEv@Base 5.0.0
 _ZN3otb17RADImageIOFactoryC1Ev@Base 5.0.0
 _ZN3otb17RADImageIOFactoryC2Ev@Base 5.0.0
 _ZN3otb17RADImageIOFactoryD0Ev@Base 5.0.0
 _ZN3otb17RADImageIOFactoryD1Ev@Base 5.0.0
 _ZN3otb17RADImageIOFactoryD2Ev@Base 5.0.0
 _ZN3otb34RADImageIOFactoryRegister__PrivateEv@Base 5.0.0
 _ZNK3itk11LightObject17GetReferenceCountEv@Base 5.0.0
 _ZNK3itk18LightProcessObject11GetProgressEv@Base 5.0.0
 _ZNK3itk18LightProcessObject20GetAbortGenerateDataEv@Base 5.0.0
 (optional=templinst)_ZNK3itk20CreateObjectFunctionIN3otb10RADImageIOEE13CreateAnotherEv@Base 5.0.0
 _ZNK3itk6Object13GetObjectNameEv@Base 5.0.0
 _ZNK3itk6Object14GetNameOfClassEv@Base 5.0.0
 _ZNK3otb10RADImageIO13CreateAnotherEv@Base 5.0.0
 _ZNK3otb10RADImageIO14GetNameOfClassEv@Base 5.0.0
 _ZNK3otb10RADImageIO9PrintSelfERSoN3itk6IndentE@Base 5.0.0
 _ZNK3otb11ImageIOBase10GetSpacingEj@Base 5.0.0
 _ZNK3otb11ImageIOBase11GetFileNameEv@Base 5.0.0
 _ZNK3otb11ImageIOBase11GetFileTypeEv@Base 5.0.0
 _ZNK3otb11ImageIOBase11GetIORegionEv@Base 5.0.0
 _ZNK3otb11ImageIOBase12GetByteOrderEv@Base 5.0.0
 _ZNK3otb11ImageIOBase12GetDirectionEj@Base 5.0.0
 _ZNK3otb11ImageIOBase12GetPixelTypeEv@Base 5.0.0
 _ZNK3otb11ImageIOBase13GetDimensionsEj@Base 5.0.0
 _ZNK3otb11ImageIOBase16GetComponentTypeEv@Base 5.0.0
 _ZNK3otb11ImageIOBase17GetUseCompressionEv@Base 5.0.0
 _ZNK3otb11ImageIOBase21GetNumberOfComponentsEv@Base 5.0.0
 _ZNK3otb11ImageIOBase21GetNumberOfDimensionsEv@Base 5.0.0
 _ZNK3otb11ImageIOBase21GetUseStreamedReadingEv@Base 5.0.0
 _ZNK3otb11ImageIOBase21GetUseStreamedWritingEv@Base 5.0.0
 _ZNK3otb11ImageIOBase9GetOriginEj@Base 5.0.0
 _ZNK3otb17RADImageIOFactory13CreateAnotherEv@Base 5.0.0
 _ZNK3otb17RADImageIOFactory14GetDescriptionEv@Base 5.0.0
 _ZNK3otb17RADImageIOFactory14GetNameOfClassEv@Base 5.0.0
 _ZNK3otb17RADImageIOFactory19GetITKSourceVersionEv@Base 5.0.0
 (optional=templinst)_ZNKSt5ctypeIcE8do_widenEc@Base 5.0.0
 (optional=templinst)_ZNSs12_S_constructIPcEES0_T_S1_RKSaIcESt20forward_iterator_tag@Base 5.0.0
 (optional=templinst)_ZNSt12_Destroy_auxILb0EE9__destroyIPSsEEvT_S3_@Base 5.0.0
 (optional=templinst)_ZNSt15basic_stringbufIcSt11char_traitsIcESaIcEED0Ev@Base 5.0.0
 (optional=templinst)_ZNSt15basic_stringbufIcSt11char_traitsIcESaIcEED1Ev@Base 5.0.0
 (optional=templinst)_ZNSt15basic_stringbufIcSt11char_traitsIcESaIcEED2Ev@Base 5.0.0
 (optional=templinst)_ZNSt6vectorISsSaISsEE13_M_insert_auxEN9__gnu_cxx17__normal_iteratorIPSsS1_EERKSs@Base 5.0.0
 (optional=templinst)_ZNSt6vectorISsSaISsEED1Ev@Base 5.0.0
 (optional=templinst)_ZNSt6vectorISsSaISsEED2Ev@Base 5.0.0
 _ZTIN3itk20CreateObjectFunctionIN3otb10RADImageIOEEE@Base 5.0.0
 _ZTIN3itk24CreateObjectFunctionBaseE@Base 5.0.0
 _ZTIN3otb10RADImageIOE@Base 5.0.0
 _ZTIN3otb17RADImageIOFactoryE@Base 5.0.0
 _ZTSN3itk20CreateObjectFunctionIN3otb10RADImageIOEEE@Base 5.0.0
 _ZTSN3itk24CreateObjectFunctionBaseE@Base 5.0.0
 _ZTSN3otb10RADImageIOE@Base 5.0.0
 _ZTSN3otb17RADImageIOFactoryE@Base 5.0.0
 _ZTVN3itk20CreateObjectFunctionIN3otb10RADImageIOEEE@Base 5.0.0
 _ZTVN3itk24CreateObjectFunctionBaseE@Base 5.0.0
 _ZTVN3otb10RADImageIOE@Base 5.0.0
 _ZTVN3otb17RADImageIOFactoryE@Base 5.0.0
