# SymbolsHelper-Confirmed: 5.2.0 amd64
libOTBCommandLineParser-5.2.so.1 libotbcommandlineparser-5.2-1 #MINVER#
 _ZN38CommandLineArgumentParserHelpExceptionD0Ev@Base 5.2.0
 _ZN38CommandLineArgumentParserHelpExceptionD1Ev@Base 5.2.0
 _ZN38CommandLineArgumentParserHelpExceptionD2Ev@Base 5.2.0
 _ZN3itk13ProcessObject12GenerateDataEv@Base 5.2.0
 _ZN3itk13ProcessObject18SetNumberOfThreadsEj@Base 5.2.0
 _ZN3itk13ProcessObject19AbortGenerateDataOnEv@Base 5.2.0
 _ZN3itk13ProcessObject20AbortGenerateDataOffEv@Base 5.2.0
 _ZN3itk13ProcessObject20SetAbortGenerateDataEb@Base 5.2.0
 _ZN3itk13ProcessObject26SetNumberOfRequiredOutputsEm@Base 5.2.0
 _ZN3itk13ProcessObject28EnlargeOutputRequestedRegionEPNS_10DataObjectE@Base 5.2.0
 _ZN3itk13ProcessObject29ReleaseDataBeforeUpdateFlagOnEv@Base 5.2.0
 _ZN3itk13ProcessObject30ReleaseDataBeforeUpdateFlagOffEv@Base 5.2.0
 _ZN3itk13ProcessObject30SetReleaseDataBeforeUpdateFlagEb@Base 5.2.0
 _ZN3itk6Object13SetObjectNameENSt7__cxx1112basic_stringIcSt11char_traitsIcESaIcEEE@Base 5.2.0
 _ZN3itk6Object13SetObjectNameESs@Base 5.2.0
 _ZN3otb25CommandLineArgumentParser10FindOptionERKNSt7__cxx1112basic_stringIcSt11char_traitsIcESaIcEEERi@Base 5.2.0
 _ZN3otb25CommandLineArgumentParser10FindOptionERKSsRi@Base 5.2.0
 _ZN3otb25CommandLineArgumentParser10OptionTypeD1Ev@Base 5.2.0
 _ZN3otb25CommandLineArgumentParser10OptionTypeD2Ev@Base 5.2.0
 _ZN3otb25CommandLineArgumentParser13AddInputImageEb@Base 5.2.0
 _ZN3otb25CommandLineArgumentParser14AddOutputImageEb@Base 5.2.0
 _ZN3otb25CommandLineArgumentParser16AddOptionNParamsERKNSt7__cxx1112basic_stringIcSt11char_traitsIcESaIcEEES8_S8_b@Base 5.2.0
 _ZN3otb25CommandLineArgumentParser16AddOptionNParamsERKSsS2_S2_b@Base 5.2.0
 _ZN3otb25CommandLineArgumentParser16ParseCommandLineEiPPcPNS_30CommandLineArgumentParseResultEb@Base 5.2.0
 _ZN3otb25CommandLineArgumentParser19TryParseCommandLineEiPPcPNS_30CommandLineArgumentParseResultEbb@Base 5.2.0
 _ZN3otb25CommandLineArgumentParser21SetProgramDescriptionEPKc@Base 5.2.0
 _ZN3otb25CommandLineArgumentParser21SetProgramDescriptionERKNSt7__cxx1112basic_stringIcSt11char_traitsIcESaIcEEE@Base 5.2.0
 _ZN3otb25CommandLineArgumentParser21SetProgramDescriptionERKSs@Base 5.2.0
 _ZN3otb25CommandLineArgumentParser8IsNumberERKNSt7__cxx1112basic_stringIcSt11char_traitsIcESaIcEEE@Base 5.2.0
 _ZN3otb25CommandLineArgumentParser8IsNumberERKSs@Base 5.2.0
 _ZN3otb25CommandLineArgumentParser9AddOptionERKNSt7__cxx1112basic_stringIcSt11char_traitsIcESaIcEEES8_S8_ib@Base 5.2.0
 _ZN3otb25CommandLineArgumentParser9AddOptionERKSsS2_S2_ib@Base 5.2.0
 _ZN3otb25CommandLineArgumentParserC1Ev@Base 5.2.0
 _ZN3otb25CommandLineArgumentParserC2Ev@Base 5.2.0
 _ZN3otb25CommandLineArgumentParserD0Ev@Base 5.2.0
 _ZN3otb25CommandLineArgumentParserD1Ev@Base 5.2.0
 _ZN3otb25CommandLineArgumentParserD2Ev@Base 5.2.0
 _ZN3otb30CommandLineArgumentParseResult12AddParameterERKNSt7__cxx1112basic_stringIcSt11char_traitsIcESaIcEEES8_@Base 5.2.0
 _ZN3otb30CommandLineArgumentParseResult12AddParameterERKSsS2_@Base 5.2.0
 _ZN3otb30CommandLineArgumentParseResult21GetNumberOfParametersERKNSt7__cxx1112basic_stringIcSt11char_traitsIcESaIcEEE@Base 5.2.0
 _ZN3otb30CommandLineArgumentParseResult21GetNumberOfParametersERKSs@Base 5.2.0
 _ZN3otb30CommandLineArgumentParseResult5ClearEv@Base 5.2.0
 _ZN3otb30CommandLineArgumentParseResult9AddOptionERKNSt7__cxx1112basic_stringIcSt11char_traitsIcESaIcEEE@Base 5.2.0
 _ZN3otb30CommandLineArgumentParseResult9AddOptionERKSs@Base 5.2.0
 _ZN3otb30CommandLineArgumentParseResultC1Ev@Base 5.2.0
 _ZN3otb30CommandLineArgumentParseResultC2Ev@Base 5.2.0
 _ZN3otb30CommandLineArgumentParseResultD0Ev@Base 5.2.0
 _ZN3otb30CommandLineArgumentParseResultD1Ev@Base 5.2.0
 _ZN3otb30CommandLineArgumentParseResultD2Ev@Base 5.2.0
 _ZN47CommandLineArgumentParserArgumentErrorExceptionD0Ev@Base 5.2.0
 _ZN47CommandLineArgumentParserArgumentErrorExceptionD1Ev@Base 5.2.0
 _ZN47CommandLineArgumentParserArgumentErrorExceptionD2Ev@Base 5.2.0
 _ZNK38CommandLineArgumentParserHelpException14GetNameOfClassEv@Base 5.2.0
 _ZNK3itk11LightObject17GetReferenceCountEv@Base 5.2.0
 _ZNK3itk13ProcessObject11GetProgressEv@Base 5.2.0
 _ZNK3itk13ProcessObject18GetNumberOfThreadsEv@Base 5.2.0
 _ZNK3itk13ProcessObject19GetPrimaryInputNameEv@Base 5.2.0
 _ZNK3itk13ProcessObject20GetAbortGenerateDataEv@Base 5.2.0
 _ZNK3itk13ProcessObject20GetPrimaryOutputNameEv@Base 5.2.0
 _ZNK3itk13ProcessObject25GetNumberOfRequiredInputsEv@Base 5.2.0
 _ZNK3itk13ProcessObject26GetNumberOfRequiredOutputsEv@Base 5.2.0
 _ZNK3itk13ProcessObject30GetReleaseDataBeforeUpdateFlagEv@Base 5.2.0
 _ZNK3itk6Object13GetObjectNameB5cxx11Ev@Base 5.2.0
 _ZNK3itk6Object13GetObjectNameEv@Base 5.2.0
 _ZNK3otb25CommandLineArgumentParser10PrintUsageERSo@Base 5.2.0
 _ZNK3otb25CommandLineArgumentParser12PrintVersionERSo@Base 5.2.0
 _ZNK3otb25CommandLineArgumentParser13CreateAnotherEv@Base 5.2.0
 _ZNK3otb25CommandLineArgumentParser14GetNameOfClassEv@Base 5.2.0
 _ZNK3otb25CommandLineArgumentParser21GetProgramDescriptionEv@Base 5.2.0
 _ZNK3otb30CommandLineArgumentParseResult13CreateAnotherEv@Base 5.2.0
 _ZNK3otb30CommandLineArgumentParseResult13GetInputImageB5cxx11Ev@Base 5.2.0
 _ZNK3otb30CommandLineArgumentParseResult13GetInputImageEv@Base 5.2.0
 _ZNK3otb30CommandLineArgumentParseResult14GetNameOfClassEv@Base 5.2.0
 _ZNK3otb30CommandLineArgumentParseResult14GetOutputImageB5cxx11Ev@Base 5.2.0
 _ZNK3otb30CommandLineArgumentParseResult14GetOutputImageEv@Base 5.2.0
 _ZNK3otb30CommandLineArgumentParseResult15GetParameterIntERKNSt7__cxx1112basic_stringIcSt11char_traitsIcESaIcEEEj@Base 5.2.0
 _ZNK3otb30CommandLineArgumentParseResult15GetParameterIntERKSsj@Base 5.2.0
 _ZNK3otb30CommandLineArgumentParseResult15IsOptionPresentERKNSt7__cxx1112basic_stringIcSt11char_traitsIcESaIcEEE@Base 5.2.0
 _ZNK3otb30CommandLineArgumentParseResult15IsOptionPresentERKSs@Base 5.2.0
 _ZNK3otb30CommandLineArgumentParseResult16GetParameterCharERKNSt7__cxx1112basic_stringIcSt11char_traitsIcESaIcEEEj@Base 5.2.0
 _ZNK3otb30CommandLineArgumentParseResult16GetParameterCharERKSsj@Base 5.2.0
 _ZNK3otb30CommandLineArgumentParseResult16GetParameterLongERKNSt7__cxx1112basic_stringIcSt11char_traitsIcESaIcEEEj@Base 5.2.0
 _ZNK3otb30CommandLineArgumentParseResult16GetParameterLongERKSsj@Base 5.2.0
 _ZNK3otb30CommandLineArgumentParseResult16GetParameterUIntERKNSt7__cxx1112basic_stringIcSt11char_traitsIcESaIcEEEj@Base 5.2.0
 _ZNK3otb30CommandLineArgumentParseResult16GetParameterUIntERKSsj@Base 5.2.0
 _ZNK3otb30CommandLineArgumentParseResult17GetParameterFloatERKNSt7__cxx1112basic_stringIcSt11char_traitsIcESaIcEEEj@Base 5.2.0
 _ZNK3otb30CommandLineArgumentParseResult17GetParameterFloatERKSsj@Base 5.2.0
 _ZNK3otb30CommandLineArgumentParseResult17GetParameterShortERKNSt7__cxx1112basic_stringIcSt11char_traitsIcESaIcEEEj@Base 5.2.0
 _ZNK3otb30CommandLineArgumentParseResult17GetParameterShortERKSsj@Base 5.2.0
 _ZNK3otb30CommandLineArgumentParseResult17GetParameterULongERKNSt7__cxx1112basic_stringIcSt11char_traitsIcESaIcEEEj@Base 5.2.0
 _ZNK3otb30CommandLineArgumentParseResult17GetParameterULongERKSsj@Base 5.2.0
 _ZNK3otb30CommandLineArgumentParseResult18GetParameterDoubleERKNSt7__cxx1112basic_stringIcSt11char_traitsIcESaIcEEEj@Base 5.2.0
 _ZNK3otb30CommandLineArgumentParseResult18GetParameterDoubleERKSsj@Base 5.2.0
 _ZNK3otb30CommandLineArgumentParseResult18GetParameterStringERKNSt7__cxx1112basic_stringIcSt11char_traitsIcESaIcEEEj@Base 5.2.0
 _ZNK3otb30CommandLineArgumentParseResult18GetParameterStringERKSsj@Base 5.2.0
 _ZNK3otb30CommandLineArgumentParseResult18GetParameterUShortERKNSt7__cxx1112basic_stringIcSt11char_traitsIcESaIcEEEj@Base 5.2.0
 _ZNK3otb30CommandLineArgumentParseResult18GetParameterUShortERKSsj@Base 5.2.0
 _ZNK3otb30CommandLineArgumentParseResult25IsOptionInputImagePresentEv@Base 5.2.0
 _ZNK3otb30CommandLineArgumentParseResult25IsOptionOTBTestingPresentEv@Base 5.2.0
 _ZNK3otb30CommandLineArgumentParseResult26IsOptionOutputImagePresentEv@Base 5.2.0
 _ZNK3otb30CommandLineArgumentParseResult9PrintSelfERSoN3itk6IndentE@Base 5.2.0
 _ZNK47CommandLineArgumentParserArgumentErrorException14GetNameOfClassEv@Base 5.2.0
 (optional=templinst)_ZNKSt5ctypeIcE8do_widenEc@Base 5.2.0
 (optional=templinst)_ZNKSt8_Rb_treeISsSt4pairIKSsSt6vectorISsSaISsEEESt10_Select1stIS5_ESt4lessISsESaIS5_EE4findERS1_@Base 5.2.0
 (optional=templinst)_ZNSt12_Destroy_auxILb0EE9__destroyIPSsEEvT_S3_@Base 5.2.0
 (optional=templinst)_ZNSt15basic_stringbufIcSt11char_traitsIcESaIcEED0Ev@Base 5.2.0
 (optional=templinst)_ZNSt15basic_stringbufIcSt11char_traitsIcESaIcEED1Ev@Base 5.2.0
 (optional=templinst)_ZNSt15basic_stringbufIcSt11char_traitsIcESaIcEED2Ev@Base 5.2.0
 (optional=templinst)_ZNSt4pairIKNSt7__cxx1112basic_stringIcSt11char_traitsIcESaIcEEESt6vectorIS5_SaIS5_EEED1Ev@Base 5.2.0
 (optional=templinst)_ZNSt4pairIKNSt7__cxx1112basic_stringIcSt11char_traitsIcESaIcEEESt6vectorIS5_SaIS5_EEED2Ev@Base 5.2.0
 (optional=templinst)_ZNSt4pairIKSsSt6vectorISsSaISsEEED1Ev@Base 5.2.0
 (optional=templinst)_ZNSt4pairIKSsSt6vectorISsSaISsEEED2Ev@Base 5.2.0
 (optional=templinst)_ZNSt6vectorIN3otb25CommandLineArgumentParser10OptionTypeESaIS2_EE13_M_insert_auxEN9__gnu_cxx17__normal_iteratorIPS2_S4_EERKS2_@Base 5.2.0
 (optional=templinst)_ZNSt6vectorIN3otb25CommandLineArgumentParser10OptionTypeESaIS2_EED1Ev@Base 5.2.0
 (optional=templinst)_ZNSt6vectorIN3otb25CommandLineArgumentParser10OptionTypeESaIS2_EED2Ev@Base 5.2.0
 (optional=templinst)_ZNSt6vectorINSt7__cxx1112basic_stringIcSt11char_traitsIcESaIcEEESaIS5_EE13_M_insert_auxEN9__gnu_cxx17__normal_iteratorIPS5_S7_EERKS5_@Base 5.2.0
 (optional=templinst)_ZNSt6vectorINSt7__cxx1112basic_stringIcSt11char_traitsIcESaIcEEESaIS5_EED1Ev@Base 5.2.0
 (optional=templinst)_ZNSt6vectorINSt7__cxx1112basic_stringIcSt11char_traitsIcESaIcEEESaIS5_EED2Ev@Base 5.2.0
 (optional=templinst)_ZNSt6vectorINSt7__cxx1112basic_stringIcSt11char_traitsIcESaIcEEESaIS5_EEaSERKS7_@Base 5.2.0
 (optional=templinst)_ZNSt6vectorISsSaISsEE13_M_insert_auxEN9__gnu_cxx17__normal_iteratorIPSsS1_EERKSs@Base 5.2.0
 (optional=templinst)_ZNSt6vectorISsSaISsEED1Ev@Base 5.2.0
 (optional=templinst)_ZNSt6vectorISsSaISsEED2Ev@Base 5.2.0
 (optional=templinst)_ZNSt6vectorISsSaISsEEaSERKS1_@Base 5.2.0
 (optional=templinst)_ZNSt7__cxx1115basic_stringbufIcSt11char_traitsIcESaIcEED0Ev@Base 5.2.0
 (optional=templinst)_ZNSt7__cxx1115basic_stringbufIcSt11char_traitsIcESaIcEED1Ev@Base 5.2.0
 (optional=templinst)_ZNSt7__cxx1115basic_stringbufIcSt11char_traitsIcESaIcEED2Ev@Base 5.2.0
 (optional=templinst)_ZNSt8_Rb_treeINSt7__cxx1112basic_stringIcSt11char_traitsIcESaIcEEESt4pairIKS5_St6vectorIS5_SaIS5_EEESt10_Select1stISB_ESt4lessIS5_ESaISB_EE24_M_get_insert_unique_posERS7_@Base 5.2.0
 (optional=templinst)_ZNSt8_Rb_treeINSt7__cxx1112basic_stringIcSt11char_traitsIcESaIcEEESt4pairIKS5_St6vectorIS5_SaIS5_EEESt10_Select1stISB_ESt4lessIS5_ESaISB_EE8_M_eraseEPSt13_Rb_tree_nodeISB_E@Base 5.2.0
 (optional=templinst)_ZNSt8_Rb_treeISsSt4pairIKSsSt6vectorISsSaISsEEESt10_Select1stIS5_ESt4lessISsESaIS5_EE17_M_insert_unique_ESt23_Rb_tree_const_iteratorIS5_ERKS5_@Base 5.2.0
 (optional=templinst)_ZNSt8_Rb_treeISsSt4pairIKSsSt6vectorISsSaISsEEESt10_Select1stIS5_ESt4lessISsESaIS5_EE24_M_get_insert_unique_posERS1_@Base 5.2.0
 (optional=templinst)_ZNSt8_Rb_treeISsSt4pairIKSsSt6vectorISsSaISsEEESt10_Select1stIS5_ESt4lessISsESaIS5_EE29_M_get_insert_hint_unique_posESt23_Rb_tree_const_iteratorIS5_ERS1_@Base 5.2.0
 (optional=templinst)_ZNSt8_Rb_treeISsSt4pairIKSsSt6vectorISsSaISsEEESt10_Select1stIS5_ESt4lessISsESaIS5_EE8_M_eraseEPSt13_Rb_tree_nodeIS5_E@Base 5.2.0
 _ZTI38CommandLineArgumentParserHelpException@Base 5.2.0
 _ZTI47CommandLineArgumentParserArgumentErrorException@Base 5.2.0
 _ZTIN3otb25CommandLineArgumentParserE@Base 5.2.0
 _ZTIN3otb30CommandLineArgumentParseResultE@Base 5.2.0
 _ZTS38CommandLineArgumentParserHelpException@Base 5.2.0
 _ZTS47CommandLineArgumentParserArgumentErrorException@Base 5.2.0
 _ZTSN3otb25CommandLineArgumentParserE@Base 5.2.0
 _ZTSN3otb30CommandLineArgumentParseResultE@Base 5.2.0
 _ZTV38CommandLineArgumentParserHelpException@Base 5.2.0
 _ZTV47CommandLineArgumentParserArgumentErrorException@Base 5.2.0
 _ZTVN3otb25CommandLineArgumentParserE@Base 5.2.0
 _ZTVN3otb30CommandLineArgumentParseResultE@Base 5.2.0
