libOTBApplicationEngine-5.0.so.1 libotb #MINVER#
 _ZN18vnl_matrix_inverseIdED0Ev@Base 5.0.0
 _ZN18vnl_matrix_inverseIdED1Ev@Base 5.0.0
 _ZN18vnl_matrix_inverseIdED2Ev@Base 5.0.0
 _ZN3itk10DataObject15CopyInformationEPKS0_@Base 5.0.0
 _ZN3itk10DataObject16SetRealTimeStampENS_13RealTimeStampE@Base 5.0.0
 _ZN3itk10DataObject17PrepareForNewDataEv@Base 5.0.0
 _ZN3itk10DataObject17ReleaseDataFlagOnEv@Base 5.0.0
 _ZN3itk10DataObject18ReleaseDataFlagOffEv@Base 5.0.0
 _ZN3itk10DataObject18SetRequestedRegionEPKS0_@Base 5.0.0
 _ZN3itk10DataObject21VerifyRequestedRegionEv@Base 5.0.0
 _ZN3itk10DataObject41SetRequestedRegionToLargestPossibleRegionEv@Base 5.0.0
 _ZN3itk10DataObject43RequestedRegionIsOutsideOfTheBufferedRegionEv@Base 5.0.0
 _ZN3itk10DataObject5GraftEPKS0_@Base 5.0.0
 _ZN3itk10LoggerBase16SetPriorityLevelENS0_17PriorityLevelTypeE@Base 5.0.0
 _ZN3itk10LoggerBase18SetTimeStampFormatENS0_19TimeStampFormatTypeE@Base 5.0.0
 _ZN3itk10LoggerBase19SetLevelForFlushingENS0_17PriorityLevelTypeE@Base 5.0.0
 _ZN3itk10LoggerBase22SetHumanReadableFormatEPKc@Base 5.0.0
 _ZN3itk10LoggerBase22SetHumanReadableFormatERKSs@Base 5.0.0
 _ZN3itk10LoggerBase7SetNameEPKc@Base 5.0.0
 _ZN3itk10LoggerBase7SetNameERKSs@Base 5.0.0
 _ZN3itk10StartEventD0Ev@Base 5.0.0
 _ZN3itk10StartEventD1Ev@Base 5.0.0
 _ZN3itk10StartEventD2Ev@Base 5.0.0
 _ZN3itk10Statistics37MersenneTwisterRandomVariateGenerator10GetVariateEv@Base 5.0.0
 _ZN3itk10Statistics37MersenneTwisterRandomVariateGenerator6reloadEv@Base 5.0.0
 _ZN3itk10Statistics37MersenneTwisterRandomVariateGeneratorD0Ev@Base 5.0.0
 _ZN3itk10Statistics37MersenneTwisterRandomVariateGeneratorD1Ev@Base 5.0.0
 _ZN3itk10Statistics37MersenneTwisterRandomVariateGeneratorD2Ev@Base 5.0.0
 _ZN3itk11ImageRegionILj2EE4CropERKS1_@Base 5.0.0
 _ZN3itk11ImageRegionILj2EED0Ev@Base 5.0.0
 _ZN3itk11ImageRegionILj2EED1Ev@Base 5.0.0
 _ZN3itk11ImageRegionILj2EED2Ev@Base 5.0.0
 _ZN3itk11ImageSourceIN3otb11VectorImageISt7complexIdELj2EEEE10MakeOutputEm@Base 5.0.0
 _ZN3itk11ImageSourceIN3otb11VectorImageISt7complexIdELj2EEEE11GraftOutputEPNS_10DataObjectE@Base 5.0.0
 _ZN3itk11ImageSourceIN3otb11VectorImageISt7complexIdELj2EEEE11GraftOutputERKSsPNS_10DataObjectE@Base 5.0.0
 _ZN3itk11ImageSourceIN3otb11VectorImageISt7complexIdELj2EEEE12GenerateDataEv@Base 5.0.0
 _ZN3itk11ImageSourceIN3otb11VectorImageISt7complexIdELj2EEEE14GraftNthOutputEjPNS_10DataObjectE@Base 5.0.0
 _ZN3itk11ImageSourceIN3otb11VectorImageISt7complexIdELj2EEEE15AllocateOutputsEv@Base 5.0.0
 _ZN3itk11ImageSourceIN3otb11VectorImageISt7complexIdELj2EEEE16ThreaderCallbackEPv@Base 5.0.0
 _ZN3itk11ImageSourceIN3otb11VectorImageISt7complexIdELj2EEEE20SplitRequestedRegionEjjRNS_11ImageRegionILj2EEE@Base 5.0.0
 _ZN3itk11ImageSourceIN3otb11VectorImageISt7complexIdELj2EEEE20ThreadedGenerateDataERKNS_11ImageRegionILj2EEEj@Base 5.0.0
 _ZN3itk11ImageSourceIN3otb11VectorImageISt7complexIdELj2EEEE25AfterThreadedGenerateDataEv@Base 5.0.0
 _ZN3itk11ImageSourceIN3otb11VectorImageISt7complexIdELj2EEEE26BeforeThreadedGenerateDataEv@Base 5.0.0
 _ZN3itk11ImageSourceIN3otb11VectorImageISt7complexIdELj2EEEE9GetOutputEj@Base 5.0.0
 _ZN3itk11ImageSourceIN3otb11VectorImageISt7complexIdELj2EEEEC1Ev@Base 5.0.0
 _ZN3itk11ImageSourceIN3otb11VectorImageISt7complexIdELj2EEEEC2Ev@Base 5.0.0
 _ZN3itk11ImageSourceIN3otb11VectorImageISt7complexIdELj2EEEED0Ev@Base 5.0.0
 _ZN3itk11ImageSourceIN3otb11VectorImageISt7complexIdELj2EEEED1Ev@Base 5.0.0
 _ZN3itk11ImageSourceIN3otb11VectorImageISt7complexIdELj2EEEED2Ev@Base 5.0.0
 _ZN3itk11ImageSourceIN3otb11VectorImageISt7complexIfELj2EEEE10MakeOutputEm@Base 5.0.0
 _ZN3itk11ImageSourceIN3otb11VectorImageISt7complexIfELj2EEEE11GraftOutputEPNS_10DataObjectE@Base 5.0.0
 _ZN3itk11ImageSourceIN3otb11VectorImageISt7complexIfELj2EEEE11GraftOutputERKSsPNS_10DataObjectE@Base 5.0.0
 _ZN3itk11ImageSourceIN3otb11VectorImageISt7complexIfELj2EEEE12GenerateDataEv@Base 5.0.0
 _ZN3itk11ImageSourceIN3otb11VectorImageISt7complexIfELj2EEEE14GraftNthOutputEjPNS_10DataObjectE@Base 5.0.0
 _ZN3itk11ImageSourceIN3otb11VectorImageISt7complexIfELj2EEEE15AllocateOutputsEv@Base 5.0.0
 _ZN3itk11ImageSourceIN3otb11VectorImageISt7complexIfELj2EEEE16ThreaderCallbackEPv@Base 5.0.0
 _ZN3itk11ImageSourceIN3otb11VectorImageISt7complexIfELj2EEEE20SplitRequestedRegionEjjRNS_11ImageRegionILj2EEE@Base 5.0.0
 _ZN3itk11ImageSourceIN3otb11VectorImageISt7complexIfELj2EEEE20ThreadedGenerateDataERKNS_11ImageRegionILj2EEEj@Base 5.0.0
 _ZN3itk11ImageSourceIN3otb11VectorImageISt7complexIfELj2EEEE25AfterThreadedGenerateDataEv@Base 5.0.0
 _ZN3itk11ImageSourceIN3otb11VectorImageISt7complexIfELj2EEEE26BeforeThreadedGenerateDataEv@Base 5.0.0
 _ZN3itk11ImageSourceIN3otb11VectorImageISt7complexIfELj2EEEE9GetOutputEj@Base 5.0.0
 _ZN3itk11ImageSourceIN3otb11VectorImageISt7complexIfELj2EEEEC1Ev@Base 5.0.0
 _ZN3itk11ImageSourceIN3otb11VectorImageISt7complexIfELj2EEEEC2Ev@Base 5.0.0
 _ZN3itk11ImageSourceIN3otb11VectorImageISt7complexIfELj2EEEED0Ev@Base 5.0.0
 _ZN3itk11ImageSourceIN3otb11VectorImageISt7complexIfELj2EEEED1Ev@Base 5.0.0
 _ZN3itk11ImageSourceIN3otb11VectorImageISt7complexIfELj2EEEED2Ev@Base 5.0.0
 _ZN3itk11ImageSourceIN3otb11VectorImageIdLj2EEEE10MakeOutputEm@Base 5.0.0
 _ZN3itk11ImageSourceIN3otb11VectorImageIdLj2EEEE11GraftOutputEPNS_10DataObjectE@Base 5.0.0
 _ZN3itk11ImageSourceIN3otb11VectorImageIdLj2EEEE11GraftOutputERKSsPNS_10DataObjectE@Base 5.0.0
 _ZN3itk11ImageSourceIN3otb11VectorImageIdLj2EEEE12GenerateDataEv@Base 5.0.0
 _ZN3itk11ImageSourceIN3otb11VectorImageIdLj2EEEE14GraftNthOutputEjPNS_10DataObjectE@Base 5.0.0
 _ZN3itk11ImageSourceIN3otb11VectorImageIdLj2EEEE15AllocateOutputsEv@Base 5.0.0
 _ZN3itk11ImageSourceIN3otb11VectorImageIdLj2EEEE16ThreaderCallbackEPv@Base 5.0.0
 _ZN3itk11ImageSourceIN3otb11VectorImageIdLj2EEEE20SplitRequestedRegionEjjRNS_11ImageRegionILj2EEE@Base 5.0.0
 _ZN3itk11ImageSourceIN3otb11VectorImageIdLj2EEEE20ThreadedGenerateDataERKNS_11ImageRegionILj2EEEj@Base 5.0.0
 _ZN3itk11ImageSourceIN3otb11VectorImageIdLj2EEEE25AfterThreadedGenerateDataEv@Base 5.0.0
 _ZN3itk11ImageSourceIN3otb11VectorImageIdLj2EEEE26BeforeThreadedGenerateDataEv@Base 5.0.0
 _ZN3itk11ImageSourceIN3otb11VectorImageIdLj2EEEE9GetOutputEj@Base 5.0.0
 _ZN3itk11ImageSourceIN3otb11VectorImageIdLj2EEEEC1Ev@Base 5.0.0
 _ZN3itk11ImageSourceIN3otb11VectorImageIdLj2EEEEC2Ev@Base 5.0.0
 _ZN3itk11ImageSourceIN3otb11VectorImageIdLj2EEEED0Ev@Base 5.0.0
 _ZN3itk11ImageSourceIN3otb11VectorImageIdLj2EEEED1Ev@Base 5.0.0
 _ZN3itk11ImageSourceIN3otb11VectorImageIdLj2EEEED2Ev@Base 5.0.0
 _ZN3itk11ImageSourceIN3otb11VectorImageIfLj2EEEE10MakeOutputEm@Base 5.0.0
 _ZN3itk11ImageSourceIN3otb11VectorImageIfLj2EEEE11GraftOutputEPNS_10DataObjectE@Base 5.0.0
 _ZN3itk11ImageSourceIN3otb11VectorImageIfLj2EEEE11GraftOutputERKSsPNS_10DataObjectE@Base 5.0.0
 _ZN3itk11ImageSourceIN3otb11VectorImageIfLj2EEEE12GenerateDataEv@Base 5.0.0
 _ZN3itk11ImageSourceIN3otb11VectorImageIfLj2EEEE14GraftNthOutputEjPNS_10DataObjectE@Base 5.0.0
 _ZN3itk11ImageSourceIN3otb11VectorImageIfLj2EEEE15AllocateOutputsEv@Base 5.0.0
 _ZN3itk11ImageSourceIN3otb11VectorImageIfLj2EEEE16ThreaderCallbackEPv@Base 5.0.0
 _ZN3itk11ImageSourceIN3otb11VectorImageIfLj2EEEE20SplitRequestedRegionEjjRNS_11ImageRegionILj2EEE@Base 5.0.0
 _ZN3itk11ImageSourceIN3otb11VectorImageIfLj2EEEE20ThreadedGenerateDataERKNS_11ImageRegionILj2EEEj@Base 5.0.0
 _ZN3itk11ImageSourceIN3otb11VectorImageIfLj2EEEE25AfterThreadedGenerateDataEv@Base 5.0.0
 _ZN3itk11ImageSourceIN3otb11VectorImageIfLj2EEEE26BeforeThreadedGenerateDataEv@Base 5.0.0
 _ZN3itk11ImageSourceIN3otb11VectorImageIfLj2EEEE9GetOutputEj@Base 5.0.0
 _ZN3itk11ImageSourceIN3otb11VectorImageIfLj2EEEEC1Ev@Base 5.0.0
 _ZN3itk11ImageSourceIN3otb11VectorImageIfLj2EEEEC2Ev@Base 5.0.0
 _ZN3itk11ImageSourceIN3otb11VectorImageIfLj2EEEED0Ev@Base 5.0.0
 _ZN3itk11ImageSourceIN3otb11VectorImageIfLj2EEEED1Ev@Base 5.0.0
 _ZN3itk11ImageSourceIN3otb11VectorImageIfLj2EEEED2Ev@Base 5.0.0
 _ZN3itk11ImageSourceIN3otb11VectorImageIhLj2EEEE10MakeOutputEm@Base 5.0.0
 _ZN3itk11ImageSourceIN3otb11VectorImageIhLj2EEEE11GraftOutputEPNS_10DataObjectE@Base 5.0.0
 _ZN3itk11ImageSourceIN3otb11VectorImageIhLj2EEEE11GraftOutputERKSsPNS_10DataObjectE@Base 5.0.0
 _ZN3itk11ImageSourceIN3otb11VectorImageIhLj2EEEE12GenerateDataEv@Base 5.0.0
 _ZN3itk11ImageSourceIN3otb11VectorImageIhLj2EEEE14GraftNthOutputEjPNS_10DataObjectE@Base 5.0.0
 _ZN3itk11ImageSourceIN3otb11VectorImageIhLj2EEEE15AllocateOutputsEv@Base 5.0.0
 _ZN3itk11ImageSourceIN3otb11VectorImageIhLj2EEEE16ThreaderCallbackEPv@Base 5.0.0
 _ZN3itk11ImageSourceIN3otb11VectorImageIhLj2EEEE20SplitRequestedRegionEjjRNS_11ImageRegionILj2EEE@Base 5.0.0
 _ZN3itk11ImageSourceIN3otb11VectorImageIhLj2EEEE20ThreadedGenerateDataERKNS_11ImageRegionILj2EEEj@Base 5.0.0
 _ZN3itk11ImageSourceIN3otb11VectorImageIhLj2EEEE25AfterThreadedGenerateDataEv@Base 5.0.0
 _ZN3itk11ImageSourceIN3otb11VectorImageIhLj2EEEE26BeforeThreadedGenerateDataEv@Base 5.0.0
 _ZN3itk11ImageSourceIN3otb11VectorImageIhLj2EEEE9GetOutputEj@Base 5.0.0
 _ZN3itk11ImageSourceIN3otb11VectorImageIhLj2EEEEC1Ev@Base 5.0.0
 _ZN3itk11ImageSourceIN3otb11VectorImageIhLj2EEEEC2Ev@Base 5.0.0
 _ZN3itk11ImageSourceIN3otb11VectorImageIhLj2EEEED0Ev@Base 5.0.0
 _ZN3itk11ImageSourceIN3otb11VectorImageIhLj2EEEED1Ev@Base 5.0.0
 _ZN3itk11ImageSourceIN3otb11VectorImageIhLj2EEEED2Ev@Base 5.0.0
 _ZN3itk11ImageSourceIN3otb11VectorImageIiLj2EEEE10MakeOutputEm@Base 5.0.0
 _ZN3itk11ImageSourceIN3otb11VectorImageIiLj2EEEE11GraftOutputEPNS_10DataObjectE@Base 5.0.0
 _ZN3itk11ImageSourceIN3otb11VectorImageIiLj2EEEE11GraftOutputERKSsPNS_10DataObjectE@Base 5.0.0
 _ZN3itk11ImageSourceIN3otb11VectorImageIiLj2EEEE12GenerateDataEv@Base 5.0.0
 _ZN3itk11ImageSourceIN3otb11VectorImageIiLj2EEEE14GraftNthOutputEjPNS_10DataObjectE@Base 5.0.0
 _ZN3itk11ImageSourceIN3otb11VectorImageIiLj2EEEE15AllocateOutputsEv@Base 5.0.0
 _ZN3itk11ImageSourceIN3otb11VectorImageIiLj2EEEE16ThreaderCallbackEPv@Base 5.0.0
 _ZN3itk11ImageSourceIN3otb11VectorImageIiLj2EEEE20SplitRequestedRegionEjjRNS_11ImageRegionILj2EEE@Base 5.0.0
 _ZN3itk11ImageSourceIN3otb11VectorImageIiLj2EEEE20ThreadedGenerateDataERKNS_11ImageRegionILj2EEEj@Base 5.0.0
 _ZN3itk11ImageSourceIN3otb11VectorImageIiLj2EEEE25AfterThreadedGenerateDataEv@Base 5.0.0
 _ZN3itk11ImageSourceIN3otb11VectorImageIiLj2EEEE26BeforeThreadedGenerateDataEv@Base 5.0.0
 _ZN3itk11ImageSourceIN3otb11VectorImageIiLj2EEEE9GetOutputEj@Base 5.0.0
 _ZN3itk11ImageSourceIN3otb11VectorImageIiLj2EEEEC1Ev@Base 5.0.0
 _ZN3itk11ImageSourceIN3otb11VectorImageIiLj2EEEEC2Ev@Base 5.0.0
 _ZN3itk11ImageSourceIN3otb11VectorImageIiLj2EEEED0Ev@Base 5.0.0
 _ZN3itk11ImageSourceIN3otb11VectorImageIiLj2EEEED1Ev@Base 5.0.0
 _ZN3itk11ImageSourceIN3otb11VectorImageIiLj2EEEED2Ev@Base 5.0.0
 _ZN3itk11ImageSourceIN3otb11VectorImageIjLj2EEEE10MakeOutputEm@Base 5.0.0
 _ZN3itk11ImageSourceIN3otb11VectorImageIjLj2EEEE11GraftOutputEPNS_10DataObjectE@Base 5.0.0
 _ZN3itk11ImageSourceIN3otb11VectorImageIjLj2EEEE11GraftOutputERKSsPNS_10DataObjectE@Base 5.0.0
 _ZN3itk11ImageSourceIN3otb11VectorImageIjLj2EEEE12GenerateDataEv@Base 5.0.0
 _ZN3itk11ImageSourceIN3otb11VectorImageIjLj2EEEE14GraftNthOutputEjPNS_10DataObjectE@Base 5.0.0
 _ZN3itk11ImageSourceIN3otb11VectorImageIjLj2EEEE15AllocateOutputsEv@Base 5.0.0
 _ZN3itk11ImageSourceIN3otb11VectorImageIjLj2EEEE16ThreaderCallbackEPv@Base 5.0.0
 _ZN3itk11ImageSourceIN3otb11VectorImageIjLj2EEEE20SplitRequestedRegionEjjRNS_11ImageRegionILj2EEE@Base 5.0.0
 _ZN3itk11ImageSourceIN3otb11VectorImageIjLj2EEEE20ThreadedGenerateDataERKNS_11ImageRegionILj2EEEj@Base 5.0.0
 _ZN3itk11ImageSourceIN3otb11VectorImageIjLj2EEEE25AfterThreadedGenerateDataEv@Base 5.0.0
 _ZN3itk11ImageSourceIN3otb11VectorImageIjLj2EEEE26BeforeThreadedGenerateDataEv@Base 5.0.0
 _ZN3itk11ImageSourceIN3otb11VectorImageIjLj2EEEE9GetOutputEj@Base 5.0.0
 _ZN3itk11ImageSourceIN3otb11VectorImageIjLj2EEEEC1Ev@Base 5.0.0
 _ZN3itk11ImageSourceIN3otb11VectorImageIjLj2EEEEC2Ev@Base 5.0.0
 _ZN3itk11ImageSourceIN3otb11VectorImageIjLj2EEEED0Ev@Base 5.0.0
 _ZN3itk11ImageSourceIN3otb11VectorImageIjLj2EEEED1Ev@Base 5.0.0
 _ZN3itk11ImageSourceIN3otb11VectorImageIjLj2EEEED2Ev@Base 5.0.0
 _ZN3itk11ImageSourceIN3otb11VectorImageIsLj2EEEE10MakeOutputEm@Base 5.0.0
 _ZN3itk11ImageSourceIN3otb11VectorImageIsLj2EEEE11GraftOutputEPNS_10DataObjectE@Base 5.0.0
 _ZN3itk11ImageSourceIN3otb11VectorImageIsLj2EEEE11GraftOutputERKSsPNS_10DataObjectE@Base 5.0.0
 _ZN3itk11ImageSourceIN3otb11VectorImageIsLj2EEEE12GenerateDataEv@Base 5.0.0
 _ZN3itk11ImageSourceIN3otb11VectorImageIsLj2EEEE14GraftNthOutputEjPNS_10DataObjectE@Base 5.0.0
 _ZN3itk11ImageSourceIN3otb11VectorImageIsLj2EEEE15AllocateOutputsEv@Base 5.0.0
 _ZN3itk11ImageSourceIN3otb11VectorImageIsLj2EEEE16ThreaderCallbackEPv@Base 5.0.0
 _ZN3itk11ImageSourceIN3otb11VectorImageIsLj2EEEE20SplitRequestedRegionEjjRNS_11ImageRegionILj2EEE@Base 5.0.0
 _ZN3itk11ImageSourceIN3otb11VectorImageIsLj2EEEE20ThreadedGenerateDataERKNS_11ImageRegionILj2EEEj@Base 5.0.0
 _ZN3itk11ImageSourceIN3otb11VectorImageIsLj2EEEE25AfterThreadedGenerateDataEv@Base 5.0.0
 _ZN3itk11ImageSourceIN3otb11VectorImageIsLj2EEEE26BeforeThreadedGenerateDataEv@Base 5.0.0
 _ZN3itk11ImageSourceIN3otb11VectorImageIsLj2EEEE9GetOutputEj@Base 5.0.0
 _ZN3itk11ImageSourceIN3otb11VectorImageIsLj2EEEEC1Ev@Base 5.0.0
 _ZN3itk11ImageSourceIN3otb11VectorImageIsLj2EEEEC2Ev@Base 5.0.0
 _ZN3itk11ImageSourceIN3otb11VectorImageIsLj2EEEED0Ev@Base 5.0.0
 _ZN3itk11ImageSourceIN3otb11VectorImageIsLj2EEEED1Ev@Base 5.0.0
 _ZN3itk11ImageSourceIN3otb11VectorImageIsLj2EEEED2Ev@Base 5.0.0
 _ZN3itk11ImageSourceIN3otb11VectorImageItLj2EEEE10MakeOutputEm@Base 5.0.0
 _ZN3itk11ImageSourceIN3otb11VectorImageItLj2EEEE11GraftOutputEPNS_10DataObjectE@Base 5.0.0
 _ZN3itk11ImageSourceIN3otb11VectorImageItLj2EEEE11GraftOutputERKSsPNS_10DataObjectE@Base 5.0.0
 _ZN3itk11ImageSourceIN3otb11VectorImageItLj2EEEE12GenerateDataEv@Base 5.0.0
 _ZN3itk11ImageSourceIN3otb11VectorImageItLj2EEEE14GraftNthOutputEjPNS_10DataObjectE@Base 5.0.0
 _ZN3itk11ImageSourceIN3otb11VectorImageItLj2EEEE15AllocateOutputsEv@Base 5.0.0
 _ZN3itk11ImageSourceIN3otb11VectorImageItLj2EEEE16ThreaderCallbackEPv@Base 5.0.0
 _ZN3itk11ImageSourceIN3otb11VectorImageItLj2EEEE20SplitRequestedRegionEjjRNS_11ImageRegionILj2EEE@Base 5.0.0
 _ZN3itk11ImageSourceIN3otb11VectorImageItLj2EEEE20ThreadedGenerateDataERKNS_11ImageRegionILj2EEEj@Base 5.0.0
 _ZN3itk11ImageSourceIN3otb11VectorImageItLj2EEEE25AfterThreadedGenerateDataEv@Base 5.0.0
 _ZN3itk11ImageSourceIN3otb11VectorImageItLj2EEEE26BeforeThreadedGenerateDataEv@Base 5.0.0
 _ZN3itk11ImageSourceIN3otb11VectorImageItLj2EEEE9GetOutputEj@Base 5.0.0
 _ZN3itk11ImageSourceIN3otb11VectorImageItLj2EEEEC1Ev@Base 5.0.0
 _ZN3itk11ImageSourceIN3otb11VectorImageItLj2EEEEC2Ev@Base 5.0.0
 _ZN3itk11ImageSourceIN3otb11VectorImageItLj2EEEED0Ev@Base 5.0.0
 _ZN3itk11ImageSourceIN3otb11VectorImageItLj2EEEED1Ev@Base 5.0.0
 _ZN3itk11ImageSourceIN3otb11VectorImageItLj2EEEED2Ev@Base 5.0.0
 _ZN3itk11ImageSourceIN3otb5ImageINS_8RGBPixelIhEELj2EEEE10MakeOutputEm@Base 5.0.0
 _ZN3itk11ImageSourceIN3otb5ImageINS_8RGBPixelIhEELj2EEEE11GraftOutputEPNS_10DataObjectE@Base 5.0.0
 _ZN3itk11ImageSourceIN3otb5ImageINS_8RGBPixelIhEELj2EEEE11GraftOutputERKSsPNS_10DataObjectE@Base 5.0.0
 _ZN3itk11ImageSourceIN3otb5ImageINS_8RGBPixelIhEELj2EEEE12GenerateDataEv@Base 5.0.0
 _ZN3itk11ImageSourceIN3otb5ImageINS_8RGBPixelIhEELj2EEEE14GraftNthOutputEjPNS_10DataObjectE@Base 5.0.0
 _ZN3itk11ImageSourceIN3otb5ImageINS_8RGBPixelIhEELj2EEEE15AllocateOutputsEv@Base 5.0.0
 _ZN3itk11ImageSourceIN3otb5ImageINS_8RGBPixelIhEELj2EEEE16ThreaderCallbackEPv@Base 5.0.0
 _ZN3itk11ImageSourceIN3otb5ImageINS_8RGBPixelIhEELj2EEEE20SplitRequestedRegionEjjRNS_11ImageRegionILj2EEE@Base 5.0.0
 _ZN3itk11ImageSourceIN3otb5ImageINS_8RGBPixelIhEELj2EEEE20ThreadedGenerateDataERKNS_11ImageRegionILj2EEEj@Base 5.0.0
 _ZN3itk11ImageSourceIN3otb5ImageINS_8RGBPixelIhEELj2EEEE25AfterThreadedGenerateDataEv@Base 5.0.0
 _ZN3itk11ImageSourceIN3otb5ImageINS_8RGBPixelIhEELj2EEEE26BeforeThreadedGenerateDataEv@Base 5.0.0
 _ZN3itk11ImageSourceIN3otb5ImageINS_8RGBPixelIhEELj2EEEEC1Ev@Base 5.0.0
 _ZN3itk11ImageSourceIN3otb5ImageINS_8RGBPixelIhEELj2EEEEC2Ev@Base 5.0.0
 _ZN3itk11ImageSourceIN3otb5ImageINS_8RGBPixelIhEELj2EEEED0Ev@Base 5.0.0
 _ZN3itk11ImageSourceIN3otb5ImageINS_8RGBPixelIhEELj2EEEED1Ev@Base 5.0.0
 _ZN3itk11ImageSourceIN3otb5ImageINS_8RGBPixelIhEELj2EEEED2Ev@Base 5.0.0
 _ZN3itk11ImageSourceIN3otb5ImageINS_9RGBAPixelIhEELj2EEEE10MakeOutputEm@Base 5.0.0
 _ZN3itk11ImageSourceIN3otb5ImageINS_9RGBAPixelIhEELj2EEEE11GraftOutputEPNS_10DataObjectE@Base 5.0.0
 _ZN3itk11ImageSourceIN3otb5ImageINS_9RGBAPixelIhEELj2EEEE11GraftOutputERKSsPNS_10DataObjectE@Base 5.0.0
 _ZN3itk11ImageSourceIN3otb5ImageINS_9RGBAPixelIhEELj2EEEE12GenerateDataEv@Base 5.0.0
 _ZN3itk11ImageSourceIN3otb5ImageINS_9RGBAPixelIhEELj2EEEE14GraftNthOutputEjPNS_10DataObjectE@Base 5.0.0
 _ZN3itk11ImageSourceIN3otb5ImageINS_9RGBAPixelIhEELj2EEEE15AllocateOutputsEv@Base 5.0.0
 _ZN3itk11ImageSourceIN3otb5ImageINS_9RGBAPixelIhEELj2EEEE16ThreaderCallbackEPv@Base 5.0.0
 _ZN3itk11ImageSourceIN3otb5ImageINS_9RGBAPixelIhEELj2EEEE20SplitRequestedRegionEjjRNS_11ImageRegionILj2EEE@Base 5.0.0
 _ZN3itk11ImageSourceIN3otb5ImageINS_9RGBAPixelIhEELj2EEEE20ThreadedGenerateDataERKNS_11ImageRegionILj2EEEj@Base 5.0.0
 _ZN3itk11ImageSourceIN3otb5ImageINS_9RGBAPixelIhEELj2EEEE25AfterThreadedGenerateDataEv@Base 5.0.0
 _ZN3itk11ImageSourceIN3otb5ImageINS_9RGBAPixelIhEELj2EEEE26BeforeThreadedGenerateDataEv@Base 5.0.0
 _ZN3itk11ImageSourceIN3otb5ImageINS_9RGBAPixelIhEELj2EEEEC1Ev@Base 5.0.0
 _ZN3itk11ImageSourceIN3otb5ImageINS_9RGBAPixelIhEELj2EEEEC2Ev@Base 5.0.0
 _ZN3itk11ImageSourceIN3otb5ImageINS_9RGBAPixelIhEELj2EEEED0Ev@Base 5.0.0
 _ZN3itk11ImageSourceIN3otb5ImageINS_9RGBAPixelIhEELj2EEEED1Ev@Base 5.0.0
 _ZN3itk11ImageSourceIN3otb5ImageINS_9RGBAPixelIhEELj2EEEED2Ev@Base 5.0.0
 _ZN3itk11ImageSourceIN3otb5ImageISt7complexIdELj2EEEE10MakeOutputEm@Base 5.0.0
 _ZN3itk11ImageSourceIN3otb5ImageISt7complexIdELj2EEEE11GraftOutputEPNS_10DataObjectE@Base 5.0.0
 _ZN3itk11ImageSourceIN3otb5ImageISt7complexIdELj2EEEE11GraftOutputERKSsPNS_10DataObjectE@Base 5.0.0
 _ZN3itk11ImageSourceIN3otb5ImageISt7complexIdELj2EEEE12GenerateDataEv@Base 5.0.0
 _ZN3itk11ImageSourceIN3otb5ImageISt7complexIdELj2EEEE14GraftNthOutputEjPNS_10DataObjectE@Base 5.0.0
 _ZN3itk11ImageSourceIN3otb5ImageISt7complexIdELj2EEEE15AllocateOutputsEv@Base 5.0.0
 _ZN3itk11ImageSourceIN3otb5ImageISt7complexIdELj2EEEE16ThreaderCallbackEPv@Base 5.0.0
 _ZN3itk11ImageSourceIN3otb5ImageISt7complexIdELj2EEEE20SplitRequestedRegionEjjRNS_11ImageRegionILj2EEE@Base 5.0.0
 _ZN3itk11ImageSourceIN3otb5ImageISt7complexIdELj2EEEE20ThreadedGenerateDataERKNS_11ImageRegionILj2EEEj@Base 5.0.0
 _ZN3itk11ImageSourceIN3otb5ImageISt7complexIdELj2EEEE25AfterThreadedGenerateDataEv@Base 5.0.0
 _ZN3itk11ImageSourceIN3otb5ImageISt7complexIdELj2EEEE26BeforeThreadedGenerateDataEv@Base 5.0.0
 _ZN3itk11ImageSourceIN3otb5ImageISt7complexIdELj2EEEE9GetOutputEj@Base 5.0.0
 _ZN3itk11ImageSourceIN3otb5ImageISt7complexIdELj2EEEEC1Ev@Base 5.0.0
 _ZN3itk11ImageSourceIN3otb5ImageISt7complexIdELj2EEEEC2Ev@Base 5.0.0
 _ZN3itk11ImageSourceIN3otb5ImageISt7complexIdELj2EEEED0Ev@Base 5.0.0
 _ZN3itk11ImageSourceIN3otb5ImageISt7complexIdELj2EEEED1Ev@Base 5.0.0
 _ZN3itk11ImageSourceIN3otb5ImageISt7complexIdELj2EEEED2Ev@Base 5.0.0
 _ZN3itk11ImageSourceIN3otb5ImageISt7complexIfELj2EEEE10MakeOutputEm@Base 5.0.0
 _ZN3itk11ImageSourceIN3otb5ImageISt7complexIfELj2EEEE11GraftOutputEPNS_10DataObjectE@Base 5.0.0
 _ZN3itk11ImageSourceIN3otb5ImageISt7complexIfELj2EEEE11GraftOutputERKSsPNS_10DataObjectE@Base 5.0.0
 _ZN3itk11ImageSourceIN3otb5ImageISt7complexIfELj2EEEE12GenerateDataEv@Base 5.0.0
 _ZN3itk11ImageSourceIN3otb5ImageISt7complexIfELj2EEEE14GraftNthOutputEjPNS_10DataObjectE@Base 5.0.0
 _ZN3itk11ImageSourceIN3otb5ImageISt7complexIfELj2EEEE15AllocateOutputsEv@Base 5.0.0
 _ZN3itk11ImageSourceIN3otb5ImageISt7complexIfELj2EEEE16ThreaderCallbackEPv@Base 5.0.0
 _ZN3itk11ImageSourceIN3otb5ImageISt7complexIfELj2EEEE20SplitRequestedRegionEjjRNS_11ImageRegionILj2EEE@Base 5.0.0
 _ZN3itk11ImageSourceIN3otb5ImageISt7complexIfELj2EEEE20ThreadedGenerateDataERKNS_11ImageRegionILj2EEEj@Base 5.0.0
 _ZN3itk11ImageSourceIN3otb5ImageISt7complexIfELj2EEEE25AfterThreadedGenerateDataEv@Base 5.0.0
 _ZN3itk11ImageSourceIN3otb5ImageISt7complexIfELj2EEEE26BeforeThreadedGenerateDataEv@Base 5.0.0
 _ZN3itk11ImageSourceIN3otb5ImageISt7complexIfELj2EEEE9GetOutputEj@Base 5.0.0
 _ZN3itk11ImageSourceIN3otb5ImageISt7complexIfELj2EEEEC1Ev@Base 5.0.0
 _ZN3itk11ImageSourceIN3otb5ImageISt7complexIfELj2EEEEC2Ev@Base 5.0.0
 _ZN3itk11ImageSourceIN3otb5ImageISt7complexIfELj2EEEED0Ev@Base 5.0.0
 _ZN3itk11ImageSourceIN3otb5ImageISt7complexIfELj2EEEED1Ev@Base 5.0.0
 _ZN3itk11ImageSourceIN3otb5ImageISt7complexIfELj2EEEED2Ev@Base 5.0.0
 _ZN3itk11ImageSourceIN3otb5ImageIdLj2EEEE10MakeOutputEm@Base 5.0.0
 _ZN3itk11ImageSourceIN3otb5ImageIdLj2EEEE11GraftOutputEPNS_10DataObjectE@Base 5.0.0
 _ZN3itk11ImageSourceIN3otb5ImageIdLj2EEEE11GraftOutputERKSsPNS_10DataObjectE@Base 5.0.0
 _ZN3itk11ImageSourceIN3otb5ImageIdLj2EEEE12GenerateDataEv@Base 5.0.0
 _ZN3itk11ImageSourceIN3otb5ImageIdLj2EEEE14GraftNthOutputEjPNS_10DataObjectE@Base 5.0.0
 _ZN3itk11ImageSourceIN3otb5ImageIdLj2EEEE15AllocateOutputsEv@Base 5.0.0
 _ZN3itk11ImageSourceIN3otb5ImageIdLj2EEEE16ThreaderCallbackEPv@Base 5.0.0
 _ZN3itk11ImageSourceIN3otb5ImageIdLj2EEEE20SplitRequestedRegionEjjRNS_11ImageRegionILj2EEE@Base 5.0.0
 _ZN3itk11ImageSourceIN3otb5ImageIdLj2EEEE20ThreadedGenerateDataERKNS_11ImageRegionILj2EEEj@Base 5.0.0
 _ZN3itk11ImageSourceIN3otb5ImageIdLj2EEEE25AfterThreadedGenerateDataEv@Base 5.0.0
 _ZN3itk11ImageSourceIN3otb5ImageIdLj2EEEE26BeforeThreadedGenerateDataEv@Base 5.0.0
 _ZN3itk11ImageSourceIN3otb5ImageIdLj2EEEE9GetOutputEj@Base 5.0.0
 _ZN3itk11ImageSourceIN3otb5ImageIdLj2EEEEC1Ev@Base 5.0.0
 _ZN3itk11ImageSourceIN3otb5ImageIdLj2EEEEC2Ev@Base 5.0.0
 _ZN3itk11ImageSourceIN3otb5ImageIdLj2EEEED0Ev@Base 5.0.0
 _ZN3itk11ImageSourceIN3otb5ImageIdLj2EEEED1Ev@Base 5.0.0
 _ZN3itk11ImageSourceIN3otb5ImageIdLj2EEEED2Ev@Base 5.0.0
 _ZN3itk11ImageSourceIN3otb5ImageIfLj2EEEE10MakeOutputEm@Base 5.0.0
 _ZN3itk11ImageSourceIN3otb5ImageIfLj2EEEE11GraftOutputEPNS_10DataObjectE@Base 5.0.0
 _ZN3itk11ImageSourceIN3otb5ImageIfLj2EEEE11GraftOutputERKSsPNS_10DataObjectE@Base 5.0.0
 _ZN3itk11ImageSourceIN3otb5ImageIfLj2EEEE12GenerateDataEv@Base 5.0.0
 _ZN3itk11ImageSourceIN3otb5ImageIfLj2EEEE14GraftNthOutputEjPNS_10DataObjectE@Base 5.0.0
 _ZN3itk11ImageSourceIN3otb5ImageIfLj2EEEE15AllocateOutputsEv@Base 5.0.0
 _ZN3itk11ImageSourceIN3otb5ImageIfLj2EEEE16ThreaderCallbackEPv@Base 5.0.0
 _ZN3itk11ImageSourceIN3otb5ImageIfLj2EEEE20SplitRequestedRegionEjjRNS_11ImageRegionILj2EEE@Base 5.0.0
 _ZN3itk11ImageSourceIN3otb5ImageIfLj2EEEE20ThreadedGenerateDataERKNS_11ImageRegionILj2EEEj@Base 5.0.0
 _ZN3itk11ImageSourceIN3otb5ImageIfLj2EEEE25AfterThreadedGenerateDataEv@Base 5.0.0
 _ZN3itk11ImageSourceIN3otb5ImageIfLj2EEEE26BeforeThreadedGenerateDataEv@Base 5.0.0
 _ZN3itk11ImageSourceIN3otb5ImageIfLj2EEEE9GetOutputEj@Base 5.0.0
 _ZN3itk11ImageSourceIN3otb5ImageIfLj2EEEEC1Ev@Base 5.0.0
 _ZN3itk11ImageSourceIN3otb5ImageIfLj2EEEEC2Ev@Base 5.0.0
 _ZN3itk11ImageSourceIN3otb5ImageIfLj2EEEED0Ev@Base 5.0.0
 _ZN3itk11ImageSourceIN3otb5ImageIfLj2EEEED1Ev@Base 5.0.0
 _ZN3itk11ImageSourceIN3otb5ImageIfLj2EEEED2Ev@Base 5.0.0
 _ZN3itk11ImageSourceIN3otb5ImageIhLj2EEEE10MakeOutputEm@Base 5.0.0
 _ZN3itk11ImageSourceIN3otb5ImageIhLj2EEEE11GraftOutputEPNS_10DataObjectE@Base 5.0.0
 _ZN3itk11ImageSourceIN3otb5ImageIhLj2EEEE11GraftOutputERKSsPNS_10DataObjectE@Base 5.0.0
 _ZN3itk11ImageSourceIN3otb5ImageIhLj2EEEE12GenerateDataEv@Base 5.0.0
 _ZN3itk11ImageSourceIN3otb5ImageIhLj2EEEE14GraftNthOutputEjPNS_10DataObjectE@Base 5.0.0
 _ZN3itk11ImageSourceIN3otb5ImageIhLj2EEEE15AllocateOutputsEv@Base 5.0.0
 _ZN3itk11ImageSourceIN3otb5ImageIhLj2EEEE16ThreaderCallbackEPv@Base 5.0.0
 _ZN3itk11ImageSourceIN3otb5ImageIhLj2EEEE20SplitRequestedRegionEjjRNS_11ImageRegionILj2EEE@Base 5.0.0
 _ZN3itk11ImageSourceIN3otb5ImageIhLj2EEEE20ThreadedGenerateDataERKNS_11ImageRegionILj2EEEj@Base 5.0.0
 _ZN3itk11ImageSourceIN3otb5ImageIhLj2EEEE25AfterThreadedGenerateDataEv@Base 5.0.0
 _ZN3itk11ImageSourceIN3otb5ImageIhLj2EEEE26BeforeThreadedGenerateDataEv@Base 5.0.0
 _ZN3itk11ImageSourceIN3otb5ImageIhLj2EEEE9GetOutputEj@Base 5.0.0
 _ZN3itk11ImageSourceIN3otb5ImageIhLj2EEEEC1Ev@Base 5.0.0
 _ZN3itk11ImageSourceIN3otb5ImageIhLj2EEEEC2Ev@Base 5.0.0
 _ZN3itk11ImageSourceIN3otb5ImageIhLj2EEEED0Ev@Base 5.0.0
 _ZN3itk11ImageSourceIN3otb5ImageIhLj2EEEED1Ev@Base 5.0.0
 _ZN3itk11ImageSourceIN3otb5ImageIhLj2EEEED2Ev@Base 5.0.0
 _ZN3itk11ImageSourceIN3otb5ImageIiLj2EEEE10MakeOutputEm@Base 5.0.0
 _ZN3itk11ImageSourceIN3otb5ImageIiLj2EEEE11GraftOutputEPNS_10DataObjectE@Base 5.0.0
 _ZN3itk11ImageSourceIN3otb5ImageIiLj2EEEE11GraftOutputERKSsPNS_10DataObjectE@Base 5.0.0
 _ZN3itk11ImageSourceIN3otb5ImageIiLj2EEEE12GenerateDataEv@Base 5.0.0
 _ZN3itk11ImageSourceIN3otb5ImageIiLj2EEEE14GraftNthOutputEjPNS_10DataObjectE@Base 5.0.0
 _ZN3itk11ImageSourceIN3otb5ImageIiLj2EEEE15AllocateOutputsEv@Base 5.0.0
 _ZN3itk11ImageSourceIN3otb5ImageIiLj2EEEE16ThreaderCallbackEPv@Base 5.0.0
 _ZN3itk11ImageSourceIN3otb5ImageIiLj2EEEE20SplitRequestedRegionEjjRNS_11ImageRegionILj2EEE@Base 5.0.0
 _ZN3itk11ImageSourceIN3otb5ImageIiLj2EEEE20ThreadedGenerateDataERKNS_11ImageRegionILj2EEEj@Base 5.0.0
 _ZN3itk11ImageSourceIN3otb5ImageIiLj2EEEE25AfterThreadedGenerateDataEv@Base 5.0.0
 _ZN3itk11ImageSourceIN3otb5ImageIiLj2EEEE26BeforeThreadedGenerateDataEv@Base 5.0.0
 _ZN3itk11ImageSourceIN3otb5ImageIiLj2EEEE9GetOutputEj@Base 5.0.0
 _ZN3itk11ImageSourceIN3otb5ImageIiLj2EEEEC1Ev@Base 5.0.0
 _ZN3itk11ImageSourceIN3otb5ImageIiLj2EEEEC2Ev@Base 5.0.0
 _ZN3itk11ImageSourceIN3otb5ImageIiLj2EEEED0Ev@Base 5.0.0
 _ZN3itk11ImageSourceIN3otb5ImageIiLj2EEEED1Ev@Base 5.0.0
 _ZN3itk11ImageSourceIN3otb5ImageIiLj2EEEED2Ev@Base 5.0.0
 _ZN3itk11ImageSourceIN3otb5ImageIjLj2EEEE10MakeOutputEm@Base 5.0.0
 _ZN3itk11ImageSourceIN3otb5ImageIjLj2EEEE11GraftOutputEPNS_10DataObjectE@Base 5.0.0
 _ZN3itk11ImageSourceIN3otb5ImageIjLj2EEEE11GraftOutputERKSsPNS_10DataObjectE@Base 5.0.0
 _ZN3itk11ImageSourceIN3otb5ImageIjLj2EEEE12GenerateDataEv@Base 5.0.0
 _ZN3itk11ImageSourceIN3otb5ImageIjLj2EEEE14GraftNthOutputEjPNS_10DataObjectE@Base 5.0.0
 _ZN3itk11ImageSourceIN3otb5ImageIjLj2EEEE15AllocateOutputsEv@Base 5.0.0
 _ZN3itk11ImageSourceIN3otb5ImageIjLj2EEEE16ThreaderCallbackEPv@Base 5.0.0
 _ZN3itk11ImageSourceIN3otb5ImageIjLj2EEEE20SplitRequestedRegionEjjRNS_11ImageRegionILj2EEE@Base 5.0.0
 _ZN3itk11ImageSourceIN3otb5ImageIjLj2EEEE20ThreadedGenerateDataERKNS_11ImageRegionILj2EEEj@Base 5.0.0
 _ZN3itk11ImageSourceIN3otb5ImageIjLj2EEEE25AfterThreadedGenerateDataEv@Base 5.0.0
 _ZN3itk11ImageSourceIN3otb5ImageIjLj2EEEE26BeforeThreadedGenerateDataEv@Base 5.0.0
 _ZN3itk11ImageSourceIN3otb5ImageIjLj2EEEE9GetOutputEj@Base 5.0.0
 _ZN3itk11ImageSourceIN3otb5ImageIjLj2EEEEC1Ev@Base 5.0.0
 _ZN3itk11ImageSourceIN3otb5ImageIjLj2EEEEC2Ev@Base 5.0.0
 _ZN3itk11ImageSourceIN3otb5ImageIjLj2EEEED0Ev@Base 5.0.0
 _ZN3itk11ImageSourceIN3otb5ImageIjLj2EEEED1Ev@Base 5.0.0
 _ZN3itk11ImageSourceIN3otb5ImageIjLj2EEEED2Ev@Base 5.0.0
 _ZN3itk11ImageSourceIN3otb5ImageIsLj2EEEE10MakeOutputEm@Base 5.0.0
 _ZN3itk11ImageSourceIN3otb5ImageIsLj2EEEE11GraftOutputEPNS_10DataObjectE@Base 5.0.0
 _ZN3itk11ImageSourceIN3otb5ImageIsLj2EEEE11GraftOutputERKSsPNS_10DataObjectE@Base 5.0.0
 _ZN3itk11ImageSourceIN3otb5ImageIsLj2EEEE12GenerateDataEv@Base 5.0.0
 _ZN3itk11ImageSourceIN3otb5ImageIsLj2EEEE14GraftNthOutputEjPNS_10DataObjectE@Base 5.0.0
 _ZN3itk11ImageSourceIN3otb5ImageIsLj2EEEE15AllocateOutputsEv@Base 5.0.0
 _ZN3itk11ImageSourceIN3otb5ImageIsLj2EEEE16ThreaderCallbackEPv@Base 5.0.0
 _ZN3itk11ImageSourceIN3otb5ImageIsLj2EEEE20SplitRequestedRegionEjjRNS_11ImageRegionILj2EEE@Base 5.0.0
 _ZN3itk11ImageSourceIN3otb5ImageIsLj2EEEE20ThreadedGenerateDataERKNS_11ImageRegionILj2EEEj@Base 5.0.0
 _ZN3itk11ImageSourceIN3otb5ImageIsLj2EEEE25AfterThreadedGenerateDataEv@Base 5.0.0
 _ZN3itk11ImageSourceIN3otb5ImageIsLj2EEEE26BeforeThreadedGenerateDataEv@Base 5.0.0
 _ZN3itk11ImageSourceIN3otb5ImageIsLj2EEEE9GetOutputEj@Base 5.0.0
 _ZN3itk11ImageSourceIN3otb5ImageIsLj2EEEEC1Ev@Base 5.0.0
 _ZN3itk11ImageSourceIN3otb5ImageIsLj2EEEEC2Ev@Base 5.0.0
 _ZN3itk11ImageSourceIN3otb5ImageIsLj2EEEED0Ev@Base 5.0.0
 _ZN3itk11ImageSourceIN3otb5ImageIsLj2EEEED1Ev@Base 5.0.0
 _ZN3itk11ImageSourceIN3otb5ImageIsLj2EEEED2Ev@Base 5.0.0
 _ZN3itk11ImageSourceIN3otb5ImageItLj2EEEE10MakeOutputEm@Base 5.0.0
 _ZN3itk11ImageSourceIN3otb5ImageItLj2EEEE11GraftOutputEPNS_10DataObjectE@Base 5.0.0
 _ZN3itk11ImageSourceIN3otb5ImageItLj2EEEE11GraftOutputERKSsPNS_10DataObjectE@Base 5.0.0
 _ZN3itk11ImageSourceIN3otb5ImageItLj2EEEE12GenerateDataEv@Base 5.0.0
 _ZN3itk11ImageSourceIN3otb5ImageItLj2EEEE14GraftNthOutputEjPNS_10DataObjectE@Base 5.0.0
 _ZN3itk11ImageSourceIN3otb5ImageItLj2EEEE15AllocateOutputsEv@Base 5.0.0
 _ZN3itk11ImageSourceIN3otb5ImageItLj2EEEE16ThreaderCallbackEPv@Base 5.0.0
 _ZN3itk11ImageSourceIN3otb5ImageItLj2EEEE20SplitRequestedRegionEjjRNS_11ImageRegionILj2EEE@Base 5.0.0
 _ZN3itk11ImageSourceIN3otb5ImageItLj2EEEE20ThreadedGenerateDataERKNS_11ImageRegionILj2EEEj@Base 5.0.0
 _ZN3itk11ImageSourceIN3otb5ImageItLj2EEEE25AfterThreadedGenerateDataEv@Base 5.0.0
 _ZN3itk11ImageSourceIN3otb5ImageItLj2EEEE26BeforeThreadedGenerateDataEv@Base 5.0.0
 _ZN3itk11ImageSourceIN3otb5ImageItLj2EEEE9GetOutputEj@Base 5.0.0
 _ZN3itk11ImageSourceIN3otb5ImageItLj2EEEEC1Ev@Base 5.0.0
 _ZN3itk11ImageSourceIN3otb5ImageItLj2EEEEC2Ev@Base 5.0.0
 _ZN3itk11ImageSourceIN3otb5ImageItLj2EEEED0Ev@Base 5.0.0
 _ZN3itk11ImageSourceIN3otb5ImageItLj2EEEED1Ev@Base 5.0.0
 _ZN3itk11ImageSourceIN3otb5ImageItLj2EEEED2Ev@Base 5.0.0
 _ZN3itk11VectorImageISt7complexIdELj2EE10InitializeEv@Base 5.0.0
 _ZN3itk11VectorImageISt7complexIdELj2EE15SetVectorLengthEj@Base 5.0.0
 _ZN3itk11VectorImageISt7complexIdELj2EE29SetNumberOfComponentsPerPixelEj@Base 5.0.0
 _ZN3itk11VectorImageISt7complexIdELj2EE5GraftEPKNS_10DataObjectE@Base 5.0.0
 _ZN3itk11VectorImageISt7complexIdELj2EE8AllocateEb@Base 5.0.0
 _ZN3itk11VectorImageISt7complexIdELj2EEC1Ev@Base 5.0.0
 _ZN3itk11VectorImageISt7complexIdELj2EEC2Ev@Base 5.0.0
 _ZN3itk11VectorImageISt7complexIdELj2EED0Ev@Base 5.0.0
 _ZN3itk11VectorImageISt7complexIdELj2EED1Ev@Base 5.0.0
 _ZN3itk11VectorImageISt7complexIdELj2EED2Ev@Base 5.0.0
 _ZN3itk11VectorImageISt7complexIfELj2EE10InitializeEv@Base 5.0.0
 _ZN3itk11VectorImageISt7complexIfELj2EE15SetVectorLengthEj@Base 5.0.0
 _ZN3itk11VectorImageISt7complexIfELj2EE29SetNumberOfComponentsPerPixelEj@Base 5.0.0
 _ZN3itk11VectorImageISt7complexIfELj2EE5GraftEPKNS_10DataObjectE@Base 5.0.0
 _ZN3itk11VectorImageISt7complexIfELj2EE8AllocateEb@Base 5.0.0
 _ZN3itk11VectorImageISt7complexIfELj2EEC1Ev@Base 5.0.0
 _ZN3itk11VectorImageISt7complexIfELj2EEC2Ev@Base 5.0.0
 _ZN3itk11VectorImageISt7complexIfELj2EED0Ev@Base 5.0.0
 _ZN3itk11VectorImageISt7complexIfELj2EED1Ev@Base 5.0.0
 _ZN3itk11VectorImageISt7complexIfELj2EED2Ev@Base 5.0.0
 _ZN3itk11VectorImageIdLj2EE10InitializeEv@Base 5.0.0
 _ZN3itk11VectorImageIdLj2EE15SetVectorLengthEj@Base 5.0.0
 _ZN3itk11VectorImageIdLj2EE29SetNumberOfComponentsPerPixelEj@Base 5.0.0
 _ZN3itk11VectorImageIdLj2EE5GraftEPKNS_10DataObjectE@Base 5.0.0
 _ZN3itk11VectorImageIdLj2EE8AllocateEb@Base 5.0.0
 _ZN3itk11VectorImageIdLj2EEC1Ev@Base 5.0.0
 _ZN3itk11VectorImageIdLj2EEC2Ev@Base 5.0.0
 _ZN3itk11VectorImageIdLj2EED0Ev@Base 5.0.0
 _ZN3itk11VectorImageIdLj2EED1Ev@Base 5.0.0
 _ZN3itk11VectorImageIdLj2EED2Ev@Base 5.0.0
 _ZN3itk11VectorImageIfLj2EE10InitializeEv@Base 5.0.0
 _ZN3itk11VectorImageIfLj2EE15SetVectorLengthEj@Base 5.0.0
 _ZN3itk11VectorImageIfLj2EE29SetNumberOfComponentsPerPixelEj@Base 5.0.0
 _ZN3itk11VectorImageIfLj2EE5GraftEPKNS_10DataObjectE@Base 5.0.0
 _ZN3itk11VectorImageIfLj2EE8AllocateEb@Base 5.0.0
 _ZN3itk11VectorImageIfLj2EEC1Ev@Base 5.0.0
 _ZN3itk11VectorImageIfLj2EEC2Ev@Base 5.0.0
 _ZN3itk11VectorImageIfLj2EED0Ev@Base 5.0.0
 _ZN3itk11VectorImageIfLj2EED1Ev@Base 5.0.0
 _ZN3itk11VectorImageIfLj2EED2Ev@Base 5.0.0
 _ZN3itk11VectorImageIhLj2EE10InitializeEv@Base 5.0.0
 _ZN3itk11VectorImageIhLj2EE15SetVectorLengthEj@Base 5.0.0
 _ZN3itk11VectorImageIhLj2EE29SetNumberOfComponentsPerPixelEj@Base 5.0.0
 _ZN3itk11VectorImageIhLj2EE5GraftEPKNS_10DataObjectE@Base 5.0.0
 _ZN3itk11VectorImageIhLj2EE8AllocateEb@Base 5.0.0
 _ZN3itk11VectorImageIhLj2EEC1Ev@Base 5.0.0
 _ZN3itk11VectorImageIhLj2EEC2Ev@Base 5.0.0
 _ZN3itk11VectorImageIhLj2EED0Ev@Base 5.0.0
 _ZN3itk11VectorImageIhLj2EED1Ev@Base 5.0.0
 _ZN3itk11VectorImageIhLj2EED2Ev@Base 5.0.0
 _ZN3itk11VectorImageIiLj2EE10InitializeEv@Base 5.0.0
 _ZN3itk11VectorImageIiLj2EE15SetVectorLengthEj@Base 5.0.0
 _ZN3itk11VectorImageIiLj2EE29SetNumberOfComponentsPerPixelEj@Base 5.0.0
 _ZN3itk11VectorImageIiLj2EE5GraftEPKNS_10DataObjectE@Base 5.0.0
 _ZN3itk11VectorImageIiLj2EE8AllocateEb@Base 5.0.0
 _ZN3itk11VectorImageIiLj2EEC1Ev@Base 5.0.0
 _ZN3itk11VectorImageIiLj2EEC2Ev@Base 5.0.0
 _ZN3itk11VectorImageIiLj2EED0Ev@Base 5.0.0
 _ZN3itk11VectorImageIiLj2EED1Ev@Base 5.0.0
 _ZN3itk11VectorImageIiLj2EED2Ev@Base 5.0.0
 _ZN3itk11VectorImageIjLj2EE10InitializeEv@Base 5.0.0
 _ZN3itk11VectorImageIjLj2EE15SetVectorLengthEj@Base 5.0.0
 _ZN3itk11VectorImageIjLj2EE29SetNumberOfComponentsPerPixelEj@Base 5.0.0
 _ZN3itk11VectorImageIjLj2EE5GraftEPKNS_10DataObjectE@Base 5.0.0
 _ZN3itk11VectorImageIjLj2EE8AllocateEb@Base 5.0.0
 _ZN3itk11VectorImageIjLj2EEC1Ev@Base 5.0.0
 _ZN3itk11VectorImageIjLj2EEC2Ev@Base 5.0.0
 _ZN3itk11VectorImageIjLj2EED0Ev@Base 5.0.0
 _ZN3itk11VectorImageIjLj2EED1Ev@Base 5.0.0
 _ZN3itk11VectorImageIjLj2EED2Ev@Base 5.0.0
 _ZN3itk11VectorImageIsLj2EE10InitializeEv@Base 5.0.0
 _ZN3itk11VectorImageIsLj2EE15SetVectorLengthEj@Base 5.0.0
 _ZN3itk11VectorImageIsLj2EE29SetNumberOfComponentsPerPixelEj@Base 5.0.0
 _ZN3itk11VectorImageIsLj2EE5GraftEPKNS_10DataObjectE@Base 5.0.0
 _ZN3itk11VectorImageIsLj2EE8AllocateEb@Base 5.0.0
 _ZN3itk11VectorImageIsLj2EEC1Ev@Base 5.0.0
 _ZN3itk11VectorImageIsLj2EEC2Ev@Base 5.0.0
 _ZN3itk11VectorImageIsLj2EED0Ev@Base 5.0.0
 _ZN3itk11VectorImageIsLj2EED1Ev@Base 5.0.0
 _ZN3itk11VectorImageIsLj2EED2Ev@Base 5.0.0
 _ZN3itk11VectorImageItLj2EE10InitializeEv@Base 5.0.0
 _ZN3itk11VectorImageItLj2EE15SetVectorLengthEj@Base 5.0.0
 _ZN3itk11VectorImageItLj2EE29SetNumberOfComponentsPerPixelEj@Base 5.0.0
 _ZN3itk11VectorImageItLj2EE5GraftEPKNS_10DataObjectE@Base 5.0.0
 _ZN3itk11VectorImageItLj2EE8AllocateEb@Base 5.0.0
 _ZN3itk11VectorImageItLj2EEC1Ev@Base 5.0.0
 _ZN3itk11VectorImageItLj2EEC2Ev@Base 5.0.0
 _ZN3itk11VectorImageItLj2EED0Ev@Base 5.0.0
 _ZN3itk11VectorImageItLj2EED1Ev@Base 5.0.0
 _ZN3itk11VectorImageItLj2EED2Ev@Base 5.0.0
 _ZN3itk12SmartPointerIN3otb11ImageIOBaseEEaSEPS2_@Base 5.0.0
 _ZN3itk12SmartPointerIN3otb7Wrapper9ParameterEEaSEPS3_@Base 5.0.0
 _ZN3itk12SmartPointerINS_8TreeNodeINS0_IN3otb8DataNodeIdLj2EdEEEEEEEaSEPS6_@Base 5.0.0
 _ZN3itk12SmartPointerINS_9TransformIdLj2ELj2EEEEaSEPS2_@Base 5.0.0
 _ZN3itk12TreeAddEventINS_13TreeContainerINS_12SmartPointerIN3otb8DataNodeIdLj2EdEEEEEEED0Ev@Base 5.0.0
 _ZN3itk12TreeAddEventINS_13TreeContainerINS_12SmartPointerIN3otb8DataNodeIdLj2EdEEEEEEED1Ev@Base 5.0.0
 _ZN3itk12TreeAddEventINS_13TreeContainerINS_12SmartPointerIN3otb8DataNodeIdLj2EdEEEEEEED2Ev@Base 5.0.0
 _ZN3itk13MemberCommandIN3otb15ImageFileWriterINS1_11VectorImageISt7complexIdELj2EEEEEE3NewEv@Base 5.0.0
 _ZN3itk13MemberCommandIN3otb15ImageFileWriterINS1_11VectorImageISt7complexIdELj2EEEEEE7ExecuteEPKNS_6ObjectERKNS_11EventObjectE@Base 5.0.0
 _ZN3itk13MemberCommandIN3otb15ImageFileWriterINS1_11VectorImageISt7complexIdELj2EEEEEE7ExecuteEPNS_6ObjectERKNS_11EventObjectE@Base 5.0.0
 _ZN3itk13MemberCommandIN3otb15ImageFileWriterINS1_11VectorImageISt7complexIdELj2EEEEEED0Ev@Base 5.0.0
 _ZN3itk13MemberCommandIN3otb15ImageFileWriterINS1_11VectorImageISt7complexIdELj2EEEEEED1Ev@Base 5.0.0
 _ZN3itk13MemberCommandIN3otb15ImageFileWriterINS1_11VectorImageISt7complexIdELj2EEEEEED2Ev@Base 5.0.0
 _ZN3itk13MemberCommandIN3otb15ImageFileWriterINS1_11VectorImageISt7complexIfELj2EEEEEE3NewEv@Base 5.0.0
 _ZN3itk13MemberCommandIN3otb15ImageFileWriterINS1_11VectorImageISt7complexIfELj2EEEEEE7ExecuteEPKNS_6ObjectERKNS_11EventObjectE@Base 5.0.0
 _ZN3itk13MemberCommandIN3otb15ImageFileWriterINS1_11VectorImageISt7complexIfELj2EEEEEE7ExecuteEPNS_6ObjectERKNS_11EventObjectE@Base 5.0.0
 _ZN3itk13MemberCommandIN3otb15ImageFileWriterINS1_11VectorImageISt7complexIfELj2EEEEEED0Ev@Base 5.0.0
 _ZN3itk13MemberCommandIN3otb15ImageFileWriterINS1_11VectorImageISt7complexIfELj2EEEEEED1Ev@Base 5.0.0
 _ZN3itk13MemberCommandIN3otb15ImageFileWriterINS1_11VectorImageISt7complexIfELj2EEEEEED2Ev@Base 5.0.0
 _ZN3itk13MemberCommandIN3otb15ImageFileWriterINS1_11VectorImageIdLj2EEEEEE3NewEv@Base 5.0.0
 _ZN3itk13MemberCommandIN3otb15ImageFileWriterINS1_11VectorImageIdLj2EEEEEE7ExecuteEPKNS_6ObjectERKNS_11EventObjectE@Base 5.0.0
 _ZN3itk13MemberCommandIN3otb15ImageFileWriterINS1_11VectorImageIdLj2EEEEEE7ExecuteEPNS_6ObjectERKNS_11EventObjectE@Base 5.0.0
 _ZN3itk13MemberCommandIN3otb15ImageFileWriterINS1_11VectorImageIdLj2EEEEEED0Ev@Base 5.0.0
 _ZN3itk13MemberCommandIN3otb15ImageFileWriterINS1_11VectorImageIdLj2EEEEEED1Ev@Base 5.0.0
 _ZN3itk13MemberCommandIN3otb15ImageFileWriterINS1_11VectorImageIdLj2EEEEEED2Ev@Base 5.0.0
 _ZN3itk13MemberCommandIN3otb15ImageFileWriterINS1_11VectorImageIfLj2EEEEEE3NewEv@Base 5.0.0
 _ZN3itk13MemberCommandIN3otb15ImageFileWriterINS1_11VectorImageIfLj2EEEEEE7ExecuteEPKNS_6ObjectERKNS_11EventObjectE@Base 5.0.0
 _ZN3itk13MemberCommandIN3otb15ImageFileWriterINS1_11VectorImageIfLj2EEEEEE7ExecuteEPNS_6ObjectERKNS_11EventObjectE@Base 5.0.0
 _ZN3itk13MemberCommandIN3otb15ImageFileWriterINS1_11VectorImageIfLj2EEEEEED0Ev@Base 5.0.0
 _ZN3itk13MemberCommandIN3otb15ImageFileWriterINS1_11VectorImageIfLj2EEEEEED1Ev@Base 5.0.0
 _ZN3itk13MemberCommandIN3otb15ImageFileWriterINS1_11VectorImageIfLj2EEEEEED2Ev@Base 5.0.0
 _ZN3itk13MemberCommandIN3otb15ImageFileWriterINS1_11VectorImageIhLj2EEEEEE3NewEv@Base 5.0.0
 _ZN3itk13MemberCommandIN3otb15ImageFileWriterINS1_11VectorImageIhLj2EEEEEE7ExecuteEPKNS_6ObjectERKNS_11EventObjectE@Base 5.0.0
 _ZN3itk13MemberCommandIN3otb15ImageFileWriterINS1_11VectorImageIhLj2EEEEEE7ExecuteEPNS_6ObjectERKNS_11EventObjectE@Base 5.0.0
 _ZN3itk13MemberCommandIN3otb15ImageFileWriterINS1_11VectorImageIhLj2EEEEEED0Ev@Base 5.0.0
 _ZN3itk13MemberCommandIN3otb15ImageFileWriterINS1_11VectorImageIhLj2EEEEEED1Ev@Base 5.0.0
 _ZN3itk13MemberCommandIN3otb15ImageFileWriterINS1_11VectorImageIhLj2EEEEEED2Ev@Base 5.0.0
 _ZN3itk13MemberCommandIN3otb15ImageFileWriterINS1_11VectorImageIiLj2EEEEEE3NewEv@Base 5.0.0
 _ZN3itk13MemberCommandIN3otb15ImageFileWriterINS1_11VectorImageIiLj2EEEEEE7ExecuteEPKNS_6ObjectERKNS_11EventObjectE@Base 5.0.0
 _ZN3itk13MemberCommandIN3otb15ImageFileWriterINS1_11VectorImageIiLj2EEEEEE7ExecuteEPNS_6ObjectERKNS_11EventObjectE@Base 5.0.0
 _ZN3itk13MemberCommandIN3otb15ImageFileWriterINS1_11VectorImageIiLj2EEEEEED0Ev@Base 5.0.0
 _ZN3itk13MemberCommandIN3otb15ImageFileWriterINS1_11VectorImageIiLj2EEEEEED1Ev@Base 5.0.0
 _ZN3itk13MemberCommandIN3otb15ImageFileWriterINS1_11VectorImageIiLj2EEEEEED2Ev@Base 5.0.0
 _ZN3itk13MemberCommandIN3otb15ImageFileWriterINS1_11VectorImageIjLj2EEEEEE3NewEv@Base 5.0.0
 _ZN3itk13MemberCommandIN3otb15ImageFileWriterINS1_11VectorImageIjLj2EEEEEE7ExecuteEPKNS_6ObjectERKNS_11EventObjectE@Base 5.0.0
 _ZN3itk13MemberCommandIN3otb15ImageFileWriterINS1_11VectorImageIjLj2EEEEEE7ExecuteEPNS_6ObjectERKNS_11EventObjectE@Base 5.0.0
 _ZN3itk13MemberCommandIN3otb15ImageFileWriterINS1_11VectorImageIjLj2EEEEEED0Ev@Base 5.0.0
 _ZN3itk13MemberCommandIN3otb15ImageFileWriterINS1_11VectorImageIjLj2EEEEEED1Ev@Base 5.0.0
 _ZN3itk13MemberCommandIN3otb15ImageFileWriterINS1_11VectorImageIjLj2EEEEEED2Ev@Base 5.0.0
 _ZN3itk13MemberCommandIN3otb15ImageFileWriterINS1_11VectorImageIsLj2EEEEEE3NewEv@Base 5.0.0
 _ZN3itk13MemberCommandIN3otb15ImageFileWriterINS1_11VectorImageIsLj2EEEEEE7ExecuteEPKNS_6ObjectERKNS_11EventObjectE@Base 5.0.0
 _ZN3itk13MemberCommandIN3otb15ImageFileWriterINS1_11VectorImageIsLj2EEEEEE7ExecuteEPNS_6ObjectERKNS_11EventObjectE@Base 5.0.0
 _ZN3itk13MemberCommandIN3otb15ImageFileWriterINS1_11VectorImageIsLj2EEEEEED0Ev@Base 5.0.0
 _ZN3itk13MemberCommandIN3otb15ImageFileWriterINS1_11VectorImageIsLj2EEEEEED1Ev@Base 5.0.0
 _ZN3itk13MemberCommandIN3otb15ImageFileWriterINS1_11VectorImageIsLj2EEEEEED2Ev@Base 5.0.0
 _ZN3itk13MemberCommandIN3otb15ImageFileWriterINS1_11VectorImageItLj2EEEEEE3NewEv@Base 5.0.0
 _ZN3itk13MemberCommandIN3otb15ImageFileWriterINS1_11VectorImageItLj2EEEEEE7ExecuteEPKNS_6ObjectERKNS_11EventObjectE@Base 5.0.0
 _ZN3itk13MemberCommandIN3otb15ImageFileWriterINS1_11VectorImageItLj2EEEEEE7ExecuteEPNS_6ObjectERKNS_11EventObjectE@Base 5.0.0
 _ZN3itk13MemberCommandIN3otb15ImageFileWriterINS1_11VectorImageItLj2EEEEEED0Ev@Base 5.0.0
 _ZN3itk13MemberCommandIN3otb15ImageFileWriterINS1_11VectorImageItLj2EEEEEED1Ev@Base 5.0.0
 _ZN3itk13MemberCommandIN3otb15ImageFileWriterINS1_11VectorImageItLj2EEEEEED2Ev@Base 5.0.0
 _ZN3itk13MemberCommandIN3otb15ImageFileWriterINS1_5ImageINS_8RGBPixelIhEELj2EEEEEE3NewEv@Base 5.0.0
 _ZN3itk13MemberCommandIN3otb15ImageFileWriterINS1_5ImageINS_8RGBPixelIhEELj2EEEEEE7ExecuteEPKNS_6ObjectERKNS_11EventObjectE@Base 5.0.0
 _ZN3itk13MemberCommandIN3otb15ImageFileWriterINS1_5ImageINS_8RGBPixelIhEELj2EEEEEE7ExecuteEPNS_6ObjectERKNS_11EventObjectE@Base 5.0.0
 _ZN3itk13MemberCommandIN3otb15ImageFileWriterINS1_5ImageINS_8RGBPixelIhEELj2EEEEEED0Ev@Base 5.0.0
 _ZN3itk13MemberCommandIN3otb15ImageFileWriterINS1_5ImageINS_8RGBPixelIhEELj2EEEEEED1Ev@Base 5.0.0
 _ZN3itk13MemberCommandIN3otb15ImageFileWriterINS1_5ImageINS_8RGBPixelIhEELj2EEEEEED2Ev@Base 5.0.0
 _ZN3itk13MemberCommandIN3otb15ImageFileWriterINS1_5ImageINS_9RGBAPixelIhEELj2EEEEEE3NewEv@Base 5.0.0
 _ZN3itk13MemberCommandIN3otb15ImageFileWriterINS1_5ImageINS_9RGBAPixelIhEELj2EEEEEE7ExecuteEPKNS_6ObjectERKNS_11EventObjectE@Base 5.0.0
 _ZN3itk13MemberCommandIN3otb15ImageFileWriterINS1_5ImageINS_9RGBAPixelIhEELj2EEEEEE7ExecuteEPNS_6ObjectERKNS_11EventObjectE@Base 5.0.0
 _ZN3itk13MemberCommandIN3otb15ImageFileWriterINS1_5ImageINS_9RGBAPixelIhEELj2EEEEEED0Ev@Base 5.0.0
 _ZN3itk13MemberCommandIN3otb15ImageFileWriterINS1_5ImageINS_9RGBAPixelIhEELj2EEEEEED1Ev@Base 5.0.0
 _ZN3itk13MemberCommandIN3otb15ImageFileWriterINS1_5ImageINS_9RGBAPixelIhEELj2EEEEEED2Ev@Base 5.0.0
 _ZN3itk13MemberCommandIN3otb15ImageFileWriterINS1_5ImageISt7complexIdELj2EEEEEE3NewEv@Base 5.0.0
 _ZN3itk13MemberCommandIN3otb15ImageFileWriterINS1_5ImageISt7complexIdELj2EEEEEE7ExecuteEPKNS_6ObjectERKNS_11EventObjectE@Base 5.0.0
 _ZN3itk13MemberCommandIN3otb15ImageFileWriterINS1_5ImageISt7complexIdELj2EEEEEE7ExecuteEPNS_6ObjectERKNS_11EventObjectE@Base 5.0.0
 _ZN3itk13MemberCommandIN3otb15ImageFileWriterINS1_5ImageISt7complexIdELj2EEEEEED0Ev@Base 5.0.0
 _ZN3itk13MemberCommandIN3otb15ImageFileWriterINS1_5ImageISt7complexIdELj2EEEEEED1Ev@Base 5.0.0
 _ZN3itk13MemberCommandIN3otb15ImageFileWriterINS1_5ImageISt7complexIdELj2EEEEEED2Ev@Base 5.0.0
 _ZN3itk13MemberCommandIN3otb15ImageFileWriterINS1_5ImageISt7complexIfELj2EEEEEE3NewEv@Base 5.0.0
 _ZN3itk13MemberCommandIN3otb15ImageFileWriterINS1_5ImageISt7complexIfELj2EEEEEE7ExecuteEPKNS_6ObjectERKNS_11EventObjectE@Base 5.0.0
 _ZN3itk13MemberCommandIN3otb15ImageFileWriterINS1_5ImageISt7complexIfELj2EEEEEE7ExecuteEPNS_6ObjectERKNS_11EventObjectE@Base 5.0.0
 _ZN3itk13MemberCommandIN3otb15ImageFileWriterINS1_5ImageISt7complexIfELj2EEEEEED0Ev@Base 5.0.0
 _ZN3itk13MemberCommandIN3otb15ImageFileWriterINS1_5ImageISt7complexIfELj2EEEEEED1Ev@Base 5.0.0
 _ZN3itk13MemberCommandIN3otb15ImageFileWriterINS1_5ImageISt7complexIfELj2EEEEEED2Ev@Base 5.0.0
 _ZN3itk13MemberCommandIN3otb15ImageFileWriterINS1_5ImageIdLj2EEEEEE3NewEv@Base 5.0.0
 _ZN3itk13MemberCommandIN3otb15ImageFileWriterINS1_5ImageIdLj2EEEEEE7ExecuteEPKNS_6ObjectERKNS_11EventObjectE@Base 5.0.0
 _ZN3itk13MemberCommandIN3otb15ImageFileWriterINS1_5ImageIdLj2EEEEEE7ExecuteEPNS_6ObjectERKNS_11EventObjectE@Base 5.0.0
 _ZN3itk13MemberCommandIN3otb15ImageFileWriterINS1_5ImageIdLj2EEEEEED0Ev@Base 5.0.0
 _ZN3itk13MemberCommandIN3otb15ImageFileWriterINS1_5ImageIdLj2EEEEEED1Ev@Base 5.0.0
 _ZN3itk13MemberCommandIN3otb15ImageFileWriterINS1_5ImageIdLj2EEEEEED2Ev@Base 5.0.0
 _ZN3itk13MemberCommandIN3otb15ImageFileWriterINS1_5ImageIfLj2EEEEEE3NewEv@Base 5.0.0
 _ZN3itk13MemberCommandIN3otb15ImageFileWriterINS1_5ImageIfLj2EEEEEE7ExecuteEPKNS_6ObjectERKNS_11EventObjectE@Base 5.0.0
 _ZN3itk13MemberCommandIN3otb15ImageFileWriterINS1_5ImageIfLj2EEEEEE7ExecuteEPNS_6ObjectERKNS_11EventObjectE@Base 5.0.0
 _ZN3itk13MemberCommandIN3otb15ImageFileWriterINS1_5ImageIfLj2EEEEEED0Ev@Base 5.0.0
 _ZN3itk13MemberCommandIN3otb15ImageFileWriterINS1_5ImageIfLj2EEEEEED1Ev@Base 5.0.0
 _ZN3itk13MemberCommandIN3otb15ImageFileWriterINS1_5ImageIfLj2EEEEEED2Ev@Base 5.0.0
 _ZN3itk13MemberCommandIN3otb15ImageFileWriterINS1_5ImageIhLj2EEEEEE3NewEv@Base 5.0.0
 _ZN3itk13MemberCommandIN3otb15ImageFileWriterINS1_5ImageIhLj2EEEEEE7ExecuteEPKNS_6ObjectERKNS_11EventObjectE@Base 5.0.0
 _ZN3itk13MemberCommandIN3otb15ImageFileWriterINS1_5ImageIhLj2EEEEEE7ExecuteEPNS_6ObjectERKNS_11EventObjectE@Base 5.0.0
 _ZN3itk13MemberCommandIN3otb15ImageFileWriterINS1_5ImageIhLj2EEEEEED0Ev@Base 5.0.0
 _ZN3itk13MemberCommandIN3otb15ImageFileWriterINS1_5ImageIhLj2EEEEEED1Ev@Base 5.0.0
 _ZN3itk13MemberCommandIN3otb15ImageFileWriterINS1_5ImageIhLj2EEEEEED2Ev@Base 5.0.0
 _ZN3itk13MemberCommandIN3otb15ImageFileWriterINS1_5ImageIiLj2EEEEEE3NewEv@Base 5.0.0
 _ZN3itk13MemberCommandIN3otb15ImageFileWriterINS1_5ImageIiLj2EEEEEE7ExecuteEPKNS_6ObjectERKNS_11EventObjectE@Base 5.0.0
 _ZN3itk13MemberCommandIN3otb15ImageFileWriterINS1_5ImageIiLj2EEEEEE7ExecuteEPNS_6ObjectERKNS_11EventObjectE@Base 5.0.0
 _ZN3itk13MemberCommandIN3otb15ImageFileWriterINS1_5ImageIiLj2EEEEEED0Ev@Base 5.0.0
 _ZN3itk13MemberCommandIN3otb15ImageFileWriterINS1_5ImageIiLj2EEEEEED1Ev@Base 5.0.0
 _ZN3itk13MemberCommandIN3otb15ImageFileWriterINS1_5ImageIiLj2EEEEEED2Ev@Base 5.0.0
 _ZN3itk13MemberCommandIN3otb15ImageFileWriterINS1_5ImageIjLj2EEEEEE3NewEv@Base 5.0.0
 _ZN3itk13MemberCommandIN3otb15ImageFileWriterINS1_5ImageIjLj2EEEEEE7ExecuteEPKNS_6ObjectERKNS_11EventObjectE@Base 5.0.0
 _ZN3itk13MemberCommandIN3otb15ImageFileWriterINS1_5ImageIjLj2EEEEEE7ExecuteEPNS_6ObjectERKNS_11EventObjectE@Base 5.0.0
 _ZN3itk13MemberCommandIN3otb15ImageFileWriterINS1_5ImageIjLj2EEEEEED0Ev@Base 5.0.0
 _ZN3itk13MemberCommandIN3otb15ImageFileWriterINS1_5ImageIjLj2EEEEEED1Ev@Base 5.0.0
 _ZN3itk13MemberCommandIN3otb15ImageFileWriterINS1_5ImageIjLj2EEEEEED2Ev@Base 5.0.0
 _ZN3itk13MemberCommandIN3otb15ImageFileWriterINS1_5ImageIsLj2EEEEEE3NewEv@Base 5.0.0
 _ZN3itk13MemberCommandIN3otb15ImageFileWriterINS1_5ImageIsLj2EEEEEE7ExecuteEPKNS_6ObjectERKNS_11EventObjectE@Base 5.0.0
 _ZN3itk13MemberCommandIN3otb15ImageFileWriterINS1_5ImageIsLj2EEEEEE7ExecuteEPNS_6ObjectERKNS_11EventObjectE@Base 5.0.0
 _ZN3itk13MemberCommandIN3otb15ImageFileWriterINS1_5ImageIsLj2EEEEEED0Ev@Base 5.0.0
 _ZN3itk13MemberCommandIN3otb15ImageFileWriterINS1_5ImageIsLj2EEEEEED1Ev@Base 5.0.0
 _ZN3itk13MemberCommandIN3otb15ImageFileWriterINS1_5ImageIsLj2EEEEEED2Ev@Base 5.0.0
 _ZN3itk13MemberCommandIN3otb15ImageFileWriterINS1_5ImageItLj2EEEEEE3NewEv@Base 5.0.0
 _ZN3itk13MemberCommandIN3otb15ImageFileWriterINS1_5ImageItLj2EEEEEE7ExecuteEPKNS_6ObjectERKNS_11EventObjectE@Base 5.0.0
 _ZN3itk13MemberCommandIN3otb15ImageFileWriterINS1_5ImageItLj2EEEEEE7ExecuteEPNS_6ObjectERKNS_11EventObjectE@Base 5.0.0
 _ZN3itk13MemberCommandIN3otb15ImageFileWriterINS1_5ImageItLj2EEEEEED0Ev@Base 5.0.0
 _ZN3itk13MemberCommandIN3otb15ImageFileWriterINS1_5ImageItLj2EEEEEED1Ev@Base 5.0.0
 _ZN3itk13MemberCommandIN3otb15ImageFileWriterINS1_5ImageItLj2EEEEEED2Ev@Base 5.0.0
 _ZN3itk13ModifiedEventD0Ev@Base 5.0.0
 _ZN3itk13ModifiedEventD1Ev@Base 5.0.0
 _ZN3itk13ModifiedEventD2Ev@Base 5.0.0
 _ZN3itk13ProcessObject12GenerateDataEv@Base 5.0.0
 _ZN3itk13ProcessObject18SetNumberOfThreadsEj@Base 5.0.0
 _ZN3itk13ProcessObject19AbortGenerateDataOnEv@Base 5.0.0
 _ZN3itk13ProcessObject20AbortGenerateDataOffEv@Base 5.0.0
 _ZN3itk13ProcessObject20SetAbortGenerateDataEb@Base 5.0.0
 _ZN3itk13ProcessObject26SetNumberOfRequiredOutputsEm@Base 5.0.0
 _ZN3itk13ProcessObject28EnlargeOutputRequestedRegionEPNS_10DataObjectE@Base 5.0.0
 _ZN3itk13ProcessObject29ReleaseDataBeforeUpdateFlagOnEv@Base 5.0.0
 _ZN3itk13ProcessObject30ReleaseDataBeforeUpdateFlagOffEv@Base 5.0.0
 _ZN3itk13ProcessObject30SetReleaseDataBeforeUpdateFlagEb@Base 5.0.0
 _ZN3itk13ProgressEventD0Ev@Base 5.0.0
 _ZN3itk13ProgressEventD1Ev@Base 5.0.0
 _ZN3itk13ProgressEventD2Ev@Base 5.0.0
 _ZN3itk13TreeContainerINS_12SmartPointerIN3otb8DataNodeIdLj2EdEEEEE5ClearEv@Base 5.0.0
 _ZN3itk13TreeContainerINS_12SmartPointerIN3otb8DataNodeIdLj2EdEEEEE6IsLeafES5_@Base 5.0.0
 _ZN3itk13TreeContainerINS_12SmartPointerIN3otb8DataNodeIdLj2EdEEEEE6IsRootES5_@Base 5.0.0
 _ZN3itk13TreeContainerINS_12SmartPointerIN3otb8DataNodeIdLj2EdEEEEE7SetRootEPNS_8TreeNodeIS5_EE@Base 5.0.0
 _ZN3itk13TreeContainerINS_12SmartPointerIN3otb8DataNodeIdLj2EdEEEEE7SetRootES5_@Base 5.0.0
 _ZN3itk13TreeContainerINS_12SmartPointerIN3otb8DataNodeIdLj2EdEEEEE8ContainsES5_@Base 5.0.0
 _ZN3itk13TreeContainerINS_12SmartPointerIN3otb8DataNodeIdLj2EdEEEEED0Ev@Base 5.0.0
 _ZN3itk13TreeContainerINS_12SmartPointerIN3otb8DataNodeIdLj2EdEEEEED1Ev@Base 5.0.0
 _ZN3itk13TreeContainerINS_12SmartPointerIN3otb8DataNodeIdLj2EdEEEEED2Ev@Base 5.0.0
 _ZN3itk14ExposeMetaDataIN3otb16ImageKeywordlistEEEbRKNS_18MetaDataDictionaryESsRT_@Base 5.0.0
 _ZN3itk14ExposeMetaDataISsEEbRKNS_18MetaDataDictionaryESsRT_@Base 5.0.0
 _ZN3itk14ImageAlgorithm14DispatchedCopyIN3otb11VectorImageISt7complexIdELj2EEENS3_IS4_IfELj2EEEEEvPKT_PT0_RKNS9_10RegionTypeERKNSC_10RegionTypeENSt3tr117integral_constantIbLb0EEE@Base 5.0.0
 _ZN3itk14ImageAlgorithm14DispatchedCopyIN3otb11VectorImageISt7complexIdELj2EEES6_EEvPKT_PT0_RKNS7_10RegionTypeERKNSA_10RegionTypeENSt3tr117integral_constantIbLb0EEE@Base 5.0.0
 _ZN3itk14ImageAlgorithm14DispatchedCopyIN3otb11VectorImageISt7complexIfELj2EEENS3_IS4_IdELj2EEEEEvPKT_PT0_RKNS9_10RegionTypeERKNSC_10RegionTypeENSt3tr117integral_constantIbLb0EEE@Base 5.0.0
 _ZN3itk14ImageAlgorithm14DispatchedCopyIN3otb11VectorImageISt7complexIfELj2EEES6_EEvPKT_PT0_RKNS7_10RegionTypeERKNSA_10RegionTypeENSt3tr117integral_constantIbLb0EEE@Base 5.0.0
 _ZN3itk14ImageAlgorithm14DispatchedCopyIN3otb11VectorImageIdLj2EEENS3_IfLj2EEEEEvPKT_PT0_RKNS6_10RegionTypeERKNS9_10RegionTypeENSt3tr117integral_constantIbLb0EEE@Base 5.0.0
 _ZN3itk14ImageAlgorithm14DispatchedCopyIN3otb11VectorImageIdLj2EEENS3_IhLj2EEEEEvPKT_PT0_RKNS6_10RegionTypeERKNS9_10RegionTypeENSt3tr117integral_constantIbLb0EEE@Base 5.0.0
 _ZN3itk14ImageAlgorithm14DispatchedCopyIN3otb11VectorImageIdLj2EEENS3_IiLj2EEEEEvPKT_PT0_RKNS6_10RegionTypeERKNS9_10RegionTypeENSt3tr117integral_constantIbLb0EEE@Base 5.0.0
 _ZN3itk14ImageAlgorithm14DispatchedCopyIN3otb11VectorImageIdLj2EEENS3_IjLj2EEEEEvPKT_PT0_RKNS6_10RegionTypeERKNS9_10RegionTypeENSt3tr117integral_constantIbLb0EEE@Base 5.0.0
 _ZN3itk14ImageAlgorithm14DispatchedCopyIN3otb11VectorImageIdLj2EEENS3_IsLj2EEEEEvPKT_PT0_RKNS6_10RegionTypeERKNS9_10RegionTypeENSt3tr117integral_constantIbLb0EEE@Base 5.0.0
 _ZN3itk14ImageAlgorithm14DispatchedCopyIN3otb11VectorImageIdLj2EEENS3_ItLj2EEEEEvPKT_PT0_RKNS6_10RegionTypeERKNS9_10RegionTypeENSt3tr117integral_constantIbLb0EEE@Base 5.0.0
 _ZN3itk14ImageAlgorithm14DispatchedCopyIN3otb11VectorImageIdLj2EEES4_EEvPKT_PT0_RKNS5_10RegionTypeERKNS8_10RegionTypeENSt3tr117integral_constantIbLb0EEE@Base 5.0.0
 _ZN3itk14ImageAlgorithm14DispatchedCopyIN3otb11VectorImageIfLj2EEENS3_IdLj2EEEEEvPKT_PT0_RKNS6_10RegionTypeERKNS9_10RegionTypeENSt3tr117integral_constantIbLb0EEE@Base 5.0.0
 _ZN3itk14ImageAlgorithm14DispatchedCopyIN3otb11VectorImageIfLj2EEENS3_IhLj2EEEEEvPKT_PT0_RKNS6_10RegionTypeERKNS9_10RegionTypeENSt3tr117integral_constantIbLb0EEE@Base 5.0.0
 _ZN3itk14ImageAlgorithm14DispatchedCopyIN3otb11VectorImageIfLj2EEENS3_IiLj2EEEEEvPKT_PT0_RKNS6_10RegionTypeERKNS9_10RegionTypeENSt3tr117integral_constantIbLb0EEE@Base 5.0.0
 _ZN3itk14ImageAlgorithm14DispatchedCopyIN3otb11VectorImageIfLj2EEENS3_IjLj2EEEEEvPKT_PT0_RKNS6_10RegionTypeERKNS9_10RegionTypeENSt3tr117integral_constantIbLb0EEE@Base 5.0.0
 _ZN3itk14ImageAlgorithm14DispatchedCopyIN3otb11VectorImageIfLj2EEENS3_IsLj2EEEEEvPKT_PT0_RKNS6_10RegionTypeERKNS9_10RegionTypeENSt3tr117integral_constantIbLb0EEE@Base 5.0.0
 _ZN3itk14ImageAlgorithm14DispatchedCopyIN3otb11VectorImageIfLj2EEENS3_ItLj2EEEEEvPKT_PT0_RKNS6_10RegionTypeERKNS9_10RegionTypeENSt3tr117integral_constantIbLb0EEE@Base 5.0.0
 _ZN3itk14ImageAlgorithm14DispatchedCopyIN3otb11VectorImageIfLj2EEES4_EEvPKT_PT0_RKNS5_10RegionTypeERKNS8_10RegionTypeENSt3tr117integral_constantIbLb0EEE@Base 5.0.0
 _ZN3itk14ImageAlgorithm14DispatchedCopyIN3otb11VectorImageIhLj2EEENS3_IdLj2EEEEEvPKT_PT0_RKNS6_10RegionTypeERKNS9_10RegionTypeENSt3tr117integral_constantIbLb0EEE@Base 5.0.0
 _ZN3itk14ImageAlgorithm14DispatchedCopyIN3otb11VectorImageIhLj2EEENS3_IfLj2EEEEEvPKT_PT0_RKNS6_10RegionTypeERKNS9_10RegionTypeENSt3tr117integral_constantIbLb0EEE@Base 5.0.0
 _ZN3itk14ImageAlgorithm14DispatchedCopyIN3otb11VectorImageIhLj2EEENS3_IiLj2EEEEEvPKT_PT0_RKNS6_10RegionTypeERKNS9_10RegionTypeENSt3tr117integral_constantIbLb0EEE@Base 5.0.0
 _ZN3itk14ImageAlgorithm14DispatchedCopyIN3otb11VectorImageIhLj2EEENS3_IjLj2EEEEEvPKT_PT0_RKNS6_10RegionTypeERKNS9_10RegionTypeENSt3tr117integral_constantIbLb0EEE@Base 5.0.0
 _ZN3itk14ImageAlgorithm14DispatchedCopyIN3otb11VectorImageIhLj2EEENS3_IsLj2EEEEEvPKT_PT0_RKNS6_10RegionTypeERKNS9_10RegionTypeENSt3tr117integral_constantIbLb0EEE@Base 5.0.0
 _ZN3itk14ImageAlgorithm14DispatchedCopyIN3otb11VectorImageIhLj2EEENS3_ItLj2EEEEEvPKT_PT0_RKNS6_10RegionTypeERKNS9_10RegionTypeENSt3tr117integral_constantIbLb0EEE@Base 5.0.0
 _ZN3itk14ImageAlgorithm14DispatchedCopyIN3otb11VectorImageIhLj2EEES4_EEvPKT_PT0_RKNS5_10RegionTypeERKNS8_10RegionTypeENSt3tr117integral_constantIbLb0EEE@Base 5.0.0
 _ZN3itk14ImageAlgorithm14DispatchedCopyIN3otb11VectorImageIiLj2EEENS3_IdLj2EEEEEvPKT_PT0_RKNS6_10RegionTypeERKNS9_10RegionTypeENSt3tr117integral_constantIbLb0EEE@Base 5.0.0
 _ZN3itk14ImageAlgorithm14DispatchedCopyIN3otb11VectorImageIiLj2EEENS3_IfLj2EEEEEvPKT_PT0_RKNS6_10RegionTypeERKNS9_10RegionTypeENSt3tr117integral_constantIbLb0EEE@Base 5.0.0
 _ZN3itk14ImageAlgorithm14DispatchedCopyIN3otb11VectorImageIiLj2EEENS3_IhLj2EEEEEvPKT_PT0_RKNS6_10RegionTypeERKNS9_10RegionTypeENSt3tr117integral_constantIbLb0EEE@Base 5.0.0
 _ZN3itk14ImageAlgorithm14DispatchedCopyIN3otb11VectorImageIiLj2EEENS3_IjLj2EEEEEvPKT_PT0_RKNS6_10RegionTypeERKNS9_10RegionTypeENSt3tr117integral_constantIbLb0EEE@Base 5.0.0
 _ZN3itk14ImageAlgorithm14DispatchedCopyIN3otb11VectorImageIiLj2EEENS3_IsLj2EEEEEvPKT_PT0_RKNS6_10RegionTypeERKNS9_10RegionTypeENSt3tr117integral_constantIbLb0EEE@Base 5.0.0
 _ZN3itk14ImageAlgorithm14DispatchedCopyIN3otb11VectorImageIiLj2EEENS3_ItLj2EEEEEvPKT_PT0_RKNS6_10RegionTypeERKNS9_10RegionTypeENSt3tr117integral_constantIbLb0EEE@Base 5.0.0
 _ZN3itk14ImageAlgorithm14DispatchedCopyIN3otb11VectorImageIiLj2EEES4_EEvPKT_PT0_RKNS5_10RegionTypeERKNS8_10RegionTypeENSt3tr117integral_constantIbLb0EEE@Base 5.0.0
 _ZN3itk14ImageAlgorithm14DispatchedCopyIN3otb11VectorImageIjLj2EEENS3_IdLj2EEEEEvPKT_PT0_RKNS6_10RegionTypeERKNS9_10RegionTypeENSt3tr117integral_constantIbLb0EEE@Base 5.0.0
 _ZN3itk14ImageAlgorithm14DispatchedCopyIN3otb11VectorImageIjLj2EEENS3_IfLj2EEEEEvPKT_PT0_RKNS6_10RegionTypeERKNS9_10RegionTypeENSt3tr117integral_constantIbLb0EEE@Base 5.0.0
 _ZN3itk14ImageAlgorithm14DispatchedCopyIN3otb11VectorImageIjLj2EEENS3_IhLj2EEEEEvPKT_PT0_RKNS6_10RegionTypeERKNS9_10RegionTypeENSt3tr117integral_constantIbLb0EEE@Base 5.0.0
 _ZN3itk14ImageAlgorithm14DispatchedCopyIN3otb11VectorImageIjLj2EEENS3_IiLj2EEEEEvPKT_PT0_RKNS6_10RegionTypeERKNS9_10RegionTypeENSt3tr117integral_constantIbLb0EEE@Base 5.0.0
 _ZN3itk14ImageAlgorithm14DispatchedCopyIN3otb11VectorImageIjLj2EEENS3_IsLj2EEEEEvPKT_PT0_RKNS6_10RegionTypeERKNS9_10RegionTypeENSt3tr117integral_constantIbLb0EEE@Base 5.0.0
 _ZN3itk14ImageAlgorithm14DispatchedCopyIN3otb11VectorImageIjLj2EEENS3_ItLj2EEEEEvPKT_PT0_RKNS6_10RegionTypeERKNS9_10RegionTypeENSt3tr117integral_constantIbLb0EEE@Base 5.0.0
 _ZN3itk14ImageAlgorithm14DispatchedCopyIN3otb11VectorImageIjLj2EEES4_EEvPKT_PT0_RKNS5_10RegionTypeERKNS8_10RegionTypeENSt3tr117integral_constantIbLb0EEE@Base 5.0.0
 _ZN3itk14ImageAlgorithm14DispatchedCopyIN3otb11VectorImageIsLj2EEENS3_IdLj2EEEEEvPKT_PT0_RKNS6_10RegionTypeERKNS9_10RegionTypeENSt3tr117integral_constantIbLb0EEE@Base 5.0.0
 _ZN3itk14ImageAlgorithm14DispatchedCopyIN3otb11VectorImageIsLj2EEENS3_IfLj2EEEEEvPKT_PT0_RKNS6_10RegionTypeERKNS9_10RegionTypeENSt3tr117integral_constantIbLb0EEE@Base 5.0.0
 _ZN3itk14ImageAlgorithm14DispatchedCopyIN3otb11VectorImageIsLj2EEENS3_IhLj2EEEEEvPKT_PT0_RKNS6_10RegionTypeERKNS9_10RegionTypeENSt3tr117integral_constantIbLb0EEE@Base 5.0.0
 _ZN3itk14ImageAlgorithm14DispatchedCopyIN3otb11VectorImageIsLj2EEENS3_IiLj2EEEEEvPKT_PT0_RKNS6_10RegionTypeERKNS9_10RegionTypeENSt3tr117integral_constantIbLb0EEE@Base 5.0.0
 _ZN3itk14ImageAlgorithm14DispatchedCopyIN3otb11VectorImageIsLj2EEENS3_IjLj2EEEEEvPKT_PT0_RKNS6_10RegionTypeERKNS9_10RegionTypeENSt3tr117integral_constantIbLb0EEE@Base 5.0.0
 _ZN3itk14ImageAlgorithm14DispatchedCopyIN3otb11VectorImageIsLj2EEENS3_ItLj2EEEEEvPKT_PT0_RKNS6_10RegionTypeERKNS9_10RegionTypeENSt3tr117integral_constantIbLb0EEE@Base 5.0.0
 _ZN3itk14ImageAlgorithm14DispatchedCopyIN3otb11VectorImageIsLj2EEES4_EEvPKT_PT0_RKNS5_10RegionTypeERKNS8_10RegionTypeENSt3tr117integral_constantIbLb0EEE@Base 5.0.0
 _ZN3itk14ImageAlgorithm14DispatchedCopyIN3otb11VectorImageItLj2EEENS3_IdLj2EEEEEvPKT_PT0_RKNS6_10RegionTypeERKNS9_10RegionTypeENSt3tr117integral_constantIbLb0EEE@Base 5.0.0
 _ZN3itk14ImageAlgorithm14DispatchedCopyIN3otb11VectorImageItLj2EEENS3_IfLj2EEEEEvPKT_PT0_RKNS6_10RegionTypeERKNS9_10RegionTypeENSt3tr117integral_constantIbLb0EEE@Base 5.0.0
 _ZN3itk14ImageAlgorithm14DispatchedCopyIN3otb11VectorImageItLj2EEENS3_IhLj2EEEEEvPKT_PT0_RKNS6_10RegionTypeERKNS9_10RegionTypeENSt3tr117integral_constantIbLb0EEE@Base 5.0.0
 _ZN3itk14ImageAlgorithm14DispatchedCopyIN3otb11VectorImageItLj2EEENS3_IiLj2EEEEEvPKT_PT0_RKNS6_10RegionTypeERKNS9_10RegionTypeENSt3tr117integral_constantIbLb0EEE@Base 5.0.0
 _ZN3itk14ImageAlgorithm14DispatchedCopyIN3otb11VectorImageItLj2EEENS3_IjLj2EEEEEvPKT_PT0_RKNS6_10RegionTypeERKNS9_10RegionTypeENSt3tr117integral_constantIbLb0EEE@Base 5.0.0
 _ZN3itk14ImageAlgorithm14DispatchedCopyIN3otb11VectorImageItLj2EEENS3_IsLj2EEEEEvPKT_PT0_RKNS6_10RegionTypeERKNS9_10RegionTypeENSt3tr117integral_constantIbLb0EEE@Base 5.0.0
 _ZN3itk14ImageAlgorithm14DispatchedCopyIN3otb11VectorImageItLj2EEES4_EEvPKT_PT0_RKNS5_10RegionTypeERKNS8_10RegionTypeENSt3tr117integral_constantIbLb0EEE@Base 5.0.0
 _ZN3itk14ImageAlgorithm14DispatchedCopyIN3otb5ImageINS_8RGBPixelIhEELj2EEES6_EEvPKT_PT0_RKNS7_10RegionTypeERKNSA_10RegionTypeENSt3tr117integral_constantIbLb0EEE@Base 5.0.0
 _ZN3itk14ImageAlgorithm14DispatchedCopyIN3otb5ImageINS_9RGBAPixelIhEELj2EEES6_EEvPKT_PT0_RKNS7_10RegionTypeERKNSA_10RegionTypeENSt3tr117integral_constantIbLb0EEE@Base 5.0.0
 _ZN3itk14ImageAlgorithm14DispatchedCopyIN3otb5ImageISt7complexIdELj2EEENS3_IS4_IfELj2EEEEEvPKT_PT0_RKNS9_10RegionTypeERKNSC_10RegionTypeENSt3tr117integral_constantIbLb0EEE@Base 5.0.0
 _ZN3itk14ImageAlgorithm14DispatchedCopyIN3otb5ImageISt7complexIdELj2EEES6_EEvPKT_PT0_RKNS7_10RegionTypeERKNSA_10RegionTypeENSt3tr117integral_constantIbLb0EEE@Base 5.0.0
 _ZN3itk14ImageAlgorithm14DispatchedCopyIN3otb5ImageISt7complexIfELj2EEENS3_IS4_IdELj2EEEEEvPKT_PT0_RKNS9_10RegionTypeERKNSC_10RegionTypeENSt3tr117integral_constantIbLb0EEE@Base 5.0.0
 _ZN3itk14ImageAlgorithm14DispatchedCopyIN3otb5ImageISt7complexIfELj2EEES6_EEvPKT_PT0_RKNS7_10RegionTypeERKNSA_10RegionTypeENSt3tr117integral_constantIbLb0EEE@Base 5.0.0
 _ZN3itk14ImageAlgorithm14DispatchedCopyIN3otb5ImageIdLj2EEENS3_ISt7complexIdELj2EEEEEvPKT_PT0_RKNS8_10RegionTypeERKNSB_10RegionTypeENSt3tr117integral_constantIbLb0EEE@Base 5.0.0
 _ZN3itk14ImageAlgorithm14DispatchedCopyIN3otb5ImageIdLj2EEENS3_ISt7complexIfELj2EEEEEvPKT_PT0_RKNS8_10RegionTypeERKNSB_10RegionTypeENSt3tr117integral_constantIbLb0EEE@Base 5.0.0
 _ZN3itk14ImageAlgorithm14DispatchedCopyIN3otb5ImageIdLj2EEENS3_IfLj2EEEEEvPKT_PT0_RKNS6_10RegionTypeERKNS9_10RegionTypeENSt3tr117integral_constantIbLb0EEE@Base 5.0.0
 _ZN3itk14ImageAlgorithm14DispatchedCopyIN3otb5ImageIdLj2EEENS3_IhLj2EEEEEvPKT_PT0_RKNS6_10RegionTypeERKNS9_10RegionTypeENSt3tr117integral_constantIbLb0EEE@Base 5.0.0
 _ZN3itk14ImageAlgorithm14DispatchedCopyIN3otb5ImageIdLj2EEENS3_IiLj2EEEEEvPKT_PT0_RKNS6_10RegionTypeERKNS9_10RegionTypeENSt3tr117integral_constantIbLb0EEE@Base 5.0.0
 _ZN3itk14ImageAlgorithm14DispatchedCopyIN3otb5ImageIdLj2EEENS3_IjLj2EEEEEvPKT_PT0_RKNS6_10RegionTypeERKNS9_10RegionTypeENSt3tr117integral_constantIbLb0EEE@Base 5.0.0
 _ZN3itk14ImageAlgorithm14DispatchedCopyIN3otb5ImageIdLj2EEENS3_IsLj2EEEEEvPKT_PT0_RKNS6_10RegionTypeERKNS9_10RegionTypeENSt3tr117integral_constantIbLb0EEE@Base 5.0.0
 _ZN3itk14ImageAlgorithm14DispatchedCopyIN3otb5ImageIdLj2EEENS3_ItLj2EEEEEvPKT_PT0_RKNS6_10RegionTypeERKNS9_10RegionTypeENSt3tr117integral_constantIbLb0EEE@Base 5.0.0
 _ZN3itk14ImageAlgorithm14DispatchedCopyIN3otb5ImageIdLj2EEES4_EEvPKT_PT0_RKNS5_10RegionTypeERKNS8_10RegionTypeENSt3tr117integral_constantIbLb0EEE@Base 5.0.0
 _ZN3itk14ImageAlgorithm14DispatchedCopyIN3otb5ImageIfLj2EEENS3_IdLj2EEEEEvPKT_PT0_RKNS6_10RegionTypeERKNS9_10RegionTypeENSt3tr117integral_constantIbLb0EEE@Base 5.0.0
 _ZN3itk14ImageAlgorithm14DispatchedCopyIN3otb5ImageIfLj2EEENS3_IhLj2EEEEEvPKT_PT0_RKNS6_10RegionTypeERKNS9_10RegionTypeENSt3tr117integral_constantIbLb0EEE@Base 5.0.0
 _ZN3itk14ImageAlgorithm14DispatchedCopyIN3otb5ImageIfLj2EEENS3_IiLj2EEEEEvPKT_PT0_RKNS6_10RegionTypeERKNS9_10RegionTypeENSt3tr117integral_constantIbLb0EEE@Base 5.0.0
 _ZN3itk14ImageAlgorithm14DispatchedCopyIN3otb5ImageIfLj2EEENS3_IjLj2EEEEEvPKT_PT0_RKNS6_10RegionTypeERKNS9_10RegionTypeENSt3tr117integral_constantIbLb0EEE@Base 5.0.0
 _ZN3itk14ImageAlgorithm14DispatchedCopyIN3otb5ImageIfLj2EEENS3_IsLj2EEEEEvPKT_PT0_RKNS6_10RegionTypeERKNS9_10RegionTypeENSt3tr117integral_constantIbLb0EEE@Base 5.0.0
 _ZN3itk14ImageAlgorithm14DispatchedCopyIN3otb5ImageIfLj2EEENS3_ItLj2EEEEEvPKT_PT0_RKNS6_10RegionTypeERKNS9_10RegionTypeENSt3tr117integral_constantIbLb0EEE@Base 5.0.0
 _ZN3itk14ImageAlgorithm14DispatchedCopyIN3otb5ImageIfLj2EEES4_EEvPKT_PT0_RKNS5_10RegionTypeERKNS8_10RegionTypeENSt3tr117integral_constantIbLb0EEE@Base 5.0.0
 _ZN3itk14ImageAlgorithm14DispatchedCopyIN3otb5ImageIhLj2EEENS3_IdLj2EEEEEvPKT_PT0_RKNS6_10RegionTypeERKNS9_10RegionTypeENSt3tr117integral_constantIbLb0EEE@Base 5.0.0
 _ZN3itk14ImageAlgorithm14DispatchedCopyIN3otb5ImageIhLj2EEENS3_IfLj2EEEEEvPKT_PT0_RKNS6_10RegionTypeERKNS9_10RegionTypeENSt3tr117integral_constantIbLb0EEE@Base 5.0.0
 _ZN3itk14ImageAlgorithm14DispatchedCopyIN3otb5ImageIhLj2EEENS3_IiLj2EEEEEvPKT_PT0_RKNS6_10RegionTypeERKNS9_10RegionTypeENSt3tr117integral_constantIbLb0EEE@Base 5.0.0
 _ZN3itk14ImageAlgorithm14DispatchedCopyIN3otb5ImageIhLj2EEENS3_IjLj2EEEEEvPKT_PT0_RKNS6_10RegionTypeERKNS9_10RegionTypeENSt3tr117integral_constantIbLb0EEE@Base 5.0.0
 _ZN3itk14ImageAlgorithm14DispatchedCopyIN3otb5ImageIhLj2EEENS3_IsLj2EEEEEvPKT_PT0_RKNS6_10RegionTypeERKNS9_10RegionTypeENSt3tr117integral_constantIbLb0EEE@Base 5.0.0
 _ZN3itk14ImageAlgorithm14DispatchedCopyIN3otb5ImageIhLj2EEENS3_ItLj2EEEEEvPKT_PT0_RKNS6_10RegionTypeERKNS9_10RegionTypeENSt3tr117integral_constantIbLb0EEE@Base 5.0.0
 _ZN3itk14ImageAlgorithm14DispatchedCopyIN3otb5ImageIhLj2EEES4_EEvPKT_PT0_RKNS5_10RegionTypeERKNS8_10RegionTypeENSt3tr117integral_constantIbLb0EEE@Base 5.0.0
 _ZN3itk14ImageAlgorithm14DispatchedCopyIN3otb5ImageIiLj2EEENS3_IdLj2EEEEEvPKT_PT0_RKNS6_10RegionTypeERKNS9_10RegionTypeENSt3tr117integral_constantIbLb0EEE@Base 5.0.0
 _ZN3itk14ImageAlgorithm14DispatchedCopyIN3otb5ImageIiLj2EEENS3_IfLj2EEEEEvPKT_PT0_RKNS6_10RegionTypeERKNS9_10RegionTypeENSt3tr117integral_constantIbLb0EEE@Base 5.0.0
 _ZN3itk14ImageAlgorithm14DispatchedCopyIN3otb5ImageIiLj2EEENS3_IhLj2EEEEEvPKT_PT0_RKNS6_10RegionTypeERKNS9_10RegionTypeENSt3tr117integral_constantIbLb0EEE@Base 5.0.0
 _ZN3itk14ImageAlgorithm14DispatchedCopyIN3otb5ImageIiLj2EEENS3_IjLj2EEEEEvPKT_PT0_RKNS6_10RegionTypeERKNS9_10RegionTypeENSt3tr117integral_constantIbLb0EEE@Base 5.0.0
 _ZN3itk14ImageAlgorithm14DispatchedCopyIN3otb5ImageIiLj2EEENS3_IsLj2EEEEEvPKT_PT0_RKNS6_10RegionTypeERKNS9_10RegionTypeENSt3tr117integral_constantIbLb0EEE@Base 5.0.0
 _ZN3itk14ImageAlgorithm14DispatchedCopyIN3otb5ImageIiLj2EEENS3_ItLj2EEEEEvPKT_PT0_RKNS6_10RegionTypeERKNS9_10RegionTypeENSt3tr117integral_constantIbLb0EEE@Base 5.0.0
 _ZN3itk14ImageAlgorithm14DispatchedCopyIN3otb5ImageIiLj2EEES4_EEvPKT_PT0_RKNS5_10RegionTypeERKNS8_10RegionTypeENSt3tr117integral_constantIbLb0EEE@Base 5.0.0
 _ZN3itk14ImageAlgorithm14DispatchedCopyIN3otb5ImageIjLj2EEENS3_IdLj2EEEEEvPKT_PT0_RKNS6_10RegionTypeERKNS9_10RegionTypeENSt3tr117integral_constantIbLb0EEE@Base 5.0.0
 _ZN3itk14ImageAlgorithm14DispatchedCopyIN3otb5ImageIjLj2EEENS3_IfLj2EEEEEvPKT_PT0_RKNS6_10RegionTypeERKNS9_10RegionTypeENSt3tr117integral_constantIbLb0EEE@Base 5.0.0
 _ZN3itk14ImageAlgorithm14DispatchedCopyIN3otb5ImageIjLj2EEENS3_IhLj2EEEEEvPKT_PT0_RKNS6_10RegionTypeERKNS9_10RegionTypeENSt3tr117integral_constantIbLb0EEE@Base 5.0.0
 _ZN3itk14ImageAlgorithm14DispatchedCopyIN3otb5ImageIjLj2EEENS3_IiLj2EEEEEvPKT_PT0_RKNS6_10RegionTypeERKNS9_10RegionTypeENSt3tr117integral_constantIbLb0EEE@Base 5.0.0
 _ZN3itk14ImageAlgorithm14DispatchedCopyIN3otb5ImageIjLj2EEENS3_IsLj2EEEEEvPKT_PT0_RKNS6_10RegionTypeERKNS9_10RegionTypeENSt3tr117integral_constantIbLb0EEE@Base 5.0.0
 _ZN3itk14ImageAlgorithm14DispatchedCopyIN3otb5ImageIjLj2EEENS3_ItLj2EEEEEvPKT_PT0_RKNS6_10RegionTypeERKNS9_10RegionTypeENSt3tr117integral_constantIbLb0EEE@Base 5.0.0
 _ZN3itk14ImageAlgorithm14DispatchedCopyIN3otb5ImageIjLj2EEES4_EEvPKT_PT0_RKNS5_10RegionTypeERKNS8_10RegionTypeENSt3tr117integral_constantIbLb0EEE@Base 5.0.0
 _ZN3itk14ImageAlgorithm14DispatchedCopyIN3otb5ImageIsLj2EEENS3_IdLj2EEEEEvPKT_PT0_RKNS6_10RegionTypeERKNS9_10RegionTypeENSt3tr117integral_constantIbLb0EEE@Base 5.0.0
 _ZN3itk14ImageAlgorithm14DispatchedCopyIN3otb5ImageIsLj2EEENS3_IfLj2EEEEEvPKT_PT0_RKNS6_10RegionTypeERKNS9_10RegionTypeENSt3tr117integral_constantIbLb0EEE@Base 5.0.0
 _ZN3itk14ImageAlgorithm14DispatchedCopyIN3otb5ImageIsLj2EEENS3_IhLj2EEEEEvPKT_PT0_RKNS6_10RegionTypeERKNS9_10RegionTypeENSt3tr117integral_constantIbLb0EEE@Base 5.0.0
 _ZN3itk14ImageAlgorithm14DispatchedCopyIN3otb5ImageIsLj2EEENS3_IiLj2EEEEEvPKT_PT0_RKNS6_10RegionTypeERKNS9_10RegionTypeENSt3tr117integral_constantIbLb0EEE@Base 5.0.0
 _ZN3itk14ImageAlgorithm14DispatchedCopyIN3otb5ImageIsLj2EEENS3_IjLj2EEEEEvPKT_PT0_RKNS6_10RegionTypeERKNS9_10RegionTypeENSt3tr117integral_constantIbLb0EEE@Base 5.0.0
 _ZN3itk14ImageAlgorithm14DispatchedCopyIN3otb5ImageIsLj2EEENS3_ItLj2EEEEEvPKT_PT0_RKNS6_10RegionTypeERKNS9_10RegionTypeENSt3tr117integral_constantIbLb0EEE@Base 5.0.0
 _ZN3itk14ImageAlgorithm14DispatchedCopyIN3otb5ImageIsLj2EEES4_EEvPKT_PT0_RKNS5_10RegionTypeERKNS8_10RegionTypeENSt3tr117integral_constantIbLb0EEE@Base 5.0.0
 _ZN3itk14ImageAlgorithm14DispatchedCopyIN3otb5ImageItLj2EEENS3_IdLj2EEEEEvPKT_PT0_RKNS6_10RegionTypeERKNS9_10RegionTypeENSt3tr117integral_constantIbLb0EEE@Base 5.0.0
 _ZN3itk14ImageAlgorithm14DispatchedCopyIN3otb5ImageItLj2EEENS3_IfLj2EEEEEvPKT_PT0_RKNS6_10RegionTypeERKNS9_10RegionTypeENSt3tr117integral_constantIbLb0EEE@Base 5.0.0
 _ZN3itk14ImageAlgorithm14DispatchedCopyIN3otb5ImageItLj2EEENS3_IhLj2EEEEEvPKT_PT0_RKNS6_10RegionTypeERKNS9_10RegionTypeENSt3tr117integral_constantIbLb0EEE@Base 5.0.0
 _ZN3itk14ImageAlgorithm14DispatchedCopyIN3otb5ImageItLj2EEENS3_IiLj2EEEEEvPKT_PT0_RKNS6_10RegionTypeERKNS9_10RegionTypeENSt3tr117integral_constantIbLb0EEE@Base 5.0.0
 _ZN3itk14ImageAlgorithm14DispatchedCopyIN3otb5ImageItLj2EEENS3_IjLj2EEEEEvPKT_PT0_RKNS6_10RegionTypeERKNS9_10RegionTypeENSt3tr117integral_constantIbLb0EEE@Base 5.0.0
 _ZN3itk14ImageAlgorithm14DispatchedCopyIN3otb5ImageItLj2EEENS3_IsLj2EEEEEvPKT_PT0_RKNS6_10RegionTypeERKNS9_10RegionTypeENSt3tr117integral_constantIbLb0EEE@Base 5.0.0
 _ZN3itk14ImageAlgorithm14DispatchedCopyIN3otb5ImageItLj2EEES4_EEvPKT_PT0_RKNS5_10RegionTypeERKNS8_10RegionTypeENSt3tr117integral_constantIbLb0EEE@Base 5.0.0
 _ZN3itk14MetaDataObjectIN3otb16ImageKeywordlistEED0Ev@Base 5.0.0
 _ZN3itk14MetaDataObjectIN3otb16ImageKeywordlistEED1Ev@Base 5.0.0
 _ZN3itk14MetaDataObjectIN3otb16ImageKeywordlistEED2Ev@Base 5.0.0
 _ZN3itk14ParametricPathILj2EE23SetDefaultInputStepSizeEd@Base 5.0.0
 _ZN3itk14ProcessAbortedC1EPKcj@Base 5.0.0
 _ZN3itk14ProcessAbortedC2EPKcj@Base 5.0.0
 _ZN3itk14TreePruneEventINS_13TreeContainerINS_12SmartPointerIN3otb8DataNodeIdLj2EdEEEEEEED0Ev@Base 5.0.0
 _ZN3itk14TreePruneEventINS_13TreeContainerINS_12SmartPointerIN3otb8DataNodeIdLj2EdEEEEEEED1Ev@Base 5.0.0
 _ZN3itk14TreePruneEventINS_13TreeContainerINS_12SmartPointerIN3otb8DataNodeIdLj2EdEEEEEEED2Ev@Base 5.0.0
 _ZN3itk15CastImageFilterIN3otb11VectorImageISt7complexIdELj2EEENS2_IS3_IfELj2EEEE12GenerateDataEv@Base 5.0.0
 _ZN3itk15CastImageFilterIN3otb11VectorImageISt7complexIdELj2EEENS2_IS3_IfELj2EEEE20ThreadedGenerateDataERKNS_11ImageRegionILj2EEEj@Base 5.0.0
 _ZN3itk15CastImageFilterIN3otb11VectorImageISt7complexIdELj2EEENS2_IS3_IfELj2EEEED0Ev@Base 5.0.0
 _ZN3itk15CastImageFilterIN3otb11VectorImageISt7complexIdELj2EEENS2_IS3_IfELj2EEEED1Ev@Base 5.0.0
 _ZN3itk15CastImageFilterIN3otb11VectorImageISt7complexIdELj2EEENS2_IS3_IfELj2EEEED2Ev@Base 5.0.0
 _ZN3itk15CastImageFilterIN3otb11VectorImageISt7complexIdELj2EEES5_E12GenerateDataEv@Base 5.0.0
 _ZN3itk15CastImageFilterIN3otb11VectorImageISt7complexIdELj2EEES5_E20ThreadedGenerateDataERKNS_11ImageRegionILj2EEEj@Base 5.0.0
 _ZN3itk15CastImageFilterIN3otb11VectorImageISt7complexIdELj2EEES5_ED0Ev@Base 5.0.0
 _ZN3itk15CastImageFilterIN3otb11VectorImageISt7complexIdELj2EEES5_ED1Ev@Base 5.0.0
 _ZN3itk15CastImageFilterIN3otb11VectorImageISt7complexIdELj2EEES5_ED2Ev@Base 5.0.0
 _ZN3itk15CastImageFilterIN3otb11VectorImageISt7complexIfELj2EEENS2_IS3_IdELj2EEEE12GenerateDataEv@Base 5.0.0
 _ZN3itk15CastImageFilterIN3otb11VectorImageISt7complexIfELj2EEENS2_IS3_IdELj2EEEE20ThreadedGenerateDataERKNS_11ImageRegionILj2EEEj@Base 5.0.0
 _ZN3itk15CastImageFilterIN3otb11VectorImageISt7complexIfELj2EEENS2_IS3_IdELj2EEEED0Ev@Base 5.0.0
 _ZN3itk15CastImageFilterIN3otb11VectorImageISt7complexIfELj2EEENS2_IS3_IdELj2EEEED1Ev@Base 5.0.0
 _ZN3itk15CastImageFilterIN3otb11VectorImageISt7complexIfELj2EEENS2_IS3_IdELj2EEEED2Ev@Base 5.0.0
 _ZN3itk15CastImageFilterIN3otb11VectorImageISt7complexIfELj2EEES5_E12GenerateDataEv@Base 5.0.0
 _ZN3itk15CastImageFilterIN3otb11VectorImageISt7complexIfELj2EEES5_E20ThreadedGenerateDataERKNS_11ImageRegionILj2EEEj@Base 5.0.0
 _ZN3itk15CastImageFilterIN3otb11VectorImageISt7complexIfELj2EEES5_ED0Ev@Base 5.0.0
 _ZN3itk15CastImageFilterIN3otb11VectorImageISt7complexIfELj2EEES5_ED1Ev@Base 5.0.0
 _ZN3itk15CastImageFilterIN3otb11VectorImageISt7complexIfELj2EEES5_ED2Ev@Base 5.0.0
 _ZN3itk15CastImageFilterIN3otb11VectorImageIdLj2EEENS2_IfLj2EEEE12GenerateDataEv@Base 5.0.0
 _ZN3itk15CastImageFilterIN3otb11VectorImageIdLj2EEENS2_IfLj2EEEE20ThreadedGenerateDataERKNS_11ImageRegionILj2EEEj@Base 5.0.0
 _ZN3itk15CastImageFilterIN3otb11VectorImageIdLj2EEENS2_IfLj2EEEED0Ev@Base 5.0.0
 _ZN3itk15CastImageFilterIN3otb11VectorImageIdLj2EEENS2_IfLj2EEEED1Ev@Base 5.0.0
 _ZN3itk15CastImageFilterIN3otb11VectorImageIdLj2EEENS2_IfLj2EEEED2Ev@Base 5.0.0
 _ZN3itk15CastImageFilterIN3otb11VectorImageIdLj2EEENS2_IhLj2EEEE12GenerateDataEv@Base 5.0.0
 _ZN3itk15CastImageFilterIN3otb11VectorImageIdLj2EEENS2_IhLj2EEEE20ThreadedGenerateDataERKNS_11ImageRegionILj2EEEj@Base 5.0.0
 _ZN3itk15CastImageFilterIN3otb11VectorImageIdLj2EEENS2_IhLj2EEEED0Ev@Base 5.0.0
 _ZN3itk15CastImageFilterIN3otb11VectorImageIdLj2EEENS2_IhLj2EEEED1Ev@Base 5.0.0
 _ZN3itk15CastImageFilterIN3otb11VectorImageIdLj2EEENS2_IhLj2EEEED2Ev@Base 5.0.0
 _ZN3itk15CastImageFilterIN3otb11VectorImageIdLj2EEENS2_IiLj2EEEE12GenerateDataEv@Base 5.0.0
 _ZN3itk15CastImageFilterIN3otb11VectorImageIdLj2EEENS2_IiLj2EEEE20ThreadedGenerateDataERKNS_11ImageRegionILj2EEEj@Base 5.0.0
 _ZN3itk15CastImageFilterIN3otb11VectorImageIdLj2EEENS2_IiLj2EEEED0Ev@Base 5.0.0
 _ZN3itk15CastImageFilterIN3otb11VectorImageIdLj2EEENS2_IiLj2EEEED1Ev@Base 5.0.0
 _ZN3itk15CastImageFilterIN3otb11VectorImageIdLj2EEENS2_IiLj2EEEED2Ev@Base 5.0.0
 _ZN3itk15CastImageFilterIN3otb11VectorImageIdLj2EEENS2_IjLj2EEEE12GenerateDataEv@Base 5.0.0
 _ZN3itk15CastImageFilterIN3otb11VectorImageIdLj2EEENS2_IjLj2EEEE20ThreadedGenerateDataERKNS_11ImageRegionILj2EEEj@Base 5.0.0
 _ZN3itk15CastImageFilterIN3otb11VectorImageIdLj2EEENS2_IjLj2EEEED0Ev@Base 5.0.0
 _ZN3itk15CastImageFilterIN3otb11VectorImageIdLj2EEENS2_IjLj2EEEED1Ev@Base 5.0.0
 _ZN3itk15CastImageFilterIN3otb11VectorImageIdLj2EEENS2_IjLj2EEEED2Ev@Base 5.0.0
 _ZN3itk15CastImageFilterIN3otb11VectorImageIdLj2EEENS2_IsLj2EEEE12GenerateDataEv@Base 5.0.0
 _ZN3itk15CastImageFilterIN3otb11VectorImageIdLj2EEENS2_IsLj2EEEE20ThreadedGenerateDataERKNS_11ImageRegionILj2EEEj@Base 5.0.0
 _ZN3itk15CastImageFilterIN3otb11VectorImageIdLj2EEENS2_IsLj2EEEED0Ev@Base 5.0.0
 _ZN3itk15CastImageFilterIN3otb11VectorImageIdLj2EEENS2_IsLj2EEEED1Ev@Base 5.0.0
 _ZN3itk15CastImageFilterIN3otb11VectorImageIdLj2EEENS2_IsLj2EEEED2Ev@Base 5.0.0
 _ZN3itk15CastImageFilterIN3otb11VectorImageIdLj2EEENS2_ItLj2EEEE12GenerateDataEv@Base 5.0.0
 _ZN3itk15CastImageFilterIN3otb11VectorImageIdLj2EEENS2_ItLj2EEEE20ThreadedGenerateDataERKNS_11ImageRegionILj2EEEj@Base 5.0.0
 _ZN3itk15CastImageFilterIN3otb11VectorImageIdLj2EEENS2_ItLj2EEEED0Ev@Base 5.0.0
 _ZN3itk15CastImageFilterIN3otb11VectorImageIdLj2EEENS2_ItLj2EEEED1Ev@Base 5.0.0
 _ZN3itk15CastImageFilterIN3otb11VectorImageIdLj2EEENS2_ItLj2EEEED2Ev@Base 5.0.0
 _ZN3itk15CastImageFilterIN3otb11VectorImageIdLj2EEES3_E12GenerateDataEv@Base 5.0.0
 _ZN3itk15CastImageFilterIN3otb11VectorImageIdLj2EEES3_E20ThreadedGenerateDataERKNS_11ImageRegionILj2EEEj@Base 5.0.0
 _ZN3itk15CastImageFilterIN3otb11VectorImageIdLj2EEES3_ED0Ev@Base 5.0.0
 _ZN3itk15CastImageFilterIN3otb11VectorImageIdLj2EEES3_ED1Ev@Base 5.0.0
 _ZN3itk15CastImageFilterIN3otb11VectorImageIdLj2EEES3_ED2Ev@Base 5.0.0
 _ZN3itk15CastImageFilterIN3otb11VectorImageIfLj2EEENS2_IdLj2EEEE12GenerateDataEv@Base 5.0.0
 _ZN3itk15CastImageFilterIN3otb11VectorImageIfLj2EEENS2_IdLj2EEEE20ThreadedGenerateDataERKNS_11ImageRegionILj2EEEj@Base 5.0.0
 _ZN3itk15CastImageFilterIN3otb11VectorImageIfLj2EEENS2_IdLj2EEEED0Ev@Base 5.0.0
 _ZN3itk15CastImageFilterIN3otb11VectorImageIfLj2EEENS2_IdLj2EEEED1Ev@Base 5.0.0
 _ZN3itk15CastImageFilterIN3otb11VectorImageIfLj2EEENS2_IdLj2EEEED2Ev@Base 5.0.0
 _ZN3itk15CastImageFilterIN3otb11VectorImageIfLj2EEENS2_IhLj2EEEE12GenerateDataEv@Base 5.0.0
 _ZN3itk15CastImageFilterIN3otb11VectorImageIfLj2EEENS2_IhLj2EEEE20ThreadedGenerateDataERKNS_11ImageRegionILj2EEEj@Base 5.0.0
 _ZN3itk15CastImageFilterIN3otb11VectorImageIfLj2EEENS2_IhLj2EEEED0Ev@Base 5.0.0
 _ZN3itk15CastImageFilterIN3otb11VectorImageIfLj2EEENS2_IhLj2EEEED1Ev@Base 5.0.0
 _ZN3itk15CastImageFilterIN3otb11VectorImageIfLj2EEENS2_IhLj2EEEED2Ev@Base 5.0.0
 _ZN3itk15CastImageFilterIN3otb11VectorImageIfLj2EEENS2_IiLj2EEEE12GenerateDataEv@Base 5.0.0
 _ZN3itk15CastImageFilterIN3otb11VectorImageIfLj2EEENS2_IiLj2EEEE20ThreadedGenerateDataERKNS_11ImageRegionILj2EEEj@Base 5.0.0
 _ZN3itk15CastImageFilterIN3otb11VectorImageIfLj2EEENS2_IiLj2EEEED0Ev@Base 5.0.0
 _ZN3itk15CastImageFilterIN3otb11VectorImageIfLj2EEENS2_IiLj2EEEED1Ev@Base 5.0.0
 _ZN3itk15CastImageFilterIN3otb11VectorImageIfLj2EEENS2_IiLj2EEEED2Ev@Base 5.0.0
 _ZN3itk15CastImageFilterIN3otb11VectorImageIfLj2EEENS2_IjLj2EEEE12GenerateDataEv@Base 5.0.0
 _ZN3itk15CastImageFilterIN3otb11VectorImageIfLj2EEENS2_IjLj2EEEE20ThreadedGenerateDataERKNS_11ImageRegionILj2EEEj@Base 5.0.0
 _ZN3itk15CastImageFilterIN3otb11VectorImageIfLj2EEENS2_IjLj2EEEED0Ev@Base 5.0.0
 _ZN3itk15CastImageFilterIN3otb11VectorImageIfLj2EEENS2_IjLj2EEEED1Ev@Base 5.0.0
 _ZN3itk15CastImageFilterIN3otb11VectorImageIfLj2EEENS2_IjLj2EEEED2Ev@Base 5.0.0
 _ZN3itk15CastImageFilterIN3otb11VectorImageIfLj2EEENS2_IsLj2EEEE12GenerateDataEv@Base 5.0.0
 _ZN3itk15CastImageFilterIN3otb11VectorImageIfLj2EEENS2_IsLj2EEEE20ThreadedGenerateDataERKNS_11ImageRegionILj2EEEj@Base 5.0.0
 _ZN3itk15CastImageFilterIN3otb11VectorImageIfLj2EEENS2_IsLj2EEEED0Ev@Base 5.0.0
 _ZN3itk15CastImageFilterIN3otb11VectorImageIfLj2EEENS2_IsLj2EEEED1Ev@Base 5.0.0
 _ZN3itk15CastImageFilterIN3otb11VectorImageIfLj2EEENS2_IsLj2EEEED2Ev@Base 5.0.0
 _ZN3itk15CastImageFilterIN3otb11VectorImageIfLj2EEENS2_ItLj2EEEE12GenerateDataEv@Base 5.0.0
 _ZN3itk15CastImageFilterIN3otb11VectorImageIfLj2EEENS2_ItLj2EEEE20ThreadedGenerateDataERKNS_11ImageRegionILj2EEEj@Base 5.0.0
 _ZN3itk15CastImageFilterIN3otb11VectorImageIfLj2EEENS2_ItLj2EEEED0Ev@Base 5.0.0
 _ZN3itk15CastImageFilterIN3otb11VectorImageIfLj2EEENS2_ItLj2EEEED1Ev@Base 5.0.0
 _ZN3itk15CastImageFilterIN3otb11VectorImageIfLj2EEENS2_ItLj2EEEED2Ev@Base 5.0.0
 _ZN3itk15CastImageFilterIN3otb11VectorImageIfLj2EEES3_E12GenerateDataEv@Base 5.0.0
 _ZN3itk15CastImageFilterIN3otb11VectorImageIfLj2EEES3_E20ThreadedGenerateDataERKNS_11ImageRegionILj2EEEj@Base 5.0.0
 _ZN3itk15CastImageFilterIN3otb11VectorImageIfLj2EEES3_ED0Ev@Base 5.0.0
 _ZN3itk15CastImageFilterIN3otb11VectorImageIfLj2EEES3_ED1Ev@Base 5.0.0
 _ZN3itk15CastImageFilterIN3otb11VectorImageIfLj2EEES3_ED2Ev@Base 5.0.0
 _ZN3itk15CastImageFilterIN3otb11VectorImageIhLj2EEENS2_IdLj2EEEE12GenerateDataEv@Base 5.0.0
 _ZN3itk15CastImageFilterIN3otb11VectorImageIhLj2EEENS2_IdLj2EEEE20ThreadedGenerateDataERKNS_11ImageRegionILj2EEEj@Base 5.0.0
 _ZN3itk15CastImageFilterIN3otb11VectorImageIhLj2EEENS2_IdLj2EEEED0Ev@Base 5.0.0
 _ZN3itk15CastImageFilterIN3otb11VectorImageIhLj2EEENS2_IdLj2EEEED1Ev@Base 5.0.0
 _ZN3itk15CastImageFilterIN3otb11VectorImageIhLj2EEENS2_IdLj2EEEED2Ev@Base 5.0.0
 _ZN3itk15CastImageFilterIN3otb11VectorImageIhLj2EEENS2_IfLj2EEEE12GenerateDataEv@Base 5.0.0
 _ZN3itk15CastImageFilterIN3otb11VectorImageIhLj2EEENS2_IfLj2EEEE20ThreadedGenerateDataERKNS_11ImageRegionILj2EEEj@Base 5.0.0
 _ZN3itk15CastImageFilterIN3otb11VectorImageIhLj2EEENS2_IfLj2EEEED0Ev@Base 5.0.0
 _ZN3itk15CastImageFilterIN3otb11VectorImageIhLj2EEENS2_IfLj2EEEED1Ev@Base 5.0.0
 _ZN3itk15CastImageFilterIN3otb11VectorImageIhLj2EEENS2_IfLj2EEEED2Ev@Base 5.0.0
 _ZN3itk15CastImageFilterIN3otb11VectorImageIhLj2EEENS2_IiLj2EEEE12GenerateDataEv@Base 5.0.0
 _ZN3itk15CastImageFilterIN3otb11VectorImageIhLj2EEENS2_IiLj2EEEE20ThreadedGenerateDataERKNS_11ImageRegionILj2EEEj@Base 5.0.0
 _ZN3itk15CastImageFilterIN3otb11VectorImageIhLj2EEENS2_IiLj2EEEED0Ev@Base 5.0.0
 _ZN3itk15CastImageFilterIN3otb11VectorImageIhLj2EEENS2_IiLj2EEEED1Ev@Base 5.0.0
 _ZN3itk15CastImageFilterIN3otb11VectorImageIhLj2EEENS2_IiLj2EEEED2Ev@Base 5.0.0
 _ZN3itk15CastImageFilterIN3otb11VectorImageIhLj2EEENS2_IjLj2EEEE12GenerateDataEv@Base 5.0.0
 _ZN3itk15CastImageFilterIN3otb11VectorImageIhLj2EEENS2_IjLj2EEEE20ThreadedGenerateDataERKNS_11ImageRegionILj2EEEj@Base 5.0.0
 _ZN3itk15CastImageFilterIN3otb11VectorImageIhLj2EEENS2_IjLj2EEEED0Ev@Base 5.0.0
 _ZN3itk15CastImageFilterIN3otb11VectorImageIhLj2EEENS2_IjLj2EEEED1Ev@Base 5.0.0
 _ZN3itk15CastImageFilterIN3otb11VectorImageIhLj2EEENS2_IjLj2EEEED2Ev@Base 5.0.0
 _ZN3itk15CastImageFilterIN3otb11VectorImageIhLj2EEENS2_IsLj2EEEE12GenerateDataEv@Base 5.0.0
 _ZN3itk15CastImageFilterIN3otb11VectorImageIhLj2EEENS2_IsLj2EEEE20ThreadedGenerateDataERKNS_11ImageRegionILj2EEEj@Base 5.0.0
 _ZN3itk15CastImageFilterIN3otb11VectorImageIhLj2EEENS2_IsLj2EEEED0Ev@Base 5.0.0
 _ZN3itk15CastImageFilterIN3otb11VectorImageIhLj2EEENS2_IsLj2EEEED1Ev@Base 5.0.0
 _ZN3itk15CastImageFilterIN3otb11VectorImageIhLj2EEENS2_IsLj2EEEED2Ev@Base 5.0.0
 _ZN3itk15CastImageFilterIN3otb11VectorImageIhLj2EEENS2_ItLj2EEEE12GenerateDataEv@Base 5.0.0
 _ZN3itk15CastImageFilterIN3otb11VectorImageIhLj2EEENS2_ItLj2EEEE20ThreadedGenerateDataERKNS_11ImageRegionILj2EEEj@Base 5.0.0
 _ZN3itk15CastImageFilterIN3otb11VectorImageIhLj2EEENS2_ItLj2EEEED0Ev@Base 5.0.0
 _ZN3itk15CastImageFilterIN3otb11VectorImageIhLj2EEENS2_ItLj2EEEED1Ev@Base 5.0.0
 _ZN3itk15CastImageFilterIN3otb11VectorImageIhLj2EEENS2_ItLj2EEEED2Ev@Base 5.0.0
 _ZN3itk15CastImageFilterIN3otb11VectorImageIhLj2EEES3_E12GenerateDataEv@Base 5.0.0
 _ZN3itk15CastImageFilterIN3otb11VectorImageIhLj2EEES3_E20ThreadedGenerateDataERKNS_11ImageRegionILj2EEEj@Base 5.0.0
 _ZN3itk15CastImageFilterIN3otb11VectorImageIhLj2EEES3_ED0Ev@Base 5.0.0
 _ZN3itk15CastImageFilterIN3otb11VectorImageIhLj2EEES3_ED1Ev@Base 5.0.0
 _ZN3itk15CastImageFilterIN3otb11VectorImageIhLj2EEES3_ED2Ev@Base 5.0.0
 _ZN3itk15CastImageFilterIN3otb11VectorImageIiLj2EEENS2_IdLj2EEEE12GenerateDataEv@Base 5.0.0
 _ZN3itk15CastImageFilterIN3otb11VectorImageIiLj2EEENS2_IdLj2EEEE20ThreadedGenerateDataERKNS_11ImageRegionILj2EEEj@Base 5.0.0
 _ZN3itk15CastImageFilterIN3otb11VectorImageIiLj2EEENS2_IdLj2EEEED0Ev@Base 5.0.0
 _ZN3itk15CastImageFilterIN3otb11VectorImageIiLj2EEENS2_IdLj2EEEED1Ev@Base 5.0.0
 _ZN3itk15CastImageFilterIN3otb11VectorImageIiLj2EEENS2_IdLj2EEEED2Ev@Base 5.0.0
 _ZN3itk15CastImageFilterIN3otb11VectorImageIiLj2EEENS2_IfLj2EEEE12GenerateDataEv@Base 5.0.0
 _ZN3itk15CastImageFilterIN3otb11VectorImageIiLj2EEENS2_IfLj2EEEE20ThreadedGenerateDataERKNS_11ImageRegionILj2EEEj@Base 5.0.0
 _ZN3itk15CastImageFilterIN3otb11VectorImageIiLj2EEENS2_IfLj2EEEED0Ev@Base 5.0.0
 _ZN3itk15CastImageFilterIN3otb11VectorImageIiLj2EEENS2_IfLj2EEEED1Ev@Base 5.0.0
 _ZN3itk15CastImageFilterIN3otb11VectorImageIiLj2EEENS2_IfLj2EEEED2Ev@Base 5.0.0
 _ZN3itk15CastImageFilterIN3otb11VectorImageIiLj2EEENS2_IhLj2EEEE12GenerateDataEv@Base 5.0.0
 _ZN3itk15CastImageFilterIN3otb11VectorImageIiLj2EEENS2_IhLj2EEEE20ThreadedGenerateDataERKNS_11ImageRegionILj2EEEj@Base 5.0.0
 _ZN3itk15CastImageFilterIN3otb11VectorImageIiLj2EEENS2_IhLj2EEEED0Ev@Base 5.0.0
 _ZN3itk15CastImageFilterIN3otb11VectorImageIiLj2EEENS2_IhLj2EEEED1Ev@Base 5.0.0
 _ZN3itk15CastImageFilterIN3otb11VectorImageIiLj2EEENS2_IhLj2EEEED2Ev@Base 5.0.0
 _ZN3itk15CastImageFilterIN3otb11VectorImageIiLj2EEENS2_IjLj2EEEE12GenerateDataEv@Base 5.0.0
 _ZN3itk15CastImageFilterIN3otb11VectorImageIiLj2EEENS2_IjLj2EEEE20ThreadedGenerateDataERKNS_11ImageRegionILj2EEEj@Base 5.0.0
 _ZN3itk15CastImageFilterIN3otb11VectorImageIiLj2EEENS2_IjLj2EEEED0Ev@Base 5.0.0
 _ZN3itk15CastImageFilterIN3otb11VectorImageIiLj2EEENS2_IjLj2EEEED1Ev@Base 5.0.0
 _ZN3itk15CastImageFilterIN3otb11VectorImageIiLj2EEENS2_IjLj2EEEED2Ev@Base 5.0.0
 _ZN3itk15CastImageFilterIN3otb11VectorImageIiLj2EEENS2_IsLj2EEEE12GenerateDataEv@Base 5.0.0
 _ZN3itk15CastImageFilterIN3otb11VectorImageIiLj2EEENS2_IsLj2EEEE20ThreadedGenerateDataERKNS_11ImageRegionILj2EEEj@Base 5.0.0
 _ZN3itk15CastImageFilterIN3otb11VectorImageIiLj2EEENS2_IsLj2EEEED0Ev@Base 5.0.0
 _ZN3itk15CastImageFilterIN3otb11VectorImageIiLj2EEENS2_IsLj2EEEED1Ev@Base 5.0.0
 _ZN3itk15CastImageFilterIN3otb11VectorImageIiLj2EEENS2_IsLj2EEEED2Ev@Base 5.0.0
 _ZN3itk15CastImageFilterIN3otb11VectorImageIiLj2EEENS2_ItLj2EEEE12GenerateDataEv@Base 5.0.0
 _ZN3itk15CastImageFilterIN3otb11VectorImageIiLj2EEENS2_ItLj2EEEE20ThreadedGenerateDataERKNS_11ImageRegionILj2EEEj@Base 5.0.0
 _ZN3itk15CastImageFilterIN3otb11VectorImageIiLj2EEENS2_ItLj2EEEED0Ev@Base 5.0.0
 _ZN3itk15CastImageFilterIN3otb11VectorImageIiLj2EEENS2_ItLj2EEEED1Ev@Base 5.0.0
 _ZN3itk15CastImageFilterIN3otb11VectorImageIiLj2EEENS2_ItLj2EEEED2Ev@Base 5.0.0
 _ZN3itk15CastImageFilterIN3otb11VectorImageIiLj2EEES3_E12GenerateDataEv@Base 5.0.0
 _ZN3itk15CastImageFilterIN3otb11VectorImageIiLj2EEES3_E20ThreadedGenerateDataERKNS_11ImageRegionILj2EEEj@Base 5.0.0
 _ZN3itk15CastImageFilterIN3otb11VectorImageIiLj2EEES3_ED0Ev@Base 5.0.0
 _ZN3itk15CastImageFilterIN3otb11VectorImageIiLj2EEES3_ED1Ev@Base 5.0.0
 _ZN3itk15CastImageFilterIN3otb11VectorImageIiLj2EEES3_ED2Ev@Base 5.0.0
 _ZN3itk15CastImageFilterIN3otb11VectorImageIjLj2EEENS2_IdLj2EEEE12GenerateDataEv@Base 5.0.0
 _ZN3itk15CastImageFilterIN3otb11VectorImageIjLj2EEENS2_IdLj2EEEE20ThreadedGenerateDataERKNS_11ImageRegionILj2EEEj@Base 5.0.0
 _ZN3itk15CastImageFilterIN3otb11VectorImageIjLj2EEENS2_IdLj2EEEED0Ev@Base 5.0.0
 _ZN3itk15CastImageFilterIN3otb11VectorImageIjLj2EEENS2_IdLj2EEEED1Ev@Base 5.0.0
 _ZN3itk15CastImageFilterIN3otb11VectorImageIjLj2EEENS2_IdLj2EEEED2Ev@Base 5.0.0
 _ZN3itk15CastImageFilterIN3otb11VectorImageIjLj2EEENS2_IfLj2EEEE12GenerateDataEv@Base 5.0.0
 _ZN3itk15CastImageFilterIN3otb11VectorImageIjLj2EEENS2_IfLj2EEEE20ThreadedGenerateDataERKNS_11ImageRegionILj2EEEj@Base 5.0.0
 _ZN3itk15CastImageFilterIN3otb11VectorImageIjLj2EEENS2_IfLj2EEEED0Ev@Base 5.0.0
 _ZN3itk15CastImageFilterIN3otb11VectorImageIjLj2EEENS2_IfLj2EEEED1Ev@Base 5.0.0
 _ZN3itk15CastImageFilterIN3otb11VectorImageIjLj2EEENS2_IfLj2EEEED2Ev@Base 5.0.0
 _ZN3itk15CastImageFilterIN3otb11VectorImageIjLj2EEENS2_IhLj2EEEE12GenerateDataEv@Base 5.0.0
 _ZN3itk15CastImageFilterIN3otb11VectorImageIjLj2EEENS2_IhLj2EEEE20ThreadedGenerateDataERKNS_11ImageRegionILj2EEEj@Base 5.0.0
 _ZN3itk15CastImageFilterIN3otb11VectorImageIjLj2EEENS2_IhLj2EEEED0Ev@Base 5.0.0
 _ZN3itk15CastImageFilterIN3otb11VectorImageIjLj2EEENS2_IhLj2EEEED1Ev@Base 5.0.0
 _ZN3itk15CastImageFilterIN3otb11VectorImageIjLj2EEENS2_IhLj2EEEED2Ev@Base 5.0.0
 _ZN3itk15CastImageFilterIN3otb11VectorImageIjLj2EEENS2_IiLj2EEEE12GenerateDataEv@Base 5.0.0
 _ZN3itk15CastImageFilterIN3otb11VectorImageIjLj2EEENS2_IiLj2EEEE20ThreadedGenerateDataERKNS_11ImageRegionILj2EEEj@Base 5.0.0
 _ZN3itk15CastImageFilterIN3otb11VectorImageIjLj2EEENS2_IiLj2EEEED0Ev@Base 5.0.0
 _ZN3itk15CastImageFilterIN3otb11VectorImageIjLj2EEENS2_IiLj2EEEED1Ev@Base 5.0.0
 _ZN3itk15CastImageFilterIN3otb11VectorImageIjLj2EEENS2_IiLj2EEEED2Ev@Base 5.0.0
 _ZN3itk15CastImageFilterIN3otb11VectorImageIjLj2EEENS2_IsLj2EEEE12GenerateDataEv@Base 5.0.0
 _ZN3itk15CastImageFilterIN3otb11VectorImageIjLj2EEENS2_IsLj2EEEE20ThreadedGenerateDataERKNS_11ImageRegionILj2EEEj@Base 5.0.0
 _ZN3itk15CastImageFilterIN3otb11VectorImageIjLj2EEENS2_IsLj2EEEED0Ev@Base 5.0.0
 _ZN3itk15CastImageFilterIN3otb11VectorImageIjLj2EEENS2_IsLj2EEEED1Ev@Base 5.0.0
 _ZN3itk15CastImageFilterIN3otb11VectorImageIjLj2EEENS2_IsLj2EEEED2Ev@Base 5.0.0
 _ZN3itk15CastImageFilterIN3otb11VectorImageIjLj2EEENS2_ItLj2EEEE12GenerateDataEv@Base 5.0.0
 _ZN3itk15CastImageFilterIN3otb11VectorImageIjLj2EEENS2_ItLj2EEEE20ThreadedGenerateDataERKNS_11ImageRegionILj2EEEj@Base 5.0.0
 _ZN3itk15CastImageFilterIN3otb11VectorImageIjLj2EEENS2_ItLj2EEEED0Ev@Base 5.0.0
 _ZN3itk15CastImageFilterIN3otb11VectorImageIjLj2EEENS2_ItLj2EEEED1Ev@Base 5.0.0
 _ZN3itk15CastImageFilterIN3otb11VectorImageIjLj2EEENS2_ItLj2EEEED2Ev@Base 5.0.0
 _ZN3itk15CastImageFilterIN3otb11VectorImageIjLj2EEES3_E12GenerateDataEv@Base 5.0.0
 _ZN3itk15CastImageFilterIN3otb11VectorImageIjLj2EEES3_E20ThreadedGenerateDataERKNS_11ImageRegionILj2EEEj@Base 5.0.0
 _ZN3itk15CastImageFilterIN3otb11VectorImageIjLj2EEES3_ED0Ev@Base 5.0.0
 _ZN3itk15CastImageFilterIN3otb11VectorImageIjLj2EEES3_ED1Ev@Base 5.0.0
 _ZN3itk15CastImageFilterIN3otb11VectorImageIjLj2EEES3_ED2Ev@Base 5.0.0
 _ZN3itk15CastImageFilterIN3otb11VectorImageIsLj2EEENS2_IdLj2EEEE12GenerateDataEv@Base 5.0.0
 _ZN3itk15CastImageFilterIN3otb11VectorImageIsLj2EEENS2_IdLj2EEEE20ThreadedGenerateDataERKNS_11ImageRegionILj2EEEj@Base 5.0.0
 _ZN3itk15CastImageFilterIN3otb11VectorImageIsLj2EEENS2_IdLj2EEEED0Ev@Base 5.0.0
 _ZN3itk15CastImageFilterIN3otb11VectorImageIsLj2EEENS2_IdLj2EEEED1Ev@Base 5.0.0
 _ZN3itk15CastImageFilterIN3otb11VectorImageIsLj2EEENS2_IdLj2EEEED2Ev@Base 5.0.0
 _ZN3itk15CastImageFilterIN3otb11VectorImageIsLj2EEENS2_IfLj2EEEE12GenerateDataEv@Base 5.0.0
 _ZN3itk15CastImageFilterIN3otb11VectorImageIsLj2EEENS2_IfLj2EEEE20ThreadedGenerateDataERKNS_11ImageRegionILj2EEEj@Base 5.0.0
 _ZN3itk15CastImageFilterIN3otb11VectorImageIsLj2EEENS2_IfLj2EEEED0Ev@Base 5.0.0
 _ZN3itk15CastImageFilterIN3otb11VectorImageIsLj2EEENS2_IfLj2EEEED1Ev@Base 5.0.0
 _ZN3itk15CastImageFilterIN3otb11VectorImageIsLj2EEENS2_IfLj2EEEED2Ev@Base 5.0.0
 _ZN3itk15CastImageFilterIN3otb11VectorImageIsLj2EEENS2_IhLj2EEEE12GenerateDataEv@Base 5.0.0
 _ZN3itk15CastImageFilterIN3otb11VectorImageIsLj2EEENS2_IhLj2EEEE20ThreadedGenerateDataERKNS_11ImageRegionILj2EEEj@Base 5.0.0
 _ZN3itk15CastImageFilterIN3otb11VectorImageIsLj2EEENS2_IhLj2EEEED0Ev@Base 5.0.0
 _ZN3itk15CastImageFilterIN3otb11VectorImageIsLj2EEENS2_IhLj2EEEED1Ev@Base 5.0.0
 _ZN3itk15CastImageFilterIN3otb11VectorImageIsLj2EEENS2_IhLj2EEEED2Ev@Base 5.0.0
 _ZN3itk15CastImageFilterIN3otb11VectorImageIsLj2EEENS2_IiLj2EEEE12GenerateDataEv@Base 5.0.0
 _ZN3itk15CastImageFilterIN3otb11VectorImageIsLj2EEENS2_IiLj2EEEE20ThreadedGenerateDataERKNS_11ImageRegionILj2EEEj@Base 5.0.0
 _ZN3itk15CastImageFilterIN3otb11VectorImageIsLj2EEENS2_IiLj2EEEED0Ev@Base 5.0.0
 _ZN3itk15CastImageFilterIN3otb11VectorImageIsLj2EEENS2_IiLj2EEEED1Ev@Base 5.0.0
 _ZN3itk15CastImageFilterIN3otb11VectorImageIsLj2EEENS2_IiLj2EEEED2Ev@Base 5.0.0
 _ZN3itk15CastImageFilterIN3otb11VectorImageIsLj2EEENS2_IjLj2EEEE12GenerateDataEv@Base 5.0.0
 _ZN3itk15CastImageFilterIN3otb11VectorImageIsLj2EEENS2_IjLj2EEEE20ThreadedGenerateDataERKNS_11ImageRegionILj2EEEj@Base 5.0.0
 _ZN3itk15CastImageFilterIN3otb11VectorImageIsLj2EEENS2_IjLj2EEEED0Ev@Base 5.0.0
 _ZN3itk15CastImageFilterIN3otb11VectorImageIsLj2EEENS2_IjLj2EEEED1Ev@Base 5.0.0
 _ZN3itk15CastImageFilterIN3otb11VectorImageIsLj2EEENS2_IjLj2EEEED2Ev@Base 5.0.0
 _ZN3itk15CastImageFilterIN3otb11VectorImageIsLj2EEENS2_ItLj2EEEE12GenerateDataEv@Base 5.0.0
 _ZN3itk15CastImageFilterIN3otb11VectorImageIsLj2EEENS2_ItLj2EEEE20ThreadedGenerateDataERKNS_11ImageRegionILj2EEEj@Base 5.0.0
 _ZN3itk15CastImageFilterIN3otb11VectorImageIsLj2EEENS2_ItLj2EEEED0Ev@Base 5.0.0
 _ZN3itk15CastImageFilterIN3otb11VectorImageIsLj2EEENS2_ItLj2EEEED1Ev@Base 5.0.0
 _ZN3itk15CastImageFilterIN3otb11VectorImageIsLj2EEENS2_ItLj2EEEED2Ev@Base 5.0.0
 _ZN3itk15CastImageFilterIN3otb11VectorImageIsLj2EEES3_E12GenerateDataEv@Base 5.0.0
 _ZN3itk15CastImageFilterIN3otb11VectorImageIsLj2EEES3_E20ThreadedGenerateDataERKNS_11ImageRegionILj2EEEj@Base 5.0.0
 _ZN3itk15CastImageFilterIN3otb11VectorImageIsLj2EEES3_ED0Ev@Base 5.0.0
 _ZN3itk15CastImageFilterIN3otb11VectorImageIsLj2EEES3_ED1Ev@Base 5.0.0
 _ZN3itk15CastImageFilterIN3otb11VectorImageIsLj2EEES3_ED2Ev@Base 5.0.0
 _ZN3itk15CastImageFilterIN3otb11VectorImageItLj2EEENS2_IdLj2EEEE12GenerateDataEv@Base 5.0.0
 _ZN3itk15CastImageFilterIN3otb11VectorImageItLj2EEENS2_IdLj2EEEE20ThreadedGenerateDataERKNS_11ImageRegionILj2EEEj@Base 5.0.0
 _ZN3itk15CastImageFilterIN3otb11VectorImageItLj2EEENS2_IdLj2EEEED0Ev@Base 5.0.0
 _ZN3itk15CastImageFilterIN3otb11VectorImageItLj2EEENS2_IdLj2EEEED1Ev@Base 5.0.0
 _ZN3itk15CastImageFilterIN3otb11VectorImageItLj2EEENS2_IdLj2EEEED2Ev@Base 5.0.0
 _ZN3itk15CastImageFilterIN3otb11VectorImageItLj2EEENS2_IfLj2EEEE12GenerateDataEv@Base 5.0.0
 _ZN3itk15CastImageFilterIN3otb11VectorImageItLj2EEENS2_IfLj2EEEE20ThreadedGenerateDataERKNS_11ImageRegionILj2EEEj@Base 5.0.0
 _ZN3itk15CastImageFilterIN3otb11VectorImageItLj2EEENS2_IfLj2EEEED0Ev@Base 5.0.0
 _ZN3itk15CastImageFilterIN3otb11VectorImageItLj2EEENS2_IfLj2EEEED1Ev@Base 5.0.0
 _ZN3itk15CastImageFilterIN3otb11VectorImageItLj2EEENS2_IfLj2EEEED2Ev@Base 5.0.0
 _ZN3itk15CastImageFilterIN3otb11VectorImageItLj2EEENS2_IhLj2EEEE12GenerateDataEv@Base 5.0.0
 _ZN3itk15CastImageFilterIN3otb11VectorImageItLj2EEENS2_IhLj2EEEE20ThreadedGenerateDataERKNS_11ImageRegionILj2EEEj@Base 5.0.0
 _ZN3itk15CastImageFilterIN3otb11VectorImageItLj2EEENS2_IhLj2EEEED0Ev@Base 5.0.0
 _ZN3itk15CastImageFilterIN3otb11VectorImageItLj2EEENS2_IhLj2EEEED1Ev@Base 5.0.0
 _ZN3itk15CastImageFilterIN3otb11VectorImageItLj2EEENS2_IhLj2EEEED2Ev@Base 5.0.0
 _ZN3itk15CastImageFilterIN3otb11VectorImageItLj2EEENS2_IiLj2EEEE12GenerateDataEv@Base 5.0.0
 _ZN3itk15CastImageFilterIN3otb11VectorImageItLj2EEENS2_IiLj2EEEE20ThreadedGenerateDataERKNS_11ImageRegionILj2EEEj@Base 5.0.0
 _ZN3itk15CastImageFilterIN3otb11VectorImageItLj2EEENS2_IiLj2EEEED0Ev@Base 5.0.0
 _ZN3itk15CastImageFilterIN3otb11VectorImageItLj2EEENS2_IiLj2EEEED1Ev@Base 5.0.0
 _ZN3itk15CastImageFilterIN3otb11VectorImageItLj2EEENS2_IiLj2EEEED2Ev@Base 5.0.0
 _ZN3itk15CastImageFilterIN3otb11VectorImageItLj2EEENS2_IjLj2EEEE12GenerateDataEv@Base 5.0.0
 _ZN3itk15CastImageFilterIN3otb11VectorImageItLj2EEENS2_IjLj2EEEE20ThreadedGenerateDataERKNS_11ImageRegionILj2EEEj@Base 5.0.0
 _ZN3itk15CastImageFilterIN3otb11VectorImageItLj2EEENS2_IjLj2EEEED0Ev@Base 5.0.0
 _ZN3itk15CastImageFilterIN3otb11VectorImageItLj2EEENS2_IjLj2EEEED1Ev@Base 5.0.0
 _ZN3itk15CastImageFilterIN3otb11VectorImageItLj2EEENS2_IjLj2EEEED2Ev@Base 5.0.0
 _ZN3itk15CastImageFilterIN3otb11VectorImageItLj2EEENS2_IsLj2EEEE12GenerateDataEv@Base 5.0.0
 _ZN3itk15CastImageFilterIN3otb11VectorImageItLj2EEENS2_IsLj2EEEE20ThreadedGenerateDataERKNS_11ImageRegionILj2EEEj@Base 5.0.0
 _ZN3itk15CastImageFilterIN3otb11VectorImageItLj2EEENS2_IsLj2EEEED0Ev@Base 5.0.0
 _ZN3itk15CastImageFilterIN3otb11VectorImageItLj2EEENS2_IsLj2EEEED1Ev@Base 5.0.0
 _ZN3itk15CastImageFilterIN3otb11VectorImageItLj2EEENS2_IsLj2EEEED2Ev@Base 5.0.0
 _ZN3itk15CastImageFilterIN3otb11VectorImageItLj2EEES3_E12GenerateDataEv@Base 5.0.0
 _ZN3itk15CastImageFilterIN3otb11VectorImageItLj2EEES3_E20ThreadedGenerateDataERKNS_11ImageRegionILj2EEEj@Base 5.0.0
 _ZN3itk15CastImageFilterIN3otb11VectorImageItLj2EEES3_ED0Ev@Base 5.0.0
 _ZN3itk15CastImageFilterIN3otb11VectorImageItLj2EEES3_ED1Ev@Base 5.0.0
 _ZN3itk15CastImageFilterIN3otb11VectorImageItLj2EEES3_ED2Ev@Base 5.0.0
 _ZN3itk15CastImageFilterIN3otb5ImageISt7complexIdELj2EEENS2_IS3_IfELj2EEEE12GenerateDataEv@Base 5.0.0
 _ZN3itk15CastImageFilterIN3otb5ImageISt7complexIdELj2EEENS2_IS3_IfELj2EEEE20ThreadedGenerateDataERKNS_11ImageRegionILj2EEEj@Base 5.0.0
 _ZN3itk15CastImageFilterIN3otb5ImageISt7complexIdELj2EEENS2_IS3_IfELj2EEEED0Ev@Base 5.0.0
 _ZN3itk15CastImageFilterIN3otb5ImageISt7complexIdELj2EEENS2_IS3_IfELj2EEEED1Ev@Base 5.0.0
 _ZN3itk15CastImageFilterIN3otb5ImageISt7complexIdELj2EEENS2_IS3_IfELj2EEEED2Ev@Base 5.0.0
 _ZN3itk15CastImageFilterIN3otb5ImageISt7complexIdELj2EEES5_E12GenerateDataEv@Base 5.0.0
 _ZN3itk15CastImageFilterIN3otb5ImageISt7complexIdELj2EEES5_E20ThreadedGenerateDataERKNS_11ImageRegionILj2EEEj@Base 5.0.0
 _ZN3itk15CastImageFilterIN3otb5ImageISt7complexIdELj2EEES5_ED0Ev@Base 5.0.0
 _ZN3itk15CastImageFilterIN3otb5ImageISt7complexIdELj2EEES5_ED1Ev@Base 5.0.0
 _ZN3itk15CastImageFilterIN3otb5ImageISt7complexIdELj2EEES5_ED2Ev@Base 5.0.0
 _ZN3itk15CastImageFilterIN3otb5ImageISt7complexIfELj2EEENS2_IS3_IdELj2EEEE12GenerateDataEv@Base 5.0.0
 _ZN3itk15CastImageFilterIN3otb5ImageISt7complexIfELj2EEENS2_IS3_IdELj2EEEE20ThreadedGenerateDataERKNS_11ImageRegionILj2EEEj@Base 5.0.0
 _ZN3itk15CastImageFilterIN3otb5ImageISt7complexIfELj2EEENS2_IS3_IdELj2EEEED0Ev@Base 5.0.0
 _ZN3itk15CastImageFilterIN3otb5ImageISt7complexIfELj2EEENS2_IS3_IdELj2EEEED1Ev@Base 5.0.0
 _ZN3itk15CastImageFilterIN3otb5ImageISt7complexIfELj2EEENS2_IS3_IdELj2EEEED2Ev@Base 5.0.0
 _ZN3itk15CastImageFilterIN3otb5ImageISt7complexIfELj2EEES5_E12GenerateDataEv@Base 5.0.0
 _ZN3itk15CastImageFilterIN3otb5ImageISt7complexIfELj2EEES5_E20ThreadedGenerateDataERKNS_11ImageRegionILj2EEEj@Base 5.0.0
 _ZN3itk15CastImageFilterIN3otb5ImageISt7complexIfELj2EEES5_ED0Ev@Base 5.0.0
 _ZN3itk15CastImageFilterIN3otb5ImageISt7complexIfELj2EEES5_ED1Ev@Base 5.0.0
 _ZN3itk15CastImageFilterIN3otb5ImageISt7complexIfELj2EEES5_ED2Ev@Base 5.0.0
 _ZN3itk15CastImageFilterIN3otb5ImageIdLj2EEENS2_ISt7complexIdELj2EEEE12GenerateDataEv@Base 5.0.0
 _ZN3itk15CastImageFilterIN3otb5ImageIdLj2EEENS2_ISt7complexIdELj2EEEE20ThreadedGenerateDataERKNS_11ImageRegionILj2EEEj@Base 5.0.0
 _ZN3itk15CastImageFilterIN3otb5ImageIdLj2EEENS2_ISt7complexIdELj2EEEED0Ev@Base 5.0.0
 _ZN3itk15CastImageFilterIN3otb5ImageIdLj2EEENS2_ISt7complexIdELj2EEEED1Ev@Base 5.0.0
 _ZN3itk15CastImageFilterIN3otb5ImageIdLj2EEENS2_ISt7complexIdELj2EEEED2Ev@Base 5.0.0
 _ZN3itk15CastImageFilterIN3otb5ImageIdLj2EEENS2_ISt7complexIfELj2EEEE12GenerateDataEv@Base 5.0.0
 _ZN3itk15CastImageFilterIN3otb5ImageIdLj2EEENS2_ISt7complexIfELj2EEEE20ThreadedGenerateDataERKNS_11ImageRegionILj2EEEj@Base 5.0.0
 _ZN3itk15CastImageFilterIN3otb5ImageIdLj2EEENS2_ISt7complexIfELj2EEEED0Ev@Base 5.0.0
 _ZN3itk15CastImageFilterIN3otb5ImageIdLj2EEENS2_ISt7complexIfELj2EEEED1Ev@Base 5.0.0
 _ZN3itk15CastImageFilterIN3otb5ImageIdLj2EEENS2_ISt7complexIfELj2EEEED2Ev@Base 5.0.0
 _ZN3itk15CastImageFilterIN3otb5ImageIdLj2EEENS2_IfLj2EEEE12GenerateDataEv@Base 5.0.0
 _ZN3itk15CastImageFilterIN3otb5ImageIdLj2EEENS2_IfLj2EEEE20ThreadedGenerateDataERKNS_11ImageRegionILj2EEEj@Base 5.0.0
 _ZN3itk15CastImageFilterIN3otb5ImageIdLj2EEENS2_IfLj2EEEED0Ev@Base 5.0.0
 _ZN3itk15CastImageFilterIN3otb5ImageIdLj2EEENS2_IfLj2EEEED1Ev@Base 5.0.0
 _ZN3itk15CastImageFilterIN3otb5ImageIdLj2EEENS2_IfLj2EEEED2Ev@Base 5.0.0
 _ZN3itk15CastImageFilterIN3otb5ImageIdLj2EEENS2_IhLj2EEEE12GenerateDataEv@Base 5.0.0
 _ZN3itk15CastImageFilterIN3otb5ImageIdLj2EEENS2_IhLj2EEEE20ThreadedGenerateDataERKNS_11ImageRegionILj2EEEj@Base 5.0.0
 _ZN3itk15CastImageFilterIN3otb5ImageIdLj2EEENS2_IhLj2EEEED0Ev@Base 5.0.0
 _ZN3itk15CastImageFilterIN3otb5ImageIdLj2EEENS2_IhLj2EEEED1Ev@Base 5.0.0
 _ZN3itk15CastImageFilterIN3otb5ImageIdLj2EEENS2_IhLj2EEEED2Ev@Base 5.0.0
 _ZN3itk15CastImageFilterIN3otb5ImageIdLj2EEENS2_IiLj2EEEE12GenerateDataEv@Base 5.0.0
 _ZN3itk15CastImageFilterIN3otb5ImageIdLj2EEENS2_IiLj2EEEE20ThreadedGenerateDataERKNS_11ImageRegionILj2EEEj@Base 5.0.0
 _ZN3itk15CastImageFilterIN3otb5ImageIdLj2EEENS2_IiLj2EEEED0Ev@Base 5.0.0
 _ZN3itk15CastImageFilterIN3otb5ImageIdLj2EEENS2_IiLj2EEEED1Ev@Base 5.0.0
 _ZN3itk15CastImageFilterIN3otb5ImageIdLj2EEENS2_IiLj2EEEED2Ev@Base 5.0.0
 _ZN3itk15CastImageFilterIN3otb5ImageIdLj2EEENS2_IjLj2EEEE12GenerateDataEv@Base 5.0.0
 _ZN3itk15CastImageFilterIN3otb5ImageIdLj2EEENS2_IjLj2EEEE20ThreadedGenerateDataERKNS_11ImageRegionILj2EEEj@Base 5.0.0
 _ZN3itk15CastImageFilterIN3otb5ImageIdLj2EEENS2_IjLj2EEEED0Ev@Base 5.0.0
 _ZN3itk15CastImageFilterIN3otb5ImageIdLj2EEENS2_IjLj2EEEED1Ev@Base 5.0.0
 _ZN3itk15CastImageFilterIN3otb5ImageIdLj2EEENS2_IjLj2EEEED2Ev@Base 5.0.0
 _ZN3itk15CastImageFilterIN3otb5ImageIdLj2EEENS2_IsLj2EEEE12GenerateDataEv@Base 5.0.0
 _ZN3itk15CastImageFilterIN3otb5ImageIdLj2EEENS2_IsLj2EEEE20ThreadedGenerateDataERKNS_11ImageRegionILj2EEEj@Base 5.0.0
 _ZN3itk15CastImageFilterIN3otb5ImageIdLj2EEENS2_IsLj2EEEED0Ev@Base 5.0.0
 _ZN3itk15CastImageFilterIN3otb5ImageIdLj2EEENS2_IsLj2EEEED1Ev@Base 5.0.0
 _ZN3itk15CastImageFilterIN3otb5ImageIdLj2EEENS2_IsLj2EEEED2Ev@Base 5.0.0
 _ZN3itk15CastImageFilterIN3otb5ImageIdLj2EEENS2_ItLj2EEEE12GenerateDataEv@Base 5.0.0
 _ZN3itk15CastImageFilterIN3otb5ImageIdLj2EEENS2_ItLj2EEEE20ThreadedGenerateDataERKNS_11ImageRegionILj2EEEj@Base 5.0.0
 _ZN3itk15CastImageFilterIN3otb5ImageIdLj2EEENS2_ItLj2EEEED0Ev@Base 5.0.0
 _ZN3itk15CastImageFilterIN3otb5ImageIdLj2EEENS2_ItLj2EEEED1Ev@Base 5.0.0
 _ZN3itk15CastImageFilterIN3otb5ImageIdLj2EEENS2_ItLj2EEEED2Ev@Base 5.0.0
 _ZN3itk15CastImageFilterIN3otb5ImageIdLj2EEES3_E12GenerateDataEv@Base 5.0.0
 _ZN3itk15CastImageFilterIN3otb5ImageIdLj2EEES3_E20ThreadedGenerateDataERKNS_11ImageRegionILj2EEEj@Base 5.0.0
 _ZN3itk15CastImageFilterIN3otb5ImageIdLj2EEES3_ED0Ev@Base 5.0.0
 _ZN3itk15CastImageFilterIN3otb5ImageIdLj2EEES3_ED1Ev@Base 5.0.0
 _ZN3itk15CastImageFilterIN3otb5ImageIdLj2EEES3_ED2Ev@Base 5.0.0
 _ZN3itk15CastImageFilterIN3otb5ImageIfLj2EEENS2_IdLj2EEEE12GenerateDataEv@Base 5.0.0
 _ZN3itk15CastImageFilterIN3otb5ImageIfLj2EEENS2_IdLj2EEEE20ThreadedGenerateDataERKNS_11ImageRegionILj2EEEj@Base 5.0.0
 _ZN3itk15CastImageFilterIN3otb5ImageIfLj2EEENS2_IdLj2EEEED0Ev@Base 5.0.0
 _ZN3itk15CastImageFilterIN3otb5ImageIfLj2EEENS2_IdLj2EEEED1Ev@Base 5.0.0
 _ZN3itk15CastImageFilterIN3otb5ImageIfLj2EEENS2_IdLj2EEEED2Ev@Base 5.0.0
 _ZN3itk15CastImageFilterIN3otb5ImageIfLj2EEENS2_IhLj2EEEE12GenerateDataEv@Base 5.0.0
 _ZN3itk15CastImageFilterIN3otb5ImageIfLj2EEENS2_IhLj2EEEE20ThreadedGenerateDataERKNS_11ImageRegionILj2EEEj@Base 5.0.0
 _ZN3itk15CastImageFilterIN3otb5ImageIfLj2EEENS2_IhLj2EEEED0Ev@Base 5.0.0
 _ZN3itk15CastImageFilterIN3otb5ImageIfLj2EEENS2_IhLj2EEEED1Ev@Base 5.0.0
 _ZN3itk15CastImageFilterIN3otb5ImageIfLj2EEENS2_IhLj2EEEED2Ev@Base 5.0.0
 _ZN3itk15CastImageFilterIN3otb5ImageIfLj2EEENS2_IiLj2EEEE12GenerateDataEv@Base 5.0.0
 _ZN3itk15CastImageFilterIN3otb5ImageIfLj2EEENS2_IiLj2EEEE20ThreadedGenerateDataERKNS_11ImageRegionILj2EEEj@Base 5.0.0
 _ZN3itk15CastImageFilterIN3otb5ImageIfLj2EEENS2_IiLj2EEEED0Ev@Base 5.0.0
 _ZN3itk15CastImageFilterIN3otb5ImageIfLj2EEENS2_IiLj2EEEED1Ev@Base 5.0.0
 _ZN3itk15CastImageFilterIN3otb5ImageIfLj2EEENS2_IiLj2EEEED2Ev@Base 5.0.0
 _ZN3itk15CastImageFilterIN3otb5ImageIfLj2EEENS2_IjLj2EEEE12GenerateDataEv@Base 5.0.0
 _ZN3itk15CastImageFilterIN3otb5ImageIfLj2EEENS2_IjLj2EEEE20ThreadedGenerateDataERKNS_11ImageRegionILj2EEEj@Base 5.0.0
 _ZN3itk15CastImageFilterIN3otb5ImageIfLj2EEENS2_IjLj2EEEED0Ev@Base 5.0.0
 _ZN3itk15CastImageFilterIN3otb5ImageIfLj2EEENS2_IjLj2EEEED1Ev@Base 5.0.0
 _ZN3itk15CastImageFilterIN3otb5ImageIfLj2EEENS2_IjLj2EEEED2Ev@Base 5.0.0
 _ZN3itk15CastImageFilterIN3otb5ImageIfLj2EEENS2_IsLj2EEEE12GenerateDataEv@Base 5.0.0
 _ZN3itk15CastImageFilterIN3otb5ImageIfLj2EEENS2_IsLj2EEEE20ThreadedGenerateDataERKNS_11ImageRegionILj2EEEj@Base 5.0.0
 _ZN3itk15CastImageFilterIN3otb5ImageIfLj2EEENS2_IsLj2EEEED0Ev@Base 5.0.0
 _ZN3itk15CastImageFilterIN3otb5ImageIfLj2EEENS2_IsLj2EEEED1Ev@Base 5.0.0
 _ZN3itk15CastImageFilterIN3otb5ImageIfLj2EEENS2_IsLj2EEEED2Ev@Base 5.0.0
 _ZN3itk15CastImageFilterIN3otb5ImageIfLj2EEENS2_ItLj2EEEE12GenerateDataEv@Base 5.0.0
 _ZN3itk15CastImageFilterIN3otb5ImageIfLj2EEENS2_ItLj2EEEE20ThreadedGenerateDataERKNS_11ImageRegionILj2EEEj@Base 5.0.0
 _ZN3itk15CastImageFilterIN3otb5ImageIfLj2EEENS2_ItLj2EEEED0Ev@Base 5.0.0
 _ZN3itk15CastImageFilterIN3otb5ImageIfLj2EEENS2_ItLj2EEEED1Ev@Base 5.0.0
 _ZN3itk15CastImageFilterIN3otb5ImageIfLj2EEENS2_ItLj2EEEED2Ev@Base 5.0.0
 _ZN3itk15CastImageFilterIN3otb5ImageIfLj2EEES3_E12GenerateDataEv@Base 5.0.0
 _ZN3itk15CastImageFilterIN3otb5ImageIfLj2EEES3_E20ThreadedGenerateDataERKNS_11ImageRegionILj2EEEj@Base 5.0.0
 _ZN3itk15CastImageFilterIN3otb5ImageIfLj2EEES3_ED0Ev@Base 5.0.0
 _ZN3itk15CastImageFilterIN3otb5ImageIfLj2EEES3_ED1Ev@Base 5.0.0
 _ZN3itk15CastImageFilterIN3otb5ImageIfLj2EEES3_ED2Ev@Base 5.0.0
 _ZN3itk15CastImageFilterIN3otb5ImageIhLj2EEENS2_IdLj2EEEE12GenerateDataEv@Base 5.0.0
 _ZN3itk15CastImageFilterIN3otb5ImageIhLj2EEENS2_IdLj2EEEE20ThreadedGenerateDataERKNS_11ImageRegionILj2EEEj@Base 5.0.0
 _ZN3itk15CastImageFilterIN3otb5ImageIhLj2EEENS2_IdLj2EEEED0Ev@Base 5.0.0
 _ZN3itk15CastImageFilterIN3otb5ImageIhLj2EEENS2_IdLj2EEEED1Ev@Base 5.0.0
 _ZN3itk15CastImageFilterIN3otb5ImageIhLj2EEENS2_IdLj2EEEED2Ev@Base 5.0.0
 _ZN3itk15CastImageFilterIN3otb5ImageIhLj2EEENS2_IfLj2EEEE12GenerateDataEv@Base 5.0.0
 _ZN3itk15CastImageFilterIN3otb5ImageIhLj2EEENS2_IfLj2EEEE20ThreadedGenerateDataERKNS_11ImageRegionILj2EEEj@Base 5.0.0
 _ZN3itk15CastImageFilterIN3otb5ImageIhLj2EEENS2_IfLj2EEEED0Ev@Base 5.0.0
 _ZN3itk15CastImageFilterIN3otb5ImageIhLj2EEENS2_IfLj2EEEED1Ev@Base 5.0.0
 _ZN3itk15CastImageFilterIN3otb5ImageIhLj2EEENS2_IfLj2EEEED2Ev@Base 5.0.0
 _ZN3itk15CastImageFilterIN3otb5ImageIhLj2EEENS2_IiLj2EEEE12GenerateDataEv@Base 5.0.0
 _ZN3itk15CastImageFilterIN3otb5ImageIhLj2EEENS2_IiLj2EEEE20ThreadedGenerateDataERKNS_11ImageRegionILj2EEEj@Base 5.0.0
 _ZN3itk15CastImageFilterIN3otb5ImageIhLj2EEENS2_IiLj2EEEED0Ev@Base 5.0.0
 _ZN3itk15CastImageFilterIN3otb5ImageIhLj2EEENS2_IiLj2EEEED1Ev@Base 5.0.0
 _ZN3itk15CastImageFilterIN3otb5ImageIhLj2EEENS2_IiLj2EEEED2Ev@Base 5.0.0
 _ZN3itk15CastImageFilterIN3otb5ImageIhLj2EEENS2_IjLj2EEEE12GenerateDataEv@Base 5.0.0
 _ZN3itk15CastImageFilterIN3otb5ImageIhLj2EEENS2_IjLj2EEEE20ThreadedGenerateDataERKNS_11ImageRegionILj2EEEj@Base 5.0.0
 _ZN3itk15CastImageFilterIN3otb5ImageIhLj2EEENS2_IjLj2EEEED0Ev@Base 5.0.0
 _ZN3itk15CastImageFilterIN3otb5ImageIhLj2EEENS2_IjLj2EEEED1Ev@Base 5.0.0
 _ZN3itk15CastImageFilterIN3otb5ImageIhLj2EEENS2_IjLj2EEEED2Ev@Base 5.0.0
 _ZN3itk15CastImageFilterIN3otb5ImageIhLj2EEENS2_IsLj2EEEE12GenerateDataEv@Base 5.0.0
 _ZN3itk15CastImageFilterIN3otb5ImageIhLj2EEENS2_IsLj2EEEE20ThreadedGenerateDataERKNS_11ImageRegionILj2EEEj@Base 5.0.0
 _ZN3itk15CastImageFilterIN3otb5ImageIhLj2EEENS2_IsLj2EEEED0Ev@Base 5.0.0
 _ZN3itk15CastImageFilterIN3otb5ImageIhLj2EEENS2_IsLj2EEEED1Ev@Base 5.0.0
 _ZN3itk15CastImageFilterIN3otb5ImageIhLj2EEENS2_IsLj2EEEED2Ev@Base 5.0.0
 _ZN3itk15CastImageFilterIN3otb5ImageIhLj2EEENS2_ItLj2EEEE12GenerateDataEv@Base 5.0.0
 _ZN3itk15CastImageFilterIN3otb5ImageIhLj2EEENS2_ItLj2EEEE20ThreadedGenerateDataERKNS_11ImageRegionILj2EEEj@Base 5.0.0
 _ZN3itk15CastImageFilterIN3otb5ImageIhLj2EEENS2_ItLj2EEEED0Ev@Base 5.0.0
 _ZN3itk15CastImageFilterIN3otb5ImageIhLj2EEENS2_ItLj2EEEED1Ev@Base 5.0.0
 _ZN3itk15CastImageFilterIN3otb5ImageIhLj2EEENS2_ItLj2EEEED2Ev@Base 5.0.0
 _ZN3itk15CastImageFilterIN3otb5ImageIhLj2EEES3_E12GenerateDataEv@Base 5.0.0
 _ZN3itk15CastImageFilterIN3otb5ImageIhLj2EEES3_E20ThreadedGenerateDataERKNS_11ImageRegionILj2EEEj@Base 5.0.0
 _ZN3itk15CastImageFilterIN3otb5ImageIhLj2EEES3_ED0Ev@Base 5.0.0
 _ZN3itk15CastImageFilterIN3otb5ImageIhLj2EEES3_ED1Ev@Base 5.0.0
 _ZN3itk15CastImageFilterIN3otb5ImageIhLj2EEES3_ED2Ev@Base 5.0.0
 _ZN3itk15CastImageFilterIN3otb5ImageIiLj2EEENS2_IdLj2EEEE12GenerateDataEv@Base 5.0.0
 _ZN3itk15CastImageFilterIN3otb5ImageIiLj2EEENS2_IdLj2EEEE20ThreadedGenerateDataERKNS_11ImageRegionILj2EEEj@Base 5.0.0
 _ZN3itk15CastImageFilterIN3otb5ImageIiLj2EEENS2_IdLj2EEEED0Ev@Base 5.0.0
 _ZN3itk15CastImageFilterIN3otb5ImageIiLj2EEENS2_IdLj2EEEED1Ev@Base 5.0.0
 _ZN3itk15CastImageFilterIN3otb5ImageIiLj2EEENS2_IdLj2EEEED2Ev@Base 5.0.0
 _ZN3itk15CastImageFilterIN3otb5ImageIiLj2EEENS2_IfLj2EEEE12GenerateDataEv@Base 5.0.0
 _ZN3itk15CastImageFilterIN3otb5ImageIiLj2EEENS2_IfLj2EEEE20ThreadedGenerateDataERKNS_11ImageRegionILj2EEEj@Base 5.0.0
 _ZN3itk15CastImageFilterIN3otb5ImageIiLj2EEENS2_IfLj2EEEED0Ev@Base 5.0.0
 _ZN3itk15CastImageFilterIN3otb5ImageIiLj2EEENS2_IfLj2EEEED1Ev@Base 5.0.0
 _ZN3itk15CastImageFilterIN3otb5ImageIiLj2EEENS2_IfLj2EEEED2Ev@Base 5.0.0
 _ZN3itk15CastImageFilterIN3otb5ImageIiLj2EEENS2_IhLj2EEEE12GenerateDataEv@Base 5.0.0
 _ZN3itk15CastImageFilterIN3otb5ImageIiLj2EEENS2_IhLj2EEEE20ThreadedGenerateDataERKNS_11ImageRegionILj2EEEj@Base 5.0.0
 _ZN3itk15CastImageFilterIN3otb5ImageIiLj2EEENS2_IhLj2EEEED0Ev@Base 5.0.0
 _ZN3itk15CastImageFilterIN3otb5ImageIiLj2EEENS2_IhLj2EEEED1Ev@Base 5.0.0
 _ZN3itk15CastImageFilterIN3otb5ImageIiLj2EEENS2_IhLj2EEEED2Ev@Base 5.0.0
 _ZN3itk15CastImageFilterIN3otb5ImageIiLj2EEENS2_IjLj2EEEE12GenerateDataEv@Base 5.0.0
 _ZN3itk15CastImageFilterIN3otb5ImageIiLj2EEENS2_IjLj2EEEE20ThreadedGenerateDataERKNS_11ImageRegionILj2EEEj@Base 5.0.0
 _ZN3itk15CastImageFilterIN3otb5ImageIiLj2EEENS2_IjLj2EEEED0Ev@Base 5.0.0
 _ZN3itk15CastImageFilterIN3otb5ImageIiLj2EEENS2_IjLj2EEEED1Ev@Base 5.0.0
 _ZN3itk15CastImageFilterIN3otb5ImageIiLj2EEENS2_IjLj2EEEED2Ev@Base 5.0.0
 _ZN3itk15CastImageFilterIN3otb5ImageIiLj2EEENS2_IsLj2EEEE12GenerateDataEv@Base 5.0.0
 _ZN3itk15CastImageFilterIN3otb5ImageIiLj2EEENS2_IsLj2EEEE20ThreadedGenerateDataERKNS_11ImageRegionILj2EEEj@Base 5.0.0
 _ZN3itk15CastImageFilterIN3otb5ImageIiLj2EEENS2_IsLj2EEEED0Ev@Base 5.0.0
 _ZN3itk15CastImageFilterIN3otb5ImageIiLj2EEENS2_IsLj2EEEED1Ev@Base 5.0.0
 _ZN3itk15CastImageFilterIN3otb5ImageIiLj2EEENS2_IsLj2EEEED2Ev@Base 5.0.0
 _ZN3itk15CastImageFilterIN3otb5ImageIiLj2EEENS2_ItLj2EEEE12GenerateDataEv@Base 5.0.0
 _ZN3itk15CastImageFilterIN3otb5ImageIiLj2EEENS2_ItLj2EEEE20ThreadedGenerateDataERKNS_11ImageRegionILj2EEEj@Base 5.0.0
 _ZN3itk15CastImageFilterIN3otb5ImageIiLj2EEENS2_ItLj2EEEED0Ev@Base 5.0.0
 _ZN3itk15CastImageFilterIN3otb5ImageIiLj2EEENS2_ItLj2EEEED1Ev@Base 5.0.0
 _ZN3itk15CastImageFilterIN3otb5ImageIiLj2EEENS2_ItLj2EEEED2Ev@Base 5.0.0
 _ZN3itk15CastImageFilterIN3otb5ImageIiLj2EEES3_E12GenerateDataEv@Base 5.0.0
 _ZN3itk15CastImageFilterIN3otb5ImageIiLj2EEES3_E20ThreadedGenerateDataERKNS_11ImageRegionILj2EEEj@Base 5.0.0
 _ZN3itk15CastImageFilterIN3otb5ImageIiLj2EEES3_ED0Ev@Base 5.0.0
 _ZN3itk15CastImageFilterIN3otb5ImageIiLj2EEES3_ED1Ev@Base 5.0.0
 _ZN3itk15CastImageFilterIN3otb5ImageIiLj2EEES3_ED2Ev@Base 5.0.0
 _ZN3itk15CastImageFilterIN3otb5ImageIjLj2EEENS2_IdLj2EEEE12GenerateDataEv@Base 5.0.0
 _ZN3itk15CastImageFilterIN3otb5ImageIjLj2EEENS2_IdLj2EEEE20ThreadedGenerateDataERKNS_11ImageRegionILj2EEEj@Base 5.0.0
 _ZN3itk15CastImageFilterIN3otb5ImageIjLj2EEENS2_IdLj2EEEED0Ev@Base 5.0.0
 _ZN3itk15CastImageFilterIN3otb5ImageIjLj2EEENS2_IdLj2EEEED1Ev@Base 5.0.0
 _ZN3itk15CastImageFilterIN3otb5ImageIjLj2EEENS2_IdLj2EEEED2Ev@Base 5.0.0
 _ZN3itk15CastImageFilterIN3otb5ImageIjLj2EEENS2_IfLj2EEEE12GenerateDataEv@Base 5.0.0
 _ZN3itk15CastImageFilterIN3otb5ImageIjLj2EEENS2_IfLj2EEEE20ThreadedGenerateDataERKNS_11ImageRegionILj2EEEj@Base 5.0.0
 _ZN3itk15CastImageFilterIN3otb5ImageIjLj2EEENS2_IfLj2EEEED0Ev@Base 5.0.0
 _ZN3itk15CastImageFilterIN3otb5ImageIjLj2EEENS2_IfLj2EEEED1Ev@Base 5.0.0
 _ZN3itk15CastImageFilterIN3otb5ImageIjLj2EEENS2_IfLj2EEEED2Ev@Base 5.0.0
 _ZN3itk15CastImageFilterIN3otb5ImageIjLj2EEENS2_IhLj2EEEE12GenerateDataEv@Base 5.0.0
 _ZN3itk15CastImageFilterIN3otb5ImageIjLj2EEENS2_IhLj2EEEE20ThreadedGenerateDataERKNS_11ImageRegionILj2EEEj@Base 5.0.0
 _ZN3itk15CastImageFilterIN3otb5ImageIjLj2EEENS2_IhLj2EEEED0Ev@Base 5.0.0
 _ZN3itk15CastImageFilterIN3otb5ImageIjLj2EEENS2_IhLj2EEEED1Ev@Base 5.0.0
 _ZN3itk15CastImageFilterIN3otb5ImageIjLj2EEENS2_IhLj2EEEED2Ev@Base 5.0.0
 _ZN3itk15CastImageFilterIN3otb5ImageIjLj2EEENS2_IiLj2EEEE12GenerateDataEv@Base 5.0.0
 _ZN3itk15CastImageFilterIN3otb5ImageIjLj2EEENS2_IiLj2EEEE20ThreadedGenerateDataERKNS_11ImageRegionILj2EEEj@Base 5.0.0
 _ZN3itk15CastImageFilterIN3otb5ImageIjLj2EEENS2_IiLj2EEEED0Ev@Base 5.0.0
 _ZN3itk15CastImageFilterIN3otb5ImageIjLj2EEENS2_IiLj2EEEED1Ev@Base 5.0.0
 _ZN3itk15CastImageFilterIN3otb5ImageIjLj2EEENS2_IiLj2EEEED2Ev@Base 5.0.0
 _ZN3itk15CastImageFilterIN3otb5ImageIjLj2EEENS2_IsLj2EEEE12GenerateDataEv@Base 5.0.0
 _ZN3itk15CastImageFilterIN3otb5ImageIjLj2EEENS2_IsLj2EEEE20ThreadedGenerateDataERKNS_11ImageRegionILj2EEEj@Base 5.0.0
 _ZN3itk15CastImageFilterIN3otb5ImageIjLj2EEENS2_IsLj2EEEED0Ev@Base 5.0.0
 _ZN3itk15CastImageFilterIN3otb5ImageIjLj2EEENS2_IsLj2EEEED1Ev@Base 5.0.0
 _ZN3itk15CastImageFilterIN3otb5ImageIjLj2EEENS2_IsLj2EEEED2Ev@Base 5.0.0
 _ZN3itk15CastImageFilterIN3otb5ImageIjLj2EEENS2_ItLj2EEEE12GenerateDataEv@Base 5.0.0
 _ZN3itk15CastImageFilterIN3otb5ImageIjLj2EEENS2_ItLj2EEEE20ThreadedGenerateDataERKNS_11ImageRegionILj2EEEj@Base 5.0.0
 _ZN3itk15CastImageFilterIN3otb5ImageIjLj2EEENS2_ItLj2EEEED0Ev@Base 5.0.0
 _ZN3itk15CastImageFilterIN3otb5ImageIjLj2EEENS2_ItLj2EEEED1Ev@Base 5.0.0
 _ZN3itk15CastImageFilterIN3otb5ImageIjLj2EEENS2_ItLj2EEEED2Ev@Base 5.0.0
 _ZN3itk15CastImageFilterIN3otb5ImageIjLj2EEES3_E12GenerateDataEv@Base 5.0.0
 _ZN3itk15CastImageFilterIN3otb5ImageIjLj2EEES3_E20ThreadedGenerateDataERKNS_11ImageRegionILj2EEEj@Base 5.0.0
 _ZN3itk15CastImageFilterIN3otb5ImageIjLj2EEES3_ED0Ev@Base 5.0.0
 _ZN3itk15CastImageFilterIN3otb5ImageIjLj2EEES3_ED1Ev@Base 5.0.0
 _ZN3itk15CastImageFilterIN3otb5ImageIjLj2EEES3_ED2Ev@Base 5.0.0
 _ZN3itk15CastImageFilterIN3otb5ImageIsLj2EEENS2_IdLj2EEEE12GenerateDataEv@Base 5.0.0
 _ZN3itk15CastImageFilterIN3otb5ImageIsLj2EEENS2_IdLj2EEEE20ThreadedGenerateDataERKNS_11ImageRegionILj2EEEj@Base 5.0.0
 _ZN3itk15CastImageFilterIN3otb5ImageIsLj2EEENS2_IdLj2EEEED0Ev@Base 5.0.0
 _ZN3itk15CastImageFilterIN3otb5ImageIsLj2EEENS2_IdLj2EEEED1Ev@Base 5.0.0
 _ZN3itk15CastImageFilterIN3otb5ImageIsLj2EEENS2_IdLj2EEEED2Ev@Base 5.0.0
 _ZN3itk15CastImageFilterIN3otb5ImageIsLj2EEENS2_IfLj2EEEE12GenerateDataEv@Base 5.0.0
 _ZN3itk15CastImageFilterIN3otb5ImageIsLj2EEENS2_IfLj2EEEE20ThreadedGenerateDataERKNS_11ImageRegionILj2EEEj@Base 5.0.0
 _ZN3itk15CastImageFilterIN3otb5ImageIsLj2EEENS2_IfLj2EEEED0Ev@Base 5.0.0
 _ZN3itk15CastImageFilterIN3otb5ImageIsLj2EEENS2_IfLj2EEEED1Ev@Base 5.0.0
 _ZN3itk15CastImageFilterIN3otb5ImageIsLj2EEENS2_IfLj2EEEED2Ev@Base 5.0.0
 _ZN3itk15CastImageFilterIN3otb5ImageIsLj2EEENS2_IhLj2EEEE12GenerateDataEv@Base 5.0.0
 _ZN3itk15CastImageFilterIN3otb5ImageIsLj2EEENS2_IhLj2EEEE20ThreadedGenerateDataERKNS_11ImageRegionILj2EEEj@Base 5.0.0
 _ZN3itk15CastImageFilterIN3otb5ImageIsLj2EEENS2_IhLj2EEEED0Ev@Base 5.0.0
 _ZN3itk15CastImageFilterIN3otb5ImageIsLj2EEENS2_IhLj2EEEED1Ev@Base 5.0.0
 _ZN3itk15CastImageFilterIN3otb5ImageIsLj2EEENS2_IhLj2EEEED2Ev@Base 5.0.0
 _ZN3itk15CastImageFilterIN3otb5ImageIsLj2EEENS2_IiLj2EEEE12GenerateDataEv@Base 5.0.0
 _ZN3itk15CastImageFilterIN3otb5ImageIsLj2EEENS2_IiLj2EEEE20ThreadedGenerateDataERKNS_11ImageRegionILj2EEEj@Base 5.0.0
 _ZN3itk15CastImageFilterIN3otb5ImageIsLj2EEENS2_IiLj2EEEED0Ev@Base 5.0.0
 _ZN3itk15CastImageFilterIN3otb5ImageIsLj2EEENS2_IiLj2EEEED1Ev@Base 5.0.0
 _ZN3itk15CastImageFilterIN3otb5ImageIsLj2EEENS2_IiLj2EEEED2Ev@Base 5.0.0
 _ZN3itk15CastImageFilterIN3otb5ImageIsLj2EEENS2_IjLj2EEEE12GenerateDataEv@Base 5.0.0
 _ZN3itk15CastImageFilterIN3otb5ImageIsLj2EEENS2_IjLj2EEEE20ThreadedGenerateDataERKNS_11ImageRegionILj2EEEj@Base 5.0.0
 _ZN3itk15CastImageFilterIN3otb5ImageIsLj2EEENS2_IjLj2EEEED0Ev@Base 5.0.0
 _ZN3itk15CastImageFilterIN3otb5ImageIsLj2EEENS2_IjLj2EEEED1Ev@Base 5.0.0
 _ZN3itk15CastImageFilterIN3otb5ImageIsLj2EEENS2_IjLj2EEEED2Ev@Base 5.0.0
 _ZN3itk15CastImageFilterIN3otb5ImageIsLj2EEENS2_ItLj2EEEE12GenerateDataEv@Base 5.0.0
 _ZN3itk15CastImageFilterIN3otb5ImageIsLj2EEENS2_ItLj2EEEE20ThreadedGenerateDataERKNS_11ImageRegionILj2EEEj@Base 5.0.0
 _ZN3itk15CastImageFilterIN3otb5ImageIsLj2EEENS2_ItLj2EEEED0Ev@Base 5.0.0
 _ZN3itk15CastImageFilterIN3otb5ImageIsLj2EEENS2_ItLj2EEEED1Ev@Base 5.0.0
 _ZN3itk15CastImageFilterIN3otb5ImageIsLj2EEENS2_ItLj2EEEED2Ev@Base 5.0.0
 _ZN3itk15CastImageFilterIN3otb5ImageIsLj2EEES3_E12GenerateDataEv@Base 5.0.0
 _ZN3itk15CastImageFilterIN3otb5ImageIsLj2EEES3_E20ThreadedGenerateDataERKNS_11ImageRegionILj2EEEj@Base 5.0.0
 _ZN3itk15CastImageFilterIN3otb5ImageIsLj2EEES3_ED0Ev@Base 5.0.0
 _ZN3itk15CastImageFilterIN3otb5ImageIsLj2EEES3_ED1Ev@Base 5.0.0
 _ZN3itk15CastImageFilterIN3otb5ImageIsLj2EEES3_ED2Ev@Base 5.0.0
 _ZN3itk15CastImageFilterIN3otb5ImageItLj2EEENS2_IdLj2EEEE12GenerateDataEv@Base 5.0.0
 _ZN3itk15CastImageFilterIN3otb5ImageItLj2EEENS2_IdLj2EEEE20ThreadedGenerateDataERKNS_11ImageRegionILj2EEEj@Base 5.0.0
 _ZN3itk15CastImageFilterIN3otb5ImageItLj2EEENS2_IdLj2EEEED0Ev@Base 5.0.0
 _ZN3itk15CastImageFilterIN3otb5ImageItLj2EEENS2_IdLj2EEEED1Ev@Base 5.0.0
 _ZN3itk15CastImageFilterIN3otb5ImageItLj2EEENS2_IdLj2EEEED2Ev@Base 5.0.0
 _ZN3itk15CastImageFilterIN3otb5ImageItLj2EEENS2_IfLj2EEEE12GenerateDataEv@Base 5.0.0
 _ZN3itk15CastImageFilterIN3otb5ImageItLj2EEENS2_IfLj2EEEE20ThreadedGenerateDataERKNS_11ImageRegionILj2EEEj@Base 5.0.0
 _ZN3itk15CastImageFilterIN3otb5ImageItLj2EEENS2_IfLj2EEEED0Ev@Base 5.0.0
 _ZN3itk15CastImageFilterIN3otb5ImageItLj2EEENS2_IfLj2EEEED1Ev@Base 5.0.0
 _ZN3itk15CastImageFilterIN3otb5ImageItLj2EEENS2_IfLj2EEEED2Ev@Base 5.0.0
 _ZN3itk15CastImageFilterIN3otb5ImageItLj2EEENS2_IhLj2EEEE12GenerateDataEv@Base 5.0.0
 _ZN3itk15CastImageFilterIN3otb5ImageItLj2EEENS2_IhLj2EEEE20ThreadedGenerateDataERKNS_11ImageRegionILj2EEEj@Base 5.0.0
 _ZN3itk15CastImageFilterIN3otb5ImageItLj2EEENS2_IhLj2EEEED0Ev@Base 5.0.0
 _ZN3itk15CastImageFilterIN3otb5ImageItLj2EEENS2_IhLj2EEEED1Ev@Base 5.0.0
 _ZN3itk15CastImageFilterIN3otb5ImageItLj2EEENS2_IhLj2EEEED2Ev@Base 5.0.0
 _ZN3itk15CastImageFilterIN3otb5ImageItLj2EEENS2_IiLj2EEEE12GenerateDataEv@Base 5.0.0
 _ZN3itk15CastImageFilterIN3otb5ImageItLj2EEENS2_IiLj2EEEE20ThreadedGenerateDataERKNS_11ImageRegionILj2EEEj@Base 5.0.0
 _ZN3itk15CastImageFilterIN3otb5ImageItLj2EEENS2_IiLj2EEEED0Ev@Base 5.0.0
 _ZN3itk15CastImageFilterIN3otb5ImageItLj2EEENS2_IiLj2EEEED1Ev@Base 5.0.0
 _ZN3itk15CastImageFilterIN3otb5ImageItLj2EEENS2_IiLj2EEEED2Ev@Base 5.0.0
 _ZN3itk15CastImageFilterIN3otb5ImageItLj2EEENS2_IjLj2EEEE12GenerateDataEv@Base 5.0.0
 _ZN3itk15CastImageFilterIN3otb5ImageItLj2EEENS2_IjLj2EEEE20ThreadedGenerateDataERKNS_11ImageRegionILj2EEEj@Base 5.0.0
 _ZN3itk15CastImageFilterIN3otb5ImageItLj2EEENS2_IjLj2EEEED0Ev@Base 5.0.0
 _ZN3itk15CastImageFilterIN3otb5ImageItLj2EEENS2_IjLj2EEEED1Ev@Base 5.0.0
 _ZN3itk15CastImageFilterIN3otb5ImageItLj2EEENS2_IjLj2EEEED2Ev@Base 5.0.0
 _ZN3itk15CastImageFilterIN3otb5ImageItLj2EEENS2_IsLj2EEEE12GenerateDataEv@Base 5.0.0
 _ZN3itk15CastImageFilterIN3otb5ImageItLj2EEENS2_IsLj2EEEE20ThreadedGenerateDataERKNS_11ImageRegionILj2EEEj@Base 5.0.0
 _ZN3itk15CastImageFilterIN3otb5ImageItLj2EEENS2_IsLj2EEEED0Ev@Base 5.0.0
 _ZN3itk15CastImageFilterIN3otb5ImageItLj2EEENS2_IsLj2EEEED1Ev@Base 5.0.0
 _ZN3itk15CastImageFilterIN3otb5ImageItLj2EEENS2_IsLj2EEEED2Ev@Base 5.0.0
 _ZN3itk15CastImageFilterIN3otb5ImageItLj2EEES3_E12GenerateDataEv@Base 5.0.0
 _ZN3itk15CastImageFilterIN3otb5ImageItLj2EEES3_E20ThreadedGenerateDataERKNS_11ImageRegionILj2EEEj@Base 5.0.0
 _ZN3itk15CastImageFilterIN3otb5ImageItLj2EEES3_ED0Ev@Base 5.0.0
 _ZN3itk15CastImageFilterIN3otb5ImageItLj2EEES3_ED1Ev@Base 5.0.0
 _ZN3itk15CastImageFilterIN3otb5ImageItLj2EEES3_ED2Ev@Base 5.0.0
 _ZN3itk15TreeChangeEventINS_13TreeContainerINS_12SmartPointerIN3otb8DataNodeIdLj2EdEEEEEEED0Ev@Base 5.0.0
 _ZN3itk15TreeChangeEventINS_13TreeContainerINS_12SmartPointerIN3otb8DataNodeIdLj2EdEEEEEEED1Ev@Base 5.0.0
 _ZN3itk15TreeChangeEventINS_13TreeContainerINS_12SmartPointerIN3otb8DataNodeIdLj2EdEEEEEEED2Ev@Base 5.0.0
 _ZN3itk15TreeRemoveEventINS_13TreeContainerINS_12SmartPointerIN3otb8DataNodeIdLj2EdEEEEEEED0Ev@Base 5.0.0
 _ZN3itk15TreeRemoveEventINS_13TreeContainerINS_12SmartPointerIN3otb8DataNodeIdLj2EdEEEEEEED1Ev@Base 5.0.0
 _ZN3itk15TreeRemoveEventINS_13TreeContainerINS_12SmartPointerIN3otb8DataNodeIdLj2EdEEEEEEED2Ev@Base 5.0.0
 _ZN3itk15VectorContainerIjNS_15ContinuousIndexIdLj2EEEED0Ev@Base 5.0.0
 _ZN3itk15VectorContainerIjNS_15ContinuousIndexIdLj2EEEED1Ev@Base 5.0.0
 _ZN3itk15VectorContainerIjNS_15ContinuousIndexIdLj2EEEED2Ev@Base 5.0.0
 _ZN3itk16ProgressReporter14CompletedPixelEv@Base 5.0.0
 _ZN3itk16TreeIteratorBaseINS_13TreeContainerINS_12SmartPointerIN3otb8DataNodeIdLj2EdEEEEEEE10DisconnectEv@Base 5.0.0
 _ZN3itk16TreeIteratorBaseINS_13TreeContainerINS_12SmartPointerIN3otb8DataNodeIdLj2EdEEEEEEE10GoToParentEv@Base 5.0.0
 _ZN3itk16TreeIteratorBaseINS_13TreeContainerINS_12SmartPointerIN3otb8DataNodeIdLj2EdEEEEEEE11RemoveChildEi@Base 5.0.0
 _ZN3itk16TreeIteratorBaseINS_13TreeContainerINS_12SmartPointerIN3otb8DataNodeIdLj2EdEEEEEEE3AddERS7_@Base 5.0.0
 _ZN3itk16TreeIteratorBaseINS_13TreeContainerINS_12SmartPointerIN3otb8DataNodeIdLj2EdEEEEEEE3AddES6_@Base 5.0.0
 _ZN3itk16TreeIteratorBaseINS_13TreeContainerINS_12SmartPointerIN3otb8DataNodeIdLj2EdEEEEEEE3AddEiS6_@Base 5.0.0
 _ZN3itk16TreeIteratorBaseINS_13TreeContainerINS_12SmartPointerIN3otb8DataNodeIdLj2EdEEEEEEE5CountEv@Base 5.0.0
 _ZN3itk16TreeIteratorBaseINS_13TreeContainerINS_12SmartPointerIN3otb8DataNodeIdLj2EdEEEEEEE6RemoveEv@Base 5.0.0
 _ZN3itk16TreeIteratorBaseINS_13TreeContainerINS_12SmartPointerIN3otb8DataNodeIdLj2EdEEEEEEE7GetNodeEv@Base 5.0.0
 _ZN3itk16TreeIteratorBaseINS_13TreeContainerINS_12SmartPointerIN3otb8DataNodeIdLj2EdEEEEEEE7ParentsEv@Base 5.0.0
 _ZN3itk16TreeIteratorBaseINS_13TreeContainerINS_12SmartPointerIN3otb8DataNodeIdLj2EdEEEEEEE8ChildrenEv@Base 5.0.0
 _ZN3itk16TreeIteratorBaseINS_13TreeContainerINS_12SmartPointerIN3otb8DataNodeIdLj2EdEEEEEEE9GoToChildEl@Base 5.0.0
 _ZN3itk17IdentityTransformIdLj2EE13SetParametersERKNS_19OptimizerParametersIdEE@Base 5.0.0
 _ZN3itk17IdentityTransformIdLj2EE18SetFixedParametersERKNS_19OptimizerParametersIdEE@Base 5.0.0
 _ZN3itk17IdentityTransformIdLj2EE3NewEv@Base 5.0.0
 _ZN3itk17IdentityTransformIdLj2EED0Ev@Base 5.0.0
 _ZN3itk17IdentityTransformIdLj2EED1Ev@Base 5.0.0
 _ZN3itk17IdentityTransformIdLj2EED2Ev@Base 5.0.0
 _ZN3itk18ConvertPixelBufferIcNS_8RGBPixelIhEEN3otb25DefaultConvertPixelTraitsIS2_EEE7ConvertEPciPS2_m@Base 5.0.0
 _ZN3itk18ConvertPixelBufferIcNS_9RGBAPixelIhEEN3otb25DefaultConvertPixelTraitsIS2_EEE7ConvertEPciPS2_m@Base 5.0.0
 _ZN3itk18ConvertPixelBufferIcdN3otb25DefaultConvertPixelTraitsIdEEE7ConvertEPciPdm@Base 5.0.0
 _ZN3itk18ConvertPixelBufferIcfN3otb25DefaultConvertPixelTraitsIfEEE7ConvertEPciPfm@Base 5.0.0
 _ZN3itk18ConvertPixelBufferIchN3otb25DefaultConvertPixelTraitsIhEEE7ConvertEPciPhm@Base 5.0.0
 _ZN3itk18ConvertPixelBufferIciN3otb25DefaultConvertPixelTraitsIiEEE7ConvertEPciPim@Base 5.0.0
 _ZN3itk18ConvertPixelBufferIcjN3otb25DefaultConvertPixelTraitsIjEEE7ConvertEPciPjm@Base 5.0.0
 _ZN3itk18ConvertPixelBufferIcsN3otb25DefaultConvertPixelTraitsIsEEE7ConvertEPciPsm@Base 5.0.0
 _ZN3itk18ConvertPixelBufferIctN3otb25DefaultConvertPixelTraitsItEEE7ConvertEPciPtm@Base 5.0.0
 _ZN3itk18ConvertPixelBufferIdNS_8RGBPixelIhEEN3otb25DefaultConvertPixelTraitsIS2_EEE7ConvertEPdiPS2_m@Base 5.0.0
 _ZN3itk18ConvertPixelBufferIdNS_9RGBAPixelIhEEN3otb25DefaultConvertPixelTraitsIS2_EEE7ConvertEPdiPS2_m@Base 5.0.0
 _ZN3itk18ConvertPixelBufferIdSt7complexIdEN3otb25DefaultConvertPixelTraitsIS2_EEE18ConvertVectorImageEPdiPS2_m@Base 5.0.0
 _ZN3itk18ConvertPixelBufferIddN3otb25DefaultConvertPixelTraitsIdEEE7ConvertEPdiS5_m@Base 5.0.0
 _ZN3itk18ConvertPixelBufferIdfN3otb25DefaultConvertPixelTraitsIfEEE7ConvertEPdiPfm@Base 5.0.0
 _ZN3itk18ConvertPixelBufferIdhN3otb25DefaultConvertPixelTraitsIhEEE7ConvertEPdiPhm@Base 5.0.0
 _ZN3itk18ConvertPixelBufferIdiN3otb25DefaultConvertPixelTraitsIiEEE7ConvertEPdiPim@Base 5.0.0
 _ZN3itk18ConvertPixelBufferIdjN3otb25DefaultConvertPixelTraitsIjEEE7ConvertEPdiPjm@Base 5.0.0
 _ZN3itk18ConvertPixelBufferIdsN3otb25DefaultConvertPixelTraitsIsEEE7ConvertEPdiPsm@Base 5.0.0
 _ZN3itk18ConvertPixelBufferIdtN3otb25DefaultConvertPixelTraitsItEEE7ConvertEPdiPtm@Base 5.0.0
 _ZN3itk18ConvertPixelBufferIfNS_8RGBPixelIhEEN3otb25DefaultConvertPixelTraitsIS2_EEE7ConvertEPfiPS2_m@Base 5.0.0
 _ZN3itk18ConvertPixelBufferIfNS_9RGBAPixelIhEEN3otb25DefaultConvertPixelTraitsIS2_EEE7ConvertEPfiPS2_m@Base 5.0.0
 _ZN3itk18ConvertPixelBufferIfSt7complexIdEN3otb25DefaultConvertPixelTraitsIS2_EEE18ConvertVectorImageEPfiPS2_m@Base 5.0.0
 _ZN3itk18ConvertPixelBufferIfdN3otb25DefaultConvertPixelTraitsIdEEE7ConvertEPfiPdm@Base 5.0.0
 _ZN3itk18ConvertPixelBufferIffN3otb25DefaultConvertPixelTraitsIfEEE7ConvertEPfiS5_m@Base 5.0.0
 _ZN3itk18ConvertPixelBufferIfhN3otb25DefaultConvertPixelTraitsIhEEE7ConvertEPfiPhm@Base 5.0.0
 _ZN3itk18ConvertPixelBufferIfiN3otb25DefaultConvertPixelTraitsIiEEE7ConvertEPfiPim@Base 5.0.0
 _ZN3itk18ConvertPixelBufferIfjN3otb25DefaultConvertPixelTraitsIjEEE7ConvertEPfiPjm@Base 5.0.0
 _ZN3itk18ConvertPixelBufferIfsN3otb25DefaultConvertPixelTraitsIsEEE7ConvertEPfiPsm@Base 5.0.0
 _ZN3itk18ConvertPixelBufferIftN3otb25DefaultConvertPixelTraitsItEEE7ConvertEPfiPtm@Base 5.0.0
 _ZN3itk18ConvertPixelBufferIhNS_8RGBPixelIhEEN3otb25DefaultConvertPixelTraitsIS2_EEE7ConvertEPhiPS2_m@Base 5.0.0
 _ZN3itk18ConvertPixelBufferIhNS_9RGBAPixelIhEEN3otb25DefaultConvertPixelTraitsIS2_EEE7ConvertEPhiPS2_m@Base 5.0.0
 _ZN3itk18ConvertPixelBufferIhdN3otb25DefaultConvertPixelTraitsIdEEE7ConvertEPhiPdm@Base 5.0.0
 _ZN3itk18ConvertPixelBufferIhfN3otb25DefaultConvertPixelTraitsIfEEE7ConvertEPhiPfm@Base 5.0.0
 _ZN3itk18ConvertPixelBufferIhhN3otb25DefaultConvertPixelTraitsIhEEE7ConvertEPhiS5_m@Base 5.0.0
 _ZN3itk18ConvertPixelBufferIhiN3otb25DefaultConvertPixelTraitsIiEEE7ConvertEPhiPim@Base 5.0.0
 _ZN3itk18ConvertPixelBufferIhjN3otb25DefaultConvertPixelTraitsIjEEE7ConvertEPhiPjm@Base 5.0.0
 _ZN3itk18ConvertPixelBufferIhsN3otb25DefaultConvertPixelTraitsIsEEE7ConvertEPhiPsm@Base 5.0.0
 _ZN3itk18ConvertPixelBufferIhtN3otb25DefaultConvertPixelTraitsItEEE7ConvertEPhiPtm@Base 5.0.0
 _ZN3itk18ConvertPixelBufferIiNS_8RGBPixelIhEEN3otb25DefaultConvertPixelTraitsIS2_EEE7ConvertEPiiPS2_m@Base 5.0.0
 _ZN3itk18ConvertPixelBufferIiNS_9RGBAPixelIhEEN3otb25DefaultConvertPixelTraitsIS2_EEE7ConvertEPiiPS2_m@Base 5.0.0
 _ZN3itk18ConvertPixelBufferIiSt7complexIdEN3otb25DefaultConvertPixelTraitsIS2_EEE18ConvertVectorImageEPiiPS2_m@Base 5.0.0
 _ZN3itk18ConvertPixelBufferIiSt7complexIfEN3otb25DefaultConvertPixelTraitsIS2_EEE18ConvertVectorImageEPiiPS2_m@Base 5.0.0
 _ZN3itk18ConvertPixelBufferIidN3otb25DefaultConvertPixelTraitsIdEEE7ConvertEPiiPdm@Base 5.0.0
 _ZN3itk18ConvertPixelBufferIifN3otb25DefaultConvertPixelTraitsIfEEE7ConvertEPiiPfm@Base 5.0.0
 _ZN3itk18ConvertPixelBufferIihN3otb25DefaultConvertPixelTraitsIhEEE7ConvertEPiiPhm@Base 5.0.0
 _ZN3itk18ConvertPixelBufferIiiN3otb25DefaultConvertPixelTraitsIiEEE7ConvertEPiiS5_m@Base 5.0.0
 _ZN3itk18ConvertPixelBufferIijN3otb25DefaultConvertPixelTraitsIjEEE7ConvertEPiiPjm@Base 5.0.0
 _ZN3itk18ConvertPixelBufferIisN3otb25DefaultConvertPixelTraitsIsEEE7ConvertEPiiPsm@Base 5.0.0
 _ZN3itk18ConvertPixelBufferIitN3otb25DefaultConvertPixelTraitsItEEE7ConvertEPiiPtm@Base 5.0.0
 _ZN3itk18ConvertPixelBufferIjNS_8RGBPixelIhEEN3otb25DefaultConvertPixelTraitsIS2_EEE7ConvertEPjiPS2_m@Base 5.0.0
 _ZN3itk18ConvertPixelBufferIjNS_9RGBAPixelIhEEN3otb25DefaultConvertPixelTraitsIS2_EEE7ConvertEPjiPS2_m@Base 5.0.0
 _ZN3itk18ConvertPixelBufferIjSt7complexIdEN3otb25DefaultConvertPixelTraitsIS2_EEE18ConvertVectorImageEPjiPS2_m@Base 5.0.0
 _ZN3itk18ConvertPixelBufferIjSt7complexIfEN3otb25DefaultConvertPixelTraitsIS2_EEE18ConvertVectorImageEPjiPS2_m@Base 5.0.0
 _ZN3itk18ConvertPixelBufferIjdN3otb25DefaultConvertPixelTraitsIdEEE7ConvertEPjiPdm@Base 5.0.0
 _ZN3itk18ConvertPixelBufferIjfN3otb25DefaultConvertPixelTraitsIfEEE7ConvertEPjiPfm@Base 5.0.0
 _ZN3itk18ConvertPixelBufferIjhN3otb25DefaultConvertPixelTraitsIhEEE7ConvertEPjiPhm@Base 5.0.0
 _ZN3itk18ConvertPixelBufferIjiN3otb25DefaultConvertPixelTraitsIiEEE7ConvertEPjiPim@Base 5.0.0
 _ZN3itk18ConvertPixelBufferIjjN3otb25DefaultConvertPixelTraitsIjEEE7ConvertEPjiS5_m@Base 5.0.0
 _ZN3itk18ConvertPixelBufferIjsN3otb25DefaultConvertPixelTraitsIsEEE7ConvertEPjiPsm@Base 5.0.0
 _ZN3itk18ConvertPixelBufferIjtN3otb25DefaultConvertPixelTraitsItEEE7ConvertEPjiPtm@Base 5.0.0
 _ZN3itk18ConvertPixelBufferIlNS_8RGBPixelIhEEN3otb25DefaultConvertPixelTraitsIS2_EEE7ConvertEPliPS2_m@Base 5.0.0
 _ZN3itk18ConvertPixelBufferIlNS_9RGBAPixelIhEEN3otb25DefaultConvertPixelTraitsIS2_EEE7ConvertEPliPS2_m@Base 5.0.0
 _ZN3itk18ConvertPixelBufferIlSt7complexIdEN3otb25DefaultConvertPixelTraitsIS2_EEE18ConvertVectorImageEPliPS2_m@Base 5.0.0
 _ZN3itk18ConvertPixelBufferIlSt7complexIfEN3otb25DefaultConvertPixelTraitsIS2_EEE18ConvertVectorImageEPliPS2_m@Base 5.0.0
 _ZN3itk18ConvertPixelBufferIldN3otb25DefaultConvertPixelTraitsIdEEE7ConvertEPliPdm@Base 5.0.0
 _ZN3itk18ConvertPixelBufferIlfN3otb25DefaultConvertPixelTraitsIfEEE7ConvertEPliPfm@Base 5.0.0
 _ZN3itk18ConvertPixelBufferIlhN3otb25DefaultConvertPixelTraitsIhEEE7ConvertEPliPhm@Base 5.0.0
 _ZN3itk18ConvertPixelBufferIliN3otb25DefaultConvertPixelTraitsIiEEE7ConvertEPliPim@Base 5.0.0
 _ZN3itk18ConvertPixelBufferIljN3otb25DefaultConvertPixelTraitsIjEEE7ConvertEPliPjm@Base 5.0.0
 _ZN3itk18ConvertPixelBufferIlsN3otb25DefaultConvertPixelTraitsIsEEE7ConvertEPliPsm@Base 5.0.0
 _ZN3itk18ConvertPixelBufferIltN3otb25DefaultConvertPixelTraitsItEEE7ConvertEPliPtm@Base 5.0.0
 _ZN3itk18ConvertPixelBufferImNS_8RGBPixelIhEEN3otb25DefaultConvertPixelTraitsIS2_EEE7ConvertEPmiPS2_m@Base 5.0.0
 _ZN3itk18ConvertPixelBufferImNS_9RGBAPixelIhEEN3otb25DefaultConvertPixelTraitsIS2_EEE7ConvertEPmiPS2_m@Base 5.0.0
 _ZN3itk18ConvertPixelBufferImSt7complexIdEN3otb25DefaultConvertPixelTraitsIS2_EEE18ConvertVectorImageEPmiPS2_m@Base 5.0.0
 _ZN3itk18ConvertPixelBufferImSt7complexIfEN3otb25DefaultConvertPixelTraitsIS2_EEE18ConvertVectorImageEPmiPS2_m@Base 5.0.0
 _ZN3itk18ConvertPixelBufferImdN3otb25DefaultConvertPixelTraitsIdEEE7ConvertEPmiPdm@Base 5.0.0
 _ZN3itk18ConvertPixelBufferImfN3otb25DefaultConvertPixelTraitsIfEEE7ConvertEPmiPfm@Base 5.0.0
 _ZN3itk18ConvertPixelBufferImhN3otb25DefaultConvertPixelTraitsIhEEE7ConvertEPmiPhm@Base 5.0.0
 _ZN3itk18ConvertPixelBufferImiN3otb25DefaultConvertPixelTraitsIiEEE7ConvertEPmiPim@Base 5.0.0
 _ZN3itk18ConvertPixelBufferImjN3otb25DefaultConvertPixelTraitsIjEEE7ConvertEPmiPjm@Base 5.0.0
 _ZN3itk18ConvertPixelBufferImsN3otb25DefaultConvertPixelTraitsIsEEE7ConvertEPmiPsm@Base 5.0.0
 _ZN3itk18ConvertPixelBufferImtN3otb25DefaultConvertPixelTraitsItEEE7ConvertEPmiPtm@Base 5.0.0
 _ZN3itk18ConvertPixelBufferIsNS_8RGBPixelIhEEN3otb25DefaultConvertPixelTraitsIS2_EEE7ConvertEPsiPS2_m@Base 5.0.0
 _ZN3itk18ConvertPixelBufferIsNS_9RGBAPixelIhEEN3otb25DefaultConvertPixelTraitsIS2_EEE7ConvertEPsiPS2_m@Base 5.0.0
 _ZN3itk18ConvertPixelBufferIsSt7complexIdEN3otb25DefaultConvertPixelTraitsIS2_EEE18ConvertVectorImageEPsiPS2_m@Base 5.0.0
 _ZN3itk18ConvertPixelBufferIsdN3otb25DefaultConvertPixelTraitsIdEEE7ConvertEPsiPdm@Base 5.0.0
 _ZN3itk18ConvertPixelBufferIsfN3otb25DefaultConvertPixelTraitsIfEEE7ConvertEPsiPfm@Base 5.0.0
 _ZN3itk18ConvertPixelBufferIshN3otb25DefaultConvertPixelTraitsIhEEE7ConvertEPsiPhm@Base 5.0.0
 _ZN3itk18ConvertPixelBufferIsiN3otb25DefaultConvertPixelTraitsIiEEE7ConvertEPsiPim@Base 5.0.0
 _ZN3itk18ConvertPixelBufferIsjN3otb25DefaultConvertPixelTraitsIjEEE7ConvertEPsiPjm@Base 5.0.0
 _ZN3itk18ConvertPixelBufferIssN3otb25DefaultConvertPixelTraitsIsEEE7ConvertEPsiS5_m@Base 5.0.0
 _ZN3itk18ConvertPixelBufferIstN3otb25DefaultConvertPixelTraitsItEEE7ConvertEPsiPtm@Base 5.0.0
 _ZN3itk18ConvertPixelBufferItNS_8RGBPixelIhEEN3otb25DefaultConvertPixelTraitsIS2_EEE7ConvertEPtiPS2_m@Base 5.0.0
 _ZN3itk18ConvertPixelBufferItNS_9RGBAPixelIhEEN3otb25DefaultConvertPixelTraitsIS2_EEE7ConvertEPtiPS2_m@Base 5.0.0
 _ZN3itk18ConvertPixelBufferItdN3otb25DefaultConvertPixelTraitsIdEEE7ConvertEPtiPdm@Base 5.0.0
 _ZN3itk18ConvertPixelBufferItfN3otb25DefaultConvertPixelTraitsIfEEE7ConvertEPtiPfm@Base 5.0.0
 _ZN3itk18ConvertPixelBufferIthN3otb25DefaultConvertPixelTraitsIhEEE7ConvertEPtiPhm@Base 5.0.0
 _ZN3itk18ConvertPixelBufferItiN3otb25DefaultConvertPixelTraitsIiEEE7ConvertEPtiPim@Base 5.0.0
 _ZN3itk18ConvertPixelBufferItjN3otb25DefaultConvertPixelTraitsIjEEE7ConvertEPtiPjm@Base 5.0.0
 _ZN3itk18ConvertPixelBufferItsN3otb25DefaultConvertPixelTraitsIsEEE7ConvertEPtiPsm@Base 5.0.0
 _ZN3itk18ConvertPixelBufferIttN3otb25DefaultConvertPixelTraitsItEEE7ConvertEPtiS5_m@Base 5.0.0
 _ZN3itk18ExtractImageFilterIN3otb11VectorImageISt7complexIdELj2EEES5_E12GenerateDataEv@Base 5.0.0
 _ZN3itk18ExtractImageFilterIN3otb11VectorImageISt7complexIdELj2EEES5_E19SetExtractionRegionENS_11ImageRegionILj2EEE@Base 5.0.0
 _ZN3itk18ExtractImageFilterIN3otb11VectorImageISt7complexIdELj2EEES5_E20ThreadedGenerateDataERKNS_11ImageRegionILj2EEEj@Base 5.0.0
 _ZN3itk18ExtractImageFilterIN3otb11VectorImageISt7complexIdELj2EEES5_E25GenerateOutputInformationEv@Base 5.0.0
 _ZN3itk18ExtractImageFilterIN3otb11VectorImageISt7complexIdELj2EEES5_E33CallCopyOutputRegionToInputRegionERNS_11ImageRegionILj2EEERKS8_@Base 5.0.0
 _ZN3itk18ExtractImageFilterIN3otb11VectorImageISt7complexIdELj2EEES5_ED0Ev@Base 5.0.0
 _ZN3itk18ExtractImageFilterIN3otb11VectorImageISt7complexIdELj2EEES5_ED1Ev@Base 5.0.0
 _ZN3itk18ExtractImageFilterIN3otb11VectorImageISt7complexIdELj2EEES5_ED2Ev@Base 5.0.0
 _ZN3itk18ExtractImageFilterIN3otb11VectorImageISt7complexIfELj2EEES5_E12GenerateDataEv@Base 5.0.0
 _ZN3itk18ExtractImageFilterIN3otb11VectorImageISt7complexIfELj2EEES5_E19SetExtractionRegionENS_11ImageRegionILj2EEE@Base 5.0.0
 _ZN3itk18ExtractImageFilterIN3otb11VectorImageISt7complexIfELj2EEES5_E20ThreadedGenerateDataERKNS_11ImageRegionILj2EEEj@Base 5.0.0
 _ZN3itk18ExtractImageFilterIN3otb11VectorImageISt7complexIfELj2EEES5_E25GenerateOutputInformationEv@Base 5.0.0
 _ZN3itk18ExtractImageFilterIN3otb11VectorImageISt7complexIfELj2EEES5_E33CallCopyOutputRegionToInputRegionERNS_11ImageRegionILj2EEERKS8_@Base 5.0.0
 _ZN3itk18ExtractImageFilterIN3otb11VectorImageISt7complexIfELj2EEES5_ED0Ev@Base 5.0.0
 _ZN3itk18ExtractImageFilterIN3otb11VectorImageISt7complexIfELj2EEES5_ED1Ev@Base 5.0.0
 _ZN3itk18ExtractImageFilterIN3otb11VectorImageISt7complexIfELj2EEES5_ED2Ev@Base 5.0.0
 _ZN3itk18ExtractImageFilterIN3otb11VectorImageIdLj2EEES3_E12GenerateDataEv@Base 5.0.0
 _ZN3itk18ExtractImageFilterIN3otb11VectorImageIdLj2EEES3_E19SetExtractionRegionENS_11ImageRegionILj2EEE@Base 5.0.0
 _ZN3itk18ExtractImageFilterIN3otb11VectorImageIdLj2EEES3_E20ThreadedGenerateDataERKNS_11ImageRegionILj2EEEj@Base 5.0.0
 _ZN3itk18ExtractImageFilterIN3otb11VectorImageIdLj2EEES3_E25GenerateOutputInformationEv@Base 5.0.0
 _ZN3itk18ExtractImageFilterIN3otb11VectorImageIdLj2EEES3_E33CallCopyOutputRegionToInputRegionERNS_11ImageRegionILj2EEERKS6_@Base 5.0.0
 _ZN3itk18ExtractImageFilterIN3otb11VectorImageIdLj2EEES3_ED0Ev@Base 5.0.0
 _ZN3itk18ExtractImageFilterIN3otb11VectorImageIdLj2EEES3_ED1Ev@Base 5.0.0
 _ZN3itk18ExtractImageFilterIN3otb11VectorImageIdLj2EEES3_ED2Ev@Base 5.0.0
 _ZN3itk18ExtractImageFilterIN3otb11VectorImageIfLj2EEES3_E12GenerateDataEv@Base 5.0.0
 _ZN3itk18ExtractImageFilterIN3otb11VectorImageIfLj2EEES3_E19SetExtractionRegionENS_11ImageRegionILj2EEE@Base 5.0.0
 _ZN3itk18ExtractImageFilterIN3otb11VectorImageIfLj2EEES3_E20ThreadedGenerateDataERKNS_11ImageRegionILj2EEEj@Base 5.0.0
 _ZN3itk18ExtractImageFilterIN3otb11VectorImageIfLj2EEES3_E25GenerateOutputInformationEv@Base 5.0.0
 _ZN3itk18ExtractImageFilterIN3otb11VectorImageIfLj2EEES3_E33CallCopyOutputRegionToInputRegionERNS_11ImageRegionILj2EEERKS6_@Base 5.0.0
 _ZN3itk18ExtractImageFilterIN3otb11VectorImageIfLj2EEES3_ED0Ev@Base 5.0.0
 _ZN3itk18ExtractImageFilterIN3otb11VectorImageIfLj2EEES3_ED1Ev@Base 5.0.0
 _ZN3itk18ExtractImageFilterIN3otb11VectorImageIfLj2EEES3_ED2Ev@Base 5.0.0
 _ZN3itk18ExtractImageFilterIN3otb11VectorImageIhLj2EEES3_E12GenerateDataEv@Base 5.0.0
 _ZN3itk18ExtractImageFilterIN3otb11VectorImageIhLj2EEES3_E19SetExtractionRegionENS_11ImageRegionILj2EEE@Base 5.0.0
 _ZN3itk18ExtractImageFilterIN3otb11VectorImageIhLj2EEES3_E20ThreadedGenerateDataERKNS_11ImageRegionILj2EEEj@Base 5.0.0
 _ZN3itk18ExtractImageFilterIN3otb11VectorImageIhLj2EEES3_E25GenerateOutputInformationEv@Base 5.0.0
 _ZN3itk18ExtractImageFilterIN3otb11VectorImageIhLj2EEES3_E33CallCopyOutputRegionToInputRegionERNS_11ImageRegionILj2EEERKS6_@Base 5.0.0
 _ZN3itk18ExtractImageFilterIN3otb11VectorImageIhLj2EEES3_ED0Ev@Base 5.0.0
 _ZN3itk18ExtractImageFilterIN3otb11VectorImageIhLj2EEES3_ED1Ev@Base 5.0.0
 _ZN3itk18ExtractImageFilterIN3otb11VectorImageIhLj2EEES3_ED2Ev@Base 5.0.0
 _ZN3itk18ExtractImageFilterIN3otb11VectorImageIiLj2EEES3_E12GenerateDataEv@Base 5.0.0
 _ZN3itk18ExtractImageFilterIN3otb11VectorImageIiLj2EEES3_E19SetExtractionRegionENS_11ImageRegionILj2EEE@Base 5.0.0
 _ZN3itk18ExtractImageFilterIN3otb11VectorImageIiLj2EEES3_E20ThreadedGenerateDataERKNS_11ImageRegionILj2EEEj@Base 5.0.0
 _ZN3itk18ExtractImageFilterIN3otb11VectorImageIiLj2EEES3_E25GenerateOutputInformationEv@Base 5.0.0
 _ZN3itk18ExtractImageFilterIN3otb11VectorImageIiLj2EEES3_E33CallCopyOutputRegionToInputRegionERNS_11ImageRegionILj2EEERKS6_@Base 5.0.0
 _ZN3itk18ExtractImageFilterIN3otb11VectorImageIiLj2EEES3_ED0Ev@Base 5.0.0
 _ZN3itk18ExtractImageFilterIN3otb11VectorImageIiLj2EEES3_ED1Ev@Base 5.0.0
 _ZN3itk18ExtractImageFilterIN3otb11VectorImageIiLj2EEES3_ED2Ev@Base 5.0.0
 _ZN3itk18ExtractImageFilterIN3otb11VectorImageIjLj2EEES3_E12GenerateDataEv@Base 5.0.0
 _ZN3itk18ExtractImageFilterIN3otb11VectorImageIjLj2EEES3_E19SetExtractionRegionENS_11ImageRegionILj2EEE@Base 5.0.0
 _ZN3itk18ExtractImageFilterIN3otb11VectorImageIjLj2EEES3_E20ThreadedGenerateDataERKNS_11ImageRegionILj2EEEj@Base 5.0.0
 _ZN3itk18ExtractImageFilterIN3otb11VectorImageIjLj2EEES3_E25GenerateOutputInformationEv@Base 5.0.0
 _ZN3itk18ExtractImageFilterIN3otb11VectorImageIjLj2EEES3_E33CallCopyOutputRegionToInputRegionERNS_11ImageRegionILj2EEERKS6_@Base 5.0.0
 _ZN3itk18ExtractImageFilterIN3otb11VectorImageIjLj2EEES3_ED0Ev@Base 5.0.0
 _ZN3itk18ExtractImageFilterIN3otb11VectorImageIjLj2EEES3_ED1Ev@Base 5.0.0
 _ZN3itk18ExtractImageFilterIN3otb11VectorImageIjLj2EEES3_ED2Ev@Base 5.0.0
 _ZN3itk18ExtractImageFilterIN3otb11VectorImageIsLj2EEES3_E12GenerateDataEv@Base 5.0.0
 _ZN3itk18ExtractImageFilterIN3otb11VectorImageIsLj2EEES3_E19SetExtractionRegionENS_11ImageRegionILj2EEE@Base 5.0.0
 _ZN3itk18ExtractImageFilterIN3otb11VectorImageIsLj2EEES3_E20ThreadedGenerateDataERKNS_11ImageRegionILj2EEEj@Base 5.0.0
 _ZN3itk18ExtractImageFilterIN3otb11VectorImageIsLj2EEES3_E25GenerateOutputInformationEv@Base 5.0.0
 _ZN3itk18ExtractImageFilterIN3otb11VectorImageIsLj2EEES3_E33CallCopyOutputRegionToInputRegionERNS_11ImageRegionILj2EEERKS6_@Base 5.0.0
 _ZN3itk18ExtractImageFilterIN3otb11VectorImageIsLj2EEES3_ED0Ev@Base 5.0.0
 _ZN3itk18ExtractImageFilterIN3otb11VectorImageIsLj2EEES3_ED1Ev@Base 5.0.0
 _ZN3itk18ExtractImageFilterIN3otb11VectorImageIsLj2EEES3_ED2Ev@Base 5.0.0
 _ZN3itk18ExtractImageFilterIN3otb11VectorImageItLj2EEES3_E12GenerateDataEv@Base 5.0.0
 _ZN3itk18ExtractImageFilterIN3otb11VectorImageItLj2EEES3_E19SetExtractionRegionENS_11ImageRegionILj2EEE@Base 5.0.0
 _ZN3itk18ExtractImageFilterIN3otb11VectorImageItLj2EEES3_E20ThreadedGenerateDataERKNS_11ImageRegionILj2EEEj@Base 5.0.0
 _ZN3itk18ExtractImageFilterIN3otb11VectorImageItLj2EEES3_E25GenerateOutputInformationEv@Base 5.0.0
 _ZN3itk18ExtractImageFilterIN3otb11VectorImageItLj2EEES3_E33CallCopyOutputRegionToInputRegionERNS_11ImageRegionILj2EEERKS6_@Base 5.0.0
 _ZN3itk18ExtractImageFilterIN3otb11VectorImageItLj2EEES3_ED0Ev@Base 5.0.0
 _ZN3itk18ExtractImageFilterIN3otb11VectorImageItLj2EEES3_ED1Ev@Base 5.0.0
 _ZN3itk18ExtractImageFilterIN3otb11VectorImageItLj2EEES3_ED2Ev@Base 5.0.0
 _ZN3itk18ExtractImageFilterIN3otb5ImageINS_8RGBPixelIhEELj2EEES5_E12GenerateDataEv@Base 5.0.0
 _ZN3itk18ExtractImageFilterIN3otb5ImageINS_8RGBPixelIhEELj2EEES5_E19SetExtractionRegionENS_11ImageRegionILj2EEE@Base 5.0.0
 _ZN3itk18ExtractImageFilterIN3otb5ImageINS_8RGBPixelIhEELj2EEES5_E20ThreadedGenerateDataERKNS_11ImageRegionILj2EEEj@Base 5.0.0
 _ZN3itk18ExtractImageFilterIN3otb5ImageINS_8RGBPixelIhEELj2EEES5_E25GenerateOutputInformationEv@Base 5.0.0
 _ZN3itk18ExtractImageFilterIN3otb5ImageINS_8RGBPixelIhEELj2EEES5_E33CallCopyOutputRegionToInputRegionERNS_11ImageRegionILj2EEERKS8_@Base 5.0.0
 _ZN3itk18ExtractImageFilterIN3otb5ImageINS_8RGBPixelIhEELj2EEES5_ED0Ev@Base 5.0.0
 _ZN3itk18ExtractImageFilterIN3otb5ImageINS_8RGBPixelIhEELj2EEES5_ED1Ev@Base 5.0.0
 _ZN3itk18ExtractImageFilterIN3otb5ImageINS_8RGBPixelIhEELj2EEES5_ED2Ev@Base 5.0.0
 _ZN3itk18ExtractImageFilterIN3otb5ImageINS_9RGBAPixelIhEELj2EEES5_E12GenerateDataEv@Base 5.0.0
 _ZN3itk18ExtractImageFilterIN3otb5ImageINS_9RGBAPixelIhEELj2EEES5_E19SetExtractionRegionENS_11ImageRegionILj2EEE@Base 5.0.0
 _ZN3itk18ExtractImageFilterIN3otb5ImageINS_9RGBAPixelIhEELj2EEES5_E20ThreadedGenerateDataERKNS_11ImageRegionILj2EEEj@Base 5.0.0
 _ZN3itk18ExtractImageFilterIN3otb5ImageINS_9RGBAPixelIhEELj2EEES5_E25GenerateOutputInformationEv@Base 5.0.0
 _ZN3itk18ExtractImageFilterIN3otb5ImageINS_9RGBAPixelIhEELj2EEES5_E33CallCopyOutputRegionToInputRegionERNS_11ImageRegionILj2EEERKS8_@Base 5.0.0
 _ZN3itk18ExtractImageFilterIN3otb5ImageINS_9RGBAPixelIhEELj2EEES5_ED0Ev@Base 5.0.0
 _ZN3itk18ExtractImageFilterIN3otb5ImageINS_9RGBAPixelIhEELj2EEES5_ED1Ev@Base 5.0.0
 _ZN3itk18ExtractImageFilterIN3otb5ImageINS_9RGBAPixelIhEELj2EEES5_ED2Ev@Base 5.0.0
 _ZN3itk18ExtractImageFilterIN3otb5ImageISt7complexIdELj2EEES5_E12GenerateDataEv@Base 5.0.0
 _ZN3itk18ExtractImageFilterIN3otb5ImageISt7complexIdELj2EEES5_E19SetExtractionRegionENS_11ImageRegionILj2EEE@Base 5.0.0
 _ZN3itk18ExtractImageFilterIN3otb5ImageISt7complexIdELj2EEES5_E20ThreadedGenerateDataERKNS_11ImageRegionILj2EEEj@Base 5.0.0
 _ZN3itk18ExtractImageFilterIN3otb5ImageISt7complexIdELj2EEES5_E25GenerateOutputInformationEv@Base 5.0.0
 _ZN3itk18ExtractImageFilterIN3otb5ImageISt7complexIdELj2EEES5_E33CallCopyOutputRegionToInputRegionERNS_11ImageRegionILj2EEERKS8_@Base 5.0.0
 _ZN3itk18ExtractImageFilterIN3otb5ImageISt7complexIdELj2EEES5_ED0Ev@Base 5.0.0
 _ZN3itk18ExtractImageFilterIN3otb5ImageISt7complexIdELj2EEES5_ED1Ev@Base 5.0.0
 _ZN3itk18ExtractImageFilterIN3otb5ImageISt7complexIdELj2EEES5_ED2Ev@Base 5.0.0
 _ZN3itk18ExtractImageFilterIN3otb5ImageISt7complexIfELj2EEES5_E12GenerateDataEv@Base 5.0.0
 _ZN3itk18ExtractImageFilterIN3otb5ImageISt7complexIfELj2EEES5_E19SetExtractionRegionENS_11ImageRegionILj2EEE@Base 5.0.0
 _ZN3itk18ExtractImageFilterIN3otb5ImageISt7complexIfELj2EEES5_E20ThreadedGenerateDataERKNS_11ImageRegionILj2EEEj@Base 5.0.0
 _ZN3itk18ExtractImageFilterIN3otb5ImageISt7complexIfELj2EEES5_E25GenerateOutputInformationEv@Base 5.0.0
 _ZN3itk18ExtractImageFilterIN3otb5ImageISt7complexIfELj2EEES5_E33CallCopyOutputRegionToInputRegionERNS_11ImageRegionILj2EEERKS8_@Base 5.0.0
 _ZN3itk18ExtractImageFilterIN3otb5ImageISt7complexIfELj2EEES5_ED0Ev@Base 5.0.0
 _ZN3itk18ExtractImageFilterIN3otb5ImageISt7complexIfELj2EEES5_ED1Ev@Base 5.0.0
 _ZN3itk18ExtractImageFilterIN3otb5ImageISt7complexIfELj2EEES5_ED2Ev@Base 5.0.0
 _ZN3itk18ExtractImageFilterIN3otb5ImageIdLj2EEES3_E12GenerateDataEv@Base 5.0.0
 _ZN3itk18ExtractImageFilterIN3otb5ImageIdLj2EEES3_E19SetExtractionRegionENS_11ImageRegionILj2EEE@Base 5.0.0
 _ZN3itk18ExtractImageFilterIN3otb5ImageIdLj2EEES3_E20ThreadedGenerateDataERKNS_11ImageRegionILj2EEEj@Base 5.0.0
 _ZN3itk18ExtractImageFilterIN3otb5ImageIdLj2EEES3_E25GenerateOutputInformationEv@Base 5.0.0
 _ZN3itk18ExtractImageFilterIN3otb5ImageIdLj2EEES3_E33CallCopyOutputRegionToInputRegionERNS_11ImageRegionILj2EEERKS6_@Base 5.0.0
 _ZN3itk18ExtractImageFilterIN3otb5ImageIdLj2EEES3_ED0Ev@Base 5.0.0
 _ZN3itk18ExtractImageFilterIN3otb5ImageIdLj2EEES3_ED1Ev@Base 5.0.0
 _ZN3itk18ExtractImageFilterIN3otb5ImageIdLj2EEES3_ED2Ev@Base 5.0.0
 _ZN3itk18ExtractImageFilterIN3otb5ImageIfLj2EEES3_E12GenerateDataEv@Base 5.0.0
 _ZN3itk18ExtractImageFilterIN3otb5ImageIfLj2EEES3_E19SetExtractionRegionENS_11ImageRegionILj2EEE@Base 5.0.0
 _ZN3itk18ExtractImageFilterIN3otb5ImageIfLj2EEES3_E20ThreadedGenerateDataERKNS_11ImageRegionILj2EEEj@Base 5.0.0
 _ZN3itk18ExtractImageFilterIN3otb5ImageIfLj2EEES3_E25GenerateOutputInformationEv@Base 5.0.0
 _ZN3itk18ExtractImageFilterIN3otb5ImageIfLj2EEES3_E33CallCopyOutputRegionToInputRegionERNS_11ImageRegionILj2EEERKS6_@Base 5.0.0
 _ZN3itk18ExtractImageFilterIN3otb5ImageIfLj2EEES3_ED0Ev@Base 5.0.0
 _ZN3itk18ExtractImageFilterIN3otb5ImageIfLj2EEES3_ED1Ev@Base 5.0.0
 _ZN3itk18ExtractImageFilterIN3otb5ImageIfLj2EEES3_ED2Ev@Base 5.0.0
 _ZN3itk18ExtractImageFilterIN3otb5ImageIhLj2EEES3_E12GenerateDataEv@Base 5.0.0
 _ZN3itk18ExtractImageFilterIN3otb5ImageIhLj2EEES3_E19SetExtractionRegionENS_11ImageRegionILj2EEE@Base 5.0.0
 _ZN3itk18ExtractImageFilterIN3otb5ImageIhLj2EEES3_E20ThreadedGenerateDataERKNS_11ImageRegionILj2EEEj@Base 5.0.0
 _ZN3itk18ExtractImageFilterIN3otb5ImageIhLj2EEES3_E25GenerateOutputInformationEv@Base 5.0.0
 _ZN3itk18ExtractImageFilterIN3otb5ImageIhLj2EEES3_E33CallCopyOutputRegionToInputRegionERNS_11ImageRegionILj2EEERKS6_@Base 5.0.0
 _ZN3itk18ExtractImageFilterIN3otb5ImageIhLj2EEES3_ED0Ev@Base 5.0.0
 _ZN3itk18ExtractImageFilterIN3otb5ImageIhLj2EEES3_ED1Ev@Base 5.0.0
 _ZN3itk18ExtractImageFilterIN3otb5ImageIhLj2EEES3_ED2Ev@Base 5.0.0
 _ZN3itk18ExtractImageFilterIN3otb5ImageIiLj2EEES3_E12GenerateDataEv@Base 5.0.0
 _ZN3itk18ExtractImageFilterIN3otb5ImageIiLj2EEES3_E19SetExtractionRegionENS_11ImageRegionILj2EEE@Base 5.0.0
 _ZN3itk18ExtractImageFilterIN3otb5ImageIiLj2EEES3_E20ThreadedGenerateDataERKNS_11ImageRegionILj2EEEj@Base 5.0.0
 _ZN3itk18ExtractImageFilterIN3otb5ImageIiLj2EEES3_E25GenerateOutputInformationEv@Base 5.0.0
 _ZN3itk18ExtractImageFilterIN3otb5ImageIiLj2EEES3_E33CallCopyOutputRegionToInputRegionERNS_11ImageRegionILj2EEERKS6_@Base 5.0.0
 _ZN3itk18ExtractImageFilterIN3otb5ImageIiLj2EEES3_ED0Ev@Base 5.0.0
 _ZN3itk18ExtractImageFilterIN3otb5ImageIiLj2EEES3_ED1Ev@Base 5.0.0
 _ZN3itk18ExtractImageFilterIN3otb5ImageIiLj2EEES3_ED2Ev@Base 5.0.0
 _ZN3itk18ExtractImageFilterIN3otb5ImageIjLj2EEES3_E12GenerateDataEv@Base 5.0.0
 _ZN3itk18ExtractImageFilterIN3otb5ImageIjLj2EEES3_E19SetExtractionRegionENS_11ImageRegionILj2EEE@Base 5.0.0
 _ZN3itk18ExtractImageFilterIN3otb5ImageIjLj2EEES3_E20ThreadedGenerateDataERKNS_11ImageRegionILj2EEEj@Base 5.0.0
 _ZN3itk18ExtractImageFilterIN3otb5ImageIjLj2EEES3_E25GenerateOutputInformationEv@Base 5.0.0
 _ZN3itk18ExtractImageFilterIN3otb5ImageIjLj2EEES3_E33CallCopyOutputRegionToInputRegionERNS_11ImageRegionILj2EEERKS6_@Base 5.0.0
 _ZN3itk18ExtractImageFilterIN3otb5ImageIjLj2EEES3_ED0Ev@Base 5.0.0
 _ZN3itk18ExtractImageFilterIN3otb5ImageIjLj2EEES3_ED1Ev@Base 5.0.0
 _ZN3itk18ExtractImageFilterIN3otb5ImageIjLj2EEES3_ED2Ev@Base 5.0.0
 _ZN3itk18ExtractImageFilterIN3otb5ImageIsLj2EEES3_E12GenerateDataEv@Base 5.0.0
 _ZN3itk18ExtractImageFilterIN3otb5ImageIsLj2EEES3_E19SetExtractionRegionENS_11ImageRegionILj2EEE@Base 5.0.0
 _ZN3itk18ExtractImageFilterIN3otb5ImageIsLj2EEES3_E20ThreadedGenerateDataERKNS_11ImageRegionILj2EEEj@Base 5.0.0
 _ZN3itk18ExtractImageFilterIN3otb5ImageIsLj2EEES3_E25GenerateOutputInformationEv@Base 5.0.0
 _ZN3itk18ExtractImageFilterIN3otb5ImageIsLj2EEES3_E33CallCopyOutputRegionToInputRegionERNS_11ImageRegionILj2EEERKS6_@Base 5.0.0
 _ZN3itk18ExtractImageFilterIN3otb5ImageIsLj2EEES3_ED0Ev@Base 5.0.0
 _ZN3itk18ExtractImageFilterIN3otb5ImageIsLj2EEES3_ED1Ev@Base 5.0.0
 _ZN3itk18ExtractImageFilterIN3otb5ImageIsLj2EEES3_ED2Ev@Base 5.0.0
 _ZN3itk18ExtractImageFilterIN3otb5ImageItLj2EEES3_E12GenerateDataEv@Base 5.0.0
 _ZN3itk18ExtractImageFilterIN3otb5ImageItLj2EEES3_E19SetExtractionRegionENS_11ImageRegionILj2EEE@Base 5.0.0
 _ZN3itk18ExtractImageFilterIN3otb5ImageItLj2EEES3_E20ThreadedGenerateDataERKNS_11ImageRegionILj2EEEj@Base 5.0.0
 _ZN3itk18ExtractImageFilterIN3otb5ImageItLj2EEES3_E25GenerateOutputInformationEv@Base 5.0.0
 _ZN3itk18ExtractImageFilterIN3otb5ImageItLj2EEES3_E33CallCopyOutputRegionToInputRegionERNS_11ImageRegionILj2EEERKS6_@Base 5.0.0
 _ZN3itk18ExtractImageFilterIN3otb5ImageItLj2EEES3_ED0Ev@Base 5.0.0
 _ZN3itk18ExtractImageFilterIN3otb5ImageItLj2EEES3_ED1Ev@Base 5.0.0
 _ZN3itk18ExtractImageFilterIN3otb5ImageItLj2EEES3_ED2Ev@Base 5.0.0
 _ZN3itk18ImageConstIteratorIN3otb11VectorImageISt7complexIdELj2EEEE8SetIndexERKNS_5IndexILj2EEE@Base 5.0.0
 _ZN3itk18ImageConstIteratorIN3otb11VectorImageISt7complexIdELj2EEEE9SetRegionERKNS_11ImageRegionILj2EEE@Base 5.0.0
 _ZN3itk18ImageConstIteratorIN3otb11VectorImageISt7complexIdELj2EEEEC1EPKS5_RKNS_11ImageRegionILj2EEE@Base 5.0.0
 _ZN3itk18ImageConstIteratorIN3otb11VectorImageISt7complexIdELj2EEEEC2EPKS5_RKNS_11ImageRegionILj2EEE@Base 5.0.0
 _ZN3itk18ImageConstIteratorIN3otb11VectorImageISt7complexIdELj2EEEED0Ev@Base 5.0.0
 _ZN3itk18ImageConstIteratorIN3otb11VectorImageISt7complexIdELj2EEEED1Ev@Base 5.0.0
 _ZN3itk18ImageConstIteratorIN3otb11VectorImageISt7complexIdELj2EEEED2Ev@Base 5.0.0
 _ZN3itk18ImageConstIteratorIN3otb11VectorImageISt7complexIfELj2EEEE8SetIndexERKNS_5IndexILj2EEE@Base 5.0.0
 _ZN3itk18ImageConstIteratorIN3otb11VectorImageISt7complexIfELj2EEEE9SetRegionERKNS_11ImageRegionILj2EEE@Base 5.0.0
 _ZN3itk18ImageConstIteratorIN3otb11VectorImageISt7complexIfELj2EEEEC1EPKS5_RKNS_11ImageRegionILj2EEE@Base 5.0.0
 _ZN3itk18ImageConstIteratorIN3otb11VectorImageISt7complexIfELj2EEEEC2EPKS5_RKNS_11ImageRegionILj2EEE@Base 5.0.0
 _ZN3itk18ImageConstIteratorIN3otb11VectorImageISt7complexIfELj2EEEED0Ev@Base 5.0.0
 _ZN3itk18ImageConstIteratorIN3otb11VectorImageISt7complexIfELj2EEEED1Ev@Base 5.0.0
 _ZN3itk18ImageConstIteratorIN3otb11VectorImageISt7complexIfELj2EEEED2Ev@Base 5.0.0
 _ZN3itk18ImageConstIteratorIN3otb11VectorImageIdLj2EEEE8SetIndexERKNS_5IndexILj2EEE@Base 5.0.0
 _ZN3itk18ImageConstIteratorIN3otb11VectorImageIdLj2EEEE9SetRegionERKNS_11ImageRegionILj2EEE@Base 5.0.0
 _ZN3itk18ImageConstIteratorIN3otb11VectorImageIdLj2EEEEC1EPKS3_RKNS_11ImageRegionILj2EEE@Base 5.0.0
 _ZN3itk18ImageConstIteratorIN3otb11VectorImageIdLj2EEEEC2EPKS3_RKNS_11ImageRegionILj2EEE@Base 5.0.0
 _ZN3itk18ImageConstIteratorIN3otb11VectorImageIdLj2EEEED0Ev@Base 5.0.0
 _ZN3itk18ImageConstIteratorIN3otb11VectorImageIdLj2EEEED1Ev@Base 5.0.0
 _ZN3itk18ImageConstIteratorIN3otb11VectorImageIdLj2EEEED2Ev@Base 5.0.0
 _ZN3itk18ImageConstIteratorIN3otb11VectorImageIfLj2EEEE8SetIndexERKNS_5IndexILj2EEE@Base 5.0.0
 _ZN3itk18ImageConstIteratorIN3otb11VectorImageIfLj2EEEE9SetRegionERKNS_11ImageRegionILj2EEE@Base 5.0.0
 _ZN3itk18ImageConstIteratorIN3otb11VectorImageIfLj2EEEEC1EPKS3_RKNS_11ImageRegionILj2EEE@Base 5.0.0
 _ZN3itk18ImageConstIteratorIN3otb11VectorImageIfLj2EEEEC2EPKS3_RKNS_11ImageRegionILj2EEE@Base 5.0.0
 _ZN3itk18ImageConstIteratorIN3otb11VectorImageIfLj2EEEED0Ev@Base 5.0.0
 _ZN3itk18ImageConstIteratorIN3otb11VectorImageIfLj2EEEED1Ev@Base 5.0.0
 _ZN3itk18ImageConstIteratorIN3otb11VectorImageIfLj2EEEED2Ev@Base 5.0.0
 _ZN3itk18ImageConstIteratorIN3otb11VectorImageIhLj2EEEE8SetIndexERKNS_5IndexILj2EEE@Base 5.0.0
 _ZN3itk18ImageConstIteratorIN3otb11VectorImageIhLj2EEEE9SetRegionERKNS_11ImageRegionILj2EEE@Base 5.0.0
 _ZN3itk18ImageConstIteratorIN3otb11VectorImageIhLj2EEEEC1EPKS3_RKNS_11ImageRegionILj2EEE@Base 5.0.0
 _ZN3itk18ImageConstIteratorIN3otb11VectorImageIhLj2EEEEC2EPKS3_RKNS_11ImageRegionILj2EEE@Base 5.0.0
 _ZN3itk18ImageConstIteratorIN3otb11VectorImageIhLj2EEEED0Ev@Base 5.0.0
 _ZN3itk18ImageConstIteratorIN3otb11VectorImageIhLj2EEEED1Ev@Base 5.0.0
 _ZN3itk18ImageConstIteratorIN3otb11VectorImageIhLj2EEEED2Ev@Base 5.0.0
 _ZN3itk18ImageConstIteratorIN3otb11VectorImageIiLj2EEEE8SetIndexERKNS_5IndexILj2EEE@Base 5.0.0
 _ZN3itk18ImageConstIteratorIN3otb11VectorImageIiLj2EEEE9SetRegionERKNS_11ImageRegionILj2EEE@Base 5.0.0
 _ZN3itk18ImageConstIteratorIN3otb11VectorImageIiLj2EEEEC1EPKS3_RKNS_11ImageRegionILj2EEE@Base 5.0.0
 _ZN3itk18ImageConstIteratorIN3otb11VectorImageIiLj2EEEEC2EPKS3_RKNS_11ImageRegionILj2EEE@Base 5.0.0
 _ZN3itk18ImageConstIteratorIN3otb11VectorImageIiLj2EEEED0Ev@Base 5.0.0
 _ZN3itk18ImageConstIteratorIN3otb11VectorImageIiLj2EEEED1Ev@Base 5.0.0
 _ZN3itk18ImageConstIteratorIN3otb11VectorImageIiLj2EEEED2Ev@Base 5.0.0
 _ZN3itk18ImageConstIteratorIN3otb11VectorImageIjLj2EEEE8SetIndexERKNS_5IndexILj2EEE@Base 5.0.0
 _ZN3itk18ImageConstIteratorIN3otb11VectorImageIjLj2EEEE9SetRegionERKNS_11ImageRegionILj2EEE@Base 5.0.0
 _ZN3itk18ImageConstIteratorIN3otb11VectorImageIjLj2EEEEC1EPKS3_RKNS_11ImageRegionILj2EEE@Base 5.0.0
 _ZN3itk18ImageConstIteratorIN3otb11VectorImageIjLj2EEEEC2EPKS3_RKNS_11ImageRegionILj2EEE@Base 5.0.0
 _ZN3itk18ImageConstIteratorIN3otb11VectorImageIjLj2EEEED0Ev@Base 5.0.0
 _ZN3itk18ImageConstIteratorIN3otb11VectorImageIjLj2EEEED1Ev@Base 5.0.0
 _ZN3itk18ImageConstIteratorIN3otb11VectorImageIjLj2EEEED2Ev@Base 5.0.0
 _ZN3itk18ImageConstIteratorIN3otb11VectorImageIsLj2EEEE8SetIndexERKNS_5IndexILj2EEE@Base 5.0.0
 _ZN3itk18ImageConstIteratorIN3otb11VectorImageIsLj2EEEE9SetRegionERKNS_11ImageRegionILj2EEE@Base 5.0.0
 _ZN3itk18ImageConstIteratorIN3otb11VectorImageIsLj2EEEEC1EPKS3_RKNS_11ImageRegionILj2EEE@Base 5.0.0
 _ZN3itk18ImageConstIteratorIN3otb11VectorImageIsLj2EEEEC2EPKS3_RKNS_11ImageRegionILj2EEE@Base 5.0.0
 _ZN3itk18ImageConstIteratorIN3otb11VectorImageIsLj2EEEED0Ev@Base 5.0.0
 _ZN3itk18ImageConstIteratorIN3otb11VectorImageIsLj2EEEED1Ev@Base 5.0.0
 _ZN3itk18ImageConstIteratorIN3otb11VectorImageIsLj2EEEED2Ev@Base 5.0.0
 _ZN3itk18ImageConstIteratorIN3otb11VectorImageItLj2EEEE8SetIndexERKNS_5IndexILj2EEE@Base 5.0.0
 _ZN3itk18ImageConstIteratorIN3otb11VectorImageItLj2EEEE9SetRegionERKNS_11ImageRegionILj2EEE@Base 5.0.0
 _ZN3itk18ImageConstIteratorIN3otb11VectorImageItLj2EEEEC1EPKS3_RKNS_11ImageRegionILj2EEE@Base 5.0.0
 _ZN3itk18ImageConstIteratorIN3otb11VectorImageItLj2EEEEC2EPKS3_RKNS_11ImageRegionILj2EEE@Base 5.0.0
 _ZN3itk18ImageConstIteratorIN3otb11VectorImageItLj2EEEED0Ev@Base 5.0.0
 _ZN3itk18ImageConstIteratorIN3otb11VectorImageItLj2EEEED1Ev@Base 5.0.0
 _ZN3itk18ImageConstIteratorIN3otb11VectorImageItLj2EEEED2Ev@Base 5.0.0
 _ZN3itk18ImageConstIteratorIN3otb5ImageINS_8RGBPixelIhEELj2EEEE8SetIndexERKNS_5IndexILj2EEE@Base 5.0.0
 _ZN3itk18ImageConstIteratorIN3otb5ImageINS_8RGBPixelIhEELj2EEEE9SetRegionERKNS_11ImageRegionILj2EEE@Base 5.0.0
 _ZN3itk18ImageConstIteratorIN3otb5ImageINS_8RGBPixelIhEELj2EEEED0Ev@Base 5.0.0
 _ZN3itk18ImageConstIteratorIN3otb5ImageINS_8RGBPixelIhEELj2EEEED1Ev@Base 5.0.0
 _ZN3itk18ImageConstIteratorIN3otb5ImageINS_8RGBPixelIhEELj2EEEED2Ev@Base 5.0.0
 _ZN3itk18ImageConstIteratorIN3otb5ImageINS_9RGBAPixelIhEELj2EEEE8SetIndexERKNS_5IndexILj2EEE@Base 5.0.0
 _ZN3itk18ImageConstIteratorIN3otb5ImageINS_9RGBAPixelIhEELj2EEEE9SetRegionERKNS_11ImageRegionILj2EEE@Base 5.0.0
 _ZN3itk18ImageConstIteratorIN3otb5ImageINS_9RGBAPixelIhEELj2EEEED0Ev@Base 5.0.0
 _ZN3itk18ImageConstIteratorIN3otb5ImageINS_9RGBAPixelIhEELj2EEEED1Ev@Base 5.0.0
 _ZN3itk18ImageConstIteratorIN3otb5ImageINS_9RGBAPixelIhEELj2EEEED2Ev@Base 5.0.0
 _ZN3itk18ImageConstIteratorIN3otb5ImageISt7complexIdELj2EEEE8SetIndexERKNS_5IndexILj2EEE@Base 5.0.0
 _ZN3itk18ImageConstIteratorIN3otb5ImageISt7complexIdELj2EEEE9SetRegionERKNS_11ImageRegionILj2EEE@Base 5.0.0
 _ZN3itk18ImageConstIteratorIN3otb5ImageISt7complexIdELj2EEEEC1EPKS5_RKNS_11ImageRegionILj2EEE@Base 5.0.0
 _ZN3itk18ImageConstIteratorIN3otb5ImageISt7complexIdELj2EEEEC2EPKS5_RKNS_11ImageRegionILj2EEE@Base 5.0.0
 _ZN3itk18ImageConstIteratorIN3otb5ImageISt7complexIdELj2EEEED0Ev@Base 5.0.0
 _ZN3itk18ImageConstIteratorIN3otb5ImageISt7complexIdELj2EEEED1Ev@Base 5.0.0
 _ZN3itk18ImageConstIteratorIN3otb5ImageISt7complexIdELj2EEEED2Ev@Base 5.0.0
 _ZN3itk18ImageConstIteratorIN3otb5ImageISt7complexIfELj2EEEE8SetIndexERKNS_5IndexILj2EEE@Base 5.0.0
 _ZN3itk18ImageConstIteratorIN3otb5ImageISt7complexIfELj2EEEE9SetRegionERKNS_11ImageRegionILj2EEE@Base 5.0.0
 _ZN3itk18ImageConstIteratorIN3otb5ImageISt7complexIfELj2EEEEC1EPKS5_RKNS_11ImageRegionILj2EEE@Base 5.0.0
 _ZN3itk18ImageConstIteratorIN3otb5ImageISt7complexIfELj2EEEEC2EPKS5_RKNS_11ImageRegionILj2EEE@Base 5.0.0
 _ZN3itk18ImageConstIteratorIN3otb5ImageISt7complexIfELj2EEEED0Ev@Base 5.0.0
 _ZN3itk18ImageConstIteratorIN3otb5ImageISt7complexIfELj2EEEED1Ev@Base 5.0.0
 _ZN3itk18ImageConstIteratorIN3otb5ImageISt7complexIfELj2EEEED2Ev@Base 5.0.0
 _ZN3itk18ImageConstIteratorIN3otb5ImageIdLj2EEEE8SetIndexERKNS_5IndexILj2EEE@Base 5.0.0
 _ZN3itk18ImageConstIteratorIN3otb5ImageIdLj2EEEE9SetRegionERKNS_11ImageRegionILj2EEE@Base 5.0.0
 _ZN3itk18ImageConstIteratorIN3otb5ImageIdLj2EEEEC1EPKS3_RKNS_11ImageRegionILj2EEE@Base 5.0.0
 _ZN3itk18ImageConstIteratorIN3otb5ImageIdLj2EEEEC2EPKS3_RKNS_11ImageRegionILj2EEE@Base 5.0.0
 _ZN3itk18ImageConstIteratorIN3otb5ImageIdLj2EEEED0Ev@Base 5.0.0
 _ZN3itk18ImageConstIteratorIN3otb5ImageIdLj2EEEED1Ev@Base 5.0.0
 _ZN3itk18ImageConstIteratorIN3otb5ImageIdLj2EEEED2Ev@Base 5.0.0
 _ZN3itk18ImageConstIteratorIN3otb5ImageIfLj2EEEE8SetIndexERKNS_5IndexILj2EEE@Base 5.0.0
 _ZN3itk18ImageConstIteratorIN3otb5ImageIfLj2EEEE9SetRegionERKNS_11ImageRegionILj2EEE@Base 5.0.0
 _ZN3itk18ImageConstIteratorIN3otb5ImageIfLj2EEEEC1EPKS3_RKNS_11ImageRegionILj2EEE@Base 5.0.0
 _ZN3itk18ImageConstIteratorIN3otb5ImageIfLj2EEEEC2EPKS3_RKNS_11ImageRegionILj2EEE@Base 5.0.0
 _ZN3itk18ImageConstIteratorIN3otb5ImageIfLj2EEEED0Ev@Base 5.0.0
 _ZN3itk18ImageConstIteratorIN3otb5ImageIfLj2EEEED1Ev@Base 5.0.0
 _ZN3itk18ImageConstIteratorIN3otb5ImageIfLj2EEEED2Ev@Base 5.0.0
 _ZN3itk18ImageConstIteratorIN3otb5ImageIhLj2EEEE8SetIndexERKNS_5IndexILj2EEE@Base 5.0.0
 _ZN3itk18ImageConstIteratorIN3otb5ImageIhLj2EEEE9SetRegionERKNS_11ImageRegionILj2EEE@Base 5.0.0
 _ZN3itk18ImageConstIteratorIN3otb5ImageIhLj2EEEEC1EPKS3_RKNS_11ImageRegionILj2EEE@Base 5.0.0
 _ZN3itk18ImageConstIteratorIN3otb5ImageIhLj2EEEEC2EPKS3_RKNS_11ImageRegionILj2EEE@Base 5.0.0
 _ZN3itk18ImageConstIteratorIN3otb5ImageIhLj2EEEED0Ev@Base 5.0.0
 _ZN3itk18ImageConstIteratorIN3otb5ImageIhLj2EEEED1Ev@Base 5.0.0
 _ZN3itk18ImageConstIteratorIN3otb5ImageIhLj2EEEED2Ev@Base 5.0.0
 _ZN3itk18ImageConstIteratorIN3otb5ImageIiLj2EEEE8SetIndexERKNS_5IndexILj2EEE@Base 5.0.0
 _ZN3itk18ImageConstIteratorIN3otb5ImageIiLj2EEEE9SetRegionERKNS_11ImageRegionILj2EEE@Base 5.0.0
 _ZN3itk18ImageConstIteratorIN3otb5ImageIiLj2EEEEC1EPKS3_RKNS_11ImageRegionILj2EEE@Base 5.0.0
 _ZN3itk18ImageConstIteratorIN3otb5ImageIiLj2EEEEC2EPKS3_RKNS_11ImageRegionILj2EEE@Base 5.0.0
 _ZN3itk18ImageConstIteratorIN3otb5ImageIiLj2EEEED0Ev@Base 5.0.0
 _ZN3itk18ImageConstIteratorIN3otb5ImageIiLj2EEEED1Ev@Base 5.0.0
 _ZN3itk18ImageConstIteratorIN3otb5ImageIiLj2EEEED2Ev@Base 5.0.0
 _ZN3itk18ImageConstIteratorIN3otb5ImageIjLj2EEEE8SetIndexERKNS_5IndexILj2EEE@Base 5.0.0
 _ZN3itk18ImageConstIteratorIN3otb5ImageIjLj2EEEE9SetRegionERKNS_11ImageRegionILj2EEE@Base 5.0.0
 _ZN3itk18ImageConstIteratorIN3otb5ImageIjLj2EEEEC1EPKS3_RKNS_11ImageRegionILj2EEE@Base 5.0.0
 _ZN3itk18ImageConstIteratorIN3otb5ImageIjLj2EEEEC2EPKS3_RKNS_11ImageRegionILj2EEE@Base 5.0.0
 _ZN3itk18ImageConstIteratorIN3otb5ImageIjLj2EEEED0Ev@Base 5.0.0
 _ZN3itk18ImageConstIteratorIN3otb5ImageIjLj2EEEED1Ev@Base 5.0.0
 _ZN3itk18ImageConstIteratorIN3otb5ImageIjLj2EEEED2Ev@Base 5.0.0
 _ZN3itk18ImageConstIteratorIN3otb5ImageIsLj2EEEE8SetIndexERKNS_5IndexILj2EEE@Base 5.0.0
 _ZN3itk18ImageConstIteratorIN3otb5ImageIsLj2EEEE9SetRegionERKNS_11ImageRegionILj2EEE@Base 5.0.0
 _ZN3itk18ImageConstIteratorIN3otb5ImageIsLj2EEEEC1EPKS3_RKNS_11ImageRegionILj2EEE@Base 5.0.0
 _ZN3itk18ImageConstIteratorIN3otb5ImageIsLj2EEEEC2EPKS3_RKNS_11ImageRegionILj2EEE@Base 5.0.0
 _ZN3itk18ImageConstIteratorIN3otb5ImageIsLj2EEEED0Ev@Base 5.0.0
 _ZN3itk18ImageConstIteratorIN3otb5ImageIsLj2EEEED1Ev@Base 5.0.0
 _ZN3itk18ImageConstIteratorIN3otb5ImageIsLj2EEEED2Ev@Base 5.0.0
 _ZN3itk18ImageConstIteratorIN3otb5ImageItLj2EEEE8SetIndexERKNS_5IndexILj2EEE@Base 5.0.0
 _ZN3itk18ImageConstIteratorIN3otb5ImageItLj2EEEE9SetRegionERKNS_11ImageRegionILj2EEE@Base 5.0.0
 _ZN3itk18ImageConstIteratorIN3otb5ImageItLj2EEEEC1EPKS3_RKNS_11ImageRegionILj2EEE@Base 5.0.0
 _ZN3itk18ImageConstIteratorIN3otb5ImageItLj2EEEEC2EPKS3_RKNS_11ImageRegionILj2EEE@Base 5.0.0
 _ZN3itk18ImageConstIteratorIN3otb5ImageItLj2EEEED0Ev@Base 5.0.0
 _ZN3itk18ImageConstIteratorIN3otb5ImageItLj2EEEED1Ev@Base 5.0.0
 _ZN3itk18ImageConstIteratorIN3otb5ImageItLj2EEEED2Ev@Base 5.0.0
 _ZN3itk18ImageToImageFilterIN3otb11VectorImageISt7complexIdELj2EEENS2_IS3_IfELj2EEEE12PopBackInputEv@Base 5.0.0
 _ZN3itk18ImageToImageFilterIN3otb11VectorImageISt7complexIdELj2EEENS2_IS3_IfELj2EEEE13PopFrontInputEv@Base 5.0.0
 _ZN3itk18ImageToImageFilterIN3otb11VectorImageISt7complexIdELj2EEENS2_IS3_IfELj2EEEE13PushBackInputEPKNS_10DataObjectE@Base 5.0.0
 _ZN3itk18ImageToImageFilterIN3otb11VectorImageISt7complexIdELj2EEENS2_IS3_IfELj2EEEE13PushBackInputEPKS5_@Base 5.0.0
 _ZN3itk18ImageToImageFilterIN3otb11VectorImageISt7complexIdELj2EEENS2_IS3_IfELj2EEEE14PushFrontInputEPKNS_10DataObjectE@Base 5.0.0
 _ZN3itk18ImageToImageFilterIN3otb11VectorImageISt7complexIdELj2EEENS2_IS3_IfELj2EEEE14PushFrontInputEPKS5_@Base 5.0.0
 _ZN3itk18ImageToImageFilterIN3otb11VectorImageISt7complexIdELj2EEENS2_IS3_IfELj2EEEE21SetDirectionToleranceEd@Base 5.0.0
 _ZN3itk18ImageToImageFilterIN3otb11VectorImageISt7complexIdELj2EEENS2_IS3_IfELj2EEEE22SetCoordinateToleranceEd@Base 5.0.0
 _ZN3itk18ImageToImageFilterIN3otb11VectorImageISt7complexIdELj2EEENS2_IS3_IfELj2EEEE22VerifyInputInformationEv@Base 5.0.0
 _ZN3itk18ImageToImageFilterIN3otb11VectorImageISt7complexIdELj2EEENS2_IS3_IfELj2EEEE28GenerateInputRequestedRegionEv@Base 5.0.0
 _ZN3itk18ImageToImageFilterIN3otb11VectorImageISt7complexIdELj2EEENS2_IS3_IfELj2EEEE33CallCopyInputRegionToOutputRegionERNS_11ImageRegionILj2EEERKSA_@Base 5.0.0
 _ZN3itk18ImageToImageFilterIN3otb11VectorImageISt7complexIdELj2EEENS2_IS3_IfELj2EEEE33CallCopyOutputRegionToInputRegionERNS_11ImageRegionILj2EEERKSA_@Base 5.0.0
 _ZN3itk18ImageToImageFilterIN3otb11VectorImageISt7complexIdELj2EEENS2_IS3_IfELj2EEEE8SetInputEPKS5_@Base 5.0.0
 _ZN3itk18ImageToImageFilterIN3otb11VectorImageISt7complexIdELj2EEENS2_IS3_IfELj2EEEE8SetInputEjPKS5_@Base 5.0.0
 _ZN3itk18ImageToImageFilterIN3otb11VectorImageISt7complexIdELj2EEENS2_IS3_IfELj2EEEED0Ev@Base 5.0.0
 _ZN3itk18ImageToImageFilterIN3otb11VectorImageISt7complexIdELj2EEENS2_IS3_IfELj2EEEED1Ev@Base 5.0.0
 _ZN3itk18ImageToImageFilterIN3otb11VectorImageISt7complexIdELj2EEENS2_IS3_IfELj2EEEED2Ev@Base 5.0.0
 _ZN3itk18ImageToImageFilterIN3otb11VectorImageISt7complexIdELj2EEES5_E12PopBackInputEv@Base 5.0.0
 _ZN3itk18ImageToImageFilterIN3otb11VectorImageISt7complexIdELj2EEES5_E13PopFrontInputEv@Base 5.0.0
 _ZN3itk18ImageToImageFilterIN3otb11VectorImageISt7complexIdELj2EEES5_E13PushBackInputEPKNS_10DataObjectE@Base 5.0.0
 _ZN3itk18ImageToImageFilterIN3otb11VectorImageISt7complexIdELj2EEES5_E13PushBackInputEPKS5_@Base 5.0.0
 _ZN3itk18ImageToImageFilterIN3otb11VectorImageISt7complexIdELj2EEES5_E14PushFrontInputEPKNS_10DataObjectE@Base 5.0.0
 _ZN3itk18ImageToImageFilterIN3otb11VectorImageISt7complexIdELj2EEES5_E14PushFrontInputEPKS5_@Base 5.0.0
 _ZN3itk18ImageToImageFilterIN3otb11VectorImageISt7complexIdELj2EEES5_E21SetDirectionToleranceEd@Base 5.0.0
 _ZN3itk18ImageToImageFilterIN3otb11VectorImageISt7complexIdELj2EEES5_E22SetCoordinateToleranceEd@Base 5.0.0
 _ZN3itk18ImageToImageFilterIN3otb11VectorImageISt7complexIdELj2EEES5_E22VerifyInputInformationEv@Base 5.0.0
 _ZN3itk18ImageToImageFilterIN3otb11VectorImageISt7complexIdELj2EEES5_E28GenerateInputRequestedRegionEv@Base 5.0.0
 _ZN3itk18ImageToImageFilterIN3otb11VectorImageISt7complexIdELj2EEES5_E33CallCopyInputRegionToOutputRegionERNS_11ImageRegionILj2EEERKS8_@Base 5.0.0
 _ZN3itk18ImageToImageFilterIN3otb11VectorImageISt7complexIdELj2EEES5_E33CallCopyOutputRegionToInputRegionERNS_11ImageRegionILj2EEERKS8_@Base 5.0.0
 _ZN3itk18ImageToImageFilterIN3otb11VectorImageISt7complexIdELj2EEES5_E8SetInputEPKS5_@Base 5.0.0
 _ZN3itk18ImageToImageFilterIN3otb11VectorImageISt7complexIdELj2EEES5_E8SetInputEjPKS5_@Base 5.0.0
 _ZN3itk18ImageToImageFilterIN3otb11VectorImageISt7complexIdELj2EEES5_ED0Ev@Base 5.0.0
 _ZN3itk18ImageToImageFilterIN3otb11VectorImageISt7complexIdELj2EEES5_ED1Ev@Base 5.0.0
 _ZN3itk18ImageToImageFilterIN3otb11VectorImageISt7complexIdELj2EEES5_ED2Ev@Base 5.0.0
 _ZN3itk18ImageToImageFilterIN3otb11VectorImageISt7complexIfELj2EEENS2_IS3_IdELj2EEEE12PopBackInputEv@Base 5.0.0
 _ZN3itk18ImageToImageFilterIN3otb11VectorImageISt7complexIfELj2EEENS2_IS3_IdELj2EEEE13PopFrontInputEv@Base 5.0.0
 _ZN3itk18ImageToImageFilterIN3otb11VectorImageISt7complexIfELj2EEENS2_IS3_IdELj2EEEE13PushBackInputEPKNS_10DataObjectE@Base 5.0.0
 _ZN3itk18ImageToImageFilterIN3otb11VectorImageISt7complexIfELj2EEENS2_IS3_IdELj2EEEE13PushBackInputEPKS5_@Base 5.0.0
 _ZN3itk18ImageToImageFilterIN3otb11VectorImageISt7complexIfELj2EEENS2_IS3_IdELj2EEEE14PushFrontInputEPKNS_10DataObjectE@Base 5.0.0
 _ZN3itk18ImageToImageFilterIN3otb11VectorImageISt7complexIfELj2EEENS2_IS3_IdELj2EEEE14PushFrontInputEPKS5_@Base 5.0.0
 _ZN3itk18ImageToImageFilterIN3otb11VectorImageISt7complexIfELj2EEENS2_IS3_IdELj2EEEE21SetDirectionToleranceEd@Base 5.0.0
 _ZN3itk18ImageToImageFilterIN3otb11VectorImageISt7complexIfELj2EEENS2_IS3_IdELj2EEEE22SetCoordinateToleranceEd@Base 5.0.0
 _ZN3itk18ImageToImageFilterIN3otb11VectorImageISt7complexIfELj2EEENS2_IS3_IdELj2EEEE22VerifyInputInformationEv@Base 5.0.0
 _ZN3itk18ImageToImageFilterIN3otb11VectorImageISt7complexIfELj2EEENS2_IS3_IdELj2EEEE28GenerateInputRequestedRegionEv@Base 5.0.0
 _ZN3itk18ImageToImageFilterIN3otb11VectorImageISt7complexIfELj2EEENS2_IS3_IdELj2EEEE33CallCopyInputRegionToOutputRegionERNS_11ImageRegionILj2EEERKSA_@Base 5.0.0
 _ZN3itk18ImageToImageFilterIN3otb11VectorImageISt7complexIfELj2EEENS2_IS3_IdELj2EEEE33CallCopyOutputRegionToInputRegionERNS_11ImageRegionILj2EEERKSA_@Base 5.0.0
 _ZN3itk18ImageToImageFilterIN3otb11VectorImageISt7complexIfELj2EEENS2_IS3_IdELj2EEEE8SetInputEPKS5_@Base 5.0.0
 _ZN3itk18ImageToImageFilterIN3otb11VectorImageISt7complexIfELj2EEENS2_IS3_IdELj2EEEE8SetInputEjPKS5_@Base 5.0.0
 _ZN3itk18ImageToImageFilterIN3otb11VectorImageISt7complexIfELj2EEENS2_IS3_IdELj2EEEED0Ev@Base 5.0.0
 _ZN3itk18ImageToImageFilterIN3otb11VectorImageISt7complexIfELj2EEENS2_IS3_IdELj2EEEED1Ev@Base 5.0.0
 _ZN3itk18ImageToImageFilterIN3otb11VectorImageISt7complexIfELj2EEENS2_IS3_IdELj2EEEED2Ev@Base 5.0.0
 _ZN3itk18ImageToImageFilterIN3otb11VectorImageISt7complexIfELj2EEES5_E12PopBackInputEv@Base 5.0.0
 _ZN3itk18ImageToImageFilterIN3otb11VectorImageISt7complexIfELj2EEES5_E13PopFrontInputEv@Base 5.0.0
 _ZN3itk18ImageToImageFilterIN3otb11VectorImageISt7complexIfELj2EEES5_E13PushBackInputEPKNS_10DataObjectE@Base 5.0.0
 _ZN3itk18ImageToImageFilterIN3otb11VectorImageISt7complexIfELj2EEES5_E13PushBackInputEPKS5_@Base 5.0.0
 _ZN3itk18ImageToImageFilterIN3otb11VectorImageISt7complexIfELj2EEES5_E14PushFrontInputEPKNS_10DataObjectE@Base 5.0.0
 _ZN3itk18ImageToImageFilterIN3otb11VectorImageISt7complexIfELj2EEES5_E14PushFrontInputEPKS5_@Base 5.0.0
 _ZN3itk18ImageToImageFilterIN3otb11VectorImageISt7complexIfELj2EEES5_E21SetDirectionToleranceEd@Base 5.0.0
 _ZN3itk18ImageToImageFilterIN3otb11VectorImageISt7complexIfELj2EEES5_E22SetCoordinateToleranceEd@Base 5.0.0
 _ZN3itk18ImageToImageFilterIN3otb11VectorImageISt7complexIfELj2EEES5_E22VerifyInputInformationEv@Base 5.0.0
 _ZN3itk18ImageToImageFilterIN3otb11VectorImageISt7complexIfELj2EEES5_E28GenerateInputRequestedRegionEv@Base 5.0.0
 _ZN3itk18ImageToImageFilterIN3otb11VectorImageISt7complexIfELj2EEES5_E33CallCopyInputRegionToOutputRegionERNS_11ImageRegionILj2EEERKS8_@Base 5.0.0
 _ZN3itk18ImageToImageFilterIN3otb11VectorImageISt7complexIfELj2EEES5_E33CallCopyOutputRegionToInputRegionERNS_11ImageRegionILj2EEERKS8_@Base 5.0.0
 _ZN3itk18ImageToImageFilterIN3otb11VectorImageISt7complexIfELj2EEES5_E8SetInputEPKS5_@Base 5.0.0
 _ZN3itk18ImageToImageFilterIN3otb11VectorImageISt7complexIfELj2EEES5_E8SetInputEjPKS5_@Base 5.0.0
 _ZN3itk18ImageToImageFilterIN3otb11VectorImageISt7complexIfELj2EEES5_ED0Ev@Base 5.0.0
 _ZN3itk18ImageToImageFilterIN3otb11VectorImageISt7complexIfELj2EEES5_ED1Ev@Base 5.0.0
 _ZN3itk18ImageToImageFilterIN3otb11VectorImageISt7complexIfELj2EEES5_ED2Ev@Base 5.0.0
 _ZN3itk18ImageToImageFilterIN3otb11VectorImageIdLj2EEENS2_IfLj2EEEE12PopBackInputEv@Base 5.0.0
 _ZN3itk18ImageToImageFilterIN3otb11VectorImageIdLj2EEENS2_IfLj2EEEE13PopFrontInputEv@Base 5.0.0
 _ZN3itk18ImageToImageFilterIN3otb11VectorImageIdLj2EEENS2_IfLj2EEEE13PushBackInputEPKNS_10DataObjectE@Base 5.0.0
 _ZN3itk18ImageToImageFilterIN3otb11VectorImageIdLj2EEENS2_IfLj2EEEE13PushBackInputEPKS3_@Base 5.0.0
 _ZN3itk18ImageToImageFilterIN3otb11VectorImageIdLj2EEENS2_IfLj2EEEE14PushFrontInputEPKNS_10DataObjectE@Base 5.0.0
 _ZN3itk18ImageToImageFilterIN3otb11VectorImageIdLj2EEENS2_IfLj2EEEE14PushFrontInputEPKS3_@Base 5.0.0
 _ZN3itk18ImageToImageFilterIN3otb11VectorImageIdLj2EEENS2_IfLj2EEEE21SetDirectionToleranceEd@Base 5.0.0
 _ZN3itk18ImageToImageFilterIN3otb11VectorImageIdLj2EEENS2_IfLj2EEEE22SetCoordinateToleranceEd@Base 5.0.0
 _ZN3itk18ImageToImageFilterIN3otb11VectorImageIdLj2EEENS2_IfLj2EEEE22VerifyInputInformationEv@Base 5.0.0
 _ZN3itk18ImageToImageFilterIN3otb11VectorImageIdLj2EEENS2_IfLj2EEEE28GenerateInputRequestedRegionEv@Base 5.0.0
 _ZN3itk18ImageToImageFilterIN3otb11VectorImageIdLj2EEENS2_IfLj2EEEE33CallCopyInputRegionToOutputRegionERNS_11ImageRegionILj2EEERKS7_@Base 5.0.0
 _ZN3itk18ImageToImageFilterIN3otb11VectorImageIdLj2EEENS2_IfLj2EEEE33CallCopyOutputRegionToInputRegionERNS_11ImageRegionILj2EEERKS7_@Base 5.0.0
 _ZN3itk18ImageToImageFilterIN3otb11VectorImageIdLj2EEENS2_IfLj2EEEE8SetInputEPKS3_@Base 5.0.0
 _ZN3itk18ImageToImageFilterIN3otb11VectorImageIdLj2EEENS2_IfLj2EEEE8SetInputEjPKS3_@Base 5.0.0
 _ZN3itk18ImageToImageFilterIN3otb11VectorImageIdLj2EEENS2_IfLj2EEEED0Ev@Base 5.0.0
 _ZN3itk18ImageToImageFilterIN3otb11VectorImageIdLj2EEENS2_IfLj2EEEED1Ev@Base 5.0.0
 _ZN3itk18ImageToImageFilterIN3otb11VectorImageIdLj2EEENS2_IfLj2EEEED2Ev@Base 5.0.0
 _ZN3itk18ImageToImageFilterIN3otb11VectorImageIdLj2EEENS2_IhLj2EEEE12PopBackInputEv@Base 5.0.0
 _ZN3itk18ImageToImageFilterIN3otb11VectorImageIdLj2EEENS2_IhLj2EEEE13PopFrontInputEv@Base 5.0.0
 _ZN3itk18ImageToImageFilterIN3otb11VectorImageIdLj2EEENS2_IhLj2EEEE13PushBackInputEPKNS_10DataObjectE@Base 5.0.0
 _ZN3itk18ImageToImageFilterIN3otb11VectorImageIdLj2EEENS2_IhLj2EEEE13PushBackInputEPKS3_@Base 5.0.0
 _ZN3itk18ImageToImageFilterIN3otb11VectorImageIdLj2EEENS2_IhLj2EEEE14PushFrontInputEPKNS_10DataObjectE@Base 5.0.0
 _ZN3itk18ImageToImageFilterIN3otb11VectorImageIdLj2EEENS2_IhLj2EEEE14PushFrontInputEPKS3_@Base 5.0.0
 _ZN3itk18ImageToImageFilterIN3otb11VectorImageIdLj2EEENS2_IhLj2EEEE21SetDirectionToleranceEd@Base 5.0.0
 _ZN3itk18ImageToImageFilterIN3otb11VectorImageIdLj2EEENS2_IhLj2EEEE22SetCoordinateToleranceEd@Base 5.0.0
 _ZN3itk18ImageToImageFilterIN3otb11VectorImageIdLj2EEENS2_IhLj2EEEE22VerifyInputInformationEv@Base 5.0.0
 _ZN3itk18ImageToImageFilterIN3otb11VectorImageIdLj2EEENS2_IhLj2EEEE28GenerateInputRequestedRegionEv@Base 5.0.0
 _ZN3itk18ImageToImageFilterIN3otb11VectorImageIdLj2EEENS2_IhLj2EEEE33CallCopyInputRegionToOutputRegionERNS_11ImageRegionILj2EEERKS7_@Base 5.0.0
 _ZN3itk18ImageToImageFilterIN3otb11VectorImageIdLj2EEENS2_IhLj2EEEE33CallCopyOutputRegionToInputRegionERNS_11ImageRegionILj2EEERKS7_@Base 5.0.0
 _ZN3itk18ImageToImageFilterIN3otb11VectorImageIdLj2EEENS2_IhLj2EEEE8SetInputEPKS3_@Base 5.0.0
 _ZN3itk18ImageToImageFilterIN3otb11VectorImageIdLj2EEENS2_IhLj2EEEE8SetInputEjPKS3_@Base 5.0.0
 _ZN3itk18ImageToImageFilterIN3otb11VectorImageIdLj2EEENS2_IhLj2EEEED0Ev@Base 5.0.0
 _ZN3itk18ImageToImageFilterIN3otb11VectorImageIdLj2EEENS2_IhLj2EEEED1Ev@Base 5.0.0
 _ZN3itk18ImageToImageFilterIN3otb11VectorImageIdLj2EEENS2_IhLj2EEEED2Ev@Base 5.0.0
 _ZN3itk18ImageToImageFilterIN3otb11VectorImageIdLj2EEENS2_IiLj2EEEE12PopBackInputEv@Base 5.0.0
 _ZN3itk18ImageToImageFilterIN3otb11VectorImageIdLj2EEENS2_IiLj2EEEE13PopFrontInputEv@Base 5.0.0
 _ZN3itk18ImageToImageFilterIN3otb11VectorImageIdLj2EEENS2_IiLj2EEEE13PushBackInputEPKNS_10DataObjectE@Base 5.0.0
 _ZN3itk18ImageToImageFilterIN3otb11VectorImageIdLj2EEENS2_IiLj2EEEE13PushBackInputEPKS3_@Base 5.0.0
 _ZN3itk18ImageToImageFilterIN3otb11VectorImageIdLj2EEENS2_IiLj2EEEE14PushFrontInputEPKNS_10DataObjectE@Base 5.0.0
 _ZN3itk18ImageToImageFilterIN3otb11VectorImageIdLj2EEENS2_IiLj2EEEE14PushFrontInputEPKS3_@Base 5.0.0
 _ZN3itk18ImageToImageFilterIN3otb11VectorImageIdLj2EEENS2_IiLj2EEEE21SetDirectionToleranceEd@Base 5.0.0
 _ZN3itk18ImageToImageFilterIN3otb11VectorImageIdLj2EEENS2_IiLj2EEEE22SetCoordinateToleranceEd@Base 5.0.0
 _ZN3itk18ImageToImageFilterIN3otb11VectorImageIdLj2EEENS2_IiLj2EEEE22VerifyInputInformationEv@Base 5.0.0
 _ZN3itk18ImageToImageFilterIN3otb11VectorImageIdLj2EEENS2_IiLj2EEEE28GenerateInputRequestedRegionEv@Base 5.0.0
 _ZN3itk18ImageToImageFilterIN3otb11VectorImageIdLj2EEENS2_IiLj2EEEE33CallCopyInputRegionToOutputRegionERNS_11ImageRegionILj2EEERKS7_@Base 5.0.0
 _ZN3itk18ImageToImageFilterIN3otb11VectorImageIdLj2EEENS2_IiLj2EEEE33CallCopyOutputRegionToInputRegionERNS_11ImageRegionILj2EEERKS7_@Base 5.0.0
 _ZN3itk18ImageToImageFilterIN3otb11VectorImageIdLj2EEENS2_IiLj2EEEE8SetInputEPKS3_@Base 5.0.0
 _ZN3itk18ImageToImageFilterIN3otb11VectorImageIdLj2EEENS2_IiLj2EEEE8SetInputEjPKS3_@Base 5.0.0
 _ZN3itk18ImageToImageFilterIN3otb11VectorImageIdLj2EEENS2_IiLj2EEEED0Ev@Base 5.0.0
 _ZN3itk18ImageToImageFilterIN3otb11VectorImageIdLj2EEENS2_IiLj2EEEED1Ev@Base 5.0.0
 _ZN3itk18ImageToImageFilterIN3otb11VectorImageIdLj2EEENS2_IiLj2EEEED2Ev@Base 5.0.0
 _ZN3itk18ImageToImageFilterIN3otb11VectorImageIdLj2EEENS2_IjLj2EEEE12PopBackInputEv@Base 5.0.0
 _ZN3itk18ImageToImageFilterIN3otb11VectorImageIdLj2EEENS2_IjLj2EEEE13PopFrontInputEv@Base 5.0.0
 _ZN3itk18ImageToImageFilterIN3otb11VectorImageIdLj2EEENS2_IjLj2EEEE13PushBackInputEPKNS_10DataObjectE@Base 5.0.0
 _ZN3itk18ImageToImageFilterIN3otb11VectorImageIdLj2EEENS2_IjLj2EEEE13PushBackInputEPKS3_@Base 5.0.0
 _ZN3itk18ImageToImageFilterIN3otb11VectorImageIdLj2EEENS2_IjLj2EEEE14PushFrontInputEPKNS_10DataObjectE@Base 5.0.0
 _ZN3itk18ImageToImageFilterIN3otb11VectorImageIdLj2EEENS2_IjLj2EEEE14PushFrontInputEPKS3_@Base 5.0.0
 _ZN3itk18ImageToImageFilterIN3otb11VectorImageIdLj2EEENS2_IjLj2EEEE21SetDirectionToleranceEd@Base 5.0.0
 _ZN3itk18ImageToImageFilterIN3otb11VectorImageIdLj2EEENS2_IjLj2EEEE22SetCoordinateToleranceEd@Base 5.0.0
 _ZN3itk18ImageToImageFilterIN3otb11VectorImageIdLj2EEENS2_IjLj2EEEE22VerifyInputInformationEv@Base 5.0.0
 _ZN3itk18ImageToImageFilterIN3otb11VectorImageIdLj2EEENS2_IjLj2EEEE28GenerateInputRequestedRegionEv@Base 5.0.0
 _ZN3itk18ImageToImageFilterIN3otb11VectorImageIdLj2EEENS2_IjLj2EEEE33CallCopyInputRegionToOutputRegionERNS_11ImageRegionILj2EEERKS7_@Base 5.0.0
 _ZN3itk18ImageToImageFilterIN3otb11VectorImageIdLj2EEENS2_IjLj2EEEE33CallCopyOutputRegionToInputRegionERNS_11ImageRegionILj2EEERKS7_@Base 5.0.0
 _ZN3itk18ImageToImageFilterIN3otb11VectorImageIdLj2EEENS2_IjLj2EEEE8SetInputEPKS3_@Base 5.0.0
 _ZN3itk18ImageToImageFilterIN3otb11VectorImageIdLj2EEENS2_IjLj2EEEE8SetInputEjPKS3_@Base 5.0.0
 _ZN3itk18ImageToImageFilterIN3otb11VectorImageIdLj2EEENS2_IjLj2EEEED0Ev@Base 5.0.0
 _ZN3itk18ImageToImageFilterIN3otb11VectorImageIdLj2EEENS2_IjLj2EEEED1Ev@Base 5.0.0
 _ZN3itk18ImageToImageFilterIN3otb11VectorImageIdLj2EEENS2_IjLj2EEEED2Ev@Base 5.0.0
 _ZN3itk18ImageToImageFilterIN3otb11VectorImageIdLj2EEENS2_IsLj2EEEE12PopBackInputEv@Base 5.0.0
 _ZN3itk18ImageToImageFilterIN3otb11VectorImageIdLj2EEENS2_IsLj2EEEE13PopFrontInputEv@Base 5.0.0
 _ZN3itk18ImageToImageFilterIN3otb11VectorImageIdLj2EEENS2_IsLj2EEEE13PushBackInputEPKNS_10DataObjectE@Base 5.0.0
 _ZN3itk18ImageToImageFilterIN3otb11VectorImageIdLj2EEENS2_IsLj2EEEE13PushBackInputEPKS3_@Base 5.0.0
 _ZN3itk18ImageToImageFilterIN3otb11VectorImageIdLj2EEENS2_IsLj2EEEE14PushFrontInputEPKNS_10DataObjectE@Base 5.0.0
 _ZN3itk18ImageToImageFilterIN3otb11VectorImageIdLj2EEENS2_IsLj2EEEE14PushFrontInputEPKS3_@Base 5.0.0
 _ZN3itk18ImageToImageFilterIN3otb11VectorImageIdLj2EEENS2_IsLj2EEEE21SetDirectionToleranceEd@Base 5.0.0
 _ZN3itk18ImageToImageFilterIN3otb11VectorImageIdLj2EEENS2_IsLj2EEEE22SetCoordinateToleranceEd@Base 5.0.0
 _ZN3itk18ImageToImageFilterIN3otb11VectorImageIdLj2EEENS2_IsLj2EEEE22VerifyInputInformationEv@Base 5.0.0
 _ZN3itk18ImageToImageFilterIN3otb11VectorImageIdLj2EEENS2_IsLj2EEEE28GenerateInputRequestedRegionEv@Base 5.0.0
 _ZN3itk18ImageToImageFilterIN3otb11VectorImageIdLj2EEENS2_IsLj2EEEE33CallCopyInputRegionToOutputRegionERNS_11ImageRegionILj2EEERKS7_@Base 5.0.0
 _ZN3itk18ImageToImageFilterIN3otb11VectorImageIdLj2EEENS2_IsLj2EEEE33CallCopyOutputRegionToInputRegionERNS_11ImageRegionILj2EEERKS7_@Base 5.0.0
 _ZN3itk18ImageToImageFilterIN3otb11VectorImageIdLj2EEENS2_IsLj2EEEE8SetInputEPKS3_@Base 5.0.0
 _ZN3itk18ImageToImageFilterIN3otb11VectorImageIdLj2EEENS2_IsLj2EEEE8SetInputEjPKS3_@Base 5.0.0
 _ZN3itk18ImageToImageFilterIN3otb11VectorImageIdLj2EEENS2_IsLj2EEEED0Ev@Base 5.0.0
 _ZN3itk18ImageToImageFilterIN3otb11VectorImageIdLj2EEENS2_IsLj2EEEED1Ev@Base 5.0.0
 _ZN3itk18ImageToImageFilterIN3otb11VectorImageIdLj2EEENS2_IsLj2EEEED2Ev@Base 5.0.0
 _ZN3itk18ImageToImageFilterIN3otb11VectorImageIdLj2EEENS2_ItLj2EEEE12PopBackInputEv@Base 5.0.0
 _ZN3itk18ImageToImageFilterIN3otb11VectorImageIdLj2EEENS2_ItLj2EEEE13PopFrontInputEv@Base 5.0.0
 _ZN3itk18ImageToImageFilterIN3otb11VectorImageIdLj2EEENS2_ItLj2EEEE13PushBackInputEPKNS_10DataObjectE@Base 5.0.0
 _ZN3itk18ImageToImageFilterIN3otb11VectorImageIdLj2EEENS2_ItLj2EEEE13PushBackInputEPKS3_@Base 5.0.0
 _ZN3itk18ImageToImageFilterIN3otb11VectorImageIdLj2EEENS2_ItLj2EEEE14PushFrontInputEPKNS_10DataObjectE@Base 5.0.0
 _ZN3itk18ImageToImageFilterIN3otb11VectorImageIdLj2EEENS2_ItLj2EEEE14PushFrontInputEPKS3_@Base 5.0.0
 _ZN3itk18ImageToImageFilterIN3otb11VectorImageIdLj2EEENS2_ItLj2EEEE21SetDirectionToleranceEd@Base 5.0.0
 _ZN3itk18ImageToImageFilterIN3otb11VectorImageIdLj2EEENS2_ItLj2EEEE22SetCoordinateToleranceEd@Base 5.0.0
 _ZN3itk18ImageToImageFilterIN3otb11VectorImageIdLj2EEENS2_ItLj2EEEE22VerifyInputInformationEv@Base 5.0.0
 _ZN3itk18ImageToImageFilterIN3otb11VectorImageIdLj2EEENS2_ItLj2EEEE28GenerateInputRequestedRegionEv@Base 5.0.0
 _ZN3itk18ImageToImageFilterIN3otb11VectorImageIdLj2EEENS2_ItLj2EEEE33CallCopyInputRegionToOutputRegionERNS_11ImageRegionILj2EEERKS7_@Base 5.0.0
 _ZN3itk18ImageToImageFilterIN3otb11VectorImageIdLj2EEENS2_ItLj2EEEE33CallCopyOutputRegionToInputRegionERNS_11ImageRegionILj2EEERKS7_@Base 5.0.0
 _ZN3itk18ImageToImageFilterIN3otb11VectorImageIdLj2EEENS2_ItLj2EEEE8SetInputEPKS3_@Base 5.0.0
 _ZN3itk18ImageToImageFilterIN3otb11VectorImageIdLj2EEENS2_ItLj2EEEE8SetInputEjPKS3_@Base 5.0.0
 _ZN3itk18ImageToImageFilterIN3otb11VectorImageIdLj2EEENS2_ItLj2EEEED0Ev@Base 5.0.0
 _ZN3itk18ImageToImageFilterIN3otb11VectorImageIdLj2EEENS2_ItLj2EEEED1Ev@Base 5.0.0
 _ZN3itk18ImageToImageFilterIN3otb11VectorImageIdLj2EEENS2_ItLj2EEEED2Ev@Base 5.0.0
 _ZN3itk18ImageToImageFilterIN3otb11VectorImageIdLj2EEES3_E12PopBackInputEv@Base 5.0.0
 _ZN3itk18ImageToImageFilterIN3otb11VectorImageIdLj2EEES3_E13PopFrontInputEv@Base 5.0.0
 _ZN3itk18ImageToImageFilterIN3otb11VectorImageIdLj2EEES3_E13PushBackInputEPKNS_10DataObjectE@Base 5.0.0
 _ZN3itk18ImageToImageFilterIN3otb11VectorImageIdLj2EEES3_E13PushBackInputEPKS3_@Base 5.0.0
 _ZN3itk18ImageToImageFilterIN3otb11VectorImageIdLj2EEES3_E14PushFrontInputEPKNS_10DataObjectE@Base 5.0.0
 _ZN3itk18ImageToImageFilterIN3otb11VectorImageIdLj2EEES3_E14PushFrontInputEPKS3_@Base 5.0.0
 _ZN3itk18ImageToImageFilterIN3otb11VectorImageIdLj2EEES3_E21SetDirectionToleranceEd@Base 5.0.0
 _ZN3itk18ImageToImageFilterIN3otb11VectorImageIdLj2EEES3_E22SetCoordinateToleranceEd@Base 5.0.0
 _ZN3itk18ImageToImageFilterIN3otb11VectorImageIdLj2EEES3_E22VerifyInputInformationEv@Base 5.0.0
 _ZN3itk18ImageToImageFilterIN3otb11VectorImageIdLj2EEES3_E28GenerateInputRequestedRegionEv@Base 5.0.0
 _ZN3itk18ImageToImageFilterIN3otb11VectorImageIdLj2EEES3_E33CallCopyInputRegionToOutputRegionERNS_11ImageRegionILj2EEERKS6_@Base 5.0.0
 _ZN3itk18ImageToImageFilterIN3otb11VectorImageIdLj2EEES3_E33CallCopyOutputRegionToInputRegionERNS_11ImageRegionILj2EEERKS6_@Base 5.0.0
 _ZN3itk18ImageToImageFilterIN3otb11VectorImageIdLj2EEES3_E8SetInputEPKS3_@Base 5.0.0
 _ZN3itk18ImageToImageFilterIN3otb11VectorImageIdLj2EEES3_E8SetInputEjPKS3_@Base 5.0.0
 _ZN3itk18ImageToImageFilterIN3otb11VectorImageIdLj2EEES3_ED0Ev@Base 5.0.0
 _ZN3itk18ImageToImageFilterIN3otb11VectorImageIdLj2EEES3_ED1Ev@Base 5.0.0
 _ZN3itk18ImageToImageFilterIN3otb11VectorImageIdLj2EEES3_ED2Ev@Base 5.0.0
 _ZN3itk18ImageToImageFilterIN3otb11VectorImageIfLj2EEENS2_IdLj2EEEE12PopBackInputEv@Base 5.0.0
 _ZN3itk18ImageToImageFilterIN3otb11VectorImageIfLj2EEENS2_IdLj2EEEE13PopFrontInputEv@Base 5.0.0
 _ZN3itk18ImageToImageFilterIN3otb11VectorImageIfLj2EEENS2_IdLj2EEEE13PushBackInputEPKNS_10DataObjectE@Base 5.0.0
 _ZN3itk18ImageToImageFilterIN3otb11VectorImageIfLj2EEENS2_IdLj2EEEE13PushBackInputEPKS3_@Base 5.0.0
 _ZN3itk18ImageToImageFilterIN3otb11VectorImageIfLj2EEENS2_IdLj2EEEE14PushFrontInputEPKNS_10DataObjectE@Base 5.0.0
 _ZN3itk18ImageToImageFilterIN3otb11VectorImageIfLj2EEENS2_IdLj2EEEE14PushFrontInputEPKS3_@Base 5.0.0
 _ZN3itk18ImageToImageFilterIN3otb11VectorImageIfLj2EEENS2_IdLj2EEEE21SetDirectionToleranceEd@Base 5.0.0
 _ZN3itk18ImageToImageFilterIN3otb11VectorImageIfLj2EEENS2_IdLj2EEEE22SetCoordinateToleranceEd@Base 5.0.0
 _ZN3itk18ImageToImageFilterIN3otb11VectorImageIfLj2EEENS2_IdLj2EEEE22VerifyInputInformationEv@Base 5.0.0
 _ZN3itk18ImageToImageFilterIN3otb11VectorImageIfLj2EEENS2_IdLj2EEEE28GenerateInputRequestedRegionEv@Base 5.0.0
 _ZN3itk18ImageToImageFilterIN3otb11VectorImageIfLj2EEENS2_IdLj2EEEE33CallCopyInputRegionToOutputRegionERNS_11ImageRegionILj2EEERKS7_@Base 5.0.0
 _ZN3itk18ImageToImageFilterIN3otb11VectorImageIfLj2EEENS2_IdLj2EEEE33CallCopyOutputRegionToInputRegionERNS_11ImageRegionILj2EEERKS7_@Base 5.0.0
 _ZN3itk18ImageToImageFilterIN3otb11VectorImageIfLj2EEENS2_IdLj2EEEE8SetInputEPKS3_@Base 5.0.0
 _ZN3itk18ImageToImageFilterIN3otb11VectorImageIfLj2EEENS2_IdLj2EEEE8SetInputEjPKS3_@Base 5.0.0
 _ZN3itk18ImageToImageFilterIN3otb11VectorImageIfLj2EEENS2_IdLj2EEEED0Ev@Base 5.0.0
 _ZN3itk18ImageToImageFilterIN3otb11VectorImageIfLj2EEENS2_IdLj2EEEED1Ev@Base 5.0.0
 _ZN3itk18ImageToImageFilterIN3otb11VectorImageIfLj2EEENS2_IdLj2EEEED2Ev@Base 5.0.0
 _ZN3itk18ImageToImageFilterIN3otb11VectorImageIfLj2EEENS2_IhLj2EEEE12PopBackInputEv@Base 5.0.0
 _ZN3itk18ImageToImageFilterIN3otb11VectorImageIfLj2EEENS2_IhLj2EEEE13PopFrontInputEv@Base 5.0.0
 _ZN3itk18ImageToImageFilterIN3otb11VectorImageIfLj2EEENS2_IhLj2EEEE13PushBackInputEPKNS_10DataObjectE@Base 5.0.0
 _ZN3itk18ImageToImageFilterIN3otb11VectorImageIfLj2EEENS2_IhLj2EEEE13PushBackInputEPKS3_@Base 5.0.0
 _ZN3itk18ImageToImageFilterIN3otb11VectorImageIfLj2EEENS2_IhLj2EEEE14PushFrontInputEPKNS_10DataObjectE@Base 5.0.0
 _ZN3itk18ImageToImageFilterIN3otb11VectorImageIfLj2EEENS2_IhLj2EEEE14PushFrontInputEPKS3_@Base 5.0.0
 _ZN3itk18ImageToImageFilterIN3otb11VectorImageIfLj2EEENS2_IhLj2EEEE21SetDirectionToleranceEd@Base 5.0.0
 _ZN3itk18ImageToImageFilterIN3otb11VectorImageIfLj2EEENS2_IhLj2EEEE22SetCoordinateToleranceEd@Base 5.0.0
 _ZN3itk18ImageToImageFilterIN3otb11VectorImageIfLj2EEENS2_IhLj2EEEE22VerifyInputInformationEv@Base 5.0.0
 _ZN3itk18ImageToImageFilterIN3otb11VectorImageIfLj2EEENS2_IhLj2EEEE28GenerateInputRequestedRegionEv@Base 5.0.0
 _ZN3itk18ImageToImageFilterIN3otb11VectorImageIfLj2EEENS2_IhLj2EEEE33CallCopyInputRegionToOutputRegionERNS_11ImageRegionILj2EEERKS7_@Base 5.0.0
 _ZN3itk18ImageToImageFilterIN3otb11VectorImageIfLj2EEENS2_IhLj2EEEE33CallCopyOutputRegionToInputRegionERNS_11ImageRegionILj2EEERKS7_@Base 5.0.0
 _ZN3itk18ImageToImageFilterIN3otb11VectorImageIfLj2EEENS2_IhLj2EEEE8SetInputEPKS3_@Base 5.0.0
 _ZN3itk18ImageToImageFilterIN3otb11VectorImageIfLj2EEENS2_IhLj2EEEE8SetInputEjPKS3_@Base 5.0.0
 _ZN3itk18ImageToImageFilterIN3otb11VectorImageIfLj2EEENS2_IhLj2EEEED0Ev@Base 5.0.0
 _ZN3itk18ImageToImageFilterIN3otb11VectorImageIfLj2EEENS2_IhLj2EEEED1Ev@Base 5.0.0
 _ZN3itk18ImageToImageFilterIN3otb11VectorImageIfLj2EEENS2_IhLj2EEEED2Ev@Base 5.0.0
 _ZN3itk18ImageToImageFilterIN3otb11VectorImageIfLj2EEENS2_IiLj2EEEE12PopBackInputEv@Base 5.0.0
 _ZN3itk18ImageToImageFilterIN3otb11VectorImageIfLj2EEENS2_IiLj2EEEE13PopFrontInputEv@Base 5.0.0
 _ZN3itk18ImageToImageFilterIN3otb11VectorImageIfLj2EEENS2_IiLj2EEEE13PushBackInputEPKNS_10DataObjectE@Base 5.0.0
 _ZN3itk18ImageToImageFilterIN3otb11VectorImageIfLj2EEENS2_IiLj2EEEE13PushBackInputEPKS3_@Base 5.0.0
 _ZN3itk18ImageToImageFilterIN3otb11VectorImageIfLj2EEENS2_IiLj2EEEE14PushFrontInputEPKNS_10DataObjectE@Base 5.0.0
 _ZN3itk18ImageToImageFilterIN3otb11VectorImageIfLj2EEENS2_IiLj2EEEE14PushFrontInputEPKS3_@Base 5.0.0
 _ZN3itk18ImageToImageFilterIN3otb11VectorImageIfLj2EEENS2_IiLj2EEEE21SetDirectionToleranceEd@Base 5.0.0
 _ZN3itk18ImageToImageFilterIN3otb11VectorImageIfLj2EEENS2_IiLj2EEEE22SetCoordinateToleranceEd@Base 5.0.0
 _ZN3itk18ImageToImageFilterIN3otb11VectorImageIfLj2EEENS2_IiLj2EEEE22VerifyInputInformationEv@Base 5.0.0
 _ZN3itk18ImageToImageFilterIN3otb11VectorImageIfLj2EEENS2_IiLj2EEEE28GenerateInputRequestedRegionEv@Base 5.0.0
 _ZN3itk18ImageToImageFilterIN3otb11VectorImageIfLj2EEENS2_IiLj2EEEE33CallCopyInputRegionToOutputRegionERNS_11ImageRegionILj2EEERKS7_@Base 5.0.0
 _ZN3itk18ImageToImageFilterIN3otb11VectorImageIfLj2EEENS2_IiLj2EEEE33CallCopyOutputRegionToInputRegionERNS_11ImageRegionILj2EEERKS7_@Base 5.0.0
 _ZN3itk18ImageToImageFilterIN3otb11VectorImageIfLj2EEENS2_IiLj2EEEE8SetInputEPKS3_@Base 5.0.0
 _ZN3itk18ImageToImageFilterIN3otb11VectorImageIfLj2EEENS2_IiLj2EEEE8SetInputEjPKS3_@Base 5.0.0
 _ZN3itk18ImageToImageFilterIN3otb11VectorImageIfLj2EEENS2_IiLj2EEEED0Ev@Base 5.0.0
 _ZN3itk18ImageToImageFilterIN3otb11VectorImageIfLj2EEENS2_IiLj2EEEED1Ev@Base 5.0.0
 _ZN3itk18ImageToImageFilterIN3otb11VectorImageIfLj2EEENS2_IiLj2EEEED2Ev@Base 5.0.0
 _ZN3itk18ImageToImageFilterIN3otb11VectorImageIfLj2EEENS2_IjLj2EEEE12PopBackInputEv@Base 5.0.0
 _ZN3itk18ImageToImageFilterIN3otb11VectorImageIfLj2EEENS2_IjLj2EEEE13PopFrontInputEv@Base 5.0.0
 _ZN3itk18ImageToImageFilterIN3otb11VectorImageIfLj2EEENS2_IjLj2EEEE13PushBackInputEPKNS_10DataObjectE@Base 5.0.0
 _ZN3itk18ImageToImageFilterIN3otb11VectorImageIfLj2EEENS2_IjLj2EEEE13PushBackInputEPKS3_@Base 5.0.0
 _ZN3itk18ImageToImageFilterIN3otb11VectorImageIfLj2EEENS2_IjLj2EEEE14PushFrontInputEPKNS_10DataObjectE@Base 5.0.0
 _ZN3itk18ImageToImageFilterIN3otb11VectorImageIfLj2EEENS2_IjLj2EEEE14PushFrontInputEPKS3_@Base 5.0.0
 _ZN3itk18ImageToImageFilterIN3otb11VectorImageIfLj2EEENS2_IjLj2EEEE21SetDirectionToleranceEd@Base 5.0.0
 _ZN3itk18ImageToImageFilterIN3otb11VectorImageIfLj2EEENS2_IjLj2EEEE22SetCoordinateToleranceEd@Base 5.0.0
 _ZN3itk18ImageToImageFilterIN3otb11VectorImageIfLj2EEENS2_IjLj2EEEE22VerifyInputInformationEv@Base 5.0.0
 _ZN3itk18ImageToImageFilterIN3otb11VectorImageIfLj2EEENS2_IjLj2EEEE28GenerateInputRequestedRegionEv@Base 5.0.0
 _ZN3itk18ImageToImageFilterIN3otb11VectorImageIfLj2EEENS2_IjLj2EEEE33CallCopyInputRegionToOutputRegionERNS_11ImageRegionILj2EEERKS7_@Base 5.0.0
 _ZN3itk18ImageToImageFilterIN3otb11VectorImageIfLj2EEENS2_IjLj2EEEE33CallCopyOutputRegionToInputRegionERNS_11ImageRegionILj2EEERKS7_@Base 5.0.0
 _ZN3itk18ImageToImageFilterIN3otb11VectorImageIfLj2EEENS2_IjLj2EEEE8SetInputEPKS3_@Base 5.0.0
 _ZN3itk18ImageToImageFilterIN3otb11VectorImageIfLj2EEENS2_IjLj2EEEE8SetInputEjPKS3_@Base 5.0.0
 _ZN3itk18ImageToImageFilterIN3otb11VectorImageIfLj2EEENS2_IjLj2EEEED0Ev@Base 5.0.0
 _ZN3itk18ImageToImageFilterIN3otb11VectorImageIfLj2EEENS2_IjLj2EEEED1Ev@Base 5.0.0
 _ZN3itk18ImageToImageFilterIN3otb11VectorImageIfLj2EEENS2_IjLj2EEEED2Ev@Base 5.0.0
 _ZN3itk18ImageToImageFilterIN3otb11VectorImageIfLj2EEENS2_IsLj2EEEE12PopBackInputEv@Base 5.0.0
 _ZN3itk18ImageToImageFilterIN3otb11VectorImageIfLj2EEENS2_IsLj2EEEE13PopFrontInputEv@Base 5.0.0
 _ZN3itk18ImageToImageFilterIN3otb11VectorImageIfLj2EEENS2_IsLj2EEEE13PushBackInputEPKNS_10DataObjectE@Base 5.0.0
 _ZN3itk18ImageToImageFilterIN3otb11VectorImageIfLj2EEENS2_IsLj2EEEE13PushBackInputEPKS3_@Base 5.0.0
 _ZN3itk18ImageToImageFilterIN3otb11VectorImageIfLj2EEENS2_IsLj2EEEE14PushFrontInputEPKNS_10DataObjectE@Base 5.0.0
 _ZN3itk18ImageToImageFilterIN3otb11VectorImageIfLj2EEENS2_IsLj2EEEE14PushFrontInputEPKS3_@Base 5.0.0
 _ZN3itk18ImageToImageFilterIN3otb11VectorImageIfLj2EEENS2_IsLj2EEEE21SetDirectionToleranceEd@Base 5.0.0
 _ZN3itk18ImageToImageFilterIN3otb11VectorImageIfLj2EEENS2_IsLj2EEEE22SetCoordinateToleranceEd@Base 5.0.0
 _ZN3itk18ImageToImageFilterIN3otb11VectorImageIfLj2EEENS2_IsLj2EEEE22VerifyInputInformationEv@Base 5.0.0
 _ZN3itk18ImageToImageFilterIN3otb11VectorImageIfLj2EEENS2_IsLj2EEEE28GenerateInputRequestedRegionEv@Base 5.0.0
 _ZN3itk18ImageToImageFilterIN3otb11VectorImageIfLj2EEENS2_IsLj2EEEE33CallCopyInputRegionToOutputRegionERNS_11ImageRegionILj2EEERKS7_@Base 5.0.0
 _ZN3itk18ImageToImageFilterIN3otb11VectorImageIfLj2EEENS2_IsLj2EEEE33CallCopyOutputRegionToInputRegionERNS_11ImageRegionILj2EEERKS7_@Base 5.0.0
 _ZN3itk18ImageToImageFilterIN3otb11VectorImageIfLj2EEENS2_IsLj2EEEE8SetInputEPKS3_@Base 5.0.0
 _ZN3itk18ImageToImageFilterIN3otb11VectorImageIfLj2EEENS2_IsLj2EEEE8SetInputEjPKS3_@Base 5.0.0
 _ZN3itk18ImageToImageFilterIN3otb11VectorImageIfLj2EEENS2_IsLj2EEEED0Ev@Base 5.0.0
 _ZN3itk18ImageToImageFilterIN3otb11VectorImageIfLj2EEENS2_IsLj2EEEED1Ev@Base 5.0.0
 _ZN3itk18ImageToImageFilterIN3otb11VectorImageIfLj2EEENS2_IsLj2EEEED2Ev@Base 5.0.0
 _ZN3itk18ImageToImageFilterIN3otb11VectorImageIfLj2EEENS2_ItLj2EEEE12PopBackInputEv@Base 5.0.0
 _ZN3itk18ImageToImageFilterIN3otb11VectorImageIfLj2EEENS2_ItLj2EEEE13PopFrontInputEv@Base 5.0.0
 _ZN3itk18ImageToImageFilterIN3otb11VectorImageIfLj2EEENS2_ItLj2EEEE13PushBackInputEPKNS_10DataObjectE@Base 5.0.0
 _ZN3itk18ImageToImageFilterIN3otb11VectorImageIfLj2EEENS2_ItLj2EEEE13PushBackInputEPKS3_@Base 5.0.0
 _ZN3itk18ImageToImageFilterIN3otb11VectorImageIfLj2EEENS2_ItLj2EEEE14PushFrontInputEPKNS_10DataObjectE@Base 5.0.0
 _ZN3itk18ImageToImageFilterIN3otb11VectorImageIfLj2EEENS2_ItLj2EEEE14PushFrontInputEPKS3_@Base 5.0.0
 _ZN3itk18ImageToImageFilterIN3otb11VectorImageIfLj2EEENS2_ItLj2EEEE21SetDirectionToleranceEd@Base 5.0.0
 _ZN3itk18ImageToImageFilterIN3otb11VectorImageIfLj2EEENS2_ItLj2EEEE22SetCoordinateToleranceEd@Base 5.0.0
 _ZN3itk18ImageToImageFilterIN3otb11VectorImageIfLj2EEENS2_ItLj2EEEE22VerifyInputInformationEv@Base 5.0.0
 _ZN3itk18ImageToImageFilterIN3otb11VectorImageIfLj2EEENS2_ItLj2EEEE28GenerateInputRequestedRegionEv@Base 5.0.0
 _ZN3itk18ImageToImageFilterIN3otb11VectorImageIfLj2EEENS2_ItLj2EEEE33CallCopyInputRegionToOutputRegionERNS_11ImageRegionILj2EEERKS7_@Base 5.0.0
 _ZN3itk18ImageToImageFilterIN3otb11VectorImageIfLj2EEENS2_ItLj2EEEE33CallCopyOutputRegionToInputRegionERNS_11ImageRegionILj2EEERKS7_@Base 5.0.0
 _ZN3itk18ImageToImageFilterIN3otb11VectorImageIfLj2EEENS2_ItLj2EEEE8SetInputEPKS3_@Base 5.0.0
 _ZN3itk18ImageToImageFilterIN3otb11VectorImageIfLj2EEENS2_ItLj2EEEE8SetInputEjPKS3_@Base 5.0.0
 _ZN3itk18ImageToImageFilterIN3otb11VectorImageIfLj2EEENS2_ItLj2EEEED0Ev@Base 5.0.0
 _ZN3itk18ImageToImageFilterIN3otb11VectorImageIfLj2EEENS2_ItLj2EEEED1Ev@Base 5.0.0
 _ZN3itk18ImageToImageFilterIN3otb11VectorImageIfLj2EEENS2_ItLj2EEEED2Ev@Base 5.0.0
 _ZN3itk18ImageToImageFilterIN3otb11VectorImageIfLj2EEES3_E12PopBackInputEv@Base 5.0.0
 _ZN3itk18ImageToImageFilterIN3otb11VectorImageIfLj2EEES3_E13PopFrontInputEv@Base 5.0.0
 _ZN3itk18ImageToImageFilterIN3otb11VectorImageIfLj2EEES3_E13PushBackInputEPKNS_10DataObjectE@Base 5.0.0
 _ZN3itk18ImageToImageFilterIN3otb11VectorImageIfLj2EEES3_E13PushBackInputEPKS3_@Base 5.0.0
 _ZN3itk18ImageToImageFilterIN3otb11VectorImageIfLj2EEES3_E14PushFrontInputEPKNS_10DataObjectE@Base 5.0.0
 _ZN3itk18ImageToImageFilterIN3otb11VectorImageIfLj2EEES3_E14PushFrontInputEPKS3_@Base 5.0.0
 _ZN3itk18ImageToImageFilterIN3otb11VectorImageIfLj2EEES3_E21SetDirectionToleranceEd@Base 5.0.0
 _ZN3itk18ImageToImageFilterIN3otb11VectorImageIfLj2EEES3_E22SetCoordinateToleranceEd@Base 5.0.0
 _ZN3itk18ImageToImageFilterIN3otb11VectorImageIfLj2EEES3_E22VerifyInputInformationEv@Base 5.0.0
 _ZN3itk18ImageToImageFilterIN3otb11VectorImageIfLj2EEES3_E28GenerateInputRequestedRegionEv@Base 5.0.0
 _ZN3itk18ImageToImageFilterIN3otb11VectorImageIfLj2EEES3_E33CallCopyInputRegionToOutputRegionERNS_11ImageRegionILj2EEERKS6_@Base 5.0.0
 _ZN3itk18ImageToImageFilterIN3otb11VectorImageIfLj2EEES3_E33CallCopyOutputRegionToInputRegionERNS_11ImageRegionILj2EEERKS6_@Base 5.0.0
 _ZN3itk18ImageToImageFilterIN3otb11VectorImageIfLj2EEES3_E8SetInputEPKS3_@Base 5.0.0
 _ZN3itk18ImageToImageFilterIN3otb11VectorImageIfLj2EEES3_E8SetInputEjPKS3_@Base 5.0.0
 _ZN3itk18ImageToImageFilterIN3otb11VectorImageIfLj2EEES3_ED0Ev@Base 5.0.0
 _ZN3itk18ImageToImageFilterIN3otb11VectorImageIfLj2EEES3_ED1Ev@Base 5.0.0
 _ZN3itk18ImageToImageFilterIN3otb11VectorImageIfLj2EEES3_ED2Ev@Base 5.0.0
 _ZN3itk18ImageToImageFilterIN3otb11VectorImageIhLj2EEENS2_IdLj2EEEE12PopBackInputEv@Base 5.0.0
 _ZN3itk18ImageToImageFilterIN3otb11VectorImageIhLj2EEENS2_IdLj2EEEE13PopFrontInputEv@Base 5.0.0
 _ZN3itk18ImageToImageFilterIN3otb11VectorImageIhLj2EEENS2_IdLj2EEEE13PushBackInputEPKNS_10DataObjectE@Base 5.0.0
 _ZN3itk18ImageToImageFilterIN3otb11VectorImageIhLj2EEENS2_IdLj2EEEE13PushBackInputEPKS3_@Base 5.0.0
 _ZN3itk18ImageToImageFilterIN3otb11VectorImageIhLj2EEENS2_IdLj2EEEE14PushFrontInputEPKNS_10DataObjectE@Base 5.0.0
 _ZN3itk18ImageToImageFilterIN3otb11VectorImageIhLj2EEENS2_IdLj2EEEE14PushFrontInputEPKS3_@Base 5.0.0
 _ZN3itk18ImageToImageFilterIN3otb11VectorImageIhLj2EEENS2_IdLj2EEEE21SetDirectionToleranceEd@Base 5.0.0
 _ZN3itk18ImageToImageFilterIN3otb11VectorImageIhLj2EEENS2_IdLj2EEEE22SetCoordinateToleranceEd@Base 5.0.0
 _ZN3itk18ImageToImageFilterIN3otb11VectorImageIhLj2EEENS2_IdLj2EEEE22VerifyInputInformationEv@Base 5.0.0
 _ZN3itk18ImageToImageFilterIN3otb11VectorImageIhLj2EEENS2_IdLj2EEEE28GenerateInputRequestedRegionEv@Base 5.0.0
 _ZN3itk18ImageToImageFilterIN3otb11VectorImageIhLj2EEENS2_IdLj2EEEE33CallCopyInputRegionToOutputRegionERNS_11ImageRegionILj2EEERKS7_@Base 5.0.0
 _ZN3itk18ImageToImageFilterIN3otb11VectorImageIhLj2EEENS2_IdLj2EEEE33CallCopyOutputRegionToInputRegionERNS_11ImageRegionILj2EEERKS7_@Base 5.0.0
 _ZN3itk18ImageToImageFilterIN3otb11VectorImageIhLj2EEENS2_IdLj2EEEE8SetInputEPKS3_@Base 5.0.0
 _ZN3itk18ImageToImageFilterIN3otb11VectorImageIhLj2EEENS2_IdLj2EEEE8SetInputEjPKS3_@Base 5.0.0
 _ZN3itk18ImageToImageFilterIN3otb11VectorImageIhLj2EEENS2_IdLj2EEEED0Ev@Base 5.0.0
 _ZN3itk18ImageToImageFilterIN3otb11VectorImageIhLj2EEENS2_IdLj2EEEED1Ev@Base 5.0.0
 _ZN3itk18ImageToImageFilterIN3otb11VectorImageIhLj2EEENS2_IdLj2EEEED2Ev@Base 5.0.0
 _ZN3itk18ImageToImageFilterIN3otb11VectorImageIhLj2EEENS2_IfLj2EEEE12PopBackInputEv@Base 5.0.0
 _ZN3itk18ImageToImageFilterIN3otb11VectorImageIhLj2EEENS2_IfLj2EEEE13PopFrontInputEv@Base 5.0.0
 _ZN3itk18ImageToImageFilterIN3otb11VectorImageIhLj2EEENS2_IfLj2EEEE13PushBackInputEPKNS_10DataObjectE@Base 5.0.0
 _ZN3itk18ImageToImageFilterIN3otb11VectorImageIhLj2EEENS2_IfLj2EEEE13PushBackInputEPKS3_@Base 5.0.0
 _ZN3itk18ImageToImageFilterIN3otb11VectorImageIhLj2EEENS2_IfLj2EEEE14PushFrontInputEPKNS_10DataObjectE@Base 5.0.0
 _ZN3itk18ImageToImageFilterIN3otb11VectorImageIhLj2EEENS2_IfLj2EEEE14PushFrontInputEPKS3_@Base 5.0.0
 _ZN3itk18ImageToImageFilterIN3otb11VectorImageIhLj2EEENS2_IfLj2EEEE21SetDirectionToleranceEd@Base 5.0.0
 _ZN3itk18ImageToImageFilterIN3otb11VectorImageIhLj2EEENS2_IfLj2EEEE22SetCoordinateToleranceEd@Base 5.0.0
 _ZN3itk18ImageToImageFilterIN3otb11VectorImageIhLj2EEENS2_IfLj2EEEE22VerifyInputInformationEv@Base 5.0.0
 _ZN3itk18ImageToImageFilterIN3otb11VectorImageIhLj2EEENS2_IfLj2EEEE28GenerateInputRequestedRegionEv@Base 5.0.0
 _ZN3itk18ImageToImageFilterIN3otb11VectorImageIhLj2EEENS2_IfLj2EEEE33CallCopyInputRegionToOutputRegionERNS_11ImageRegionILj2EEERKS7_@Base 5.0.0
 _ZN3itk18ImageToImageFilterIN3otb11VectorImageIhLj2EEENS2_IfLj2EEEE33CallCopyOutputRegionToInputRegionERNS_11ImageRegionILj2EEERKS7_@Base 5.0.0
 _ZN3itk18ImageToImageFilterIN3otb11VectorImageIhLj2EEENS2_IfLj2EEEE8SetInputEPKS3_@Base 5.0.0
 _ZN3itk18ImageToImageFilterIN3otb11VectorImageIhLj2EEENS2_IfLj2EEEE8SetInputEjPKS3_@Base 5.0.0
 _ZN3itk18ImageToImageFilterIN3otb11VectorImageIhLj2EEENS2_IfLj2EEEED0Ev@Base 5.0.0
 _ZN3itk18ImageToImageFilterIN3otb11VectorImageIhLj2EEENS2_IfLj2EEEED1Ev@Base 5.0.0
 _ZN3itk18ImageToImageFilterIN3otb11VectorImageIhLj2EEENS2_IfLj2EEEED2Ev@Base 5.0.0
 _ZN3itk18ImageToImageFilterIN3otb11VectorImageIhLj2EEENS2_IiLj2EEEE12PopBackInputEv@Base 5.0.0
 _ZN3itk18ImageToImageFilterIN3otb11VectorImageIhLj2EEENS2_IiLj2EEEE13PopFrontInputEv@Base 5.0.0
 _ZN3itk18ImageToImageFilterIN3otb11VectorImageIhLj2EEENS2_IiLj2EEEE13PushBackInputEPKNS_10DataObjectE@Base 5.0.0
 _ZN3itk18ImageToImageFilterIN3otb11VectorImageIhLj2EEENS2_IiLj2EEEE13PushBackInputEPKS3_@Base 5.0.0
 _ZN3itk18ImageToImageFilterIN3otb11VectorImageIhLj2EEENS2_IiLj2EEEE14PushFrontInputEPKNS_10DataObjectE@Base 5.0.0
 _ZN3itk18ImageToImageFilterIN3otb11VectorImageIhLj2EEENS2_IiLj2EEEE14PushFrontInputEPKS3_@Base 5.0.0
 _ZN3itk18ImageToImageFilterIN3otb11VectorImageIhLj2EEENS2_IiLj2EEEE21SetDirectionToleranceEd@Base 5.0.0
 _ZN3itk18ImageToImageFilterIN3otb11VectorImageIhLj2EEENS2_IiLj2EEEE22SetCoordinateToleranceEd@Base 5.0.0
 _ZN3itk18ImageToImageFilterIN3otb11VectorImageIhLj2EEENS2_IiLj2EEEE22VerifyInputInformationEv@Base 5.0.0
 _ZN3itk18ImageToImageFilterIN3otb11VectorImageIhLj2EEENS2_IiLj2EEEE28GenerateInputRequestedRegionEv@Base 5.0.0
 _ZN3itk18ImageToImageFilterIN3otb11VectorImageIhLj2EEENS2_IiLj2EEEE33CallCopyInputRegionToOutputRegionERNS_11ImageRegionILj2EEERKS7_@Base 5.0.0
 _ZN3itk18ImageToImageFilterIN3otb11VectorImageIhLj2EEENS2_IiLj2EEEE33CallCopyOutputRegionToInputRegionERNS_11ImageRegionILj2EEERKS7_@Base 5.0.0
 _ZN3itk18ImageToImageFilterIN3otb11VectorImageIhLj2EEENS2_IiLj2EEEE8SetInputEPKS3_@Base 5.0.0
 _ZN3itk18ImageToImageFilterIN3otb11VectorImageIhLj2EEENS2_IiLj2EEEE8SetInputEjPKS3_@Base 5.0.0
 _ZN3itk18ImageToImageFilterIN3otb11VectorImageIhLj2EEENS2_IiLj2EEEED0Ev@Base 5.0.0
 _ZN3itk18ImageToImageFilterIN3otb11VectorImageIhLj2EEENS2_IiLj2EEEED1Ev@Base 5.0.0
 _ZN3itk18ImageToImageFilterIN3otb11VectorImageIhLj2EEENS2_IiLj2EEEED2Ev@Base 5.0.0
 _ZN3itk18ImageToImageFilterIN3otb11VectorImageIhLj2EEENS2_IjLj2EEEE12PopBackInputEv@Base 5.0.0
 _ZN3itk18ImageToImageFilterIN3otb11VectorImageIhLj2EEENS2_IjLj2EEEE13PopFrontInputEv@Base 5.0.0
 _ZN3itk18ImageToImageFilterIN3otb11VectorImageIhLj2EEENS2_IjLj2EEEE13PushBackInputEPKNS_10DataObjectE@Base 5.0.0
 _ZN3itk18ImageToImageFilterIN3otb11VectorImageIhLj2EEENS2_IjLj2EEEE13PushBackInputEPKS3_@Base 5.0.0
 _ZN3itk18ImageToImageFilterIN3otb11VectorImageIhLj2EEENS2_IjLj2EEEE14PushFrontInputEPKNS_10DataObjectE@Base 5.0.0
 _ZN3itk18ImageToImageFilterIN3otb11VectorImageIhLj2EEENS2_IjLj2EEEE14PushFrontInputEPKS3_@Base 5.0.0
 _ZN3itk18ImageToImageFilterIN3otb11VectorImageIhLj2EEENS2_IjLj2EEEE21SetDirectionToleranceEd@Base 5.0.0
 _ZN3itk18ImageToImageFilterIN3otb11VectorImageIhLj2EEENS2_IjLj2EEEE22SetCoordinateToleranceEd@Base 5.0.0
 _ZN3itk18ImageToImageFilterIN3otb11VectorImageIhLj2EEENS2_IjLj2EEEE22VerifyInputInformationEv@Base 5.0.0
 _ZN3itk18ImageToImageFilterIN3otb11VectorImageIhLj2EEENS2_IjLj2EEEE28GenerateInputRequestedRegionEv@Base 5.0.0
 _ZN3itk18ImageToImageFilterIN3otb11VectorImageIhLj2EEENS2_IjLj2EEEE33CallCopyInputRegionToOutputRegionERNS_11ImageRegionILj2EEERKS7_@Base 5.0.0
 _ZN3itk18ImageToImageFilterIN3otb11VectorImageIhLj2EEENS2_IjLj2EEEE33CallCopyOutputRegionToInputRegionERNS_11ImageRegionILj2EEERKS7_@Base 5.0.0
 _ZN3itk18ImageToImageFilterIN3otb11VectorImageIhLj2EEENS2_IjLj2EEEE8SetInputEPKS3_@Base 5.0.0
 _ZN3itk18ImageToImageFilterIN3otb11VectorImageIhLj2EEENS2_IjLj2EEEE8SetInputEjPKS3_@Base 5.0.0
 _ZN3itk18ImageToImageFilterIN3otb11VectorImageIhLj2EEENS2_IjLj2EEEED0Ev@Base 5.0.0
 _ZN3itk18ImageToImageFilterIN3otb11VectorImageIhLj2EEENS2_IjLj2EEEED1Ev@Base 5.0.0
 _ZN3itk18ImageToImageFilterIN3otb11VectorImageIhLj2EEENS2_IjLj2EEEED2Ev@Base 5.0.0
 _ZN3itk18ImageToImageFilterIN3otb11VectorImageIhLj2EEENS2_IsLj2EEEE12PopBackInputEv@Base 5.0.0
 _ZN3itk18ImageToImageFilterIN3otb11VectorImageIhLj2EEENS2_IsLj2EEEE13PopFrontInputEv@Base 5.0.0
 _ZN3itk18ImageToImageFilterIN3otb11VectorImageIhLj2EEENS2_IsLj2EEEE13PushBackInputEPKNS_10DataObjectE@Base 5.0.0
 _ZN3itk18ImageToImageFilterIN3otb11VectorImageIhLj2EEENS2_IsLj2EEEE13PushBackInputEPKS3_@Base 5.0.0
 _ZN3itk18ImageToImageFilterIN3otb11VectorImageIhLj2EEENS2_IsLj2EEEE14PushFrontInputEPKNS_10DataObjectE@Base 5.0.0
 _ZN3itk18ImageToImageFilterIN3otb11VectorImageIhLj2EEENS2_IsLj2EEEE14PushFrontInputEPKS3_@Base 5.0.0
 _ZN3itk18ImageToImageFilterIN3otb11VectorImageIhLj2EEENS2_IsLj2EEEE21SetDirectionToleranceEd@Base 5.0.0
 _ZN3itk18ImageToImageFilterIN3otb11VectorImageIhLj2EEENS2_IsLj2EEEE22SetCoordinateToleranceEd@Base 5.0.0
 _ZN3itk18ImageToImageFilterIN3otb11VectorImageIhLj2EEENS2_IsLj2EEEE22VerifyInputInformationEv@Base 5.0.0
 _ZN3itk18ImageToImageFilterIN3otb11VectorImageIhLj2EEENS2_IsLj2EEEE28GenerateInputRequestedRegionEv@Base 5.0.0
 _ZN3itk18ImageToImageFilterIN3otb11VectorImageIhLj2EEENS2_IsLj2EEEE33CallCopyInputRegionToOutputRegionERNS_11ImageRegionILj2EEERKS7_@Base 5.0.0
 _ZN3itk18ImageToImageFilterIN3otb11VectorImageIhLj2EEENS2_IsLj2EEEE33CallCopyOutputRegionToInputRegionERNS_11ImageRegionILj2EEERKS7_@Base 5.0.0
 _ZN3itk18ImageToImageFilterIN3otb11VectorImageIhLj2EEENS2_IsLj2EEEE8SetInputEPKS3_@Base 5.0.0
 _ZN3itk18ImageToImageFilterIN3otb11VectorImageIhLj2EEENS2_IsLj2EEEE8SetInputEjPKS3_@Base 5.0.0
 _ZN3itk18ImageToImageFilterIN3otb11VectorImageIhLj2EEENS2_IsLj2EEEED0Ev@Base 5.0.0
 _ZN3itk18ImageToImageFilterIN3otb11VectorImageIhLj2EEENS2_IsLj2EEEED1Ev@Base 5.0.0
 _ZN3itk18ImageToImageFilterIN3otb11VectorImageIhLj2EEENS2_IsLj2EEEED2Ev@Base 5.0.0
 _ZN3itk18ImageToImageFilterIN3otb11VectorImageIhLj2EEENS2_ItLj2EEEE12PopBackInputEv@Base 5.0.0
 _ZN3itk18ImageToImageFilterIN3otb11VectorImageIhLj2EEENS2_ItLj2EEEE13PopFrontInputEv@Base 5.0.0
 _ZN3itk18ImageToImageFilterIN3otb11VectorImageIhLj2EEENS2_ItLj2EEEE13PushBackInputEPKNS_10DataObjectE@Base 5.0.0
 _ZN3itk18ImageToImageFilterIN3otb11VectorImageIhLj2EEENS2_ItLj2EEEE13PushBackInputEPKS3_@Base 5.0.0
 _ZN3itk18ImageToImageFilterIN3otb11VectorImageIhLj2EEENS2_ItLj2EEEE14PushFrontInputEPKNS_10DataObjectE@Base 5.0.0
 _ZN3itk18ImageToImageFilterIN3otb11VectorImageIhLj2EEENS2_ItLj2EEEE14PushFrontInputEPKS3_@Base 5.0.0
 _ZN3itk18ImageToImageFilterIN3otb11VectorImageIhLj2EEENS2_ItLj2EEEE21SetDirectionToleranceEd@Base 5.0.0
 _ZN3itk18ImageToImageFilterIN3otb11VectorImageIhLj2EEENS2_ItLj2EEEE22SetCoordinateToleranceEd@Base 5.0.0
 _ZN3itk18ImageToImageFilterIN3otb11VectorImageIhLj2EEENS2_ItLj2EEEE22VerifyInputInformationEv@Base 5.0.0
 _ZN3itk18ImageToImageFilterIN3otb11VectorImageIhLj2EEENS2_ItLj2EEEE28GenerateInputRequestedRegionEv@Base 5.0.0
 _ZN3itk18ImageToImageFilterIN3otb11VectorImageIhLj2EEENS2_ItLj2EEEE33CallCopyInputRegionToOutputRegionERNS_11ImageRegionILj2EEERKS7_@Base 5.0.0
 _ZN3itk18ImageToImageFilterIN3otb11VectorImageIhLj2EEENS2_ItLj2EEEE33CallCopyOutputRegionToInputRegionERNS_11ImageRegionILj2EEERKS7_@Base 5.0.0
 _ZN3itk18ImageToImageFilterIN3otb11VectorImageIhLj2EEENS2_ItLj2EEEE8SetInputEPKS3_@Base 5.0.0
 _ZN3itk18ImageToImageFilterIN3otb11VectorImageIhLj2EEENS2_ItLj2EEEE8SetInputEjPKS3_@Base 5.0.0
 _ZN3itk18ImageToImageFilterIN3otb11VectorImageIhLj2EEENS2_ItLj2EEEED0Ev@Base 5.0.0
 _ZN3itk18ImageToImageFilterIN3otb11VectorImageIhLj2EEENS2_ItLj2EEEED1Ev@Base 5.0.0
 _ZN3itk18ImageToImageFilterIN3otb11VectorImageIhLj2EEENS2_ItLj2EEEED2Ev@Base 5.0.0
 _ZN3itk18ImageToImageFilterIN3otb11VectorImageIhLj2EEES3_E12PopBackInputEv@Base 5.0.0
 _ZN3itk18ImageToImageFilterIN3otb11VectorImageIhLj2EEES3_E13PopFrontInputEv@Base 5.0.0
 _ZN3itk18ImageToImageFilterIN3otb11VectorImageIhLj2EEES3_E13PushBackInputEPKNS_10DataObjectE@Base 5.0.0
 _ZN3itk18ImageToImageFilterIN3otb11VectorImageIhLj2EEES3_E13PushBackInputEPKS3_@Base 5.0.0
 _ZN3itk18ImageToImageFilterIN3otb11VectorImageIhLj2EEES3_E14PushFrontInputEPKNS_10DataObjectE@Base 5.0.0
 _ZN3itk18ImageToImageFilterIN3otb11VectorImageIhLj2EEES3_E14PushFrontInputEPKS3_@Base 5.0.0
 _ZN3itk18ImageToImageFilterIN3otb11VectorImageIhLj2EEES3_E21SetDirectionToleranceEd@Base 5.0.0
 _ZN3itk18ImageToImageFilterIN3otb11VectorImageIhLj2EEES3_E22SetCoordinateToleranceEd@Base 5.0.0
 _ZN3itk18ImageToImageFilterIN3otb11VectorImageIhLj2EEES3_E22VerifyInputInformationEv@Base 5.0.0
 _ZN3itk18ImageToImageFilterIN3otb11VectorImageIhLj2EEES3_E28GenerateInputRequestedRegionEv@Base 5.0.0
 _ZN3itk18ImageToImageFilterIN3otb11VectorImageIhLj2EEES3_E33CallCopyInputRegionToOutputRegionERNS_11ImageRegionILj2EEERKS6_@Base 5.0.0
 _ZN3itk18ImageToImageFilterIN3otb11VectorImageIhLj2EEES3_E33CallCopyOutputRegionToInputRegionERNS_11ImageRegionILj2EEERKS6_@Base 5.0.0
 _ZN3itk18ImageToImageFilterIN3otb11VectorImageIhLj2EEES3_E8SetInputEPKS3_@Base 5.0.0
 _ZN3itk18ImageToImageFilterIN3otb11VectorImageIhLj2EEES3_E8SetInputEjPKS3_@Base 5.0.0
 _ZN3itk18ImageToImageFilterIN3otb11VectorImageIhLj2EEES3_ED0Ev@Base 5.0.0
 _ZN3itk18ImageToImageFilterIN3otb11VectorImageIhLj2EEES3_ED1Ev@Base 5.0.0
 _ZN3itk18ImageToImageFilterIN3otb11VectorImageIhLj2EEES3_ED2Ev@Base 5.0.0
 _ZN3itk18ImageToImageFilterIN3otb11VectorImageIiLj2EEENS2_IdLj2EEEE12PopBackInputEv@Base 5.0.0
 _ZN3itk18ImageToImageFilterIN3otb11VectorImageIiLj2EEENS2_IdLj2EEEE13PopFrontInputEv@Base 5.0.0
 _ZN3itk18ImageToImageFilterIN3otb11VectorImageIiLj2EEENS2_IdLj2EEEE13PushBackInputEPKNS_10DataObjectE@Base 5.0.0
 _ZN3itk18ImageToImageFilterIN3otb11VectorImageIiLj2EEENS2_IdLj2EEEE13PushBackInputEPKS3_@Base 5.0.0
 _ZN3itk18ImageToImageFilterIN3otb11VectorImageIiLj2EEENS2_IdLj2EEEE14PushFrontInputEPKNS_10DataObjectE@Base 5.0.0
 _ZN3itk18ImageToImageFilterIN3otb11VectorImageIiLj2EEENS2_IdLj2EEEE14PushFrontInputEPKS3_@Base 5.0.0
 _ZN3itk18ImageToImageFilterIN3otb11VectorImageIiLj2EEENS2_IdLj2EEEE21SetDirectionToleranceEd@Base 5.0.0
 _ZN3itk18ImageToImageFilterIN3otb11VectorImageIiLj2EEENS2_IdLj2EEEE22SetCoordinateToleranceEd@Base 5.0.0
 _ZN3itk18ImageToImageFilterIN3otb11VectorImageIiLj2EEENS2_IdLj2EEEE22VerifyInputInformationEv@Base 5.0.0
 _ZN3itk18ImageToImageFilterIN3otb11VectorImageIiLj2EEENS2_IdLj2EEEE28GenerateInputRequestedRegionEv@Base 5.0.0
 _ZN3itk18ImageToImageFilterIN3otb11VectorImageIiLj2EEENS2_IdLj2EEEE33CallCopyInputRegionToOutputRegionERNS_11ImageRegionILj2EEERKS7_@Base 5.0.0
 _ZN3itk18ImageToImageFilterIN3otb11VectorImageIiLj2EEENS2_IdLj2EEEE33CallCopyOutputRegionToInputRegionERNS_11ImageRegionILj2EEERKS7_@Base 5.0.0
 _ZN3itk18ImageToImageFilterIN3otb11VectorImageIiLj2EEENS2_IdLj2EEEE8SetInputEPKS3_@Base 5.0.0
 _ZN3itk18ImageToImageFilterIN3otb11VectorImageIiLj2EEENS2_IdLj2EEEE8SetInputEjPKS3_@Base 5.0.0
 _ZN3itk18ImageToImageFilterIN3otb11VectorImageIiLj2EEENS2_IdLj2EEEED0Ev@Base 5.0.0
 _ZN3itk18ImageToImageFilterIN3otb11VectorImageIiLj2EEENS2_IdLj2EEEED1Ev@Base 5.0.0
 _ZN3itk18ImageToImageFilterIN3otb11VectorImageIiLj2EEENS2_IdLj2EEEED2Ev@Base 5.0.0
 _ZN3itk18ImageToImageFilterIN3otb11VectorImageIiLj2EEENS2_IfLj2EEEE12PopBackInputEv@Base 5.0.0
 _ZN3itk18ImageToImageFilterIN3otb11VectorImageIiLj2EEENS2_IfLj2EEEE13PopFrontInputEv@Base 5.0.0
 _ZN3itk18ImageToImageFilterIN3otb11VectorImageIiLj2EEENS2_IfLj2EEEE13PushBackInputEPKNS_10DataObjectE@Base 5.0.0
 _ZN3itk18ImageToImageFilterIN3otb11VectorImageIiLj2EEENS2_IfLj2EEEE13PushBackInputEPKS3_@Base 5.0.0
 _ZN3itk18ImageToImageFilterIN3otb11VectorImageIiLj2EEENS2_IfLj2EEEE14PushFrontInputEPKNS_10DataObjectE@Base 5.0.0
 _ZN3itk18ImageToImageFilterIN3otb11VectorImageIiLj2EEENS2_IfLj2EEEE14PushFrontInputEPKS3_@Base 5.0.0
 _ZN3itk18ImageToImageFilterIN3otb11VectorImageIiLj2EEENS2_IfLj2EEEE21SetDirectionToleranceEd@Base 5.0.0
 _ZN3itk18ImageToImageFilterIN3otb11VectorImageIiLj2EEENS2_IfLj2EEEE22SetCoordinateToleranceEd@Base 5.0.0
 _ZN3itk18ImageToImageFilterIN3otb11VectorImageIiLj2EEENS2_IfLj2EEEE22VerifyInputInformationEv@Base 5.0.0
 _ZN3itk18ImageToImageFilterIN3otb11VectorImageIiLj2EEENS2_IfLj2EEEE28GenerateInputRequestedRegionEv@Base 5.0.0
 _ZN3itk18ImageToImageFilterIN3otb11VectorImageIiLj2EEENS2_IfLj2EEEE33CallCopyInputRegionToOutputRegionERNS_11ImageRegionILj2EEERKS7_@Base 5.0.0
 _ZN3itk18ImageToImageFilterIN3otb11VectorImageIiLj2EEENS2_IfLj2EEEE33CallCopyOutputRegionToInputRegionERNS_11ImageRegionILj2EEERKS7_@Base 5.0.0
 _ZN3itk18ImageToImageFilterIN3otb11VectorImageIiLj2EEENS2_IfLj2EEEE8SetInputEPKS3_@Base 5.0.0
 _ZN3itk18ImageToImageFilterIN3otb11VectorImageIiLj2EEENS2_IfLj2EEEE8SetInputEjPKS3_@Base 5.0.0
 _ZN3itk18ImageToImageFilterIN3otb11VectorImageIiLj2EEENS2_IfLj2EEEED0Ev@Base 5.0.0
 _ZN3itk18ImageToImageFilterIN3otb11VectorImageIiLj2EEENS2_IfLj2EEEED1Ev@Base 5.0.0
 _ZN3itk18ImageToImageFilterIN3otb11VectorImageIiLj2EEENS2_IfLj2EEEED2Ev@Base 5.0.0
 _ZN3itk18ImageToImageFilterIN3otb11VectorImageIiLj2EEENS2_IhLj2EEEE12PopBackInputEv@Base 5.0.0
 _ZN3itk18ImageToImageFilterIN3otb11VectorImageIiLj2EEENS2_IhLj2EEEE13PopFrontInputEv@Base 5.0.0
 _ZN3itk18ImageToImageFilterIN3otb11VectorImageIiLj2EEENS2_IhLj2EEEE13PushBackInputEPKNS_10DataObjectE@Base 5.0.0
 _ZN3itk18ImageToImageFilterIN3otb11VectorImageIiLj2EEENS2_IhLj2EEEE13PushBackInputEPKS3_@Base 5.0.0
 _ZN3itk18ImageToImageFilterIN3otb11VectorImageIiLj2EEENS2_IhLj2EEEE14PushFrontInputEPKNS_10DataObjectE@Base 5.0.0
 _ZN3itk18ImageToImageFilterIN3otb11VectorImageIiLj2EEENS2_IhLj2EEEE14PushFrontInputEPKS3_@Base 5.0.0
 _ZN3itk18ImageToImageFilterIN3otb11VectorImageIiLj2EEENS2_IhLj2EEEE21SetDirectionToleranceEd@Base 5.0.0
 _ZN3itk18ImageToImageFilterIN3otb11VectorImageIiLj2EEENS2_IhLj2EEEE22SetCoordinateToleranceEd@Base 5.0.0
 _ZN3itk18ImageToImageFilterIN3otb11VectorImageIiLj2EEENS2_IhLj2EEEE22VerifyInputInformationEv@Base 5.0.0
 _ZN3itk18ImageToImageFilterIN3otb11VectorImageIiLj2EEENS2_IhLj2EEEE28GenerateInputRequestedRegionEv@Base 5.0.0
 _ZN3itk18ImageToImageFilterIN3otb11VectorImageIiLj2EEENS2_IhLj2EEEE33CallCopyInputRegionToOutputRegionERNS_11ImageRegionILj2EEERKS7_@Base 5.0.0
 _ZN3itk18ImageToImageFilterIN3otb11VectorImageIiLj2EEENS2_IhLj2EEEE33CallCopyOutputRegionToInputRegionERNS_11ImageRegionILj2EEERKS7_@Base 5.0.0
 _ZN3itk18ImageToImageFilterIN3otb11VectorImageIiLj2EEENS2_IhLj2EEEE8SetInputEPKS3_@Base 5.0.0
 _ZN3itk18ImageToImageFilterIN3otb11VectorImageIiLj2EEENS2_IhLj2EEEE8SetInputEjPKS3_@Base 5.0.0
 _ZN3itk18ImageToImageFilterIN3otb11VectorImageIiLj2EEENS2_IhLj2EEEED0Ev@Base 5.0.0
 _ZN3itk18ImageToImageFilterIN3otb11VectorImageIiLj2EEENS2_IhLj2EEEED1Ev@Base 5.0.0
 _ZN3itk18ImageToImageFilterIN3otb11VectorImageIiLj2EEENS2_IhLj2EEEED2Ev@Base 5.0.0
 _ZN3itk18ImageToImageFilterIN3otb11VectorImageIiLj2EEENS2_IjLj2EEEE12PopBackInputEv@Base 5.0.0
 _ZN3itk18ImageToImageFilterIN3otb11VectorImageIiLj2EEENS2_IjLj2EEEE13PopFrontInputEv@Base 5.0.0
 _ZN3itk18ImageToImageFilterIN3otb11VectorImageIiLj2EEENS2_IjLj2EEEE13PushBackInputEPKNS_10DataObjectE@Base 5.0.0
 _ZN3itk18ImageToImageFilterIN3otb11VectorImageIiLj2EEENS2_IjLj2EEEE13PushBackInputEPKS3_@Base 5.0.0
 _ZN3itk18ImageToImageFilterIN3otb11VectorImageIiLj2EEENS2_IjLj2EEEE14PushFrontInputEPKNS_10DataObjectE@Base 5.0.0
 _ZN3itk18ImageToImageFilterIN3otb11VectorImageIiLj2EEENS2_IjLj2EEEE14PushFrontInputEPKS3_@Base 5.0.0
 _ZN3itk18ImageToImageFilterIN3otb11VectorImageIiLj2EEENS2_IjLj2EEEE21SetDirectionToleranceEd@Base 5.0.0
 _ZN3itk18ImageToImageFilterIN3otb11VectorImageIiLj2EEENS2_IjLj2EEEE22SetCoordinateToleranceEd@Base 5.0.0
 _ZN3itk18ImageToImageFilterIN3otb11VectorImageIiLj2EEENS2_IjLj2EEEE22VerifyInputInformationEv@Base 5.0.0
 _ZN3itk18ImageToImageFilterIN3otb11VectorImageIiLj2EEENS2_IjLj2EEEE28GenerateInputRequestedRegionEv@Base 5.0.0
 _ZN3itk18ImageToImageFilterIN3otb11VectorImageIiLj2EEENS2_IjLj2EEEE33CallCopyInputRegionToOutputRegionERNS_11ImageRegionILj2EEERKS7_@Base 5.0.0
 _ZN3itk18ImageToImageFilterIN3otb11VectorImageIiLj2EEENS2_IjLj2EEEE33CallCopyOutputRegionToInputRegionERNS_11ImageRegionILj2EEERKS7_@Base 5.0.0
 _ZN3itk18ImageToImageFilterIN3otb11VectorImageIiLj2EEENS2_IjLj2EEEE8SetInputEPKS3_@Base 5.0.0
 _ZN3itk18ImageToImageFilterIN3otb11VectorImageIiLj2EEENS2_IjLj2EEEE8SetInputEjPKS3_@Base 5.0.0
 _ZN3itk18ImageToImageFilterIN3otb11VectorImageIiLj2EEENS2_IjLj2EEEED0Ev@Base 5.0.0
 _ZN3itk18ImageToImageFilterIN3otb11VectorImageIiLj2EEENS2_IjLj2EEEED1Ev@Base 5.0.0
 _ZN3itk18ImageToImageFilterIN3otb11VectorImageIiLj2EEENS2_IjLj2EEEED2Ev@Base 5.0.0
 _ZN3itk18ImageToImageFilterIN3otb11VectorImageIiLj2EEENS2_IsLj2EEEE12PopBackInputEv@Base 5.0.0
 _ZN3itk18ImageToImageFilterIN3otb11VectorImageIiLj2EEENS2_IsLj2EEEE13PopFrontInputEv@Base 5.0.0
 _ZN3itk18ImageToImageFilterIN3otb11VectorImageIiLj2EEENS2_IsLj2EEEE13PushBackInputEPKNS_10DataObjectE@Base 5.0.0
 _ZN3itk18ImageToImageFilterIN3otb11VectorImageIiLj2EEENS2_IsLj2EEEE13PushBackInputEPKS3_@Base 5.0.0
 _ZN3itk18ImageToImageFilterIN3otb11VectorImageIiLj2EEENS2_IsLj2EEEE14PushFrontInputEPKNS_10DataObjectE@Base 5.0.0
 _ZN3itk18ImageToImageFilterIN3otb11VectorImageIiLj2EEENS2_IsLj2EEEE14PushFrontInputEPKS3_@Base 5.0.0
 _ZN3itk18ImageToImageFilterIN3otb11VectorImageIiLj2EEENS2_IsLj2EEEE21SetDirectionToleranceEd@Base 5.0.0
 _ZN3itk18ImageToImageFilterIN3otb11VectorImageIiLj2EEENS2_IsLj2EEEE22SetCoordinateToleranceEd@Base 5.0.0
 _ZN3itk18ImageToImageFilterIN3otb11VectorImageIiLj2EEENS2_IsLj2EEEE22VerifyInputInformationEv@Base 5.0.0
 _ZN3itk18ImageToImageFilterIN3otb11VectorImageIiLj2EEENS2_IsLj2EEEE28GenerateInputRequestedRegionEv@Base 5.0.0
 _ZN3itk18ImageToImageFilterIN3otb11VectorImageIiLj2EEENS2_IsLj2EEEE33CallCopyInputRegionToOutputRegionERNS_11ImageRegionILj2EEERKS7_@Base 5.0.0
 _ZN3itk18ImageToImageFilterIN3otb11VectorImageIiLj2EEENS2_IsLj2EEEE33CallCopyOutputRegionToInputRegionERNS_11ImageRegionILj2EEERKS7_@Base 5.0.0
 _ZN3itk18ImageToImageFilterIN3otb11VectorImageIiLj2EEENS2_IsLj2EEEE8SetInputEPKS3_@Base 5.0.0
 _ZN3itk18ImageToImageFilterIN3otb11VectorImageIiLj2EEENS2_IsLj2EEEE8SetInputEjPKS3_@Base 5.0.0
 _ZN3itk18ImageToImageFilterIN3otb11VectorImageIiLj2EEENS2_IsLj2EEEED0Ev@Base 5.0.0
 _ZN3itk18ImageToImageFilterIN3otb11VectorImageIiLj2EEENS2_IsLj2EEEED1Ev@Base 5.0.0
 _ZN3itk18ImageToImageFilterIN3otb11VectorImageIiLj2EEENS2_IsLj2EEEED2Ev@Base 5.0.0
 _ZN3itk18ImageToImageFilterIN3otb11VectorImageIiLj2EEENS2_ItLj2EEEE12PopBackInputEv@Base 5.0.0
 _ZN3itk18ImageToImageFilterIN3otb11VectorImageIiLj2EEENS2_ItLj2EEEE13PopFrontInputEv@Base 5.0.0
 _ZN3itk18ImageToImageFilterIN3otb11VectorImageIiLj2EEENS2_ItLj2EEEE13PushBackInputEPKNS_10DataObjectE@Base 5.0.0
 _ZN3itk18ImageToImageFilterIN3otb11VectorImageIiLj2EEENS2_ItLj2EEEE13PushBackInputEPKS3_@Base 5.0.0
 _ZN3itk18ImageToImageFilterIN3otb11VectorImageIiLj2EEENS2_ItLj2EEEE14PushFrontInputEPKNS_10DataObjectE@Base 5.0.0
 _ZN3itk18ImageToImageFilterIN3otb11VectorImageIiLj2EEENS2_ItLj2EEEE14PushFrontInputEPKS3_@Base 5.0.0
 _ZN3itk18ImageToImageFilterIN3otb11VectorImageIiLj2EEENS2_ItLj2EEEE21SetDirectionToleranceEd@Base 5.0.0
 _ZN3itk18ImageToImageFilterIN3otb11VectorImageIiLj2EEENS2_ItLj2EEEE22SetCoordinateToleranceEd@Base 5.0.0
 _ZN3itk18ImageToImageFilterIN3otb11VectorImageIiLj2EEENS2_ItLj2EEEE22VerifyInputInformationEv@Base 5.0.0
 _ZN3itk18ImageToImageFilterIN3otb11VectorImageIiLj2EEENS2_ItLj2EEEE28GenerateInputRequestedRegionEv@Base 5.0.0
 _ZN3itk18ImageToImageFilterIN3otb11VectorImageIiLj2EEENS2_ItLj2EEEE33CallCopyInputRegionToOutputRegionERNS_11ImageRegionILj2EEERKS7_@Base 5.0.0
 _ZN3itk18ImageToImageFilterIN3otb11VectorImageIiLj2EEENS2_ItLj2EEEE33CallCopyOutputRegionToInputRegionERNS_11ImageRegionILj2EEERKS7_@Base 5.0.0
 _ZN3itk18ImageToImageFilterIN3otb11VectorImageIiLj2EEENS2_ItLj2EEEE8SetInputEPKS3_@Base 5.0.0
 _ZN3itk18ImageToImageFilterIN3otb11VectorImageIiLj2EEENS2_ItLj2EEEE8SetInputEjPKS3_@Base 5.0.0
 _ZN3itk18ImageToImageFilterIN3otb11VectorImageIiLj2EEENS2_ItLj2EEEED0Ev@Base 5.0.0
 _ZN3itk18ImageToImageFilterIN3otb11VectorImageIiLj2EEENS2_ItLj2EEEED1Ev@Base 5.0.0
 _ZN3itk18ImageToImageFilterIN3otb11VectorImageIiLj2EEENS2_ItLj2EEEED2Ev@Base 5.0.0
 _ZN3itk18ImageToImageFilterIN3otb11VectorImageIiLj2EEES3_E12PopBackInputEv@Base 5.0.0
 _ZN3itk18ImageToImageFilterIN3otb11VectorImageIiLj2EEES3_E13PopFrontInputEv@Base 5.0.0
 _ZN3itk18ImageToImageFilterIN3otb11VectorImageIiLj2EEES3_E13PushBackInputEPKNS_10DataObjectE@Base 5.0.0
 _ZN3itk18ImageToImageFilterIN3otb11VectorImageIiLj2EEES3_E13PushBackInputEPKS3_@Base 5.0.0
 _ZN3itk18ImageToImageFilterIN3otb11VectorImageIiLj2EEES3_E14PushFrontInputEPKNS_10DataObjectE@Base 5.0.0
 _ZN3itk18ImageToImageFilterIN3otb11VectorImageIiLj2EEES3_E14PushFrontInputEPKS3_@Base 5.0.0
 _ZN3itk18ImageToImageFilterIN3otb11VectorImageIiLj2EEES3_E21SetDirectionToleranceEd@Base 5.0.0
 _ZN3itk18ImageToImageFilterIN3otb11VectorImageIiLj2EEES3_E22SetCoordinateToleranceEd@Base 5.0.0
 _ZN3itk18ImageToImageFilterIN3otb11VectorImageIiLj2EEES3_E22VerifyInputInformationEv@Base 5.0.0
 _ZN3itk18ImageToImageFilterIN3otb11VectorImageIiLj2EEES3_E28GenerateInputRequestedRegionEv@Base 5.0.0
 _ZN3itk18ImageToImageFilterIN3otb11VectorImageIiLj2EEES3_E33CallCopyInputRegionToOutputRegionERNS_11ImageRegionILj2EEERKS6_@Base 5.0.0
 _ZN3itk18ImageToImageFilterIN3otb11VectorImageIiLj2EEES3_E33CallCopyOutputRegionToInputRegionERNS_11ImageRegionILj2EEERKS6_@Base 5.0.0
 _ZN3itk18ImageToImageFilterIN3otb11VectorImageIiLj2EEES3_E8SetInputEPKS3_@Base 5.0.0
 _ZN3itk18ImageToImageFilterIN3otb11VectorImageIiLj2EEES3_E8SetInputEjPKS3_@Base 5.0.0
 _ZN3itk18ImageToImageFilterIN3otb11VectorImageIiLj2EEES3_ED0Ev@Base 5.0.0
 _ZN3itk18ImageToImageFilterIN3otb11VectorImageIiLj2EEES3_ED1Ev@Base 5.0.0
 _ZN3itk18ImageToImageFilterIN3otb11VectorImageIiLj2EEES3_ED2Ev@Base 5.0.0
 _ZN3itk18ImageToImageFilterIN3otb11VectorImageIjLj2EEENS2_IdLj2EEEE12PopBackInputEv@Base 5.0.0
 _ZN3itk18ImageToImageFilterIN3otb11VectorImageIjLj2EEENS2_IdLj2EEEE13PopFrontInputEv@Base 5.0.0
 _ZN3itk18ImageToImageFilterIN3otb11VectorImageIjLj2EEENS2_IdLj2EEEE13PushBackInputEPKNS_10DataObjectE@Base 5.0.0
 _ZN3itk18ImageToImageFilterIN3otb11VectorImageIjLj2EEENS2_IdLj2EEEE13PushBackInputEPKS3_@Base 5.0.0
 _ZN3itk18ImageToImageFilterIN3otb11VectorImageIjLj2EEENS2_IdLj2EEEE14PushFrontInputEPKNS_10DataObjectE@Base 5.0.0
 _ZN3itk18ImageToImageFilterIN3otb11VectorImageIjLj2EEENS2_IdLj2EEEE14PushFrontInputEPKS3_@Base 5.0.0
 _ZN3itk18ImageToImageFilterIN3otb11VectorImageIjLj2EEENS2_IdLj2EEEE21SetDirectionToleranceEd@Base 5.0.0
 _ZN3itk18ImageToImageFilterIN3otb11VectorImageIjLj2EEENS2_IdLj2EEEE22SetCoordinateToleranceEd@Base 5.0.0
 _ZN3itk18ImageToImageFilterIN3otb11VectorImageIjLj2EEENS2_IdLj2EEEE22VerifyInputInformationEv@Base 5.0.0
 _ZN3itk18ImageToImageFilterIN3otb11VectorImageIjLj2EEENS2_IdLj2EEEE28GenerateInputRequestedRegionEv@Base 5.0.0
 _ZN3itk18ImageToImageFilterIN3otb11VectorImageIjLj2EEENS2_IdLj2EEEE33CallCopyInputRegionToOutputRegionERNS_11ImageRegionILj2EEERKS7_@Base 5.0.0
 _ZN3itk18ImageToImageFilterIN3otb11VectorImageIjLj2EEENS2_IdLj2EEEE33CallCopyOutputRegionToInputRegionERNS_11ImageRegionILj2EEERKS7_@Base 5.0.0
 _ZN3itk18ImageToImageFilterIN3otb11VectorImageIjLj2EEENS2_IdLj2EEEE8SetInputEPKS3_@Base 5.0.0
 _ZN3itk18ImageToImageFilterIN3otb11VectorImageIjLj2EEENS2_IdLj2EEEE8SetInputEjPKS3_@Base 5.0.0
 _ZN3itk18ImageToImageFilterIN3otb11VectorImageIjLj2EEENS2_IdLj2EEEED0Ev@Base 5.0.0
 _ZN3itk18ImageToImageFilterIN3otb11VectorImageIjLj2EEENS2_IdLj2EEEED1Ev@Base 5.0.0
 _ZN3itk18ImageToImageFilterIN3otb11VectorImageIjLj2EEENS2_IdLj2EEEED2Ev@Base 5.0.0
 _ZN3itk18ImageToImageFilterIN3otb11VectorImageIjLj2EEENS2_IfLj2EEEE12PopBackInputEv@Base 5.0.0
 _ZN3itk18ImageToImageFilterIN3otb11VectorImageIjLj2EEENS2_IfLj2EEEE13PopFrontInputEv@Base 5.0.0
 _ZN3itk18ImageToImageFilterIN3otb11VectorImageIjLj2EEENS2_IfLj2EEEE13PushBackInputEPKNS_10DataObjectE@Base 5.0.0
 _ZN3itk18ImageToImageFilterIN3otb11VectorImageIjLj2EEENS2_IfLj2EEEE13PushBackInputEPKS3_@Base 5.0.0
 _ZN3itk18ImageToImageFilterIN3otb11VectorImageIjLj2EEENS2_IfLj2EEEE14PushFrontInputEPKNS_10DataObjectE@Base 5.0.0
 _ZN3itk18ImageToImageFilterIN3otb11VectorImageIjLj2EEENS2_IfLj2EEEE14PushFrontInputEPKS3_@Base 5.0.0
 _ZN3itk18ImageToImageFilterIN3otb11VectorImageIjLj2EEENS2_IfLj2EEEE21SetDirectionToleranceEd@Base 5.0.0
 _ZN3itk18ImageToImageFilterIN3otb11VectorImageIjLj2EEENS2_IfLj2EEEE22SetCoordinateToleranceEd@Base 5.0.0
 _ZN3itk18ImageToImageFilterIN3otb11VectorImageIjLj2EEENS2_IfLj2EEEE22VerifyInputInformationEv@Base 5.0.0
 _ZN3itk18ImageToImageFilterIN3otb11VectorImageIjLj2EEENS2_IfLj2EEEE28GenerateInputRequestedRegionEv@Base 5.0.0
 _ZN3itk18ImageToImageFilterIN3otb11VectorImageIjLj2EEENS2_IfLj2EEEE33CallCopyInputRegionToOutputRegionERNS_11ImageRegionILj2EEERKS7_@Base 5.0.0
 _ZN3itk18ImageToImageFilterIN3otb11VectorImageIjLj2EEENS2_IfLj2EEEE33CallCopyOutputRegionToInputRegionERNS_11ImageRegionILj2EEERKS7_@Base 5.0.0
 _ZN3itk18ImageToImageFilterIN3otb11VectorImageIjLj2EEENS2_IfLj2EEEE8SetInputEPKS3_@Base 5.0.0
 _ZN3itk18ImageToImageFilterIN3otb11VectorImageIjLj2EEENS2_IfLj2EEEE8SetInputEjPKS3_@Base 5.0.0
 _ZN3itk18ImageToImageFilterIN3otb11VectorImageIjLj2EEENS2_IfLj2EEEED0Ev@Base 5.0.0
 _ZN3itk18ImageToImageFilterIN3otb11VectorImageIjLj2EEENS2_IfLj2EEEED1Ev@Base 5.0.0
 _ZN3itk18ImageToImageFilterIN3otb11VectorImageIjLj2EEENS2_IfLj2EEEED2Ev@Base 5.0.0
 _ZN3itk18ImageToImageFilterIN3otb11VectorImageIjLj2EEENS2_IhLj2EEEE12PopBackInputEv@Base 5.0.0
 _ZN3itk18ImageToImageFilterIN3otb11VectorImageIjLj2EEENS2_IhLj2EEEE13PopFrontInputEv@Base 5.0.0
 _ZN3itk18ImageToImageFilterIN3otb11VectorImageIjLj2EEENS2_IhLj2EEEE13PushBackInputEPKNS_10DataObjectE@Base 5.0.0
 _ZN3itk18ImageToImageFilterIN3otb11VectorImageIjLj2EEENS2_IhLj2EEEE13PushBackInputEPKS3_@Base 5.0.0
 _ZN3itk18ImageToImageFilterIN3otb11VectorImageIjLj2EEENS2_IhLj2EEEE14PushFrontInputEPKNS_10DataObjectE@Base 5.0.0
 _ZN3itk18ImageToImageFilterIN3otb11VectorImageIjLj2EEENS2_IhLj2EEEE14PushFrontInputEPKS3_@Base 5.0.0
 _ZN3itk18ImageToImageFilterIN3otb11VectorImageIjLj2EEENS2_IhLj2EEEE21SetDirectionToleranceEd@Base 5.0.0
 _ZN3itk18ImageToImageFilterIN3otb11VectorImageIjLj2EEENS2_IhLj2EEEE22SetCoordinateToleranceEd@Base 5.0.0
 _ZN3itk18ImageToImageFilterIN3otb11VectorImageIjLj2EEENS2_IhLj2EEEE22VerifyInputInformationEv@Base 5.0.0
 _ZN3itk18ImageToImageFilterIN3otb11VectorImageIjLj2EEENS2_IhLj2EEEE28GenerateInputRequestedRegionEv@Base 5.0.0
 _ZN3itk18ImageToImageFilterIN3otb11VectorImageIjLj2EEENS2_IhLj2EEEE33CallCopyInputRegionToOutputRegionERNS_11ImageRegionILj2EEERKS7_@Base 5.0.0
 _ZN3itk18ImageToImageFilterIN3otb11VectorImageIjLj2EEENS2_IhLj2EEEE33CallCopyOutputRegionToInputRegionERNS_11ImageRegionILj2EEERKS7_@Base 5.0.0
 _ZN3itk18ImageToImageFilterIN3otb11VectorImageIjLj2EEENS2_IhLj2EEEE8SetInputEPKS3_@Base 5.0.0
 _ZN3itk18ImageToImageFilterIN3otb11VectorImageIjLj2EEENS2_IhLj2EEEE8SetInputEjPKS3_@Base 5.0.0
 _ZN3itk18ImageToImageFilterIN3otb11VectorImageIjLj2EEENS2_IhLj2EEEED0Ev@Base 5.0.0
 _ZN3itk18ImageToImageFilterIN3otb11VectorImageIjLj2EEENS2_IhLj2EEEED1Ev@Base 5.0.0
 _ZN3itk18ImageToImageFilterIN3otb11VectorImageIjLj2EEENS2_IhLj2EEEED2Ev@Base 5.0.0
 _ZN3itk18ImageToImageFilterIN3otb11VectorImageIjLj2EEENS2_IiLj2EEEE12PopBackInputEv@Base 5.0.0
 _ZN3itk18ImageToImageFilterIN3otb11VectorImageIjLj2EEENS2_IiLj2EEEE13PopFrontInputEv@Base 5.0.0
 _ZN3itk18ImageToImageFilterIN3otb11VectorImageIjLj2EEENS2_IiLj2EEEE13PushBackInputEPKNS_10DataObjectE@Base 5.0.0
 _ZN3itk18ImageToImageFilterIN3otb11VectorImageIjLj2EEENS2_IiLj2EEEE13PushBackInputEPKS3_@Base 5.0.0
 _ZN3itk18ImageToImageFilterIN3otb11VectorImageIjLj2EEENS2_IiLj2EEEE14PushFrontInputEPKNS_10DataObjectE@Base 5.0.0
 _ZN3itk18ImageToImageFilterIN3otb11VectorImageIjLj2EEENS2_IiLj2EEEE14PushFrontInputEPKS3_@Base 5.0.0
 _ZN3itk18ImageToImageFilterIN3otb11VectorImageIjLj2EEENS2_IiLj2EEEE21SetDirectionToleranceEd@Base 5.0.0
 _ZN3itk18ImageToImageFilterIN3otb11VectorImageIjLj2EEENS2_IiLj2EEEE22SetCoordinateToleranceEd@Base 5.0.0
 _ZN3itk18ImageToImageFilterIN3otb11VectorImageIjLj2EEENS2_IiLj2EEEE22VerifyInputInformationEv@Base 5.0.0
 _ZN3itk18ImageToImageFilterIN3otb11VectorImageIjLj2EEENS2_IiLj2EEEE28GenerateInputRequestedRegionEv@Base 5.0.0
 _ZN3itk18ImageToImageFilterIN3otb11VectorImageIjLj2EEENS2_IiLj2EEEE33CallCopyInputRegionToOutputRegionERNS_11ImageRegionILj2EEERKS7_@Base 5.0.0
 _ZN3itk18ImageToImageFilterIN3otb11VectorImageIjLj2EEENS2_IiLj2EEEE33CallCopyOutputRegionToInputRegionERNS_11ImageRegionILj2EEERKS7_@Base 5.0.0
 _ZN3itk18ImageToImageFilterIN3otb11VectorImageIjLj2EEENS2_IiLj2EEEE8SetInputEPKS3_@Base 5.0.0
 _ZN3itk18ImageToImageFilterIN3otb11VectorImageIjLj2EEENS2_IiLj2EEEE8SetInputEjPKS3_@Base 5.0.0
 _ZN3itk18ImageToImageFilterIN3otb11VectorImageIjLj2EEENS2_IiLj2EEEED0Ev@Base 5.0.0
 _ZN3itk18ImageToImageFilterIN3otb11VectorImageIjLj2EEENS2_IiLj2EEEED1Ev@Base 5.0.0
 _ZN3itk18ImageToImageFilterIN3otb11VectorImageIjLj2EEENS2_IiLj2EEEED2Ev@Base 5.0.0
 _ZN3itk18ImageToImageFilterIN3otb11VectorImageIjLj2EEENS2_IsLj2EEEE12PopBackInputEv@Base 5.0.0
 _ZN3itk18ImageToImageFilterIN3otb11VectorImageIjLj2EEENS2_IsLj2EEEE13PopFrontInputEv@Base 5.0.0
 _ZN3itk18ImageToImageFilterIN3otb11VectorImageIjLj2EEENS2_IsLj2EEEE13PushBackInputEPKNS_10DataObjectE@Base 5.0.0
 _ZN3itk18ImageToImageFilterIN3otb11VectorImageIjLj2EEENS2_IsLj2EEEE13PushBackInputEPKS3_@Base 5.0.0
 _ZN3itk18ImageToImageFilterIN3otb11VectorImageIjLj2EEENS2_IsLj2EEEE14PushFrontInputEPKNS_10DataObjectE@Base 5.0.0
 _ZN3itk18ImageToImageFilterIN3otb11VectorImageIjLj2EEENS2_IsLj2EEEE14PushFrontInputEPKS3_@Base 5.0.0
 _ZN3itk18ImageToImageFilterIN3otb11VectorImageIjLj2EEENS2_IsLj2EEEE21SetDirectionToleranceEd@Base 5.0.0
 _ZN3itk18ImageToImageFilterIN3otb11VectorImageIjLj2EEENS2_IsLj2EEEE22SetCoordinateToleranceEd@Base 5.0.0
 _ZN3itk18ImageToImageFilterIN3otb11VectorImageIjLj2EEENS2_IsLj2EEEE22VerifyInputInformationEv@Base 5.0.0
 _ZN3itk18ImageToImageFilterIN3otb11VectorImageIjLj2EEENS2_IsLj2EEEE28GenerateInputRequestedRegionEv@Base 5.0.0
 _ZN3itk18ImageToImageFilterIN3otb11VectorImageIjLj2EEENS2_IsLj2EEEE33CallCopyInputRegionToOutputRegionERNS_11ImageRegionILj2EEERKS7_@Base 5.0.0
 _ZN3itk18ImageToImageFilterIN3otb11VectorImageIjLj2EEENS2_IsLj2EEEE33CallCopyOutputRegionToInputRegionERNS_11ImageRegionILj2EEERKS7_@Base 5.0.0
 _ZN3itk18ImageToImageFilterIN3otb11VectorImageIjLj2EEENS2_IsLj2EEEE8SetInputEPKS3_@Base 5.0.0
 _ZN3itk18ImageToImageFilterIN3otb11VectorImageIjLj2EEENS2_IsLj2EEEE8SetInputEjPKS3_@Base 5.0.0
 _ZN3itk18ImageToImageFilterIN3otb11VectorImageIjLj2EEENS2_IsLj2EEEED0Ev@Base 5.0.0
 _ZN3itk18ImageToImageFilterIN3otb11VectorImageIjLj2EEENS2_IsLj2EEEED1Ev@Base 5.0.0
 _ZN3itk18ImageToImageFilterIN3otb11VectorImageIjLj2EEENS2_IsLj2EEEED2Ev@Base 5.0.0
 _ZN3itk18ImageToImageFilterIN3otb11VectorImageIjLj2EEENS2_ItLj2EEEE12PopBackInputEv@Base 5.0.0
 _ZN3itk18ImageToImageFilterIN3otb11VectorImageIjLj2EEENS2_ItLj2EEEE13PopFrontInputEv@Base 5.0.0
 _ZN3itk18ImageToImageFilterIN3otb11VectorImageIjLj2EEENS2_ItLj2EEEE13PushBackInputEPKNS_10DataObjectE@Base 5.0.0
 _ZN3itk18ImageToImageFilterIN3otb11VectorImageIjLj2EEENS2_ItLj2EEEE13PushBackInputEPKS3_@Base 5.0.0
 _ZN3itk18ImageToImageFilterIN3otb11VectorImageIjLj2EEENS2_ItLj2EEEE14PushFrontInputEPKNS_10DataObjectE@Base 5.0.0
 _ZN3itk18ImageToImageFilterIN3otb11VectorImageIjLj2EEENS2_ItLj2EEEE14PushFrontInputEPKS3_@Base 5.0.0
 _ZN3itk18ImageToImageFilterIN3otb11VectorImageIjLj2EEENS2_ItLj2EEEE21SetDirectionToleranceEd@Base 5.0.0
 _ZN3itk18ImageToImageFilterIN3otb11VectorImageIjLj2EEENS2_ItLj2EEEE22SetCoordinateToleranceEd@Base 5.0.0
 _ZN3itk18ImageToImageFilterIN3otb11VectorImageIjLj2EEENS2_ItLj2EEEE22VerifyInputInformationEv@Base 5.0.0
 _ZN3itk18ImageToImageFilterIN3otb11VectorImageIjLj2EEENS2_ItLj2EEEE28GenerateInputRequestedRegionEv@Base 5.0.0
 _ZN3itk18ImageToImageFilterIN3otb11VectorImageIjLj2EEENS2_ItLj2EEEE33CallCopyInputRegionToOutputRegionERNS_11ImageRegionILj2EEERKS7_@Base 5.0.0
 _ZN3itk18ImageToImageFilterIN3otb11VectorImageIjLj2EEENS2_ItLj2EEEE33CallCopyOutputRegionToInputRegionERNS_11ImageRegionILj2EEERKS7_@Base 5.0.0
 _ZN3itk18ImageToImageFilterIN3otb11VectorImageIjLj2EEENS2_ItLj2EEEE8SetInputEPKS3_@Base 5.0.0
 _ZN3itk18ImageToImageFilterIN3otb11VectorImageIjLj2EEENS2_ItLj2EEEE8SetInputEjPKS3_@Base 5.0.0
 _ZN3itk18ImageToImageFilterIN3otb11VectorImageIjLj2EEENS2_ItLj2EEEED0Ev@Base 5.0.0
 _ZN3itk18ImageToImageFilterIN3otb11VectorImageIjLj2EEENS2_ItLj2EEEED1Ev@Base 5.0.0
 _ZN3itk18ImageToImageFilterIN3otb11VectorImageIjLj2EEENS2_ItLj2EEEED2Ev@Base 5.0.0
 _ZN3itk18ImageToImageFilterIN3otb11VectorImageIjLj2EEES3_E12PopBackInputEv@Base 5.0.0
 _ZN3itk18ImageToImageFilterIN3otb11VectorImageIjLj2EEES3_E13PopFrontInputEv@Base 5.0.0
 _ZN3itk18ImageToImageFilterIN3otb11VectorImageIjLj2EEES3_E13PushBackInputEPKNS_10DataObjectE@Base 5.0.0
 _ZN3itk18ImageToImageFilterIN3otb11VectorImageIjLj2EEES3_E13PushBackInputEPKS3_@Base 5.0.0
 _ZN3itk18ImageToImageFilterIN3otb11VectorImageIjLj2EEES3_E14PushFrontInputEPKNS_10DataObjectE@Base 5.0.0
 _ZN3itk18ImageToImageFilterIN3otb11VectorImageIjLj2EEES3_E14PushFrontInputEPKS3_@Base 5.0.0
 _ZN3itk18ImageToImageFilterIN3otb11VectorImageIjLj2EEES3_E21SetDirectionToleranceEd@Base 5.0.0
 _ZN3itk18ImageToImageFilterIN3otb11VectorImageIjLj2EEES3_E22SetCoordinateToleranceEd@Base 5.0.0
 _ZN3itk18ImageToImageFilterIN3otb11VectorImageIjLj2EEES3_E22VerifyInputInformationEv@Base 5.0.0
 _ZN3itk18ImageToImageFilterIN3otb11VectorImageIjLj2EEES3_E28GenerateInputRequestedRegionEv@Base 5.0.0
 _ZN3itk18ImageToImageFilterIN3otb11VectorImageIjLj2EEES3_E33CallCopyInputRegionToOutputRegionERNS_11ImageRegionILj2EEERKS6_@Base 5.0.0
 _ZN3itk18ImageToImageFilterIN3otb11VectorImageIjLj2EEES3_E33CallCopyOutputRegionToInputRegionERNS_11ImageRegionILj2EEERKS6_@Base 5.0.0
 _ZN3itk18ImageToImageFilterIN3otb11VectorImageIjLj2EEES3_E8SetInputEPKS3_@Base 5.0.0
 _ZN3itk18ImageToImageFilterIN3otb11VectorImageIjLj2EEES3_E8SetInputEjPKS3_@Base 5.0.0
 _ZN3itk18ImageToImageFilterIN3otb11VectorImageIjLj2EEES3_ED0Ev@Base 5.0.0
 _ZN3itk18ImageToImageFilterIN3otb11VectorImageIjLj2EEES3_ED1Ev@Base 5.0.0
 _ZN3itk18ImageToImageFilterIN3otb11VectorImageIjLj2EEES3_ED2Ev@Base 5.0.0
 _ZN3itk18ImageToImageFilterIN3otb11VectorImageIsLj2EEENS2_IdLj2EEEE12PopBackInputEv@Base 5.0.0
 _ZN3itk18ImageToImageFilterIN3otb11VectorImageIsLj2EEENS2_IdLj2EEEE13PopFrontInputEv@Base 5.0.0
 _ZN3itk18ImageToImageFilterIN3otb11VectorImageIsLj2EEENS2_IdLj2EEEE13PushBackInputEPKNS_10DataObjectE@Base 5.0.0
 _ZN3itk18ImageToImageFilterIN3otb11VectorImageIsLj2EEENS2_IdLj2EEEE13PushBackInputEPKS3_@Base 5.0.0
 _ZN3itk18ImageToImageFilterIN3otb11VectorImageIsLj2EEENS2_IdLj2EEEE14PushFrontInputEPKNS_10DataObjectE@Base 5.0.0
 _ZN3itk18ImageToImageFilterIN3otb11VectorImageIsLj2EEENS2_IdLj2EEEE14PushFrontInputEPKS3_@Base 5.0.0
 _ZN3itk18ImageToImageFilterIN3otb11VectorImageIsLj2EEENS2_IdLj2EEEE21SetDirectionToleranceEd@Base 5.0.0
 _ZN3itk18ImageToImageFilterIN3otb11VectorImageIsLj2EEENS2_IdLj2EEEE22SetCoordinateToleranceEd@Base 5.0.0
 _ZN3itk18ImageToImageFilterIN3otb11VectorImageIsLj2EEENS2_IdLj2EEEE22VerifyInputInformationEv@Base 5.0.0
 _ZN3itk18ImageToImageFilterIN3otb11VectorImageIsLj2EEENS2_IdLj2EEEE28GenerateInputRequestedRegionEv@Base 5.0.0
 _ZN3itk18ImageToImageFilterIN3otb11VectorImageIsLj2EEENS2_IdLj2EEEE33CallCopyInputRegionToOutputRegionERNS_11ImageRegionILj2EEERKS7_@Base 5.0.0
 _ZN3itk18ImageToImageFilterIN3otb11VectorImageIsLj2EEENS2_IdLj2EEEE33CallCopyOutputRegionToInputRegionERNS_11ImageRegionILj2EEERKS7_@Base 5.0.0
 _ZN3itk18ImageToImageFilterIN3otb11VectorImageIsLj2EEENS2_IdLj2EEEE8SetInputEPKS3_@Base 5.0.0
 _ZN3itk18ImageToImageFilterIN3otb11VectorImageIsLj2EEENS2_IdLj2EEEE8SetInputEjPKS3_@Base 5.0.0
 _ZN3itk18ImageToImageFilterIN3otb11VectorImageIsLj2EEENS2_IdLj2EEEED0Ev@Base 5.0.0
 _ZN3itk18ImageToImageFilterIN3otb11VectorImageIsLj2EEENS2_IdLj2EEEED1Ev@Base 5.0.0
 _ZN3itk18ImageToImageFilterIN3otb11VectorImageIsLj2EEENS2_IdLj2EEEED2Ev@Base 5.0.0
 _ZN3itk18ImageToImageFilterIN3otb11VectorImageIsLj2EEENS2_IfLj2EEEE12PopBackInputEv@Base 5.0.0
 _ZN3itk18ImageToImageFilterIN3otb11VectorImageIsLj2EEENS2_IfLj2EEEE13PopFrontInputEv@Base 5.0.0
 _ZN3itk18ImageToImageFilterIN3otb11VectorImageIsLj2EEENS2_IfLj2EEEE13PushBackInputEPKNS_10DataObjectE@Base 5.0.0
 _ZN3itk18ImageToImageFilterIN3otb11VectorImageIsLj2EEENS2_IfLj2EEEE13PushBackInputEPKS3_@Base 5.0.0
 _ZN3itk18ImageToImageFilterIN3otb11VectorImageIsLj2EEENS2_IfLj2EEEE14PushFrontInputEPKNS_10DataObjectE@Base 5.0.0
 _ZN3itk18ImageToImageFilterIN3otb11VectorImageIsLj2EEENS2_IfLj2EEEE14PushFrontInputEPKS3_@Base 5.0.0
 _ZN3itk18ImageToImageFilterIN3otb11VectorImageIsLj2EEENS2_IfLj2EEEE21SetDirectionToleranceEd@Base 5.0.0
 _ZN3itk18ImageToImageFilterIN3otb11VectorImageIsLj2EEENS2_IfLj2EEEE22SetCoordinateToleranceEd@Base 5.0.0
 _ZN3itk18ImageToImageFilterIN3otb11VectorImageIsLj2EEENS2_IfLj2EEEE22VerifyInputInformationEv@Base 5.0.0
 _ZN3itk18ImageToImageFilterIN3otb11VectorImageIsLj2EEENS2_IfLj2EEEE28GenerateInputRequestedRegionEv@Base 5.0.0
 _ZN3itk18ImageToImageFilterIN3otb11VectorImageIsLj2EEENS2_IfLj2EEEE33CallCopyInputRegionToOutputRegionERNS_11ImageRegionILj2EEERKS7_@Base 5.0.0
 _ZN3itk18ImageToImageFilterIN3otb11VectorImageIsLj2EEENS2_IfLj2EEEE33CallCopyOutputRegionToInputRegionERNS_11ImageRegionILj2EEERKS7_@Base 5.0.0
 _ZN3itk18ImageToImageFilterIN3otb11VectorImageIsLj2EEENS2_IfLj2EEEE8SetInputEPKS3_@Base 5.0.0
 _ZN3itk18ImageToImageFilterIN3otb11VectorImageIsLj2EEENS2_IfLj2EEEE8SetInputEjPKS3_@Base 5.0.0
 _ZN3itk18ImageToImageFilterIN3otb11VectorImageIsLj2EEENS2_IfLj2EEEED0Ev@Base 5.0.0
 _ZN3itk18ImageToImageFilterIN3otb11VectorImageIsLj2EEENS2_IfLj2EEEED1Ev@Base 5.0.0
 _ZN3itk18ImageToImageFilterIN3otb11VectorImageIsLj2EEENS2_IfLj2EEEED2Ev@Base 5.0.0
 _ZN3itk18ImageToImageFilterIN3otb11VectorImageIsLj2EEENS2_IhLj2EEEE12PopBackInputEv@Base 5.0.0
 _ZN3itk18ImageToImageFilterIN3otb11VectorImageIsLj2EEENS2_IhLj2EEEE13PopFrontInputEv@Base 5.0.0
 _ZN3itk18ImageToImageFilterIN3otb11VectorImageIsLj2EEENS2_IhLj2EEEE13PushBackInputEPKNS_10DataObjectE@Base 5.0.0
 _ZN3itk18ImageToImageFilterIN3otb11VectorImageIsLj2EEENS2_IhLj2EEEE13PushBackInputEPKS3_@Base 5.0.0
 _ZN3itk18ImageToImageFilterIN3otb11VectorImageIsLj2EEENS2_IhLj2EEEE14PushFrontInputEPKNS_10DataObjectE@Base 5.0.0
 _ZN3itk18ImageToImageFilterIN3otb11VectorImageIsLj2EEENS2_IhLj2EEEE14PushFrontInputEPKS3_@Base 5.0.0
 _ZN3itk18ImageToImageFilterIN3otb11VectorImageIsLj2EEENS2_IhLj2EEEE21SetDirectionToleranceEd@Base 5.0.0
 _ZN3itk18ImageToImageFilterIN3otb11VectorImageIsLj2EEENS2_IhLj2EEEE22SetCoordinateToleranceEd@Base 5.0.0
 _ZN3itk18ImageToImageFilterIN3otb11VectorImageIsLj2EEENS2_IhLj2EEEE22VerifyInputInformationEv@Base 5.0.0
 _ZN3itk18ImageToImageFilterIN3otb11VectorImageIsLj2EEENS2_IhLj2EEEE28GenerateInputRequestedRegionEv@Base 5.0.0
 _ZN3itk18ImageToImageFilterIN3otb11VectorImageIsLj2EEENS2_IhLj2EEEE33CallCopyInputRegionToOutputRegionERNS_11ImageRegionILj2EEERKS7_@Base 5.0.0
 _ZN3itk18ImageToImageFilterIN3otb11VectorImageIsLj2EEENS2_IhLj2EEEE33CallCopyOutputRegionToInputRegionERNS_11ImageRegionILj2EEERKS7_@Base 5.0.0
 _ZN3itk18ImageToImageFilterIN3otb11VectorImageIsLj2EEENS2_IhLj2EEEE8SetInputEPKS3_@Base 5.0.0
 _ZN3itk18ImageToImageFilterIN3otb11VectorImageIsLj2EEENS2_IhLj2EEEE8SetInputEjPKS3_@Base 5.0.0
 _ZN3itk18ImageToImageFilterIN3otb11VectorImageIsLj2EEENS2_IhLj2EEEED0Ev@Base 5.0.0
 _ZN3itk18ImageToImageFilterIN3otb11VectorImageIsLj2EEENS2_IhLj2EEEED1Ev@Base 5.0.0
 _ZN3itk18ImageToImageFilterIN3otb11VectorImageIsLj2EEENS2_IhLj2EEEED2Ev@Base 5.0.0
 _ZN3itk18ImageToImageFilterIN3otb11VectorImageIsLj2EEENS2_IiLj2EEEE12PopBackInputEv@Base 5.0.0
 _ZN3itk18ImageToImageFilterIN3otb11VectorImageIsLj2EEENS2_IiLj2EEEE13PopFrontInputEv@Base 5.0.0
 _ZN3itk18ImageToImageFilterIN3otb11VectorImageIsLj2EEENS2_IiLj2EEEE13PushBackInputEPKNS_10DataObjectE@Base 5.0.0
 _ZN3itk18ImageToImageFilterIN3otb11VectorImageIsLj2EEENS2_IiLj2EEEE13PushBackInputEPKS3_@Base 5.0.0
 _ZN3itk18ImageToImageFilterIN3otb11VectorImageIsLj2EEENS2_IiLj2EEEE14PushFrontInputEPKNS_10DataObjectE@Base 5.0.0
 _ZN3itk18ImageToImageFilterIN3otb11VectorImageIsLj2EEENS2_IiLj2EEEE14PushFrontInputEPKS3_@Base 5.0.0
 _ZN3itk18ImageToImageFilterIN3otb11VectorImageIsLj2EEENS2_IiLj2EEEE21SetDirectionToleranceEd@Base 5.0.0
 _ZN3itk18ImageToImageFilterIN3otb11VectorImageIsLj2EEENS2_IiLj2EEEE22SetCoordinateToleranceEd@Base 5.0.0
 _ZN3itk18ImageToImageFilterIN3otb11VectorImageIsLj2EEENS2_IiLj2EEEE22VerifyInputInformationEv@Base 5.0.0
 _ZN3itk18ImageToImageFilterIN3otb11VectorImageIsLj2EEENS2_IiLj2EEEE28GenerateInputRequestedRegionEv@Base 5.0.0
 _ZN3itk18ImageToImageFilterIN3otb11VectorImageIsLj2EEENS2_IiLj2EEEE33CallCopyInputRegionToOutputRegionERNS_11ImageRegionILj2EEERKS7_@Base 5.0.0
 _ZN3itk18ImageToImageFilterIN3otb11VectorImageIsLj2EEENS2_IiLj2EEEE33CallCopyOutputRegionToInputRegionERNS_11ImageRegionILj2EEERKS7_@Base 5.0.0
 _ZN3itk18ImageToImageFilterIN3otb11VectorImageIsLj2EEENS2_IiLj2EEEE8SetInputEPKS3_@Base 5.0.0
 _ZN3itk18ImageToImageFilterIN3otb11VectorImageIsLj2EEENS2_IiLj2EEEE8SetInputEjPKS3_@Base 5.0.0
 _ZN3itk18ImageToImageFilterIN3otb11VectorImageIsLj2EEENS2_IiLj2EEEED0Ev@Base 5.0.0
 _ZN3itk18ImageToImageFilterIN3otb11VectorImageIsLj2EEENS2_IiLj2EEEED1Ev@Base 5.0.0
 _ZN3itk18ImageToImageFilterIN3otb11VectorImageIsLj2EEENS2_IiLj2EEEED2Ev@Base 5.0.0
 _ZN3itk18ImageToImageFilterIN3otb11VectorImageIsLj2EEENS2_IjLj2EEEE12PopBackInputEv@Base 5.0.0
 _ZN3itk18ImageToImageFilterIN3otb11VectorImageIsLj2EEENS2_IjLj2EEEE13PopFrontInputEv@Base 5.0.0
 _ZN3itk18ImageToImageFilterIN3otb11VectorImageIsLj2EEENS2_IjLj2EEEE13PushBackInputEPKNS_10DataObjectE@Base 5.0.0
 _ZN3itk18ImageToImageFilterIN3otb11VectorImageIsLj2EEENS2_IjLj2EEEE13PushBackInputEPKS3_@Base 5.0.0
 _ZN3itk18ImageToImageFilterIN3otb11VectorImageIsLj2EEENS2_IjLj2EEEE14PushFrontInputEPKNS_10DataObjectE@Base 5.0.0
 _ZN3itk18ImageToImageFilterIN3otb11VectorImageIsLj2EEENS2_IjLj2EEEE14PushFrontInputEPKS3_@Base 5.0.0
 _ZN3itk18ImageToImageFilterIN3otb11VectorImageIsLj2EEENS2_IjLj2EEEE21SetDirectionToleranceEd@Base 5.0.0
 _ZN3itk18ImageToImageFilterIN3otb11VectorImageIsLj2EEENS2_IjLj2EEEE22SetCoordinateToleranceEd@Base 5.0.0
 _ZN3itk18ImageToImageFilterIN3otb11VectorImageIsLj2EEENS2_IjLj2EEEE22VerifyInputInformationEv@Base 5.0.0
 _ZN3itk18ImageToImageFilterIN3otb11VectorImageIsLj2EEENS2_IjLj2EEEE28GenerateInputRequestedRegionEv@Base 5.0.0
 _ZN3itk18ImageToImageFilterIN3otb11VectorImageIsLj2EEENS2_IjLj2EEEE33CallCopyInputRegionToOutputRegionERNS_11ImageRegionILj2EEERKS7_@Base 5.0.0
 _ZN3itk18ImageToImageFilterIN3otb11VectorImageIsLj2EEENS2_IjLj2EEEE33CallCopyOutputRegionToInputRegionERNS_11ImageRegionILj2EEERKS7_@Base 5.0.0
 _ZN3itk18ImageToImageFilterIN3otb11VectorImageIsLj2EEENS2_IjLj2EEEE8SetInputEPKS3_@Base 5.0.0
 _ZN3itk18ImageToImageFilterIN3otb11VectorImageIsLj2EEENS2_IjLj2EEEE8SetInputEjPKS3_@Base 5.0.0
 _ZN3itk18ImageToImageFilterIN3otb11VectorImageIsLj2EEENS2_IjLj2EEEED0Ev@Base 5.0.0
 _ZN3itk18ImageToImageFilterIN3otb11VectorImageIsLj2EEENS2_IjLj2EEEED1Ev@Base 5.0.0
 _ZN3itk18ImageToImageFilterIN3otb11VectorImageIsLj2EEENS2_IjLj2EEEED2Ev@Base 5.0.0
 _ZN3itk18ImageToImageFilterIN3otb11VectorImageIsLj2EEENS2_ItLj2EEEE12PopBackInputEv@Base 5.0.0
 _ZN3itk18ImageToImageFilterIN3otb11VectorImageIsLj2EEENS2_ItLj2EEEE13PopFrontInputEv@Base 5.0.0
 _ZN3itk18ImageToImageFilterIN3otb11VectorImageIsLj2EEENS2_ItLj2EEEE13PushBackInputEPKNS_10DataObjectE@Base 5.0.0
 _ZN3itk18ImageToImageFilterIN3otb11VectorImageIsLj2EEENS2_ItLj2EEEE13PushBackInputEPKS3_@Base 5.0.0
 _ZN3itk18ImageToImageFilterIN3otb11VectorImageIsLj2EEENS2_ItLj2EEEE14PushFrontInputEPKNS_10DataObjectE@Base 5.0.0
 _ZN3itk18ImageToImageFilterIN3otb11VectorImageIsLj2EEENS2_ItLj2EEEE14PushFrontInputEPKS3_@Base 5.0.0
 _ZN3itk18ImageToImageFilterIN3otb11VectorImageIsLj2EEENS2_ItLj2EEEE21SetDirectionToleranceEd@Base 5.0.0
 _ZN3itk18ImageToImageFilterIN3otb11VectorImageIsLj2EEENS2_ItLj2EEEE22SetCoordinateToleranceEd@Base 5.0.0
 _ZN3itk18ImageToImageFilterIN3otb11VectorImageIsLj2EEENS2_ItLj2EEEE22VerifyInputInformationEv@Base 5.0.0
 _ZN3itk18ImageToImageFilterIN3otb11VectorImageIsLj2EEENS2_ItLj2EEEE28GenerateInputRequestedRegionEv@Base 5.0.0
 _ZN3itk18ImageToImageFilterIN3otb11VectorImageIsLj2EEENS2_ItLj2EEEE33CallCopyInputRegionToOutputRegionERNS_11ImageRegionILj2EEERKS7_@Base 5.0.0
 _ZN3itk18ImageToImageFilterIN3otb11VectorImageIsLj2EEENS2_ItLj2EEEE33CallCopyOutputRegionToInputRegionERNS_11ImageRegionILj2EEERKS7_@Base 5.0.0
 _ZN3itk18ImageToImageFilterIN3otb11VectorImageIsLj2EEENS2_ItLj2EEEE8SetInputEPKS3_@Base 5.0.0
 _ZN3itk18ImageToImageFilterIN3otb11VectorImageIsLj2EEENS2_ItLj2EEEE8SetInputEjPKS3_@Base 5.0.0
 _ZN3itk18ImageToImageFilterIN3otb11VectorImageIsLj2EEENS2_ItLj2EEEED0Ev@Base 5.0.0
 _ZN3itk18ImageToImageFilterIN3otb11VectorImageIsLj2EEENS2_ItLj2EEEED1Ev@Base 5.0.0
 _ZN3itk18ImageToImageFilterIN3otb11VectorImageIsLj2EEENS2_ItLj2EEEED2Ev@Base 5.0.0
 _ZN3itk18ImageToImageFilterIN3otb11VectorImageIsLj2EEES3_E12PopBackInputEv@Base 5.0.0
 _ZN3itk18ImageToImageFilterIN3otb11VectorImageIsLj2EEES3_E13PopFrontInputEv@Base 5.0.0
 _ZN3itk18ImageToImageFilterIN3otb11VectorImageIsLj2EEES3_E13PushBackInputEPKNS_10DataObjectE@Base 5.0.0
 _ZN3itk18ImageToImageFilterIN3otb11VectorImageIsLj2EEES3_E13PushBackInputEPKS3_@Base 5.0.0
 _ZN3itk18ImageToImageFilterIN3otb11VectorImageIsLj2EEES3_E14PushFrontInputEPKNS_10DataObjectE@Base 5.0.0
 _ZN3itk18ImageToImageFilterIN3otb11VectorImageIsLj2EEES3_E14PushFrontInputEPKS3_@Base 5.0.0
 _ZN3itk18ImageToImageFilterIN3otb11VectorImageIsLj2EEES3_E21SetDirectionToleranceEd@Base 5.0.0
 _ZN3itk18ImageToImageFilterIN3otb11VectorImageIsLj2EEES3_E22SetCoordinateToleranceEd@Base 5.0.0
 _ZN3itk18ImageToImageFilterIN3otb11VectorImageIsLj2EEES3_E22VerifyInputInformationEv@Base 5.0.0
 _ZN3itk18ImageToImageFilterIN3otb11VectorImageIsLj2EEES3_E28GenerateInputRequestedRegionEv@Base 5.0.0
 _ZN3itk18ImageToImageFilterIN3otb11VectorImageIsLj2EEES3_E33CallCopyInputRegionToOutputRegionERNS_11ImageRegionILj2EEERKS6_@Base 5.0.0
 _ZN3itk18ImageToImageFilterIN3otb11VectorImageIsLj2EEES3_E33CallCopyOutputRegionToInputRegionERNS_11ImageRegionILj2EEERKS6_@Base 5.0.0
 _ZN3itk18ImageToImageFilterIN3otb11VectorImageIsLj2EEES3_E8SetInputEPKS3_@Base 5.0.0
 _ZN3itk18ImageToImageFilterIN3otb11VectorImageIsLj2EEES3_E8SetInputEjPKS3_@Base 5.0.0
 _ZN3itk18ImageToImageFilterIN3otb11VectorImageIsLj2EEES3_ED0Ev@Base 5.0.0
 _ZN3itk18ImageToImageFilterIN3otb11VectorImageIsLj2EEES3_ED1Ev@Base 5.0.0
 _ZN3itk18ImageToImageFilterIN3otb11VectorImageIsLj2EEES3_ED2Ev@Base 5.0.0
 _ZN3itk18ImageToImageFilterIN3otb11VectorImageItLj2EEENS2_IdLj2EEEE12PopBackInputEv@Base 5.0.0
 _ZN3itk18ImageToImageFilterIN3otb11VectorImageItLj2EEENS2_IdLj2EEEE13PopFrontInputEv@Base 5.0.0
 _ZN3itk18ImageToImageFilterIN3otb11VectorImageItLj2EEENS2_IdLj2EEEE13PushBackInputEPKNS_10DataObjectE@Base 5.0.0
 _ZN3itk18ImageToImageFilterIN3otb11VectorImageItLj2EEENS2_IdLj2EEEE13PushBackInputEPKS3_@Base 5.0.0
 _ZN3itk18ImageToImageFilterIN3otb11VectorImageItLj2EEENS2_IdLj2EEEE14PushFrontInputEPKNS_10DataObjectE@Base 5.0.0
 _ZN3itk18ImageToImageFilterIN3otb11VectorImageItLj2EEENS2_IdLj2EEEE14PushFrontInputEPKS3_@Base 5.0.0
 _ZN3itk18ImageToImageFilterIN3otb11VectorImageItLj2EEENS2_IdLj2EEEE21SetDirectionToleranceEd@Base 5.0.0
 _ZN3itk18ImageToImageFilterIN3otb11VectorImageItLj2EEENS2_IdLj2EEEE22SetCoordinateToleranceEd@Base 5.0.0
 _ZN3itk18ImageToImageFilterIN3otb11VectorImageItLj2EEENS2_IdLj2EEEE22VerifyInputInformationEv@Base 5.0.0
 _ZN3itk18ImageToImageFilterIN3otb11VectorImageItLj2EEENS2_IdLj2EEEE28GenerateInputRequestedRegionEv@Base 5.0.0
 _ZN3itk18ImageToImageFilterIN3otb11VectorImageItLj2EEENS2_IdLj2EEEE33CallCopyInputRegionToOutputRegionERNS_11ImageRegionILj2EEERKS7_@Base 5.0.0
 _ZN3itk18ImageToImageFilterIN3otb11VectorImageItLj2EEENS2_IdLj2EEEE33CallCopyOutputRegionToInputRegionERNS_11ImageRegionILj2EEERKS7_@Base 5.0.0
 _ZN3itk18ImageToImageFilterIN3otb11VectorImageItLj2EEENS2_IdLj2EEEE8SetInputEPKS3_@Base 5.0.0
 _ZN3itk18ImageToImageFilterIN3otb11VectorImageItLj2EEENS2_IdLj2EEEE8SetInputEjPKS3_@Base 5.0.0
 _ZN3itk18ImageToImageFilterIN3otb11VectorImageItLj2EEENS2_IdLj2EEEED0Ev@Base 5.0.0
 _ZN3itk18ImageToImageFilterIN3otb11VectorImageItLj2EEENS2_IdLj2EEEED1Ev@Base 5.0.0
 _ZN3itk18ImageToImageFilterIN3otb11VectorImageItLj2EEENS2_IdLj2EEEED2Ev@Base 5.0.0
 _ZN3itk18ImageToImageFilterIN3otb11VectorImageItLj2EEENS2_IfLj2EEEE12PopBackInputEv@Base 5.0.0
 _ZN3itk18ImageToImageFilterIN3otb11VectorImageItLj2EEENS2_IfLj2EEEE13PopFrontInputEv@Base 5.0.0
 _ZN3itk18ImageToImageFilterIN3otb11VectorImageItLj2EEENS2_IfLj2EEEE13PushBackInputEPKNS_10DataObjectE@Base 5.0.0
 _ZN3itk18ImageToImageFilterIN3otb11VectorImageItLj2EEENS2_IfLj2EEEE13PushBackInputEPKS3_@Base 5.0.0
 _ZN3itk18ImageToImageFilterIN3otb11VectorImageItLj2EEENS2_IfLj2EEEE14PushFrontInputEPKNS_10DataObjectE@Base 5.0.0
 _ZN3itk18ImageToImageFilterIN3otb11VectorImageItLj2EEENS2_IfLj2EEEE14PushFrontInputEPKS3_@Base 5.0.0
 _ZN3itk18ImageToImageFilterIN3otb11VectorImageItLj2EEENS2_IfLj2EEEE21SetDirectionToleranceEd@Base 5.0.0
 _ZN3itk18ImageToImageFilterIN3otb11VectorImageItLj2EEENS2_IfLj2EEEE22SetCoordinateToleranceEd@Base 5.0.0
 _ZN3itk18ImageToImageFilterIN3otb11VectorImageItLj2EEENS2_IfLj2EEEE22VerifyInputInformationEv@Base 5.0.0
 _ZN3itk18ImageToImageFilterIN3otb11VectorImageItLj2EEENS2_IfLj2EEEE28GenerateInputRequestedRegionEv@Base 5.0.0
 _ZN3itk18ImageToImageFilterIN3otb11VectorImageItLj2EEENS2_IfLj2EEEE33CallCopyInputRegionToOutputRegionERNS_11ImageRegionILj2EEERKS7_@Base 5.0.0
 _ZN3itk18ImageToImageFilterIN3otb11VectorImageItLj2EEENS2_IfLj2EEEE33CallCopyOutputRegionToInputRegionERNS_11ImageRegionILj2EEERKS7_@Base 5.0.0
 _ZN3itk18ImageToImageFilterIN3otb11VectorImageItLj2EEENS2_IfLj2EEEE8SetInputEPKS3_@Base 5.0.0
 _ZN3itk18ImageToImageFilterIN3otb11VectorImageItLj2EEENS2_IfLj2EEEE8SetInputEjPKS3_@Base 5.0.0
 _ZN3itk18ImageToImageFilterIN3otb11VectorImageItLj2EEENS2_IfLj2EEEED0Ev@Base 5.0.0
 _ZN3itk18ImageToImageFilterIN3otb11VectorImageItLj2EEENS2_IfLj2EEEED1Ev@Base 5.0.0
 _ZN3itk18ImageToImageFilterIN3otb11VectorImageItLj2EEENS2_IfLj2EEEED2Ev@Base 5.0.0
 _ZN3itk18ImageToImageFilterIN3otb11VectorImageItLj2EEENS2_IhLj2EEEE12PopBackInputEv@Base 5.0.0
 _ZN3itk18ImageToImageFilterIN3otb11VectorImageItLj2EEENS2_IhLj2EEEE13PopFrontInputEv@Base 5.0.0
 _ZN3itk18ImageToImageFilterIN3otb11VectorImageItLj2EEENS2_IhLj2EEEE13PushBackInputEPKNS_10DataObjectE@Base 5.0.0
 _ZN3itk18ImageToImageFilterIN3otb11VectorImageItLj2EEENS2_IhLj2EEEE13PushBackInputEPKS3_@Base 5.0.0
 _ZN3itk18ImageToImageFilterIN3otb11VectorImageItLj2EEENS2_IhLj2EEEE14PushFrontInputEPKNS_10DataObjectE@Base 5.0.0
 _ZN3itk18ImageToImageFilterIN3otb11VectorImageItLj2EEENS2_IhLj2EEEE14PushFrontInputEPKS3_@Base 5.0.0
 _ZN3itk18ImageToImageFilterIN3otb11VectorImageItLj2EEENS2_IhLj2EEEE21SetDirectionToleranceEd@Base 5.0.0
 _ZN3itk18ImageToImageFilterIN3otb11VectorImageItLj2EEENS2_IhLj2EEEE22SetCoordinateToleranceEd@Base 5.0.0
 _ZN3itk18ImageToImageFilterIN3otb11VectorImageItLj2EEENS2_IhLj2EEEE22VerifyInputInformationEv@Base 5.0.0
 _ZN3itk18ImageToImageFilterIN3otb11VectorImageItLj2EEENS2_IhLj2EEEE28GenerateInputRequestedRegionEv@Base 5.0.0
 _ZN3itk18ImageToImageFilterIN3otb11VectorImageItLj2EEENS2_IhLj2EEEE33CallCopyInputRegionToOutputRegionERNS_11ImageRegionILj2EEERKS7_@Base 5.0.0
 _ZN3itk18ImageToImageFilterIN3otb11VectorImageItLj2EEENS2_IhLj2EEEE33CallCopyOutputRegionToInputRegionERNS_11ImageRegionILj2EEERKS7_@Base 5.0.0
 _ZN3itk18ImageToImageFilterIN3otb11VectorImageItLj2EEENS2_IhLj2EEEE8SetInputEPKS3_@Base 5.0.0
 _ZN3itk18ImageToImageFilterIN3otb11VectorImageItLj2EEENS2_IhLj2EEEE8SetInputEjPKS3_@Base 5.0.0
 _ZN3itk18ImageToImageFilterIN3otb11VectorImageItLj2EEENS2_IhLj2EEEED0Ev@Base 5.0.0
 _ZN3itk18ImageToImageFilterIN3otb11VectorImageItLj2EEENS2_IhLj2EEEED1Ev@Base 5.0.0
 _ZN3itk18ImageToImageFilterIN3otb11VectorImageItLj2EEENS2_IhLj2EEEED2Ev@Base 5.0.0
 _ZN3itk18ImageToImageFilterIN3otb11VectorImageItLj2EEENS2_IiLj2EEEE12PopBackInputEv@Base 5.0.0
 _ZN3itk18ImageToImageFilterIN3otb11VectorImageItLj2EEENS2_IiLj2EEEE13PopFrontInputEv@Base 5.0.0
 _ZN3itk18ImageToImageFilterIN3otb11VectorImageItLj2EEENS2_IiLj2EEEE13PushBackInputEPKNS_10DataObjectE@Base 5.0.0
 _ZN3itk18ImageToImageFilterIN3otb11VectorImageItLj2EEENS2_IiLj2EEEE13PushBackInputEPKS3_@Base 5.0.0
 _ZN3itk18ImageToImageFilterIN3otb11VectorImageItLj2EEENS2_IiLj2EEEE14PushFrontInputEPKNS_10DataObjectE@Base 5.0.0
 _ZN3itk18ImageToImageFilterIN3otb11VectorImageItLj2EEENS2_IiLj2EEEE14PushFrontInputEPKS3_@Base 5.0.0
 _ZN3itk18ImageToImageFilterIN3otb11VectorImageItLj2EEENS2_IiLj2EEEE21SetDirectionToleranceEd@Base 5.0.0
 _ZN3itk18ImageToImageFilterIN3otb11VectorImageItLj2EEENS2_IiLj2EEEE22SetCoordinateToleranceEd@Base 5.0.0
 _ZN3itk18ImageToImageFilterIN3otb11VectorImageItLj2EEENS2_IiLj2EEEE22VerifyInputInformationEv@Base 5.0.0
 _ZN3itk18ImageToImageFilterIN3otb11VectorImageItLj2EEENS2_IiLj2EEEE28GenerateInputRequestedRegionEv@Base 5.0.0
 _ZN3itk18ImageToImageFilterIN3otb11VectorImageItLj2EEENS2_IiLj2EEEE33CallCopyInputRegionToOutputRegionERNS_11ImageRegionILj2EEERKS7_@Base 5.0.0
 _ZN3itk18ImageToImageFilterIN3otb11VectorImageItLj2EEENS2_IiLj2EEEE33CallCopyOutputRegionToInputRegionERNS_11ImageRegionILj2EEERKS7_@Base 5.0.0
 _ZN3itk18ImageToImageFilterIN3otb11VectorImageItLj2EEENS2_IiLj2EEEE8SetInputEPKS3_@Base 5.0.0
 _ZN3itk18ImageToImageFilterIN3otb11VectorImageItLj2EEENS2_IiLj2EEEE8SetInputEjPKS3_@Base 5.0.0
 _ZN3itk18ImageToImageFilterIN3otb11VectorImageItLj2EEENS2_IiLj2EEEED0Ev@Base 5.0.0
 _ZN3itk18ImageToImageFilterIN3otb11VectorImageItLj2EEENS2_IiLj2EEEED1Ev@Base 5.0.0
 _ZN3itk18ImageToImageFilterIN3otb11VectorImageItLj2EEENS2_IiLj2EEEED2Ev@Base 5.0.0
 _ZN3itk18ImageToImageFilterIN3otb11VectorImageItLj2EEENS2_IjLj2EEEE12PopBackInputEv@Base 5.0.0
 _ZN3itk18ImageToImageFilterIN3otb11VectorImageItLj2EEENS2_IjLj2EEEE13PopFrontInputEv@Base 5.0.0
 _ZN3itk18ImageToImageFilterIN3otb11VectorImageItLj2EEENS2_IjLj2EEEE13PushBackInputEPKNS_10DataObjectE@Base 5.0.0
 _ZN3itk18ImageToImageFilterIN3otb11VectorImageItLj2EEENS2_IjLj2EEEE13PushBackInputEPKS3_@Base 5.0.0
 _ZN3itk18ImageToImageFilterIN3otb11VectorImageItLj2EEENS2_IjLj2EEEE14PushFrontInputEPKNS_10DataObjectE@Base 5.0.0
 _ZN3itk18ImageToImageFilterIN3otb11VectorImageItLj2EEENS2_IjLj2EEEE14PushFrontInputEPKS3_@Base 5.0.0
 _ZN3itk18ImageToImageFilterIN3otb11VectorImageItLj2EEENS2_IjLj2EEEE21SetDirectionToleranceEd@Base 5.0.0
 _ZN3itk18ImageToImageFilterIN3otb11VectorImageItLj2EEENS2_IjLj2EEEE22SetCoordinateToleranceEd@Base 5.0.0
 _ZN3itk18ImageToImageFilterIN3otb11VectorImageItLj2EEENS2_IjLj2EEEE22VerifyInputInformationEv@Base 5.0.0
 _ZN3itk18ImageToImageFilterIN3otb11VectorImageItLj2EEENS2_IjLj2EEEE28GenerateInputRequestedRegionEv@Base 5.0.0
 _ZN3itk18ImageToImageFilterIN3otb11VectorImageItLj2EEENS2_IjLj2EEEE33CallCopyInputRegionToOutputRegionERNS_11ImageRegionILj2EEERKS7_@Base 5.0.0
 _ZN3itk18ImageToImageFilterIN3otb11VectorImageItLj2EEENS2_IjLj2EEEE33CallCopyOutputRegionToInputRegionERNS_11ImageRegionILj2EEERKS7_@Base 5.0.0
 _ZN3itk18ImageToImageFilterIN3otb11VectorImageItLj2EEENS2_IjLj2EEEE8SetInputEPKS3_@Base 5.0.0
 _ZN3itk18ImageToImageFilterIN3otb11VectorImageItLj2EEENS2_IjLj2EEEE8SetInputEjPKS3_@Base 5.0.0
 _ZN3itk18ImageToImageFilterIN3otb11VectorImageItLj2EEENS2_IjLj2EEEED0Ev@Base 5.0.0
 _ZN3itk18ImageToImageFilterIN3otb11VectorImageItLj2EEENS2_IjLj2EEEED1Ev@Base 5.0.0
 _ZN3itk18ImageToImageFilterIN3otb11VectorImageItLj2EEENS2_IjLj2EEEED2Ev@Base 5.0.0
 _ZN3itk18ImageToImageFilterIN3otb11VectorImageItLj2EEENS2_IsLj2EEEE12PopBackInputEv@Base 5.0.0
 _ZN3itk18ImageToImageFilterIN3otb11VectorImageItLj2EEENS2_IsLj2EEEE13PopFrontInputEv@Base 5.0.0
 _ZN3itk18ImageToImageFilterIN3otb11VectorImageItLj2EEENS2_IsLj2EEEE13PushBackInputEPKNS_10DataObjectE@Base 5.0.0
 _ZN3itk18ImageToImageFilterIN3otb11VectorImageItLj2EEENS2_IsLj2EEEE13PushBackInputEPKS3_@Base 5.0.0
 _ZN3itk18ImageToImageFilterIN3otb11VectorImageItLj2EEENS2_IsLj2EEEE14PushFrontInputEPKNS_10DataObjectE@Base 5.0.0
 _ZN3itk18ImageToImageFilterIN3otb11VectorImageItLj2EEENS2_IsLj2EEEE14PushFrontInputEPKS3_@Base 5.0.0
 _ZN3itk18ImageToImageFilterIN3otb11VectorImageItLj2EEENS2_IsLj2EEEE21SetDirectionToleranceEd@Base 5.0.0
 _ZN3itk18ImageToImageFilterIN3otb11VectorImageItLj2EEENS2_IsLj2EEEE22SetCoordinateToleranceEd@Base 5.0.0
 _ZN3itk18ImageToImageFilterIN3otb11VectorImageItLj2EEENS2_IsLj2EEEE22VerifyInputInformationEv@Base 5.0.0
 _ZN3itk18ImageToImageFilterIN3otb11VectorImageItLj2EEENS2_IsLj2EEEE28GenerateInputRequestedRegionEv@Base 5.0.0
 _ZN3itk18ImageToImageFilterIN3otb11VectorImageItLj2EEENS2_IsLj2EEEE33CallCopyInputRegionToOutputRegionERNS_11ImageRegionILj2EEERKS7_@Base 5.0.0
 _ZN3itk18ImageToImageFilterIN3otb11VectorImageItLj2EEENS2_IsLj2EEEE33CallCopyOutputRegionToInputRegionERNS_11ImageRegionILj2EEERKS7_@Base 5.0.0
 _ZN3itk18ImageToImageFilterIN3otb11VectorImageItLj2EEENS2_IsLj2EEEE8SetInputEPKS3_@Base 5.0.0
 _ZN3itk18ImageToImageFilterIN3otb11VectorImageItLj2EEENS2_IsLj2EEEE8SetInputEjPKS3_@Base 5.0.0
 _ZN3itk18ImageToImageFilterIN3otb11VectorImageItLj2EEENS2_IsLj2EEEED0Ev@Base 5.0.0
 _ZN3itk18ImageToImageFilterIN3otb11VectorImageItLj2EEENS2_IsLj2EEEED1Ev@Base 5.0.0
 _ZN3itk18ImageToImageFilterIN3otb11VectorImageItLj2EEENS2_IsLj2EEEED2Ev@Base 5.0.0
 _ZN3itk18ImageToImageFilterIN3otb11VectorImageItLj2EEES3_E12PopBackInputEv@Base 5.0.0
 _ZN3itk18ImageToImageFilterIN3otb11VectorImageItLj2EEES3_E13PopFrontInputEv@Base 5.0.0
 _ZN3itk18ImageToImageFilterIN3otb11VectorImageItLj2EEES3_E13PushBackInputEPKNS_10DataObjectE@Base 5.0.0
 _ZN3itk18ImageToImageFilterIN3otb11VectorImageItLj2EEES3_E13PushBackInputEPKS3_@Base 5.0.0
 _ZN3itk18ImageToImageFilterIN3otb11VectorImageItLj2EEES3_E14PushFrontInputEPKNS_10DataObjectE@Base 5.0.0
 _ZN3itk18ImageToImageFilterIN3otb11VectorImageItLj2EEES3_E14PushFrontInputEPKS3_@Base 5.0.0
 _ZN3itk18ImageToImageFilterIN3otb11VectorImageItLj2EEES3_E21SetDirectionToleranceEd@Base 5.0.0
 _ZN3itk18ImageToImageFilterIN3otb11VectorImageItLj2EEES3_E22SetCoordinateToleranceEd@Base 5.0.0
 _ZN3itk18ImageToImageFilterIN3otb11VectorImageItLj2EEES3_E22VerifyInputInformationEv@Base 5.0.0
 _ZN3itk18ImageToImageFilterIN3otb11VectorImageItLj2EEES3_E28GenerateInputRequestedRegionEv@Base 5.0.0
 _ZN3itk18ImageToImageFilterIN3otb11VectorImageItLj2EEES3_E33CallCopyInputRegionToOutputRegionERNS_11ImageRegionILj2EEERKS6_@Base 5.0.0
 _ZN3itk18ImageToImageFilterIN3otb11VectorImageItLj2EEES3_E33CallCopyOutputRegionToInputRegionERNS_11ImageRegionILj2EEERKS6_@Base 5.0.0
 _ZN3itk18ImageToImageFilterIN3otb11VectorImageItLj2EEES3_E8SetInputEPKS3_@Base 5.0.0
 _ZN3itk18ImageToImageFilterIN3otb11VectorImageItLj2EEES3_E8SetInputEjPKS3_@Base 5.0.0
 _ZN3itk18ImageToImageFilterIN3otb11VectorImageItLj2EEES3_ED0Ev@Base 5.0.0
 _ZN3itk18ImageToImageFilterIN3otb11VectorImageItLj2EEES3_ED1Ev@Base 5.0.0
 _ZN3itk18ImageToImageFilterIN3otb11VectorImageItLj2EEES3_ED2Ev@Base 5.0.0
 _ZN3itk18ImageToImageFilterIN3otb5ImageINS_8RGBPixelIhEELj2EEES5_E12PopBackInputEv@Base 5.0.0
 _ZN3itk18ImageToImageFilterIN3otb5ImageINS_8RGBPixelIhEELj2EEES5_E13PopFrontInputEv@Base 5.0.0
 _ZN3itk18ImageToImageFilterIN3otb5ImageINS_8RGBPixelIhEELj2EEES5_E13PushBackInputEPKNS_10DataObjectE@Base 5.0.0
 _ZN3itk18ImageToImageFilterIN3otb5ImageINS_8RGBPixelIhEELj2EEES5_E13PushBackInputEPKS5_@Base 5.0.0
 _ZN3itk18ImageToImageFilterIN3otb5ImageINS_8RGBPixelIhEELj2EEES5_E14PushFrontInputEPKNS_10DataObjectE@Base 5.0.0
 _ZN3itk18ImageToImageFilterIN3otb5ImageINS_8RGBPixelIhEELj2EEES5_E14PushFrontInputEPKS5_@Base 5.0.0
 _ZN3itk18ImageToImageFilterIN3otb5ImageINS_8RGBPixelIhEELj2EEES5_E21SetDirectionToleranceEd@Base 5.0.0
 _ZN3itk18ImageToImageFilterIN3otb5ImageINS_8RGBPixelIhEELj2EEES5_E22SetCoordinateToleranceEd@Base 5.0.0
 _ZN3itk18ImageToImageFilterIN3otb5ImageINS_8RGBPixelIhEELj2EEES5_E22VerifyInputInformationEv@Base 5.0.0
 _ZN3itk18ImageToImageFilterIN3otb5ImageINS_8RGBPixelIhEELj2EEES5_E28GenerateInputRequestedRegionEv@Base 5.0.0
 _ZN3itk18ImageToImageFilterIN3otb5ImageINS_8RGBPixelIhEELj2EEES5_E33CallCopyInputRegionToOutputRegionERNS_11ImageRegionILj2EEERKS8_@Base 5.0.0
 _ZN3itk18ImageToImageFilterIN3otb5ImageINS_8RGBPixelIhEELj2EEES5_E33CallCopyOutputRegionToInputRegionERNS_11ImageRegionILj2EEERKS8_@Base 5.0.0
 _ZN3itk18ImageToImageFilterIN3otb5ImageINS_8RGBPixelIhEELj2EEES5_E8SetInputEPKS5_@Base 5.0.0
 _ZN3itk18ImageToImageFilterIN3otb5ImageINS_8RGBPixelIhEELj2EEES5_E8SetInputEjPKS5_@Base 5.0.0
 _ZN3itk18ImageToImageFilterIN3otb5ImageINS_8RGBPixelIhEELj2EEES5_ED0Ev@Base 5.0.0
 _ZN3itk18ImageToImageFilterIN3otb5ImageINS_8RGBPixelIhEELj2EEES5_ED1Ev@Base 5.0.0
 _ZN3itk18ImageToImageFilterIN3otb5ImageINS_8RGBPixelIhEELj2EEES5_ED2Ev@Base 5.0.0
 _ZN3itk18ImageToImageFilterIN3otb5ImageINS_9RGBAPixelIhEELj2EEES5_E12PopBackInputEv@Base 5.0.0
 _ZN3itk18ImageToImageFilterIN3otb5ImageINS_9RGBAPixelIhEELj2EEES5_E13PopFrontInputEv@Base 5.0.0
 _ZN3itk18ImageToImageFilterIN3otb5ImageINS_9RGBAPixelIhEELj2EEES5_E13PushBackInputEPKNS_10DataObjectE@Base 5.0.0
 _ZN3itk18ImageToImageFilterIN3otb5ImageINS_9RGBAPixelIhEELj2EEES5_E13PushBackInputEPKS5_@Base 5.0.0
 _ZN3itk18ImageToImageFilterIN3otb5ImageINS_9RGBAPixelIhEELj2EEES5_E14PushFrontInputEPKNS_10DataObjectE@Base 5.0.0
 _ZN3itk18ImageToImageFilterIN3otb5ImageINS_9RGBAPixelIhEELj2EEES5_E14PushFrontInputEPKS5_@Base 5.0.0
 _ZN3itk18ImageToImageFilterIN3otb5ImageINS_9RGBAPixelIhEELj2EEES5_E21SetDirectionToleranceEd@Base 5.0.0
 _ZN3itk18ImageToImageFilterIN3otb5ImageINS_9RGBAPixelIhEELj2EEES5_E22SetCoordinateToleranceEd@Base 5.0.0
 _ZN3itk18ImageToImageFilterIN3otb5ImageINS_9RGBAPixelIhEELj2EEES5_E22VerifyInputInformationEv@Base 5.0.0
 _ZN3itk18ImageToImageFilterIN3otb5ImageINS_9RGBAPixelIhEELj2EEES5_E28GenerateInputRequestedRegionEv@Base 5.0.0
 _ZN3itk18ImageToImageFilterIN3otb5ImageINS_9RGBAPixelIhEELj2EEES5_E33CallCopyInputRegionToOutputRegionERNS_11ImageRegionILj2EEERKS8_@Base 5.0.0
 _ZN3itk18ImageToImageFilterIN3otb5ImageINS_9RGBAPixelIhEELj2EEES5_E33CallCopyOutputRegionToInputRegionERNS_11ImageRegionILj2EEERKS8_@Base 5.0.0
 _ZN3itk18ImageToImageFilterIN3otb5ImageINS_9RGBAPixelIhEELj2EEES5_E8SetInputEPKS5_@Base 5.0.0
 _ZN3itk18ImageToImageFilterIN3otb5ImageINS_9RGBAPixelIhEELj2EEES5_E8SetInputEjPKS5_@Base 5.0.0
 _ZN3itk18ImageToImageFilterIN3otb5ImageINS_9RGBAPixelIhEELj2EEES5_ED0Ev@Base 5.0.0
 _ZN3itk18ImageToImageFilterIN3otb5ImageINS_9RGBAPixelIhEELj2EEES5_ED1Ev@Base 5.0.0
 _ZN3itk18ImageToImageFilterIN3otb5ImageINS_9RGBAPixelIhEELj2EEES5_ED2Ev@Base 5.0.0
 _ZN3itk18ImageToImageFilterIN3otb5ImageISt7complexIdELj2EEENS2_IS3_IfELj2EEEE12PopBackInputEv@Base 5.0.0
 _ZN3itk18ImageToImageFilterIN3otb5ImageISt7complexIdELj2EEENS2_IS3_IfELj2EEEE13PopFrontInputEv@Base 5.0.0
 _ZN3itk18ImageToImageFilterIN3otb5ImageISt7complexIdELj2EEENS2_IS3_IfELj2EEEE13PushBackInputEPKNS_10DataObjectE@Base 5.0.0
 _ZN3itk18ImageToImageFilterIN3otb5ImageISt7complexIdELj2EEENS2_IS3_IfELj2EEEE13PushBackInputEPKS5_@Base 5.0.0
 _ZN3itk18ImageToImageFilterIN3otb5ImageISt7complexIdELj2EEENS2_IS3_IfELj2EEEE14PushFrontInputEPKNS_10DataObjectE@Base 5.0.0
 _ZN3itk18ImageToImageFilterIN3otb5ImageISt7complexIdELj2EEENS2_IS3_IfELj2EEEE14PushFrontInputEPKS5_@Base 5.0.0
 _ZN3itk18ImageToImageFilterIN3otb5ImageISt7complexIdELj2EEENS2_IS3_IfELj2EEEE21SetDirectionToleranceEd@Base 5.0.0
 _ZN3itk18ImageToImageFilterIN3otb5ImageISt7complexIdELj2EEENS2_IS3_IfELj2EEEE22SetCoordinateToleranceEd@Base 5.0.0
 _ZN3itk18ImageToImageFilterIN3otb5ImageISt7complexIdELj2EEENS2_IS3_IfELj2EEEE22VerifyInputInformationEv@Base 5.0.0
 _ZN3itk18ImageToImageFilterIN3otb5ImageISt7complexIdELj2EEENS2_IS3_IfELj2EEEE28GenerateInputRequestedRegionEv@Base 5.0.0
 _ZN3itk18ImageToImageFilterIN3otb5ImageISt7complexIdELj2EEENS2_IS3_IfELj2EEEE33CallCopyInputRegionToOutputRegionERNS_11ImageRegionILj2EEERKSA_@Base 5.0.0
 _ZN3itk18ImageToImageFilterIN3otb5ImageISt7complexIdELj2EEENS2_IS3_IfELj2EEEE33CallCopyOutputRegionToInputRegionERNS_11ImageRegionILj2EEERKSA_@Base 5.0.0
 _ZN3itk18ImageToImageFilterIN3otb5ImageISt7complexIdELj2EEENS2_IS3_IfELj2EEEE8SetInputEPKS5_@Base 5.0.0
 _ZN3itk18ImageToImageFilterIN3otb5ImageISt7complexIdELj2EEENS2_IS3_IfELj2EEEE8SetInputEjPKS5_@Base 5.0.0
 _ZN3itk18ImageToImageFilterIN3otb5ImageISt7complexIdELj2EEENS2_IS3_IfELj2EEEED0Ev@Base 5.0.0
 _ZN3itk18ImageToImageFilterIN3otb5ImageISt7complexIdELj2EEENS2_IS3_IfELj2EEEED1Ev@Base 5.0.0
 _ZN3itk18ImageToImageFilterIN3otb5ImageISt7complexIdELj2EEENS2_IS3_IfELj2EEEED2Ev@Base 5.0.0
 _ZN3itk18ImageToImageFilterIN3otb5ImageISt7complexIdELj2EEES5_E12PopBackInputEv@Base 5.0.0
 _ZN3itk18ImageToImageFilterIN3otb5ImageISt7complexIdELj2EEES5_E13PopFrontInputEv@Base 5.0.0
 _ZN3itk18ImageToImageFilterIN3otb5ImageISt7complexIdELj2EEES5_E13PushBackInputEPKNS_10DataObjectE@Base 5.0.0
 _ZN3itk18ImageToImageFilterIN3otb5ImageISt7complexIdELj2EEES5_E13PushBackInputEPKS5_@Base 5.0.0
 _ZN3itk18ImageToImageFilterIN3otb5ImageISt7complexIdELj2EEES5_E14PushFrontInputEPKNS_10DataObjectE@Base 5.0.0
 _ZN3itk18ImageToImageFilterIN3otb5ImageISt7complexIdELj2EEES5_E14PushFrontInputEPKS5_@Base 5.0.0
 _ZN3itk18ImageToImageFilterIN3otb5ImageISt7complexIdELj2EEES5_E21SetDirectionToleranceEd@Base 5.0.0
 _ZN3itk18ImageToImageFilterIN3otb5ImageISt7complexIdELj2EEES5_E22SetCoordinateToleranceEd@Base 5.0.0
 _ZN3itk18ImageToImageFilterIN3otb5ImageISt7complexIdELj2EEES5_E22VerifyInputInformationEv@Base 5.0.0
 _ZN3itk18ImageToImageFilterIN3otb5ImageISt7complexIdELj2EEES5_E28GenerateInputRequestedRegionEv@Base 5.0.0
 _ZN3itk18ImageToImageFilterIN3otb5ImageISt7complexIdELj2EEES5_E33CallCopyInputRegionToOutputRegionERNS_11ImageRegionILj2EEERKS8_@Base 5.0.0
 _ZN3itk18ImageToImageFilterIN3otb5ImageISt7complexIdELj2EEES5_E33CallCopyOutputRegionToInputRegionERNS_11ImageRegionILj2EEERKS8_@Base 5.0.0
 _ZN3itk18ImageToImageFilterIN3otb5ImageISt7complexIdELj2EEES5_E8SetInputEPKS5_@Base 5.0.0
 _ZN3itk18ImageToImageFilterIN3otb5ImageISt7complexIdELj2EEES5_E8SetInputEjPKS5_@Base 5.0.0
 _ZN3itk18ImageToImageFilterIN3otb5ImageISt7complexIdELj2EEES5_ED0Ev@Base 5.0.0
 _ZN3itk18ImageToImageFilterIN3otb5ImageISt7complexIdELj2EEES5_ED1Ev@Base 5.0.0
 _ZN3itk18ImageToImageFilterIN3otb5ImageISt7complexIdELj2EEES5_ED2Ev@Base 5.0.0
 _ZN3itk18ImageToImageFilterIN3otb5ImageISt7complexIfELj2EEENS2_IS3_IdELj2EEEE12PopBackInputEv@Base 5.0.0
 _ZN3itk18ImageToImageFilterIN3otb5ImageISt7complexIfELj2EEENS2_IS3_IdELj2EEEE13PopFrontInputEv@Base 5.0.0
 _ZN3itk18ImageToImageFilterIN3otb5ImageISt7complexIfELj2EEENS2_IS3_IdELj2EEEE13PushBackInputEPKNS_10DataObjectE@Base 5.0.0
 _ZN3itk18ImageToImageFilterIN3otb5ImageISt7complexIfELj2EEENS2_IS3_IdELj2EEEE13PushBackInputEPKS5_@Base 5.0.0
 _ZN3itk18ImageToImageFilterIN3otb5ImageISt7complexIfELj2EEENS2_IS3_IdELj2EEEE14PushFrontInputEPKNS_10DataObjectE@Base 5.0.0
 _ZN3itk18ImageToImageFilterIN3otb5ImageISt7complexIfELj2EEENS2_IS3_IdELj2EEEE14PushFrontInputEPKS5_@Base 5.0.0
 _ZN3itk18ImageToImageFilterIN3otb5ImageISt7complexIfELj2EEENS2_IS3_IdELj2EEEE21SetDirectionToleranceEd@Base 5.0.0
 _ZN3itk18ImageToImageFilterIN3otb5ImageISt7complexIfELj2EEENS2_IS3_IdELj2EEEE22SetCoordinateToleranceEd@Base 5.0.0
 _ZN3itk18ImageToImageFilterIN3otb5ImageISt7complexIfELj2EEENS2_IS3_IdELj2EEEE22VerifyInputInformationEv@Base 5.0.0
 _ZN3itk18ImageToImageFilterIN3otb5ImageISt7complexIfELj2EEENS2_IS3_IdELj2EEEE28GenerateInputRequestedRegionEv@Base 5.0.0
 _ZN3itk18ImageToImageFilterIN3otb5ImageISt7complexIfELj2EEENS2_IS3_IdELj2EEEE33CallCopyInputRegionToOutputRegionERNS_11ImageRegionILj2EEERKSA_@Base 5.0.0
 _ZN3itk18ImageToImageFilterIN3otb5ImageISt7complexIfELj2EEENS2_IS3_IdELj2EEEE33CallCopyOutputRegionToInputRegionERNS_11ImageRegionILj2EEERKSA_@Base 5.0.0
 _ZN3itk18ImageToImageFilterIN3otb5ImageISt7complexIfELj2EEENS2_IS3_IdELj2EEEE8SetInputEPKS5_@Base 5.0.0
 _ZN3itk18ImageToImageFilterIN3otb5ImageISt7complexIfELj2EEENS2_IS3_IdELj2EEEE8SetInputEjPKS5_@Base 5.0.0
 _ZN3itk18ImageToImageFilterIN3otb5ImageISt7complexIfELj2EEENS2_IS3_IdELj2EEEED0Ev@Base 5.0.0
 _ZN3itk18ImageToImageFilterIN3otb5ImageISt7complexIfELj2EEENS2_IS3_IdELj2EEEED1Ev@Base 5.0.0
 _ZN3itk18ImageToImageFilterIN3otb5ImageISt7complexIfELj2EEENS2_IS3_IdELj2EEEED2Ev@Base 5.0.0
 _ZN3itk18ImageToImageFilterIN3otb5ImageISt7complexIfELj2EEES5_E12PopBackInputEv@Base 5.0.0
 _ZN3itk18ImageToImageFilterIN3otb5ImageISt7complexIfELj2EEES5_E13PopFrontInputEv@Base 5.0.0
 _ZN3itk18ImageToImageFilterIN3otb5ImageISt7complexIfELj2EEES5_E13PushBackInputEPKNS_10DataObjectE@Base 5.0.0
 _ZN3itk18ImageToImageFilterIN3otb5ImageISt7complexIfELj2EEES5_E13PushBackInputEPKS5_@Base 5.0.0
 _ZN3itk18ImageToImageFilterIN3otb5ImageISt7complexIfELj2EEES5_E14PushFrontInputEPKNS_10DataObjectE@Base 5.0.0
 _ZN3itk18ImageToImageFilterIN3otb5ImageISt7complexIfELj2EEES5_E14PushFrontInputEPKS5_@Base 5.0.0
 _ZN3itk18ImageToImageFilterIN3otb5ImageISt7complexIfELj2EEES5_E21SetDirectionToleranceEd@Base 5.0.0
 _ZN3itk18ImageToImageFilterIN3otb5ImageISt7complexIfELj2EEES5_E22SetCoordinateToleranceEd@Base 5.0.0
 _ZN3itk18ImageToImageFilterIN3otb5ImageISt7complexIfELj2EEES5_E22VerifyInputInformationEv@Base 5.0.0
 _ZN3itk18ImageToImageFilterIN3otb5ImageISt7complexIfELj2EEES5_E28GenerateInputRequestedRegionEv@Base 5.0.0
 _ZN3itk18ImageToImageFilterIN3otb5ImageISt7complexIfELj2EEES5_E33CallCopyInputRegionToOutputRegionERNS_11ImageRegionILj2EEERKS8_@Base 5.0.0
 _ZN3itk18ImageToImageFilterIN3otb5ImageISt7complexIfELj2EEES5_E33CallCopyOutputRegionToInputRegionERNS_11ImageRegionILj2EEERKS8_@Base 5.0.0
 _ZN3itk18ImageToImageFilterIN3otb5ImageISt7complexIfELj2EEES5_E8SetInputEPKS5_@Base 5.0.0
 _ZN3itk18ImageToImageFilterIN3otb5ImageISt7complexIfELj2EEES5_E8SetInputEjPKS5_@Base 5.0.0
 _ZN3itk18ImageToImageFilterIN3otb5ImageISt7complexIfELj2EEES5_ED0Ev@Base 5.0.0
 _ZN3itk18ImageToImageFilterIN3otb5ImageISt7complexIfELj2EEES5_ED1Ev@Base 5.0.0
 _ZN3itk18ImageToImageFilterIN3otb5ImageISt7complexIfELj2EEES5_ED2Ev@Base 5.0.0
 _ZN3itk18ImageToImageFilterIN3otb5ImageIdLj2EEENS1_11VectorImageIdLj2EEEE12PopBackInputEv@Base 5.0.0
 _ZN3itk18ImageToImageFilterIN3otb5ImageIdLj2EEENS1_11VectorImageIdLj2EEEE13PopFrontInputEv@Base 5.0.0
 _ZN3itk18ImageToImageFilterIN3otb5ImageIdLj2EEENS1_11VectorImageIdLj2EEEE13PushBackInputEPKNS_10DataObjectE@Base 5.0.0
 _ZN3itk18ImageToImageFilterIN3otb5ImageIdLj2EEENS1_11VectorImageIdLj2EEEE13PushBackInputEPKS3_@Base 5.0.0
 _ZN3itk18ImageToImageFilterIN3otb5ImageIdLj2EEENS1_11VectorImageIdLj2EEEE14PushFrontInputEPKNS_10DataObjectE@Base 5.0.0
 _ZN3itk18ImageToImageFilterIN3otb5ImageIdLj2EEENS1_11VectorImageIdLj2EEEE14PushFrontInputEPKS3_@Base 5.0.0
 _ZN3itk18ImageToImageFilterIN3otb5ImageIdLj2EEENS1_11VectorImageIdLj2EEEE21SetDirectionToleranceEd@Base 5.0.0
 _ZN3itk18ImageToImageFilterIN3otb5ImageIdLj2EEENS1_11VectorImageIdLj2EEEE22SetCoordinateToleranceEd@Base 5.0.0
 _ZN3itk18ImageToImageFilterIN3otb5ImageIdLj2EEENS1_11VectorImageIdLj2EEEE22VerifyInputInformationEv@Base 5.0.0
 _ZN3itk18ImageToImageFilterIN3otb5ImageIdLj2EEENS1_11VectorImageIdLj2EEEE28GenerateInputRequestedRegionEv@Base 5.0.0
 _ZN3itk18ImageToImageFilterIN3otb5ImageIdLj2EEENS1_11VectorImageIdLj2EEEE33CallCopyInputRegionToOutputRegionERNS_11ImageRegionILj2EEERKS8_@Base 5.0.0
 _ZN3itk18ImageToImageFilterIN3otb5ImageIdLj2EEENS1_11VectorImageIdLj2EEEE33CallCopyOutputRegionToInputRegionERNS_11ImageRegionILj2EEERKS8_@Base 5.0.0
 _ZN3itk18ImageToImageFilterIN3otb5ImageIdLj2EEENS1_11VectorImageIdLj2EEEE8SetInputEPKS3_@Base 5.0.0
 _ZN3itk18ImageToImageFilterIN3otb5ImageIdLj2EEENS1_11VectorImageIdLj2EEEE8SetInputEjPKS3_@Base 5.0.0
 _ZN3itk18ImageToImageFilterIN3otb5ImageIdLj2EEENS1_11VectorImageIdLj2EEEED0Ev@Base 5.0.0
 _ZN3itk18ImageToImageFilterIN3otb5ImageIdLj2EEENS1_11VectorImageIdLj2EEEED1Ev@Base 5.0.0
 _ZN3itk18ImageToImageFilterIN3otb5ImageIdLj2EEENS1_11VectorImageIdLj2EEEED2Ev@Base 5.0.0
 _ZN3itk18ImageToImageFilterIN3otb5ImageIdLj2EEENS1_11VectorImageIfLj2EEEE12PopBackInputEv@Base 5.0.0
 _ZN3itk18ImageToImageFilterIN3otb5ImageIdLj2EEENS1_11VectorImageIfLj2EEEE13PopFrontInputEv@Base 5.0.0
 _ZN3itk18ImageToImageFilterIN3otb5ImageIdLj2EEENS1_11VectorImageIfLj2EEEE13PushBackInputEPKNS_10DataObjectE@Base 5.0.0
 _ZN3itk18ImageToImageFilterIN3otb5ImageIdLj2EEENS1_11VectorImageIfLj2EEEE13PushBackInputEPKS3_@Base 5.0.0
 _ZN3itk18ImageToImageFilterIN3otb5ImageIdLj2EEENS1_11VectorImageIfLj2EEEE14PushFrontInputEPKNS_10DataObjectE@Base 5.0.0
 _ZN3itk18ImageToImageFilterIN3otb5ImageIdLj2EEENS1_11VectorImageIfLj2EEEE14PushFrontInputEPKS3_@Base 5.0.0
 _ZN3itk18ImageToImageFilterIN3otb5ImageIdLj2EEENS1_11VectorImageIfLj2EEEE21SetDirectionToleranceEd@Base 5.0.0
 _ZN3itk18ImageToImageFilterIN3otb5ImageIdLj2EEENS1_11VectorImageIfLj2EEEE22SetCoordinateToleranceEd@Base 5.0.0
 _ZN3itk18ImageToImageFilterIN3otb5ImageIdLj2EEENS1_11VectorImageIfLj2EEEE22VerifyInputInformationEv@Base 5.0.0
 _ZN3itk18ImageToImageFilterIN3otb5ImageIdLj2EEENS1_11VectorImageIfLj2EEEE28GenerateInputRequestedRegionEv@Base 5.0.0
 _ZN3itk18ImageToImageFilterIN3otb5ImageIdLj2EEENS1_11VectorImageIfLj2EEEE33CallCopyInputRegionToOutputRegionERNS_11ImageRegionILj2EEERKS8_@Base 5.0.0
 _ZN3itk18ImageToImageFilterIN3otb5ImageIdLj2EEENS1_11VectorImageIfLj2EEEE33CallCopyOutputRegionToInputRegionERNS_11ImageRegionILj2EEERKS8_@Base 5.0.0
 _ZN3itk18ImageToImageFilterIN3otb5ImageIdLj2EEENS1_11VectorImageIfLj2EEEE8SetInputEPKS3_@Base 5.0.0
 _ZN3itk18ImageToImageFilterIN3otb5ImageIdLj2EEENS1_11VectorImageIfLj2EEEE8SetInputEjPKS3_@Base 5.0.0
 _ZN3itk18ImageToImageFilterIN3otb5ImageIdLj2EEENS1_11VectorImageIfLj2EEEED0Ev@Base 5.0.0
 _ZN3itk18ImageToImageFilterIN3otb5ImageIdLj2EEENS1_11VectorImageIfLj2EEEED1Ev@Base 5.0.0
 _ZN3itk18ImageToImageFilterIN3otb5ImageIdLj2EEENS1_11VectorImageIfLj2EEEED2Ev@Base 5.0.0
 _ZN3itk18ImageToImageFilterIN3otb5ImageIdLj2EEENS1_11VectorImageIhLj2EEEE12PopBackInputEv@Base 5.0.0
 _ZN3itk18ImageToImageFilterIN3otb5ImageIdLj2EEENS1_11VectorImageIhLj2EEEE13PopFrontInputEv@Base 5.0.0
 _ZN3itk18ImageToImageFilterIN3otb5ImageIdLj2EEENS1_11VectorImageIhLj2EEEE13PushBackInputEPKNS_10DataObjectE@Base 5.0.0
 _ZN3itk18ImageToImageFilterIN3otb5ImageIdLj2EEENS1_11VectorImageIhLj2EEEE13PushBackInputEPKS3_@Base 5.0.0
 _ZN3itk18ImageToImageFilterIN3otb5ImageIdLj2EEENS1_11VectorImageIhLj2EEEE14PushFrontInputEPKNS_10DataObjectE@Base 5.0.0
 _ZN3itk18ImageToImageFilterIN3otb5ImageIdLj2EEENS1_11VectorImageIhLj2EEEE14PushFrontInputEPKS3_@Base 5.0.0
 _ZN3itk18ImageToImageFilterIN3otb5ImageIdLj2EEENS1_11VectorImageIhLj2EEEE21SetDirectionToleranceEd@Base 5.0.0
 _ZN3itk18ImageToImageFilterIN3otb5ImageIdLj2EEENS1_11VectorImageIhLj2EEEE22SetCoordinateToleranceEd@Base 5.0.0
 _ZN3itk18ImageToImageFilterIN3otb5ImageIdLj2EEENS1_11VectorImageIhLj2EEEE22VerifyInputInformationEv@Base 5.0.0
 _ZN3itk18ImageToImageFilterIN3otb5ImageIdLj2EEENS1_11VectorImageIhLj2EEEE28GenerateInputRequestedRegionEv@Base 5.0.0
 _ZN3itk18ImageToImageFilterIN3otb5ImageIdLj2EEENS1_11VectorImageIhLj2EEEE33CallCopyInputRegionToOutputRegionERNS_11ImageRegionILj2EEERKS8_@Base 5.0.0
 _ZN3itk18ImageToImageFilterIN3otb5ImageIdLj2EEENS1_11VectorImageIhLj2EEEE33CallCopyOutputRegionToInputRegionERNS_11ImageRegionILj2EEERKS8_@Base 5.0.0
 _ZN3itk18ImageToImageFilterIN3otb5ImageIdLj2EEENS1_11VectorImageIhLj2EEEE8SetInputEPKS3_@Base 5.0.0
 _ZN3itk18ImageToImageFilterIN3otb5ImageIdLj2EEENS1_11VectorImageIhLj2EEEE8SetInputEjPKS3_@Base 5.0.0
 _ZN3itk18ImageToImageFilterIN3otb5ImageIdLj2EEENS1_11VectorImageIhLj2EEEED0Ev@Base 5.0.0
 _ZN3itk18ImageToImageFilterIN3otb5ImageIdLj2EEENS1_11VectorImageIhLj2EEEED1Ev@Base 5.0.0
 _ZN3itk18ImageToImageFilterIN3otb5ImageIdLj2EEENS1_11VectorImageIhLj2EEEED2Ev@Base 5.0.0
 _ZN3itk18ImageToImageFilterIN3otb5ImageIdLj2EEENS1_11VectorImageIiLj2EEEE12PopBackInputEv@Base 5.0.0
 _ZN3itk18ImageToImageFilterIN3otb5ImageIdLj2EEENS1_11VectorImageIiLj2EEEE13PopFrontInputEv@Base 5.0.0
 _ZN3itk18ImageToImageFilterIN3otb5ImageIdLj2EEENS1_11VectorImageIiLj2EEEE13PushBackInputEPKNS_10DataObjectE@Base 5.0.0
 _ZN3itk18ImageToImageFilterIN3otb5ImageIdLj2EEENS1_11VectorImageIiLj2EEEE13PushBackInputEPKS3_@Base 5.0.0
 _ZN3itk18ImageToImageFilterIN3otb5ImageIdLj2EEENS1_11VectorImageIiLj2EEEE14PushFrontInputEPKNS_10DataObjectE@Base 5.0.0
 _ZN3itk18ImageToImageFilterIN3otb5ImageIdLj2EEENS1_11VectorImageIiLj2EEEE14PushFrontInputEPKS3_@Base 5.0.0
 _ZN3itk18ImageToImageFilterIN3otb5ImageIdLj2EEENS1_11VectorImageIiLj2EEEE21SetDirectionToleranceEd@Base 5.0.0
 _ZN3itk18ImageToImageFilterIN3otb5ImageIdLj2EEENS1_11VectorImageIiLj2EEEE22SetCoordinateToleranceEd@Base 5.0.0
 _ZN3itk18ImageToImageFilterIN3otb5ImageIdLj2EEENS1_11VectorImageIiLj2EEEE22VerifyInputInformationEv@Base 5.0.0
 _ZN3itk18ImageToImageFilterIN3otb5ImageIdLj2EEENS1_11VectorImageIiLj2EEEE28GenerateInputRequestedRegionEv@Base 5.0.0
 _ZN3itk18ImageToImageFilterIN3otb5ImageIdLj2EEENS1_11VectorImageIiLj2EEEE33CallCopyInputRegionToOutputRegionERNS_11ImageRegionILj2EEERKS8_@Base 5.0.0
 _ZN3itk18ImageToImageFilterIN3otb5ImageIdLj2EEENS1_11VectorImageIiLj2EEEE33CallCopyOutputRegionToInputRegionERNS_11ImageRegionILj2EEERKS8_@Base 5.0.0
 _ZN3itk18ImageToImageFilterIN3otb5ImageIdLj2EEENS1_11VectorImageIiLj2EEEE8SetInputEPKS3_@Base 5.0.0
 _ZN3itk18ImageToImageFilterIN3otb5ImageIdLj2EEENS1_11VectorImageIiLj2EEEE8SetInputEjPKS3_@Base 5.0.0
 _ZN3itk18ImageToImageFilterIN3otb5ImageIdLj2EEENS1_11VectorImageIiLj2EEEED0Ev@Base 5.0.0
 _ZN3itk18ImageToImageFilterIN3otb5ImageIdLj2EEENS1_11VectorImageIiLj2EEEED1Ev@Base 5.0.0
 _ZN3itk18ImageToImageFilterIN3otb5ImageIdLj2EEENS1_11VectorImageIiLj2EEEED2Ev@Base 5.0.0
 _ZN3itk18ImageToImageFilterIN3otb5ImageIdLj2EEENS1_11VectorImageIjLj2EEEE12PopBackInputEv@Base 5.0.0
 _ZN3itk18ImageToImageFilterIN3otb5ImageIdLj2EEENS1_11VectorImageIjLj2EEEE13PopFrontInputEv@Base 5.0.0
 _ZN3itk18ImageToImageFilterIN3otb5ImageIdLj2EEENS1_11VectorImageIjLj2EEEE13PushBackInputEPKNS_10DataObjectE@Base 5.0.0
 _ZN3itk18ImageToImageFilterIN3otb5ImageIdLj2EEENS1_11VectorImageIjLj2EEEE13PushBackInputEPKS3_@Base 5.0.0
 _ZN3itk18ImageToImageFilterIN3otb5ImageIdLj2EEENS1_11VectorImageIjLj2EEEE14PushFrontInputEPKNS_10DataObjectE@Base 5.0.0
 _ZN3itk18ImageToImageFilterIN3otb5ImageIdLj2EEENS1_11VectorImageIjLj2EEEE14PushFrontInputEPKS3_@Base 5.0.0
 _ZN3itk18ImageToImageFilterIN3otb5ImageIdLj2EEENS1_11VectorImageIjLj2EEEE21SetDirectionToleranceEd@Base 5.0.0
 _ZN3itk18ImageToImageFilterIN3otb5ImageIdLj2EEENS1_11VectorImageIjLj2EEEE22SetCoordinateToleranceEd@Base 5.0.0
 _ZN3itk18ImageToImageFilterIN3otb5ImageIdLj2EEENS1_11VectorImageIjLj2EEEE22VerifyInputInformationEv@Base 5.0.0
 _ZN3itk18ImageToImageFilterIN3otb5ImageIdLj2EEENS1_11VectorImageIjLj2EEEE28GenerateInputRequestedRegionEv@Base 5.0.0
 _ZN3itk18ImageToImageFilterIN3otb5ImageIdLj2EEENS1_11VectorImageIjLj2EEEE33CallCopyInputRegionToOutputRegionERNS_11ImageRegionILj2EEERKS8_@Base 5.0.0
 _ZN3itk18ImageToImageFilterIN3otb5ImageIdLj2EEENS1_11VectorImageIjLj2EEEE33CallCopyOutputRegionToInputRegionERNS_11ImageRegionILj2EEERKS8_@Base 5.0.0
 _ZN3itk18ImageToImageFilterIN3otb5ImageIdLj2EEENS1_11VectorImageIjLj2EEEE8SetInputEPKS3_@Base 5.0.0
 _ZN3itk18ImageToImageFilterIN3otb5ImageIdLj2EEENS1_11VectorImageIjLj2EEEE8SetInputEjPKS3_@Base 5.0.0
 _ZN3itk18ImageToImageFilterIN3otb5ImageIdLj2EEENS1_11VectorImageIjLj2EEEED0Ev@Base 5.0.0
 _ZN3itk18ImageToImageFilterIN3otb5ImageIdLj2EEENS1_11VectorImageIjLj2EEEED1Ev@Base 5.0.0
 _ZN3itk18ImageToImageFilterIN3otb5ImageIdLj2EEENS1_11VectorImageIjLj2EEEED2Ev@Base 5.0.0
 _ZN3itk18ImageToImageFilterIN3otb5ImageIdLj2EEENS1_11VectorImageIsLj2EEEE12PopBackInputEv@Base 5.0.0
 _ZN3itk18ImageToImageFilterIN3otb5ImageIdLj2EEENS1_11VectorImageIsLj2EEEE13PopFrontInputEv@Base 5.0.0
 _ZN3itk18ImageToImageFilterIN3otb5ImageIdLj2EEENS1_11VectorImageIsLj2EEEE13PushBackInputEPKNS_10DataObjectE@Base 5.0.0
 _ZN3itk18ImageToImageFilterIN3otb5ImageIdLj2EEENS1_11VectorImageIsLj2EEEE13PushBackInputEPKS3_@Base 5.0.0
 _ZN3itk18ImageToImageFilterIN3otb5ImageIdLj2EEENS1_11VectorImageIsLj2EEEE14PushFrontInputEPKNS_10DataObjectE@Base 5.0.0
 _ZN3itk18ImageToImageFilterIN3otb5ImageIdLj2EEENS1_11VectorImageIsLj2EEEE14PushFrontInputEPKS3_@Base 5.0.0
 _ZN3itk18ImageToImageFilterIN3otb5ImageIdLj2EEENS1_11VectorImageIsLj2EEEE21SetDirectionToleranceEd@Base 5.0.0
 _ZN3itk18ImageToImageFilterIN3otb5ImageIdLj2EEENS1_11VectorImageIsLj2EEEE22SetCoordinateToleranceEd@Base 5.0.0
 _ZN3itk18ImageToImageFilterIN3otb5ImageIdLj2EEENS1_11VectorImageIsLj2EEEE22VerifyInputInformationEv@Base 5.0.0
 _ZN3itk18ImageToImageFilterIN3otb5ImageIdLj2EEENS1_11VectorImageIsLj2EEEE28GenerateInputRequestedRegionEv@Base 5.0.0
 _ZN3itk18ImageToImageFilterIN3otb5ImageIdLj2EEENS1_11VectorImageIsLj2EEEE33CallCopyInputRegionToOutputRegionERNS_11ImageRegionILj2EEERKS8_@Base 5.0.0
 _ZN3itk18ImageToImageFilterIN3otb5ImageIdLj2EEENS1_11VectorImageIsLj2EEEE33CallCopyOutputRegionToInputRegionERNS_11ImageRegionILj2EEERKS8_@Base 5.0.0
 _ZN3itk18ImageToImageFilterIN3otb5ImageIdLj2EEENS1_11VectorImageIsLj2EEEE8SetInputEPKS3_@Base 5.0.0
 _ZN3itk18ImageToImageFilterIN3otb5ImageIdLj2EEENS1_11VectorImageIsLj2EEEE8SetInputEjPKS3_@Base 5.0.0
 _ZN3itk18ImageToImageFilterIN3otb5ImageIdLj2EEENS1_11VectorImageIsLj2EEEED0Ev@Base 5.0.0
 _ZN3itk18ImageToImageFilterIN3otb5ImageIdLj2EEENS1_11VectorImageIsLj2EEEED1Ev@Base 5.0.0
 _ZN3itk18ImageToImageFilterIN3otb5ImageIdLj2EEENS1_11VectorImageIsLj2EEEED2Ev@Base 5.0.0
 _ZN3itk18ImageToImageFilterIN3otb5ImageIdLj2EEENS1_11VectorImageItLj2EEEE12PopBackInputEv@Base 5.0.0
 _ZN3itk18ImageToImageFilterIN3otb5ImageIdLj2EEENS1_11VectorImageItLj2EEEE13PopFrontInputEv@Base 5.0.0
 _ZN3itk18ImageToImageFilterIN3otb5ImageIdLj2EEENS1_11VectorImageItLj2EEEE13PushBackInputEPKNS_10DataObjectE@Base 5.0.0
 _ZN3itk18ImageToImageFilterIN3otb5ImageIdLj2EEENS1_11VectorImageItLj2EEEE13PushBackInputEPKS3_@Base 5.0.0
 _ZN3itk18ImageToImageFilterIN3otb5ImageIdLj2EEENS1_11VectorImageItLj2EEEE14PushFrontInputEPKNS_10DataObjectE@Base 5.0.0
 _ZN3itk18ImageToImageFilterIN3otb5ImageIdLj2EEENS1_11VectorImageItLj2EEEE14PushFrontInputEPKS3_@Base 5.0.0
 _ZN3itk18ImageToImageFilterIN3otb5ImageIdLj2EEENS1_11VectorImageItLj2EEEE21SetDirectionToleranceEd@Base 5.0.0
 _ZN3itk18ImageToImageFilterIN3otb5ImageIdLj2EEENS1_11VectorImageItLj2EEEE22SetCoordinateToleranceEd@Base 5.0.0
 _ZN3itk18ImageToImageFilterIN3otb5ImageIdLj2EEENS1_11VectorImageItLj2EEEE22VerifyInputInformationEv@Base 5.0.0
 _ZN3itk18ImageToImageFilterIN3otb5ImageIdLj2EEENS1_11VectorImageItLj2EEEE28GenerateInputRequestedRegionEv@Base 5.0.0
 _ZN3itk18ImageToImageFilterIN3otb5ImageIdLj2EEENS1_11VectorImageItLj2EEEE33CallCopyInputRegionToOutputRegionERNS_11ImageRegionILj2EEERKS8_@Base 5.0.0
 _ZN3itk18ImageToImageFilterIN3otb5ImageIdLj2EEENS1_11VectorImageItLj2EEEE33CallCopyOutputRegionToInputRegionERNS_11ImageRegionILj2EEERKS8_@Base 5.0.0
 _ZN3itk18ImageToImageFilterIN3otb5ImageIdLj2EEENS1_11VectorImageItLj2EEEE8SetInputEPKS3_@Base 5.0.0
 _ZN3itk18ImageToImageFilterIN3otb5ImageIdLj2EEENS1_11VectorImageItLj2EEEE8SetInputEjPKS3_@Base 5.0.0
 _ZN3itk18ImageToImageFilterIN3otb5ImageIdLj2EEENS1_11VectorImageItLj2EEEED0Ev@Base 5.0.0
 _ZN3itk18ImageToImageFilterIN3otb5ImageIdLj2EEENS1_11VectorImageItLj2EEEED1Ev@Base 5.0.0
 _ZN3itk18ImageToImageFilterIN3otb5ImageIdLj2EEENS1_11VectorImageItLj2EEEED2Ev@Base 5.0.0
 _ZN3itk18ImageToImageFilterIN3otb5ImageIdLj2EEENS2_ISt7complexIdELj2EEEE12PopBackInputEv@Base 5.0.0
 _ZN3itk18ImageToImageFilterIN3otb5ImageIdLj2EEENS2_ISt7complexIdELj2EEEE13PopFrontInputEv@Base 5.0.0
 _ZN3itk18ImageToImageFilterIN3otb5ImageIdLj2EEENS2_ISt7complexIdELj2EEEE13PushBackInputEPKNS_10DataObjectE@Base 5.0.0
 _ZN3itk18ImageToImageFilterIN3otb5ImageIdLj2EEENS2_ISt7complexIdELj2EEEE13PushBackInputEPKS3_@Base 5.0.0
 _ZN3itk18ImageToImageFilterIN3otb5ImageIdLj2EEENS2_ISt7complexIdELj2EEEE14PushFrontInputEPKNS_10DataObjectE@Base 5.0.0
 _ZN3itk18ImageToImageFilterIN3otb5ImageIdLj2EEENS2_ISt7complexIdELj2EEEE14PushFrontInputEPKS3_@Base 5.0.0
 _ZN3itk18ImageToImageFilterIN3otb5ImageIdLj2EEENS2_ISt7complexIdELj2EEEE21SetDirectionToleranceEd@Base 5.0.0
 _ZN3itk18ImageToImageFilterIN3otb5ImageIdLj2EEENS2_ISt7complexIdELj2EEEE22SetCoordinateToleranceEd@Base 5.0.0
 _ZN3itk18ImageToImageFilterIN3otb5ImageIdLj2EEENS2_ISt7complexIdELj2EEEE22VerifyInputInformationEv@Base 5.0.0
 _ZN3itk18ImageToImageFilterIN3otb5ImageIdLj2EEENS2_ISt7complexIdELj2EEEE28GenerateInputRequestedRegionEv@Base 5.0.0
 _ZN3itk18ImageToImageFilterIN3otb5ImageIdLj2EEENS2_ISt7complexIdELj2EEEE33CallCopyInputRegionToOutputRegionERNS_11ImageRegionILj2EEERKS9_@Base 5.0.0
 _ZN3itk18ImageToImageFilterIN3otb5ImageIdLj2EEENS2_ISt7complexIdELj2EEEE33CallCopyOutputRegionToInputRegionERNS_11ImageRegionILj2EEERKS9_@Base 5.0.0
 _ZN3itk18ImageToImageFilterIN3otb5ImageIdLj2EEENS2_ISt7complexIdELj2EEEE8SetInputEPKS3_@Base 5.0.0
 _ZN3itk18ImageToImageFilterIN3otb5ImageIdLj2EEENS2_ISt7complexIdELj2EEEE8SetInputEjPKS3_@Base 5.0.0
 _ZN3itk18ImageToImageFilterIN3otb5ImageIdLj2EEENS2_ISt7complexIdELj2EEEED0Ev@Base 5.0.0
 _ZN3itk18ImageToImageFilterIN3otb5ImageIdLj2EEENS2_ISt7complexIdELj2EEEED1Ev@Base 5.0.0
 _ZN3itk18ImageToImageFilterIN3otb5ImageIdLj2EEENS2_ISt7complexIdELj2EEEED2Ev@Base 5.0.0
 _ZN3itk18ImageToImageFilterIN3otb5ImageIdLj2EEENS2_ISt7complexIfELj2EEEE12PopBackInputEv@Base 5.0.0
 _ZN3itk18ImageToImageFilterIN3otb5ImageIdLj2EEENS2_ISt7complexIfELj2EEEE13PopFrontInputEv@Base 5.0.0
 _ZN3itk18ImageToImageFilterIN3otb5ImageIdLj2EEENS2_ISt7complexIfELj2EEEE13PushBackInputEPKNS_10DataObjectE@Base 5.0.0
 _ZN3itk18ImageToImageFilterIN3otb5ImageIdLj2EEENS2_ISt7complexIfELj2EEEE13PushBackInputEPKS3_@Base 5.0.0
 _ZN3itk18ImageToImageFilterIN3otb5ImageIdLj2EEENS2_ISt7complexIfELj2EEEE14PushFrontInputEPKNS_10DataObjectE@Base 5.0.0
 _ZN3itk18ImageToImageFilterIN3otb5ImageIdLj2EEENS2_ISt7complexIfELj2EEEE14PushFrontInputEPKS3_@Base 5.0.0
 _ZN3itk18ImageToImageFilterIN3otb5ImageIdLj2EEENS2_ISt7complexIfELj2EEEE21SetDirectionToleranceEd@Base 5.0.0
 _ZN3itk18ImageToImageFilterIN3otb5ImageIdLj2EEENS2_ISt7complexIfELj2EEEE22SetCoordinateToleranceEd@Base 5.0.0
 _ZN3itk18ImageToImageFilterIN3otb5ImageIdLj2EEENS2_ISt7complexIfELj2EEEE22VerifyInputInformationEv@Base 5.0.0
 _ZN3itk18ImageToImageFilterIN3otb5ImageIdLj2EEENS2_ISt7complexIfELj2EEEE28GenerateInputRequestedRegionEv@Base 5.0.0
 _ZN3itk18ImageToImageFilterIN3otb5ImageIdLj2EEENS2_ISt7complexIfELj2EEEE33CallCopyInputRegionToOutputRegionERNS_11ImageRegionILj2EEERKS9_@Base 5.0.0
 _ZN3itk18ImageToImageFilterIN3otb5ImageIdLj2EEENS2_ISt7complexIfELj2EEEE33CallCopyOutputRegionToInputRegionERNS_11ImageRegionILj2EEERKS9_@Base 5.0.0
 _ZN3itk18ImageToImageFilterIN3otb5ImageIdLj2EEENS2_ISt7complexIfELj2EEEE8SetInputEPKS3_@Base 5.0.0
 _ZN3itk18ImageToImageFilterIN3otb5ImageIdLj2EEENS2_ISt7complexIfELj2EEEE8SetInputEjPKS3_@Base 5.0.0
 _ZN3itk18ImageToImageFilterIN3otb5ImageIdLj2EEENS2_ISt7complexIfELj2EEEED0Ev@Base 5.0.0
 _ZN3itk18ImageToImageFilterIN3otb5ImageIdLj2EEENS2_ISt7complexIfELj2EEEED1Ev@Base 5.0.0
 _ZN3itk18ImageToImageFilterIN3otb5ImageIdLj2EEENS2_ISt7complexIfELj2EEEED2Ev@Base 5.0.0
 _ZN3itk18ImageToImageFilterIN3otb5ImageIdLj2EEENS2_IfLj2EEEE12PopBackInputEv@Base 5.0.0
 _ZN3itk18ImageToImageFilterIN3otb5ImageIdLj2EEENS2_IfLj2EEEE13PopFrontInputEv@Base 5.0.0
 _ZN3itk18ImageToImageFilterIN3otb5ImageIdLj2EEENS2_IfLj2EEEE13PushBackInputEPKNS_10DataObjectE@Base 5.0.0
 _ZN3itk18ImageToImageFilterIN3otb5ImageIdLj2EEENS2_IfLj2EEEE13PushBackInputEPKS3_@Base 5.0.0
 _ZN3itk18ImageToImageFilterIN3otb5ImageIdLj2EEENS2_IfLj2EEEE14PushFrontInputEPKNS_10DataObjectE@Base 5.0.0
 _ZN3itk18ImageToImageFilterIN3otb5ImageIdLj2EEENS2_IfLj2EEEE14PushFrontInputEPKS3_@Base 5.0.0
 _ZN3itk18ImageToImageFilterIN3otb5ImageIdLj2EEENS2_IfLj2EEEE21SetDirectionToleranceEd@Base 5.0.0
 _ZN3itk18ImageToImageFilterIN3otb5ImageIdLj2EEENS2_IfLj2EEEE22SetCoordinateToleranceEd@Base 5.0.0
 _ZN3itk18ImageToImageFilterIN3otb5ImageIdLj2EEENS2_IfLj2EEEE22VerifyInputInformationEv@Base 5.0.0
 _ZN3itk18ImageToImageFilterIN3otb5ImageIdLj2EEENS2_IfLj2EEEE28GenerateInputRequestedRegionEv@Base 5.0.0
 _ZN3itk18ImageToImageFilterIN3otb5ImageIdLj2EEENS2_IfLj2EEEE33CallCopyInputRegionToOutputRegionERNS_11ImageRegionILj2EEERKS7_@Base 5.0.0
 _ZN3itk18ImageToImageFilterIN3otb5ImageIdLj2EEENS2_IfLj2EEEE33CallCopyOutputRegionToInputRegionERNS_11ImageRegionILj2EEERKS7_@Base 5.0.0
 _ZN3itk18ImageToImageFilterIN3otb5ImageIdLj2EEENS2_IfLj2EEEE8SetInputEPKS3_@Base 5.0.0
 _ZN3itk18ImageToImageFilterIN3otb5ImageIdLj2EEENS2_IfLj2EEEE8SetInputEjPKS3_@Base 5.0.0
 _ZN3itk18ImageToImageFilterIN3otb5ImageIdLj2EEENS2_IfLj2EEEED0Ev@Base 5.0.0
 _ZN3itk18ImageToImageFilterIN3otb5ImageIdLj2EEENS2_IfLj2EEEED1Ev@Base 5.0.0
 _ZN3itk18ImageToImageFilterIN3otb5ImageIdLj2EEENS2_IfLj2EEEED2Ev@Base 5.0.0
 _ZN3itk18ImageToImageFilterIN3otb5ImageIdLj2EEENS2_IhLj2EEEE12PopBackInputEv@Base 5.0.0
 _ZN3itk18ImageToImageFilterIN3otb5ImageIdLj2EEENS2_IhLj2EEEE13PopFrontInputEv@Base 5.0.0
 _ZN3itk18ImageToImageFilterIN3otb5ImageIdLj2EEENS2_IhLj2EEEE13PushBackInputEPKNS_10DataObjectE@Base 5.0.0
 _ZN3itk18ImageToImageFilterIN3otb5ImageIdLj2EEENS2_IhLj2EEEE13PushBackInputEPKS3_@Base 5.0.0
 _ZN3itk18ImageToImageFilterIN3otb5ImageIdLj2EEENS2_IhLj2EEEE14PushFrontInputEPKNS_10DataObjectE@Base 5.0.0
 _ZN3itk18ImageToImageFilterIN3otb5ImageIdLj2EEENS2_IhLj2EEEE14PushFrontInputEPKS3_@Base 5.0.0
 _ZN3itk18ImageToImageFilterIN3otb5ImageIdLj2EEENS2_IhLj2EEEE21SetDirectionToleranceEd@Base 5.0.0
 _ZN3itk18ImageToImageFilterIN3otb5ImageIdLj2EEENS2_IhLj2EEEE22SetCoordinateToleranceEd@Base 5.0.0
 _ZN3itk18ImageToImageFilterIN3otb5ImageIdLj2EEENS2_IhLj2EEEE22VerifyInputInformationEv@Base 5.0.0
 _ZN3itk18ImageToImageFilterIN3otb5ImageIdLj2EEENS2_IhLj2EEEE28GenerateInputRequestedRegionEv@Base 5.0.0
 _ZN3itk18ImageToImageFilterIN3otb5ImageIdLj2EEENS2_IhLj2EEEE33CallCopyInputRegionToOutputRegionERNS_11ImageRegionILj2EEERKS7_@Base 5.0.0
 _ZN3itk18ImageToImageFilterIN3otb5ImageIdLj2EEENS2_IhLj2EEEE33CallCopyOutputRegionToInputRegionERNS_11ImageRegionILj2EEERKS7_@Base 5.0.0
 _ZN3itk18ImageToImageFilterIN3otb5ImageIdLj2EEENS2_IhLj2EEEE8SetInputEPKS3_@Base 5.0.0
 _ZN3itk18ImageToImageFilterIN3otb5ImageIdLj2EEENS2_IhLj2EEEE8SetInputEjPKS3_@Base 5.0.0
 _ZN3itk18ImageToImageFilterIN3otb5ImageIdLj2EEENS2_IhLj2EEEED0Ev@Base 5.0.0
 _ZN3itk18ImageToImageFilterIN3otb5ImageIdLj2EEENS2_IhLj2EEEED1Ev@Base 5.0.0
 _ZN3itk18ImageToImageFilterIN3otb5ImageIdLj2EEENS2_IhLj2EEEED2Ev@Base 5.0.0
 _ZN3itk18ImageToImageFilterIN3otb5ImageIdLj2EEENS2_IiLj2EEEE12PopBackInputEv@Base 5.0.0
 _ZN3itk18ImageToImageFilterIN3otb5ImageIdLj2EEENS2_IiLj2EEEE13PopFrontInputEv@Base 5.0.0
 _ZN3itk18ImageToImageFilterIN3otb5ImageIdLj2EEENS2_IiLj2EEEE13PushBackInputEPKNS_10DataObjectE@Base 5.0.0
 _ZN3itk18ImageToImageFilterIN3otb5ImageIdLj2EEENS2_IiLj2EEEE13PushBackInputEPKS3_@Base 5.0.0
 _ZN3itk18ImageToImageFilterIN3otb5ImageIdLj2EEENS2_IiLj2EEEE14PushFrontInputEPKNS_10DataObjectE@Base 5.0.0
 _ZN3itk18ImageToImageFilterIN3otb5ImageIdLj2EEENS2_IiLj2EEEE14PushFrontInputEPKS3_@Base 5.0.0
 _ZN3itk18ImageToImageFilterIN3otb5ImageIdLj2EEENS2_IiLj2EEEE21SetDirectionToleranceEd@Base 5.0.0
 _ZN3itk18ImageToImageFilterIN3otb5ImageIdLj2EEENS2_IiLj2EEEE22SetCoordinateToleranceEd@Base 5.0.0
 _ZN3itk18ImageToImageFilterIN3otb5ImageIdLj2EEENS2_IiLj2EEEE22VerifyInputInformationEv@Base 5.0.0
 _ZN3itk18ImageToImageFilterIN3otb5ImageIdLj2EEENS2_IiLj2EEEE28GenerateInputRequestedRegionEv@Base 5.0.0
 _ZN3itk18ImageToImageFilterIN3otb5ImageIdLj2EEENS2_IiLj2EEEE33CallCopyInputRegionToOutputRegionERNS_11ImageRegionILj2EEERKS7_@Base 5.0.0
 _ZN3itk18ImageToImageFilterIN3otb5ImageIdLj2EEENS2_IiLj2EEEE33CallCopyOutputRegionToInputRegionERNS_11ImageRegionILj2EEERKS7_@Base 5.0.0
 _ZN3itk18ImageToImageFilterIN3otb5ImageIdLj2EEENS2_IiLj2EEEE8SetInputEPKS3_@Base 5.0.0
 _ZN3itk18ImageToImageFilterIN3otb5ImageIdLj2EEENS2_IiLj2EEEE8SetInputEjPKS3_@Base 5.0.0
 _ZN3itk18ImageToImageFilterIN3otb5ImageIdLj2EEENS2_IiLj2EEEED0Ev@Base 5.0.0
 _ZN3itk18ImageToImageFilterIN3otb5ImageIdLj2EEENS2_IiLj2EEEED1Ev@Base 5.0.0
 _ZN3itk18ImageToImageFilterIN3otb5ImageIdLj2EEENS2_IiLj2EEEED2Ev@Base 5.0.0
 _ZN3itk18ImageToImageFilterIN3otb5ImageIdLj2EEENS2_IjLj2EEEE12PopBackInputEv@Base 5.0.0
 _ZN3itk18ImageToImageFilterIN3otb5ImageIdLj2EEENS2_IjLj2EEEE13PopFrontInputEv@Base 5.0.0
 _ZN3itk18ImageToImageFilterIN3otb5ImageIdLj2EEENS2_IjLj2EEEE13PushBackInputEPKNS_10DataObjectE@Base 5.0.0
 _ZN3itk18ImageToImageFilterIN3otb5ImageIdLj2EEENS2_IjLj2EEEE13PushBackInputEPKS3_@Base 5.0.0
 _ZN3itk18ImageToImageFilterIN3otb5ImageIdLj2EEENS2_IjLj2EEEE14PushFrontInputEPKNS_10DataObjectE@Base 5.0.0
 _ZN3itk18ImageToImageFilterIN3otb5ImageIdLj2EEENS2_IjLj2EEEE14PushFrontInputEPKS3_@Base 5.0.0
 _ZN3itk18ImageToImageFilterIN3otb5ImageIdLj2EEENS2_IjLj2EEEE21SetDirectionToleranceEd@Base 5.0.0
 _ZN3itk18ImageToImageFilterIN3otb5ImageIdLj2EEENS2_IjLj2EEEE22SetCoordinateToleranceEd@Base 5.0.0
 _ZN3itk18ImageToImageFilterIN3otb5ImageIdLj2EEENS2_IjLj2EEEE22VerifyInputInformationEv@Base 5.0.0
 _ZN3itk18ImageToImageFilterIN3otb5ImageIdLj2EEENS2_IjLj2EEEE28GenerateInputRequestedRegionEv@Base 5.0.0
 _ZN3itk18ImageToImageFilterIN3otb5ImageIdLj2EEENS2_IjLj2EEEE33CallCopyInputRegionToOutputRegionERNS_11ImageRegionILj2EEERKS7_@Base 5.0.0
 _ZN3itk18ImageToImageFilterIN3otb5ImageIdLj2EEENS2_IjLj2EEEE33CallCopyOutputRegionToInputRegionERNS_11ImageRegionILj2EEERKS7_@Base 5.0.0
 _ZN3itk18ImageToImageFilterIN3otb5ImageIdLj2EEENS2_IjLj2EEEE8SetInputEPKS3_@Base 5.0.0
 _ZN3itk18ImageToImageFilterIN3otb5ImageIdLj2EEENS2_IjLj2EEEE8SetInputEjPKS3_@Base 5.0.0
 _ZN3itk18ImageToImageFilterIN3otb5ImageIdLj2EEENS2_IjLj2EEEED0Ev@Base 5.0.0
 _ZN3itk18ImageToImageFilterIN3otb5ImageIdLj2EEENS2_IjLj2EEEED1Ev@Base 5.0.0
 _ZN3itk18ImageToImageFilterIN3otb5ImageIdLj2EEENS2_IjLj2EEEED2Ev@Base 5.0.0
 _ZN3itk18ImageToImageFilterIN3otb5ImageIdLj2EEENS2_IsLj2EEEE12PopBackInputEv@Base 5.0.0
 _ZN3itk18ImageToImageFilterIN3otb5ImageIdLj2EEENS2_IsLj2EEEE13PopFrontInputEv@Base 5.0.0
 _ZN3itk18ImageToImageFilterIN3otb5ImageIdLj2EEENS2_IsLj2EEEE13PushBackInputEPKNS_10DataObjectE@Base 5.0.0
 _ZN3itk18ImageToImageFilterIN3otb5ImageIdLj2EEENS2_IsLj2EEEE13PushBackInputEPKS3_@Base 5.0.0
 _ZN3itk18ImageToImageFilterIN3otb5ImageIdLj2EEENS2_IsLj2EEEE14PushFrontInputEPKNS_10DataObjectE@Base 5.0.0
 _ZN3itk18ImageToImageFilterIN3otb5ImageIdLj2EEENS2_IsLj2EEEE14PushFrontInputEPKS3_@Base 5.0.0
 _ZN3itk18ImageToImageFilterIN3otb5ImageIdLj2EEENS2_IsLj2EEEE21SetDirectionToleranceEd@Base 5.0.0
 _ZN3itk18ImageToImageFilterIN3otb5ImageIdLj2EEENS2_IsLj2EEEE22SetCoordinateToleranceEd@Base 5.0.0
 _ZN3itk18ImageToImageFilterIN3otb5ImageIdLj2EEENS2_IsLj2EEEE22VerifyInputInformationEv@Base 5.0.0
 _ZN3itk18ImageToImageFilterIN3otb5ImageIdLj2EEENS2_IsLj2EEEE28GenerateInputRequestedRegionEv@Base 5.0.0
 _ZN3itk18ImageToImageFilterIN3otb5ImageIdLj2EEENS2_IsLj2EEEE33CallCopyInputRegionToOutputRegionERNS_11ImageRegionILj2EEERKS7_@Base 5.0.0
 _ZN3itk18ImageToImageFilterIN3otb5ImageIdLj2EEENS2_IsLj2EEEE33CallCopyOutputRegionToInputRegionERNS_11ImageRegionILj2EEERKS7_@Base 5.0.0
 _ZN3itk18ImageToImageFilterIN3otb5ImageIdLj2EEENS2_IsLj2EEEE8SetInputEPKS3_@Base 5.0.0
 _ZN3itk18ImageToImageFilterIN3otb5ImageIdLj2EEENS2_IsLj2EEEE8SetInputEjPKS3_@Base 5.0.0
 _ZN3itk18ImageToImageFilterIN3otb5ImageIdLj2EEENS2_IsLj2EEEED0Ev@Base 5.0.0
 _ZN3itk18ImageToImageFilterIN3otb5ImageIdLj2EEENS2_IsLj2EEEED1Ev@Base 5.0.0
 _ZN3itk18ImageToImageFilterIN3otb5ImageIdLj2EEENS2_IsLj2EEEED2Ev@Base 5.0.0
 _ZN3itk18ImageToImageFilterIN3otb5ImageIdLj2EEENS2_ItLj2EEEE12PopBackInputEv@Base 5.0.0
 _ZN3itk18ImageToImageFilterIN3otb5ImageIdLj2EEENS2_ItLj2EEEE13PopFrontInputEv@Base 5.0.0
 _ZN3itk18ImageToImageFilterIN3otb5ImageIdLj2EEENS2_ItLj2EEEE13PushBackInputEPKNS_10DataObjectE@Base 5.0.0
 _ZN3itk18ImageToImageFilterIN3otb5ImageIdLj2EEENS2_ItLj2EEEE13PushBackInputEPKS3_@Base 5.0.0
 _ZN3itk18ImageToImageFilterIN3otb5ImageIdLj2EEENS2_ItLj2EEEE14PushFrontInputEPKNS_10DataObjectE@Base 5.0.0
 _ZN3itk18ImageToImageFilterIN3otb5ImageIdLj2EEENS2_ItLj2EEEE14PushFrontInputEPKS3_@Base 5.0.0
 _ZN3itk18ImageToImageFilterIN3otb5ImageIdLj2EEENS2_ItLj2EEEE21SetDirectionToleranceEd@Base 5.0.0
 _ZN3itk18ImageToImageFilterIN3otb5ImageIdLj2EEENS2_ItLj2EEEE22SetCoordinateToleranceEd@Base 5.0.0
 _ZN3itk18ImageToImageFilterIN3otb5ImageIdLj2EEENS2_ItLj2EEEE22VerifyInputInformationEv@Base 5.0.0
 _ZN3itk18ImageToImageFilterIN3otb5ImageIdLj2EEENS2_ItLj2EEEE28GenerateInputRequestedRegionEv@Base 5.0.0
 _ZN3itk18ImageToImageFilterIN3otb5ImageIdLj2EEENS2_ItLj2EEEE33CallCopyInputRegionToOutputRegionERNS_11ImageRegionILj2EEERKS7_@Base 5.0.0
 _ZN3itk18ImageToImageFilterIN3otb5ImageIdLj2EEENS2_ItLj2EEEE33CallCopyOutputRegionToInputRegionERNS_11ImageRegionILj2EEERKS7_@Base 5.0.0
 _ZN3itk18ImageToImageFilterIN3otb5ImageIdLj2EEENS2_ItLj2EEEE8SetInputEPKS3_@Base 5.0.0
 _ZN3itk18ImageToImageFilterIN3otb5ImageIdLj2EEENS2_ItLj2EEEE8SetInputEjPKS3_@Base 5.0.0
 _ZN3itk18ImageToImageFilterIN3otb5ImageIdLj2EEENS2_ItLj2EEEED0Ev@Base 5.0.0
 _ZN3itk18ImageToImageFilterIN3otb5ImageIdLj2EEENS2_ItLj2EEEED1Ev@Base 5.0.0
 _ZN3itk18ImageToImageFilterIN3otb5ImageIdLj2EEENS2_ItLj2EEEED2Ev@Base 5.0.0
 _ZN3itk18ImageToImageFilterIN3otb5ImageIdLj2EEES3_E12PopBackInputEv@Base 5.0.0
 _ZN3itk18ImageToImageFilterIN3otb5ImageIdLj2EEES3_E13PopFrontInputEv@Base 5.0.0
 _ZN3itk18ImageToImageFilterIN3otb5ImageIdLj2EEES3_E13PushBackInputEPKNS_10DataObjectE@Base 5.0.0
 _ZN3itk18ImageToImageFilterIN3otb5ImageIdLj2EEES3_E13PushBackInputEPKS3_@Base 5.0.0
 _ZN3itk18ImageToImageFilterIN3otb5ImageIdLj2EEES3_E14PushFrontInputEPKNS_10DataObjectE@Base 5.0.0
 _ZN3itk18ImageToImageFilterIN3otb5ImageIdLj2EEES3_E14PushFrontInputEPKS3_@Base 5.0.0
 _ZN3itk18ImageToImageFilterIN3otb5ImageIdLj2EEES3_E21SetDirectionToleranceEd@Base 5.0.0
 _ZN3itk18ImageToImageFilterIN3otb5ImageIdLj2EEES3_E22SetCoordinateToleranceEd@Base 5.0.0
 _ZN3itk18ImageToImageFilterIN3otb5ImageIdLj2EEES3_E22VerifyInputInformationEv@Base 5.0.0
 _ZN3itk18ImageToImageFilterIN3otb5ImageIdLj2EEES3_E28GenerateInputRequestedRegionEv@Base 5.0.0
 _ZN3itk18ImageToImageFilterIN3otb5ImageIdLj2EEES3_E33CallCopyInputRegionToOutputRegionERNS_11ImageRegionILj2EEERKS6_@Base 5.0.0
 _ZN3itk18ImageToImageFilterIN3otb5ImageIdLj2EEES3_E33CallCopyOutputRegionToInputRegionERNS_11ImageRegionILj2EEERKS6_@Base 5.0.0
 _ZN3itk18ImageToImageFilterIN3otb5ImageIdLj2EEES3_E8SetInputEPKS3_@Base 5.0.0
 _ZN3itk18ImageToImageFilterIN3otb5ImageIdLj2EEES3_E8SetInputEjPKS3_@Base 5.0.0
 _ZN3itk18ImageToImageFilterIN3otb5ImageIdLj2EEES3_ED0Ev@Base 5.0.0
 _ZN3itk18ImageToImageFilterIN3otb5ImageIdLj2EEES3_ED1Ev@Base 5.0.0
 _ZN3itk18ImageToImageFilterIN3otb5ImageIdLj2EEES3_ED2Ev@Base 5.0.0
 _ZN3itk18ImageToImageFilterIN3otb5ImageIfLj2EEENS1_11VectorImageIdLj2EEEE12PopBackInputEv@Base 5.0.0
 _ZN3itk18ImageToImageFilterIN3otb5ImageIfLj2EEENS1_11VectorImageIdLj2EEEE13PopFrontInputEv@Base 5.0.0
 _ZN3itk18ImageToImageFilterIN3otb5ImageIfLj2EEENS1_11VectorImageIdLj2EEEE13PushBackInputEPKNS_10DataObjectE@Base 5.0.0
 _ZN3itk18ImageToImageFilterIN3otb5ImageIfLj2EEENS1_11VectorImageIdLj2EEEE13PushBackInputEPKS3_@Base 5.0.0
 _ZN3itk18ImageToImageFilterIN3otb5ImageIfLj2EEENS1_11VectorImageIdLj2EEEE14PushFrontInputEPKNS_10DataObjectE@Base 5.0.0
 _ZN3itk18ImageToImageFilterIN3otb5ImageIfLj2EEENS1_11VectorImageIdLj2EEEE14PushFrontInputEPKS3_@Base 5.0.0
 _ZN3itk18ImageToImageFilterIN3otb5ImageIfLj2EEENS1_11VectorImageIdLj2EEEE21SetDirectionToleranceEd@Base 5.0.0
 _ZN3itk18ImageToImageFilterIN3otb5ImageIfLj2EEENS1_11VectorImageIdLj2EEEE22SetCoordinateToleranceEd@Base 5.0.0
 _ZN3itk18ImageToImageFilterIN3otb5ImageIfLj2EEENS1_11VectorImageIdLj2EEEE22VerifyInputInformationEv@Base 5.0.0
 _ZN3itk18ImageToImageFilterIN3otb5ImageIfLj2EEENS1_11VectorImageIdLj2EEEE28GenerateInputRequestedRegionEv@Base 5.0.0
 _ZN3itk18ImageToImageFilterIN3otb5ImageIfLj2EEENS1_11VectorImageIdLj2EEEE33CallCopyInputRegionToOutputRegionERNS_11ImageRegionILj2EEERKS8_@Base 5.0.0
 _ZN3itk18ImageToImageFilterIN3otb5ImageIfLj2EEENS1_11VectorImageIdLj2EEEE33CallCopyOutputRegionToInputRegionERNS_11ImageRegionILj2EEERKS8_@Base 5.0.0
 _ZN3itk18ImageToImageFilterIN3otb5ImageIfLj2EEENS1_11VectorImageIdLj2EEEE8SetInputEPKS3_@Base 5.0.0
 _ZN3itk18ImageToImageFilterIN3otb5ImageIfLj2EEENS1_11VectorImageIdLj2EEEE8SetInputEjPKS3_@Base 5.0.0
 _ZN3itk18ImageToImageFilterIN3otb5ImageIfLj2EEENS1_11VectorImageIdLj2EEEED0Ev@Base 5.0.0
 _ZN3itk18ImageToImageFilterIN3otb5ImageIfLj2EEENS1_11VectorImageIdLj2EEEED1Ev@Base 5.0.0
 _ZN3itk18ImageToImageFilterIN3otb5ImageIfLj2EEENS1_11VectorImageIdLj2EEEED2Ev@Base 5.0.0
 _ZN3itk18ImageToImageFilterIN3otb5ImageIfLj2EEENS1_11VectorImageIfLj2EEEE12PopBackInputEv@Base 5.0.0
 _ZN3itk18ImageToImageFilterIN3otb5ImageIfLj2EEENS1_11VectorImageIfLj2EEEE13PopFrontInputEv@Base 5.0.0
 _ZN3itk18ImageToImageFilterIN3otb5ImageIfLj2EEENS1_11VectorImageIfLj2EEEE13PushBackInputEPKNS_10DataObjectE@Base 5.0.0
 _ZN3itk18ImageToImageFilterIN3otb5ImageIfLj2EEENS1_11VectorImageIfLj2EEEE13PushBackInputEPKS3_@Base 5.0.0
 _ZN3itk18ImageToImageFilterIN3otb5ImageIfLj2EEENS1_11VectorImageIfLj2EEEE14PushFrontInputEPKNS_10DataObjectE@Base 5.0.0
 _ZN3itk18ImageToImageFilterIN3otb5ImageIfLj2EEENS1_11VectorImageIfLj2EEEE14PushFrontInputEPKS3_@Base 5.0.0
 _ZN3itk18ImageToImageFilterIN3otb5ImageIfLj2EEENS1_11VectorImageIfLj2EEEE21SetDirectionToleranceEd@Base 5.0.0
 _ZN3itk18ImageToImageFilterIN3otb5ImageIfLj2EEENS1_11VectorImageIfLj2EEEE22SetCoordinateToleranceEd@Base 5.0.0
 _ZN3itk18ImageToImageFilterIN3otb5ImageIfLj2EEENS1_11VectorImageIfLj2EEEE22VerifyInputInformationEv@Base 5.0.0
 _ZN3itk18ImageToImageFilterIN3otb5ImageIfLj2EEENS1_11VectorImageIfLj2EEEE28GenerateInputRequestedRegionEv@Base 5.0.0
 _ZN3itk18ImageToImageFilterIN3otb5ImageIfLj2EEENS1_11VectorImageIfLj2EEEE33CallCopyInputRegionToOutputRegionERNS_11ImageRegionILj2EEERKS8_@Base 5.0.0
 _ZN3itk18ImageToImageFilterIN3otb5ImageIfLj2EEENS1_11VectorImageIfLj2EEEE33CallCopyOutputRegionToInputRegionERNS_11ImageRegionILj2EEERKS8_@Base 5.0.0
 _ZN3itk18ImageToImageFilterIN3otb5ImageIfLj2EEENS1_11VectorImageIfLj2EEEE8SetInputEPKS3_@Base 5.0.0
 _ZN3itk18ImageToImageFilterIN3otb5ImageIfLj2EEENS1_11VectorImageIfLj2EEEE8SetInputEjPKS3_@Base 5.0.0
 _ZN3itk18ImageToImageFilterIN3otb5ImageIfLj2EEENS1_11VectorImageIfLj2EEEED0Ev@Base 5.0.0
 _ZN3itk18ImageToImageFilterIN3otb5ImageIfLj2EEENS1_11VectorImageIfLj2EEEED1Ev@Base 5.0.0
 _ZN3itk18ImageToImageFilterIN3otb5ImageIfLj2EEENS1_11VectorImageIfLj2EEEED2Ev@Base 5.0.0
 _ZN3itk18ImageToImageFilterIN3otb5ImageIfLj2EEENS1_11VectorImageIhLj2EEEE12PopBackInputEv@Base 5.0.0
 _ZN3itk18ImageToImageFilterIN3otb5ImageIfLj2EEENS1_11VectorImageIhLj2EEEE13PopFrontInputEv@Base 5.0.0
 _ZN3itk18ImageToImageFilterIN3otb5ImageIfLj2EEENS1_11VectorImageIhLj2EEEE13PushBackInputEPKNS_10DataObjectE@Base 5.0.0
 _ZN3itk18ImageToImageFilterIN3otb5ImageIfLj2EEENS1_11VectorImageIhLj2EEEE13PushBackInputEPKS3_@Base 5.0.0
 _ZN3itk18ImageToImageFilterIN3otb5ImageIfLj2EEENS1_11VectorImageIhLj2EEEE14PushFrontInputEPKNS_10DataObjectE@Base 5.0.0
 _ZN3itk18ImageToImageFilterIN3otb5ImageIfLj2EEENS1_11VectorImageIhLj2EEEE14PushFrontInputEPKS3_@Base 5.0.0
 _ZN3itk18ImageToImageFilterIN3otb5ImageIfLj2EEENS1_11VectorImageIhLj2EEEE21SetDirectionToleranceEd@Base 5.0.0
 _ZN3itk18ImageToImageFilterIN3otb5ImageIfLj2EEENS1_11VectorImageIhLj2EEEE22SetCoordinateToleranceEd@Base 5.0.0
 _ZN3itk18ImageToImageFilterIN3otb5ImageIfLj2EEENS1_11VectorImageIhLj2EEEE22VerifyInputInformationEv@Base 5.0.0
 _ZN3itk18ImageToImageFilterIN3otb5ImageIfLj2EEENS1_11VectorImageIhLj2EEEE28GenerateInputRequestedRegionEv@Base 5.0.0
 _ZN3itk18ImageToImageFilterIN3otb5ImageIfLj2EEENS1_11VectorImageIhLj2EEEE33CallCopyInputRegionToOutputRegionERNS_11ImageRegionILj2EEERKS8_@Base 5.0.0
 _ZN3itk18ImageToImageFilterIN3otb5ImageIfLj2EEENS1_11VectorImageIhLj2EEEE33CallCopyOutputRegionToInputRegionERNS_11ImageRegionILj2EEERKS8_@Base 5.0.0
 _ZN3itk18ImageToImageFilterIN3otb5ImageIfLj2EEENS1_11VectorImageIhLj2EEEE8SetInputEPKS3_@Base 5.0.0
 _ZN3itk18ImageToImageFilterIN3otb5ImageIfLj2EEENS1_11VectorImageIhLj2EEEE8SetInputEjPKS3_@Base 5.0.0
 _ZN3itk18ImageToImageFilterIN3otb5ImageIfLj2EEENS1_11VectorImageIhLj2EEEED0Ev@Base 5.0.0
 _ZN3itk18ImageToImageFilterIN3otb5ImageIfLj2EEENS1_11VectorImageIhLj2EEEED1Ev@Base 5.0.0
 _ZN3itk18ImageToImageFilterIN3otb5ImageIfLj2EEENS1_11VectorImageIhLj2EEEED2Ev@Base 5.0.0
 _ZN3itk18ImageToImageFilterIN3otb5ImageIfLj2EEENS1_11VectorImageIiLj2EEEE12PopBackInputEv@Base 5.0.0
 _ZN3itk18ImageToImageFilterIN3otb5ImageIfLj2EEENS1_11VectorImageIiLj2EEEE13PopFrontInputEv@Base 5.0.0
 _ZN3itk18ImageToImageFilterIN3otb5ImageIfLj2EEENS1_11VectorImageIiLj2EEEE13PushBackInputEPKNS_10DataObjectE@Base 5.0.0
 _ZN3itk18ImageToImageFilterIN3otb5ImageIfLj2EEENS1_11VectorImageIiLj2EEEE13PushBackInputEPKS3_@Base 5.0.0
 _ZN3itk18ImageToImageFilterIN3otb5ImageIfLj2EEENS1_11VectorImageIiLj2EEEE14PushFrontInputEPKNS_10DataObjectE@Base 5.0.0
 _ZN3itk18ImageToImageFilterIN3otb5ImageIfLj2EEENS1_11VectorImageIiLj2EEEE14PushFrontInputEPKS3_@Base 5.0.0
 _ZN3itk18ImageToImageFilterIN3otb5ImageIfLj2EEENS1_11VectorImageIiLj2EEEE21SetDirectionToleranceEd@Base 5.0.0
 _ZN3itk18ImageToImageFilterIN3otb5ImageIfLj2EEENS1_11VectorImageIiLj2EEEE22SetCoordinateToleranceEd@Base 5.0.0
 _ZN3itk18ImageToImageFilterIN3otb5ImageIfLj2EEENS1_11VectorImageIiLj2EEEE22VerifyInputInformationEv@Base 5.0.0
 _ZN3itk18ImageToImageFilterIN3otb5ImageIfLj2EEENS1_11VectorImageIiLj2EEEE28GenerateInputRequestedRegionEv@Base 5.0.0
 _ZN3itk18ImageToImageFilterIN3otb5ImageIfLj2EEENS1_11VectorImageIiLj2EEEE33CallCopyInputRegionToOutputRegionERNS_11ImageRegionILj2EEERKS8_@Base 5.0.0
 _ZN3itk18ImageToImageFilterIN3otb5ImageIfLj2EEENS1_11VectorImageIiLj2EEEE33CallCopyOutputRegionToInputRegionERNS_11ImageRegionILj2EEERKS8_@Base 5.0.0
 _ZN3itk18ImageToImageFilterIN3otb5ImageIfLj2EEENS1_11VectorImageIiLj2EEEE8SetInputEPKS3_@Base 5.0.0
 _ZN3itk18ImageToImageFilterIN3otb5ImageIfLj2EEENS1_11VectorImageIiLj2EEEE8SetInputEjPKS3_@Base 5.0.0
 _ZN3itk18ImageToImageFilterIN3otb5ImageIfLj2EEENS1_11VectorImageIiLj2EEEED0Ev@Base 5.0.0
 _ZN3itk18ImageToImageFilterIN3otb5ImageIfLj2EEENS1_11VectorImageIiLj2EEEED1Ev@Base 5.0.0
 _ZN3itk18ImageToImageFilterIN3otb5ImageIfLj2EEENS1_11VectorImageIiLj2EEEED2Ev@Base 5.0.0
 _ZN3itk18ImageToImageFilterIN3otb5ImageIfLj2EEENS1_11VectorImageIjLj2EEEE12PopBackInputEv@Base 5.0.0
 _ZN3itk18ImageToImageFilterIN3otb5ImageIfLj2EEENS1_11VectorImageIjLj2EEEE13PopFrontInputEv@Base 5.0.0
 _ZN3itk18ImageToImageFilterIN3otb5ImageIfLj2EEENS1_11VectorImageIjLj2EEEE13PushBackInputEPKNS_10DataObjectE@Base 5.0.0
 _ZN3itk18ImageToImageFilterIN3otb5ImageIfLj2EEENS1_11VectorImageIjLj2EEEE13PushBackInputEPKS3_@Base 5.0.0
 _ZN3itk18ImageToImageFilterIN3otb5ImageIfLj2EEENS1_11VectorImageIjLj2EEEE14PushFrontInputEPKNS_10DataObjectE@Base 5.0.0
 _ZN3itk18ImageToImageFilterIN3otb5ImageIfLj2EEENS1_11VectorImageIjLj2EEEE14PushFrontInputEPKS3_@Base 5.0.0
 _ZN3itk18ImageToImageFilterIN3otb5ImageIfLj2EEENS1_11VectorImageIjLj2EEEE21SetDirectionToleranceEd@Base 5.0.0
 _ZN3itk18ImageToImageFilterIN3otb5ImageIfLj2EEENS1_11VectorImageIjLj2EEEE22SetCoordinateToleranceEd@Base 5.0.0
 _ZN3itk18ImageToImageFilterIN3otb5ImageIfLj2EEENS1_11VectorImageIjLj2EEEE22VerifyInputInformationEv@Base 5.0.0
 _ZN3itk18ImageToImageFilterIN3otb5ImageIfLj2EEENS1_11VectorImageIjLj2EEEE28GenerateInputRequestedRegionEv@Base 5.0.0
 _ZN3itk18ImageToImageFilterIN3otb5ImageIfLj2EEENS1_11VectorImageIjLj2EEEE33CallCopyInputRegionToOutputRegionERNS_11ImageRegionILj2EEERKS8_@Base 5.0.0
 _ZN3itk18ImageToImageFilterIN3otb5ImageIfLj2EEENS1_11VectorImageIjLj2EEEE33CallCopyOutputRegionToInputRegionERNS_11ImageRegionILj2EEERKS8_@Base 5.0.0
 _ZN3itk18ImageToImageFilterIN3otb5ImageIfLj2EEENS1_11VectorImageIjLj2EEEE8SetInputEPKS3_@Base 5.0.0
 _ZN3itk18ImageToImageFilterIN3otb5ImageIfLj2EEENS1_11VectorImageIjLj2EEEE8SetInputEjPKS3_@Base 5.0.0
 _ZN3itk18ImageToImageFilterIN3otb5ImageIfLj2EEENS1_11VectorImageIjLj2EEEED0Ev@Base 5.0.0
 _ZN3itk18ImageToImageFilterIN3otb5ImageIfLj2EEENS1_11VectorImageIjLj2EEEED1Ev@Base 5.0.0
 _ZN3itk18ImageToImageFilterIN3otb5ImageIfLj2EEENS1_11VectorImageIjLj2EEEED2Ev@Base 5.0.0
 _ZN3itk18ImageToImageFilterIN3otb5ImageIfLj2EEENS1_11VectorImageIsLj2EEEE12PopBackInputEv@Base 5.0.0
 _ZN3itk18ImageToImageFilterIN3otb5ImageIfLj2EEENS1_11VectorImageIsLj2EEEE13PopFrontInputEv@Base 5.0.0
 _ZN3itk18ImageToImageFilterIN3otb5ImageIfLj2EEENS1_11VectorImageIsLj2EEEE13PushBackInputEPKNS_10DataObjectE@Base 5.0.0
 _ZN3itk18ImageToImageFilterIN3otb5ImageIfLj2EEENS1_11VectorImageIsLj2EEEE13PushBackInputEPKS3_@Base 5.0.0
 _ZN3itk18ImageToImageFilterIN3otb5ImageIfLj2EEENS1_11VectorImageIsLj2EEEE14PushFrontInputEPKNS_10DataObjectE@Base 5.0.0
 _ZN3itk18ImageToImageFilterIN3otb5ImageIfLj2EEENS1_11VectorImageIsLj2EEEE14PushFrontInputEPKS3_@Base 5.0.0
 _ZN3itk18ImageToImageFilterIN3otb5ImageIfLj2EEENS1_11VectorImageIsLj2EEEE21SetDirectionToleranceEd@Base 5.0.0
 _ZN3itk18ImageToImageFilterIN3otb5ImageIfLj2EEENS1_11VectorImageIsLj2EEEE22SetCoordinateToleranceEd@Base 5.0.0
 _ZN3itk18ImageToImageFilterIN3otb5ImageIfLj2EEENS1_11VectorImageIsLj2EEEE22VerifyInputInformationEv@Base 5.0.0
 _ZN3itk18ImageToImageFilterIN3otb5ImageIfLj2EEENS1_11VectorImageIsLj2EEEE28GenerateInputRequestedRegionEv@Base 5.0.0
 _ZN3itk18ImageToImageFilterIN3otb5ImageIfLj2EEENS1_11VectorImageIsLj2EEEE33CallCopyInputRegionToOutputRegionERNS_11ImageRegionILj2EEERKS8_@Base 5.0.0
 _ZN3itk18ImageToImageFilterIN3otb5ImageIfLj2EEENS1_11VectorImageIsLj2EEEE33CallCopyOutputRegionToInputRegionERNS_11ImageRegionILj2EEERKS8_@Base 5.0.0
 _ZN3itk18ImageToImageFilterIN3otb5ImageIfLj2EEENS1_11VectorImageIsLj2EEEE8SetInputEPKS3_@Base 5.0.0
 _ZN3itk18ImageToImageFilterIN3otb5ImageIfLj2EEENS1_11VectorImageIsLj2EEEE8SetInputEjPKS3_@Base 5.0.0
 _ZN3itk18ImageToImageFilterIN3otb5ImageIfLj2EEENS1_11VectorImageIsLj2EEEED0Ev@Base 5.0.0
 _ZN3itk18ImageToImageFilterIN3otb5ImageIfLj2EEENS1_11VectorImageIsLj2EEEED1Ev@Base 5.0.0
 _ZN3itk18ImageToImageFilterIN3otb5ImageIfLj2EEENS1_11VectorImageIsLj2EEEED2Ev@Base 5.0.0
 _ZN3itk18ImageToImageFilterIN3otb5ImageIfLj2EEENS1_11VectorImageItLj2EEEE12PopBackInputEv@Base 5.0.0
 _ZN3itk18ImageToImageFilterIN3otb5ImageIfLj2EEENS1_11VectorImageItLj2EEEE13PopFrontInputEv@Base 5.0.0
 _ZN3itk18ImageToImageFilterIN3otb5ImageIfLj2EEENS1_11VectorImageItLj2EEEE13PushBackInputEPKNS_10DataObjectE@Base 5.0.0
 _ZN3itk18ImageToImageFilterIN3otb5ImageIfLj2EEENS1_11VectorImageItLj2EEEE13PushBackInputEPKS3_@Base 5.0.0
 _ZN3itk18ImageToImageFilterIN3otb5ImageIfLj2EEENS1_11VectorImageItLj2EEEE14PushFrontInputEPKNS_10DataObjectE@Base 5.0.0
 _ZN3itk18ImageToImageFilterIN3otb5ImageIfLj2EEENS1_11VectorImageItLj2EEEE14PushFrontInputEPKS3_@Base 5.0.0
 _ZN3itk18ImageToImageFilterIN3otb5ImageIfLj2EEENS1_11VectorImageItLj2EEEE21SetDirectionToleranceEd@Base 5.0.0
 _ZN3itk18ImageToImageFilterIN3otb5ImageIfLj2EEENS1_11VectorImageItLj2EEEE22SetCoordinateToleranceEd@Base 5.0.0
 _ZN3itk18ImageToImageFilterIN3otb5ImageIfLj2EEENS1_11VectorImageItLj2EEEE22VerifyInputInformationEv@Base 5.0.0
 _ZN3itk18ImageToImageFilterIN3otb5ImageIfLj2EEENS1_11VectorImageItLj2EEEE28GenerateInputRequestedRegionEv@Base 5.0.0
 _ZN3itk18ImageToImageFilterIN3otb5ImageIfLj2EEENS1_11VectorImageItLj2EEEE33CallCopyInputRegionToOutputRegionERNS_11ImageRegionILj2EEERKS8_@Base 5.0.0
 _ZN3itk18ImageToImageFilterIN3otb5ImageIfLj2EEENS1_11VectorImageItLj2EEEE33CallCopyOutputRegionToInputRegionERNS_11ImageRegionILj2EEERKS8_@Base 5.0.0
 _ZN3itk18ImageToImageFilterIN3otb5ImageIfLj2EEENS1_11VectorImageItLj2EEEE8SetInputEPKS3_@Base 5.0.0
 _ZN3itk18ImageToImageFilterIN3otb5ImageIfLj2EEENS1_11VectorImageItLj2EEEE8SetInputEjPKS3_@Base 5.0.0
 _ZN3itk18ImageToImageFilterIN3otb5ImageIfLj2EEENS1_11VectorImageItLj2EEEED0Ev@Base 5.0.0
 _ZN3itk18ImageToImageFilterIN3otb5ImageIfLj2EEENS1_11VectorImageItLj2EEEED1Ev@Base 5.0.0
 _ZN3itk18ImageToImageFilterIN3otb5ImageIfLj2EEENS1_11VectorImageItLj2EEEED2Ev@Base 5.0.0
 _ZN3itk18ImageToImageFilterIN3otb5ImageIfLj2EEENS2_IdLj2EEEE12PopBackInputEv@Base 5.0.0
 _ZN3itk18ImageToImageFilterIN3otb5ImageIfLj2EEENS2_IdLj2EEEE13PopFrontInputEv@Base 5.0.0
 _ZN3itk18ImageToImageFilterIN3otb5ImageIfLj2EEENS2_IdLj2EEEE13PushBackInputEPKNS_10DataObjectE@Base 5.0.0
 _ZN3itk18ImageToImageFilterIN3otb5ImageIfLj2EEENS2_IdLj2EEEE13PushBackInputEPKS3_@Base 5.0.0
 _ZN3itk18ImageToImageFilterIN3otb5ImageIfLj2EEENS2_IdLj2EEEE14PushFrontInputEPKNS_10DataObjectE@Base 5.0.0
 _ZN3itk18ImageToImageFilterIN3otb5ImageIfLj2EEENS2_IdLj2EEEE14PushFrontInputEPKS3_@Base 5.0.0
 _ZN3itk18ImageToImageFilterIN3otb5ImageIfLj2EEENS2_IdLj2EEEE21SetDirectionToleranceEd@Base 5.0.0
 _ZN3itk18ImageToImageFilterIN3otb5ImageIfLj2EEENS2_IdLj2EEEE22SetCoordinateToleranceEd@Base 5.0.0
 _ZN3itk18ImageToImageFilterIN3otb5ImageIfLj2EEENS2_IdLj2EEEE22VerifyInputInformationEv@Base 5.0.0
 _ZN3itk18ImageToImageFilterIN3otb5ImageIfLj2EEENS2_IdLj2EEEE28GenerateInputRequestedRegionEv@Base 5.0.0
 _ZN3itk18ImageToImageFilterIN3otb5ImageIfLj2EEENS2_IdLj2EEEE33CallCopyInputRegionToOutputRegionERNS_11ImageRegionILj2EEERKS7_@Base 5.0.0
 _ZN3itk18ImageToImageFilterIN3otb5ImageIfLj2EEENS2_IdLj2EEEE33CallCopyOutputRegionToInputRegionERNS_11ImageRegionILj2EEERKS7_@Base 5.0.0
 _ZN3itk18ImageToImageFilterIN3otb5ImageIfLj2EEENS2_IdLj2EEEE8SetInputEPKS3_@Base 5.0.0
 _ZN3itk18ImageToImageFilterIN3otb5ImageIfLj2EEENS2_IdLj2EEEE8SetInputEjPKS3_@Base 5.0.0
 _ZN3itk18ImageToImageFilterIN3otb5ImageIfLj2EEENS2_IdLj2EEEED0Ev@Base 5.0.0
 _ZN3itk18ImageToImageFilterIN3otb5ImageIfLj2EEENS2_IdLj2EEEED1Ev@Base 5.0.0
 _ZN3itk18ImageToImageFilterIN3otb5ImageIfLj2EEENS2_IdLj2EEEED2Ev@Base 5.0.0
 _ZN3itk18ImageToImageFilterIN3otb5ImageIfLj2EEENS2_IhLj2EEEE12PopBackInputEv@Base 5.0.0
 _ZN3itk18ImageToImageFilterIN3otb5ImageIfLj2EEENS2_IhLj2EEEE13PopFrontInputEv@Base 5.0.0
 _ZN3itk18ImageToImageFilterIN3otb5ImageIfLj2EEENS2_IhLj2EEEE13PushBackInputEPKNS_10DataObjectE@Base 5.0.0
 _ZN3itk18ImageToImageFilterIN3otb5ImageIfLj2EEENS2_IhLj2EEEE13PushBackInputEPKS3_@Base 5.0.0
 _ZN3itk18ImageToImageFilterIN3otb5ImageIfLj2EEENS2_IhLj2EEEE14PushFrontInputEPKNS_10DataObjectE@Base 5.0.0
 _ZN3itk18ImageToImageFilterIN3otb5ImageIfLj2EEENS2_IhLj2EEEE14PushFrontInputEPKS3_@Base 5.0.0
 _ZN3itk18ImageToImageFilterIN3otb5ImageIfLj2EEENS2_IhLj2EEEE21SetDirectionToleranceEd@Base 5.0.0
 _ZN3itk18ImageToImageFilterIN3otb5ImageIfLj2EEENS2_IhLj2EEEE22SetCoordinateToleranceEd@Base 5.0.0
 _ZN3itk18ImageToImageFilterIN3otb5ImageIfLj2EEENS2_IhLj2EEEE22VerifyInputInformationEv@Base 5.0.0
 _ZN3itk18ImageToImageFilterIN3otb5ImageIfLj2EEENS2_IhLj2EEEE28GenerateInputRequestedRegionEv@Base 5.0.0
 _ZN3itk18ImageToImageFilterIN3otb5ImageIfLj2EEENS2_IhLj2EEEE33CallCopyInputRegionToOutputRegionERNS_11ImageRegionILj2EEERKS7_@Base 5.0.0
 _ZN3itk18ImageToImageFilterIN3otb5ImageIfLj2EEENS2_IhLj2EEEE33CallCopyOutputRegionToInputRegionERNS_11ImageRegionILj2EEERKS7_@Base 5.0.0
 _ZN3itk18ImageToImageFilterIN3otb5ImageIfLj2EEENS2_IhLj2EEEE8SetInputEPKS3_@Base 5.0.0
 _ZN3itk18ImageToImageFilterIN3otb5ImageIfLj2EEENS2_IhLj2EEEE8SetInputEjPKS3_@Base 5.0.0
 _ZN3itk18ImageToImageFilterIN3otb5ImageIfLj2EEENS2_IhLj2EEEED0Ev@Base 5.0.0
 _ZN3itk18ImageToImageFilterIN3otb5ImageIfLj2EEENS2_IhLj2EEEED1Ev@Base 5.0.0
 _ZN3itk18ImageToImageFilterIN3otb5ImageIfLj2EEENS2_IhLj2EEEED2Ev@Base 5.0.0
 _ZN3itk18ImageToImageFilterIN3otb5ImageIfLj2EEENS2_IiLj2EEEE12PopBackInputEv@Base 5.0.0
 _ZN3itk18ImageToImageFilterIN3otb5ImageIfLj2EEENS2_IiLj2EEEE13PopFrontInputEv@Base 5.0.0
 _ZN3itk18ImageToImageFilterIN3otb5ImageIfLj2EEENS2_IiLj2EEEE13PushBackInputEPKNS_10DataObjectE@Base 5.0.0
 _ZN3itk18ImageToImageFilterIN3otb5ImageIfLj2EEENS2_IiLj2EEEE13PushBackInputEPKS3_@Base 5.0.0
 _ZN3itk18ImageToImageFilterIN3otb5ImageIfLj2EEENS2_IiLj2EEEE14PushFrontInputEPKNS_10DataObjectE@Base 5.0.0
 _ZN3itk18ImageToImageFilterIN3otb5ImageIfLj2EEENS2_IiLj2EEEE14PushFrontInputEPKS3_@Base 5.0.0
 _ZN3itk18ImageToImageFilterIN3otb5ImageIfLj2EEENS2_IiLj2EEEE21SetDirectionToleranceEd@Base 5.0.0
 _ZN3itk18ImageToImageFilterIN3otb5ImageIfLj2EEENS2_IiLj2EEEE22SetCoordinateToleranceEd@Base 5.0.0
 _ZN3itk18ImageToImageFilterIN3otb5ImageIfLj2EEENS2_IiLj2EEEE22VerifyInputInformationEv@Base 5.0.0
 _ZN3itk18ImageToImageFilterIN3otb5ImageIfLj2EEENS2_IiLj2EEEE28GenerateInputRequestedRegionEv@Base 5.0.0
 _ZN3itk18ImageToImageFilterIN3otb5ImageIfLj2EEENS2_IiLj2EEEE33CallCopyInputRegionToOutputRegionERNS_11ImageRegionILj2EEERKS7_@Base 5.0.0
 _ZN3itk18ImageToImageFilterIN3otb5ImageIfLj2EEENS2_IiLj2EEEE33CallCopyOutputRegionToInputRegionERNS_11ImageRegionILj2EEERKS7_@Base 5.0.0
 _ZN3itk18ImageToImageFilterIN3otb5ImageIfLj2EEENS2_IiLj2EEEE8SetInputEPKS3_@Base 5.0.0
 _ZN3itk18ImageToImageFilterIN3otb5ImageIfLj2EEENS2_IiLj2EEEE8SetInputEjPKS3_@Base 5.0.0
 _ZN3itk18ImageToImageFilterIN3otb5ImageIfLj2EEENS2_IiLj2EEEED0Ev@Base 5.0.0
 _ZN3itk18ImageToImageFilterIN3otb5ImageIfLj2EEENS2_IiLj2EEEED1Ev@Base 5.0.0
 _ZN3itk18ImageToImageFilterIN3otb5ImageIfLj2EEENS2_IiLj2EEEED2Ev@Base 5.0.0
 _ZN3itk18ImageToImageFilterIN3otb5ImageIfLj2EEENS2_IjLj2EEEE12PopBackInputEv@Base 5.0.0
 _ZN3itk18ImageToImageFilterIN3otb5ImageIfLj2EEENS2_IjLj2EEEE13PopFrontInputEv@Base 5.0.0
 _ZN3itk18ImageToImageFilterIN3otb5ImageIfLj2EEENS2_IjLj2EEEE13PushBackInputEPKNS_10DataObjectE@Base 5.0.0
 _ZN3itk18ImageToImageFilterIN3otb5ImageIfLj2EEENS2_IjLj2EEEE13PushBackInputEPKS3_@Base 5.0.0
 _ZN3itk18ImageToImageFilterIN3otb5ImageIfLj2EEENS2_IjLj2EEEE14PushFrontInputEPKNS_10DataObjectE@Base 5.0.0
 _ZN3itk18ImageToImageFilterIN3otb5ImageIfLj2EEENS2_IjLj2EEEE14PushFrontInputEPKS3_@Base 5.0.0
 _ZN3itk18ImageToImageFilterIN3otb5ImageIfLj2EEENS2_IjLj2EEEE21SetDirectionToleranceEd@Base 5.0.0
 _ZN3itk18ImageToImageFilterIN3otb5ImageIfLj2EEENS2_IjLj2EEEE22SetCoordinateToleranceEd@Base 5.0.0
 _ZN3itk18ImageToImageFilterIN3otb5ImageIfLj2EEENS2_IjLj2EEEE22VerifyInputInformationEv@Base 5.0.0
 _ZN3itk18ImageToImageFilterIN3otb5ImageIfLj2EEENS2_IjLj2EEEE28GenerateInputRequestedRegionEv@Base 5.0.0
 _ZN3itk18ImageToImageFilterIN3otb5ImageIfLj2EEENS2_IjLj2EEEE33CallCopyInputRegionToOutputRegionERNS_11ImageRegionILj2EEERKS7_@Base 5.0.0
 _ZN3itk18ImageToImageFilterIN3otb5ImageIfLj2EEENS2_IjLj2EEEE33CallCopyOutputRegionToInputRegionERNS_11ImageRegionILj2EEERKS7_@Base 5.0.0
 _ZN3itk18ImageToImageFilterIN3otb5ImageIfLj2EEENS2_IjLj2EEEE8SetInputEPKS3_@Base 5.0.0
 _ZN3itk18ImageToImageFilterIN3otb5ImageIfLj2EEENS2_IjLj2EEEE8SetInputEjPKS3_@Base 5.0.0
 _ZN3itk18ImageToImageFilterIN3otb5ImageIfLj2EEENS2_IjLj2EEEED0Ev@Base 5.0.0
 _ZN3itk18ImageToImageFilterIN3otb5ImageIfLj2EEENS2_IjLj2EEEED1Ev@Base 5.0.0
 _ZN3itk18ImageToImageFilterIN3otb5ImageIfLj2EEENS2_IjLj2EEEED2Ev@Base 5.0.0
 _ZN3itk18ImageToImageFilterIN3otb5ImageIfLj2EEENS2_IsLj2EEEE12PopBackInputEv@Base 5.0.0
 _ZN3itk18ImageToImageFilterIN3otb5ImageIfLj2EEENS2_IsLj2EEEE13PopFrontInputEv@Base 5.0.0
 _ZN3itk18ImageToImageFilterIN3otb5ImageIfLj2EEENS2_IsLj2EEEE13PushBackInputEPKNS_10DataObjectE@Base 5.0.0
 _ZN3itk18ImageToImageFilterIN3otb5ImageIfLj2EEENS2_IsLj2EEEE13PushBackInputEPKS3_@Base 5.0.0
 _ZN3itk18ImageToImageFilterIN3otb5ImageIfLj2EEENS2_IsLj2EEEE14PushFrontInputEPKNS_10DataObjectE@Base 5.0.0
 _ZN3itk18ImageToImageFilterIN3otb5ImageIfLj2EEENS2_IsLj2EEEE14PushFrontInputEPKS3_@Base 5.0.0
 _ZN3itk18ImageToImageFilterIN3otb5ImageIfLj2EEENS2_IsLj2EEEE21SetDirectionToleranceEd@Base 5.0.0
 _ZN3itk18ImageToImageFilterIN3otb5ImageIfLj2EEENS2_IsLj2EEEE22SetCoordinateToleranceEd@Base 5.0.0
 _ZN3itk18ImageToImageFilterIN3otb5ImageIfLj2EEENS2_IsLj2EEEE22VerifyInputInformationEv@Base 5.0.0
 _ZN3itk18ImageToImageFilterIN3otb5ImageIfLj2EEENS2_IsLj2EEEE28GenerateInputRequestedRegionEv@Base 5.0.0
 _ZN3itk18ImageToImageFilterIN3otb5ImageIfLj2EEENS2_IsLj2EEEE33CallCopyInputRegionToOutputRegionERNS_11ImageRegionILj2EEERKS7_@Base 5.0.0
 _ZN3itk18ImageToImageFilterIN3otb5ImageIfLj2EEENS2_IsLj2EEEE33CallCopyOutputRegionToInputRegionERNS_11ImageRegionILj2EEERKS7_@Base 5.0.0
 _ZN3itk18ImageToImageFilterIN3otb5ImageIfLj2EEENS2_IsLj2EEEE8SetInputEPKS3_@Base 5.0.0
 _ZN3itk18ImageToImageFilterIN3otb5ImageIfLj2EEENS2_IsLj2EEEE8SetInputEjPKS3_@Base 5.0.0
 _ZN3itk18ImageToImageFilterIN3otb5ImageIfLj2EEENS2_IsLj2EEEED0Ev@Base 5.0.0
 _ZN3itk18ImageToImageFilterIN3otb5ImageIfLj2EEENS2_IsLj2EEEED1Ev@Base 5.0.0
 _ZN3itk18ImageToImageFilterIN3otb5ImageIfLj2EEENS2_IsLj2EEEED2Ev@Base 5.0.0
 _ZN3itk18ImageToImageFilterIN3otb5ImageIfLj2EEENS2_ItLj2EEEE12PopBackInputEv@Base 5.0.0
 _ZN3itk18ImageToImageFilterIN3otb5ImageIfLj2EEENS2_ItLj2EEEE13PopFrontInputEv@Base 5.0.0
 _ZN3itk18ImageToImageFilterIN3otb5ImageIfLj2EEENS2_ItLj2EEEE13PushBackInputEPKNS_10DataObjectE@Base 5.0.0
 _ZN3itk18ImageToImageFilterIN3otb5ImageIfLj2EEENS2_ItLj2EEEE13PushBackInputEPKS3_@Base 5.0.0
 _ZN3itk18ImageToImageFilterIN3otb5ImageIfLj2EEENS2_ItLj2EEEE14PushFrontInputEPKNS_10DataObjectE@Base 5.0.0
 _ZN3itk18ImageToImageFilterIN3otb5ImageIfLj2EEENS2_ItLj2EEEE14PushFrontInputEPKS3_@Base 5.0.0
 _ZN3itk18ImageToImageFilterIN3otb5ImageIfLj2EEENS2_ItLj2EEEE21SetDirectionToleranceEd@Base 5.0.0
 _ZN3itk18ImageToImageFilterIN3otb5ImageIfLj2EEENS2_ItLj2EEEE22SetCoordinateToleranceEd@Base 5.0.0
 _ZN3itk18ImageToImageFilterIN3otb5ImageIfLj2EEENS2_ItLj2EEEE22VerifyInputInformationEv@Base 5.0.0
 _ZN3itk18ImageToImageFilterIN3otb5ImageIfLj2EEENS2_ItLj2EEEE28GenerateInputRequestedRegionEv@Base 5.0.0
 _ZN3itk18ImageToImageFilterIN3otb5ImageIfLj2EEENS2_ItLj2EEEE33CallCopyInputRegionToOutputRegionERNS_11ImageRegionILj2EEERKS7_@Base 5.0.0
 _ZN3itk18ImageToImageFilterIN3otb5ImageIfLj2EEENS2_ItLj2EEEE33CallCopyOutputRegionToInputRegionERNS_11ImageRegionILj2EEERKS7_@Base 5.0.0
 _ZN3itk18ImageToImageFilterIN3otb5ImageIfLj2EEENS2_ItLj2EEEE8SetInputEPKS3_@Base 5.0.0
 _ZN3itk18ImageToImageFilterIN3otb5ImageIfLj2EEENS2_ItLj2EEEE8SetInputEjPKS3_@Base 5.0.0
 _ZN3itk18ImageToImageFilterIN3otb5ImageIfLj2EEENS2_ItLj2EEEED0Ev@Base 5.0.0
 _ZN3itk18ImageToImageFilterIN3otb5ImageIfLj2EEENS2_ItLj2EEEED1Ev@Base 5.0.0
 _ZN3itk18ImageToImageFilterIN3otb5ImageIfLj2EEENS2_ItLj2EEEED2Ev@Base 5.0.0
 _ZN3itk18ImageToImageFilterIN3otb5ImageIfLj2EEES3_E12PopBackInputEv@Base 5.0.0
 _ZN3itk18ImageToImageFilterIN3otb5ImageIfLj2EEES3_E13PopFrontInputEv@Base 5.0.0
 _ZN3itk18ImageToImageFilterIN3otb5ImageIfLj2EEES3_E13PushBackInputEPKNS_10DataObjectE@Base 5.0.0
 _ZN3itk18ImageToImageFilterIN3otb5ImageIfLj2EEES3_E13PushBackInputEPKS3_@Base 5.0.0
 _ZN3itk18ImageToImageFilterIN3otb5ImageIfLj2EEES3_E14PushFrontInputEPKNS_10DataObjectE@Base 5.0.0
 _ZN3itk18ImageToImageFilterIN3otb5ImageIfLj2EEES3_E14PushFrontInputEPKS3_@Base 5.0.0
 _ZN3itk18ImageToImageFilterIN3otb5ImageIfLj2EEES3_E21SetDirectionToleranceEd@Base 5.0.0
 _ZN3itk18ImageToImageFilterIN3otb5ImageIfLj2EEES3_E22SetCoordinateToleranceEd@Base 5.0.0
 _ZN3itk18ImageToImageFilterIN3otb5ImageIfLj2EEES3_E22VerifyInputInformationEv@Base 5.0.0
 _ZN3itk18ImageToImageFilterIN3otb5ImageIfLj2EEES3_E28GenerateInputRequestedRegionEv@Base 5.0.0
 _ZN3itk18ImageToImageFilterIN3otb5ImageIfLj2EEES3_E33CallCopyInputRegionToOutputRegionERNS_11ImageRegionILj2EEERKS6_@Base 5.0.0
 _ZN3itk18ImageToImageFilterIN3otb5ImageIfLj2EEES3_E33CallCopyOutputRegionToInputRegionERNS_11ImageRegionILj2EEERKS6_@Base 5.0.0
 _ZN3itk18ImageToImageFilterIN3otb5ImageIfLj2EEES3_E8SetInputEPKS3_@Base 5.0.0
 _ZN3itk18ImageToImageFilterIN3otb5ImageIfLj2EEES3_E8SetInputEjPKS3_@Base 5.0.0
 _ZN3itk18ImageToImageFilterIN3otb5ImageIfLj2EEES3_ED0Ev@Base 5.0.0
 _ZN3itk18ImageToImageFilterIN3otb5ImageIfLj2EEES3_ED1Ev@Base 5.0.0
 _ZN3itk18ImageToImageFilterIN3otb5ImageIfLj2EEES3_ED2Ev@Base 5.0.0
 _ZN3itk18ImageToImageFilterIN3otb5ImageIhLj2EEENS1_11VectorImageIdLj2EEEE12PopBackInputEv@Base 5.0.0
 _ZN3itk18ImageToImageFilterIN3otb5ImageIhLj2EEENS1_11VectorImageIdLj2EEEE13PopFrontInputEv@Base 5.0.0
 _ZN3itk18ImageToImageFilterIN3otb5ImageIhLj2EEENS1_11VectorImageIdLj2EEEE13PushBackInputEPKNS_10DataObjectE@Base 5.0.0
 _ZN3itk18ImageToImageFilterIN3otb5ImageIhLj2EEENS1_11VectorImageIdLj2EEEE13PushBackInputEPKS3_@Base 5.0.0
 _ZN3itk18ImageToImageFilterIN3otb5ImageIhLj2EEENS1_11VectorImageIdLj2EEEE14PushFrontInputEPKNS_10DataObjectE@Base 5.0.0
 _ZN3itk18ImageToImageFilterIN3otb5ImageIhLj2EEENS1_11VectorImageIdLj2EEEE14PushFrontInputEPKS3_@Base 5.0.0
 _ZN3itk18ImageToImageFilterIN3otb5ImageIhLj2EEENS1_11VectorImageIdLj2EEEE21SetDirectionToleranceEd@Base 5.0.0
 _ZN3itk18ImageToImageFilterIN3otb5ImageIhLj2EEENS1_11VectorImageIdLj2EEEE22SetCoordinateToleranceEd@Base 5.0.0
 _ZN3itk18ImageToImageFilterIN3otb5ImageIhLj2EEENS1_11VectorImageIdLj2EEEE22VerifyInputInformationEv@Base 5.0.0
 _ZN3itk18ImageToImageFilterIN3otb5ImageIhLj2EEENS1_11VectorImageIdLj2EEEE28GenerateInputRequestedRegionEv@Base 5.0.0
 _ZN3itk18ImageToImageFilterIN3otb5ImageIhLj2EEENS1_11VectorImageIdLj2EEEE33CallCopyInputRegionToOutputRegionERNS_11ImageRegionILj2EEERKS8_@Base 5.0.0
 _ZN3itk18ImageToImageFilterIN3otb5ImageIhLj2EEENS1_11VectorImageIdLj2EEEE33CallCopyOutputRegionToInputRegionERNS_11ImageRegionILj2EEERKS8_@Base 5.0.0
 _ZN3itk18ImageToImageFilterIN3otb5ImageIhLj2EEENS1_11VectorImageIdLj2EEEE8SetInputEPKS3_@Base 5.0.0
 _ZN3itk18ImageToImageFilterIN3otb5ImageIhLj2EEENS1_11VectorImageIdLj2EEEE8SetInputEjPKS3_@Base 5.0.0
 _ZN3itk18ImageToImageFilterIN3otb5ImageIhLj2EEENS1_11VectorImageIdLj2EEEED0Ev@Base 5.0.0
 _ZN3itk18ImageToImageFilterIN3otb5ImageIhLj2EEENS1_11VectorImageIdLj2EEEED1Ev@Base 5.0.0
 _ZN3itk18ImageToImageFilterIN3otb5ImageIhLj2EEENS1_11VectorImageIdLj2EEEED2Ev@Base 5.0.0
 _ZN3itk18ImageToImageFilterIN3otb5ImageIhLj2EEENS1_11VectorImageIfLj2EEEE12PopBackInputEv@Base 5.0.0
 _ZN3itk18ImageToImageFilterIN3otb5ImageIhLj2EEENS1_11VectorImageIfLj2EEEE13PopFrontInputEv@Base 5.0.0
 _ZN3itk18ImageToImageFilterIN3otb5ImageIhLj2EEENS1_11VectorImageIfLj2EEEE13PushBackInputEPKNS_10DataObjectE@Base 5.0.0
 _ZN3itk18ImageToImageFilterIN3otb5ImageIhLj2EEENS1_11VectorImageIfLj2EEEE13PushBackInputEPKS3_@Base 5.0.0
 _ZN3itk18ImageToImageFilterIN3otb5ImageIhLj2EEENS1_11VectorImageIfLj2EEEE14PushFrontInputEPKNS_10DataObjectE@Base 5.0.0
 _ZN3itk18ImageToImageFilterIN3otb5ImageIhLj2EEENS1_11VectorImageIfLj2EEEE14PushFrontInputEPKS3_@Base 5.0.0
 _ZN3itk18ImageToImageFilterIN3otb5ImageIhLj2EEENS1_11VectorImageIfLj2EEEE21SetDirectionToleranceEd@Base 5.0.0
 _ZN3itk18ImageToImageFilterIN3otb5ImageIhLj2EEENS1_11VectorImageIfLj2EEEE22SetCoordinateToleranceEd@Base 5.0.0
 _ZN3itk18ImageToImageFilterIN3otb5ImageIhLj2EEENS1_11VectorImageIfLj2EEEE22VerifyInputInformationEv@Base 5.0.0
 _ZN3itk18ImageToImageFilterIN3otb5ImageIhLj2EEENS1_11VectorImageIfLj2EEEE28GenerateInputRequestedRegionEv@Base 5.0.0
 _ZN3itk18ImageToImageFilterIN3otb5ImageIhLj2EEENS1_11VectorImageIfLj2EEEE33CallCopyInputRegionToOutputRegionERNS_11ImageRegionILj2EEERKS8_@Base 5.0.0
 _ZN3itk18ImageToImageFilterIN3otb5ImageIhLj2EEENS1_11VectorImageIfLj2EEEE33CallCopyOutputRegionToInputRegionERNS_11ImageRegionILj2EEERKS8_@Base 5.0.0
 _ZN3itk18ImageToImageFilterIN3otb5ImageIhLj2EEENS1_11VectorImageIfLj2EEEE8SetInputEPKS3_@Base 5.0.0
 _ZN3itk18ImageToImageFilterIN3otb5ImageIhLj2EEENS1_11VectorImageIfLj2EEEE8SetInputEjPKS3_@Base 5.0.0
 _ZN3itk18ImageToImageFilterIN3otb5ImageIhLj2EEENS1_11VectorImageIfLj2EEEED0Ev@Base 5.0.0
 _ZN3itk18ImageToImageFilterIN3otb5ImageIhLj2EEENS1_11VectorImageIfLj2EEEED1Ev@Base 5.0.0
 _ZN3itk18ImageToImageFilterIN3otb5ImageIhLj2EEENS1_11VectorImageIfLj2EEEED2Ev@Base 5.0.0
 _ZN3itk18ImageToImageFilterIN3otb5ImageIhLj2EEENS1_11VectorImageIhLj2EEEE12PopBackInputEv@Base 5.0.0
 _ZN3itk18ImageToImageFilterIN3otb5ImageIhLj2EEENS1_11VectorImageIhLj2EEEE13PopFrontInputEv@Base 5.0.0
 _ZN3itk18ImageToImageFilterIN3otb5ImageIhLj2EEENS1_11VectorImageIhLj2EEEE13PushBackInputEPKNS_10DataObjectE@Base 5.0.0
 _ZN3itk18ImageToImageFilterIN3otb5ImageIhLj2EEENS1_11VectorImageIhLj2EEEE13PushBackInputEPKS3_@Base 5.0.0
 _ZN3itk18ImageToImageFilterIN3otb5ImageIhLj2EEENS1_11VectorImageIhLj2EEEE14PushFrontInputEPKNS_10DataObjectE@Base 5.0.0
 _ZN3itk18ImageToImageFilterIN3otb5ImageIhLj2EEENS1_11VectorImageIhLj2EEEE14PushFrontInputEPKS3_@Base 5.0.0
 _ZN3itk18ImageToImageFilterIN3otb5ImageIhLj2EEENS1_11VectorImageIhLj2EEEE21SetDirectionToleranceEd@Base 5.0.0
 _ZN3itk18ImageToImageFilterIN3otb5ImageIhLj2EEENS1_11VectorImageIhLj2EEEE22SetCoordinateToleranceEd@Base 5.0.0
 _ZN3itk18ImageToImageFilterIN3otb5ImageIhLj2EEENS1_11VectorImageIhLj2EEEE22VerifyInputInformationEv@Base 5.0.0
 _ZN3itk18ImageToImageFilterIN3otb5ImageIhLj2EEENS1_11VectorImageIhLj2EEEE28GenerateInputRequestedRegionEv@Base 5.0.0
 _ZN3itk18ImageToImageFilterIN3otb5ImageIhLj2EEENS1_11VectorImageIhLj2EEEE33CallCopyInputRegionToOutputRegionERNS_11ImageRegionILj2EEERKS8_@Base 5.0.0
 _ZN3itk18ImageToImageFilterIN3otb5ImageIhLj2EEENS1_11VectorImageIhLj2EEEE33CallCopyOutputRegionToInputRegionERNS_11ImageRegionILj2EEERKS8_@Base 5.0.0
 _ZN3itk18ImageToImageFilterIN3otb5ImageIhLj2EEENS1_11VectorImageIhLj2EEEE8SetInputEPKS3_@Base 5.0.0
 _ZN3itk18ImageToImageFilterIN3otb5ImageIhLj2EEENS1_11VectorImageIhLj2EEEE8SetInputEjPKS3_@Base 5.0.0
 _ZN3itk18ImageToImageFilterIN3otb5ImageIhLj2EEENS1_11VectorImageIhLj2EEEED0Ev@Base 5.0.0
 _ZN3itk18ImageToImageFilterIN3otb5ImageIhLj2EEENS1_11VectorImageIhLj2EEEED1Ev@Base 5.0.0
 _ZN3itk18ImageToImageFilterIN3otb5ImageIhLj2EEENS1_11VectorImageIhLj2EEEED2Ev@Base 5.0.0
 _ZN3itk18ImageToImageFilterIN3otb5ImageIhLj2EEENS1_11VectorImageIiLj2EEEE12PopBackInputEv@Base 5.0.0
 _ZN3itk18ImageToImageFilterIN3otb5ImageIhLj2EEENS1_11VectorImageIiLj2EEEE13PopFrontInputEv@Base 5.0.0
 _ZN3itk18ImageToImageFilterIN3otb5ImageIhLj2EEENS1_11VectorImageIiLj2EEEE13PushBackInputEPKNS_10DataObjectE@Base 5.0.0
 _ZN3itk18ImageToImageFilterIN3otb5ImageIhLj2EEENS1_11VectorImageIiLj2EEEE13PushBackInputEPKS3_@Base 5.0.0
 _ZN3itk18ImageToImageFilterIN3otb5ImageIhLj2EEENS1_11VectorImageIiLj2EEEE14PushFrontInputEPKNS_10DataObjectE@Base 5.0.0
 _ZN3itk18ImageToImageFilterIN3otb5ImageIhLj2EEENS1_11VectorImageIiLj2EEEE14PushFrontInputEPKS3_@Base 5.0.0
 _ZN3itk18ImageToImageFilterIN3otb5ImageIhLj2EEENS1_11VectorImageIiLj2EEEE21SetDirectionToleranceEd@Base 5.0.0
 _ZN3itk18ImageToImageFilterIN3otb5ImageIhLj2EEENS1_11VectorImageIiLj2EEEE22SetCoordinateToleranceEd@Base 5.0.0
 _ZN3itk18ImageToImageFilterIN3otb5ImageIhLj2EEENS1_11VectorImageIiLj2EEEE22VerifyInputInformationEv@Base 5.0.0
 _ZN3itk18ImageToImageFilterIN3otb5ImageIhLj2EEENS1_11VectorImageIiLj2EEEE28GenerateInputRequestedRegionEv@Base 5.0.0
 _ZN3itk18ImageToImageFilterIN3otb5ImageIhLj2EEENS1_11VectorImageIiLj2EEEE33CallCopyInputRegionToOutputRegionERNS_11ImageRegionILj2EEERKS8_@Base 5.0.0
 _ZN3itk18ImageToImageFilterIN3otb5ImageIhLj2EEENS1_11VectorImageIiLj2EEEE33CallCopyOutputRegionToInputRegionERNS_11ImageRegionILj2EEERKS8_@Base 5.0.0
 _ZN3itk18ImageToImageFilterIN3otb5ImageIhLj2EEENS1_11VectorImageIiLj2EEEE8SetInputEPKS3_@Base 5.0.0
 _ZN3itk18ImageToImageFilterIN3otb5ImageIhLj2EEENS1_11VectorImageIiLj2EEEE8SetInputEjPKS3_@Base 5.0.0
 _ZN3itk18ImageToImageFilterIN3otb5ImageIhLj2EEENS1_11VectorImageIiLj2EEEED0Ev@Base 5.0.0
 _ZN3itk18ImageToImageFilterIN3otb5ImageIhLj2EEENS1_11VectorImageIiLj2EEEED1Ev@Base 5.0.0
 _ZN3itk18ImageToImageFilterIN3otb5ImageIhLj2EEENS1_11VectorImageIiLj2EEEED2Ev@Base 5.0.0
 _ZN3itk18ImageToImageFilterIN3otb5ImageIhLj2EEENS1_11VectorImageIjLj2EEEE12PopBackInputEv@Base 5.0.0
 _ZN3itk18ImageToImageFilterIN3otb5ImageIhLj2EEENS1_11VectorImageIjLj2EEEE13PopFrontInputEv@Base 5.0.0
 _ZN3itk18ImageToImageFilterIN3otb5ImageIhLj2EEENS1_11VectorImageIjLj2EEEE13PushBackInputEPKNS_10DataObjectE@Base 5.0.0
 _ZN3itk18ImageToImageFilterIN3otb5ImageIhLj2EEENS1_11VectorImageIjLj2EEEE13PushBackInputEPKS3_@Base 5.0.0
 _ZN3itk18ImageToImageFilterIN3otb5ImageIhLj2EEENS1_11VectorImageIjLj2EEEE14PushFrontInputEPKNS_10DataObjectE@Base 5.0.0
 _ZN3itk18ImageToImageFilterIN3otb5ImageIhLj2EEENS1_11VectorImageIjLj2EEEE14PushFrontInputEPKS3_@Base 5.0.0
 _ZN3itk18ImageToImageFilterIN3otb5ImageIhLj2EEENS1_11VectorImageIjLj2EEEE21SetDirectionToleranceEd@Base 5.0.0
 _ZN3itk18ImageToImageFilterIN3otb5ImageIhLj2EEENS1_11VectorImageIjLj2EEEE22SetCoordinateToleranceEd@Base 5.0.0
 _ZN3itk18ImageToImageFilterIN3otb5ImageIhLj2EEENS1_11VectorImageIjLj2EEEE22VerifyInputInformationEv@Base 5.0.0
 _ZN3itk18ImageToImageFilterIN3otb5ImageIhLj2EEENS1_11VectorImageIjLj2EEEE28GenerateInputRequestedRegionEv@Base 5.0.0
 _ZN3itk18ImageToImageFilterIN3otb5ImageIhLj2EEENS1_11VectorImageIjLj2EEEE33CallCopyInputRegionToOutputRegionERNS_11ImageRegionILj2EEERKS8_@Base 5.0.0
 _ZN3itk18ImageToImageFilterIN3otb5ImageIhLj2EEENS1_11VectorImageIjLj2EEEE33CallCopyOutputRegionToInputRegionERNS_11ImageRegionILj2EEERKS8_@Base 5.0.0
 _ZN3itk18ImageToImageFilterIN3otb5ImageIhLj2EEENS1_11VectorImageIjLj2EEEE8SetInputEPKS3_@Base 5.0.0
 _ZN3itk18ImageToImageFilterIN3otb5ImageIhLj2EEENS1_11VectorImageIjLj2EEEE8SetInputEjPKS3_@Base 5.0.0
 _ZN3itk18ImageToImageFilterIN3otb5ImageIhLj2EEENS1_11VectorImageIjLj2EEEED0Ev@Base 5.0.0
 _ZN3itk18ImageToImageFilterIN3otb5ImageIhLj2EEENS1_11VectorImageIjLj2EEEED1Ev@Base 5.0.0
 _ZN3itk18ImageToImageFilterIN3otb5ImageIhLj2EEENS1_11VectorImageIjLj2EEEED2Ev@Base 5.0.0
 _ZN3itk18ImageToImageFilterIN3otb5ImageIhLj2EEENS1_11VectorImageIsLj2EEEE12PopBackInputEv@Base 5.0.0
 _ZN3itk18ImageToImageFilterIN3otb5ImageIhLj2EEENS1_11VectorImageIsLj2EEEE13PopFrontInputEv@Base 5.0.0
 _ZN3itk18ImageToImageFilterIN3otb5ImageIhLj2EEENS1_11VectorImageIsLj2EEEE13PushBackInputEPKNS_10DataObjectE@Base 5.0.0
 _ZN3itk18ImageToImageFilterIN3otb5ImageIhLj2EEENS1_11VectorImageIsLj2EEEE13PushBackInputEPKS3_@Base 5.0.0
 _ZN3itk18ImageToImageFilterIN3otb5ImageIhLj2EEENS1_11VectorImageIsLj2EEEE14PushFrontInputEPKNS_10DataObjectE@Base 5.0.0
 _ZN3itk18ImageToImageFilterIN3otb5ImageIhLj2EEENS1_11VectorImageIsLj2EEEE14PushFrontInputEPKS3_@Base 5.0.0
 _ZN3itk18ImageToImageFilterIN3otb5ImageIhLj2EEENS1_11VectorImageIsLj2EEEE21SetDirectionToleranceEd@Base 5.0.0
 _ZN3itk18ImageToImageFilterIN3otb5ImageIhLj2EEENS1_11VectorImageIsLj2EEEE22SetCoordinateToleranceEd@Base 5.0.0
 _ZN3itk18ImageToImageFilterIN3otb5ImageIhLj2EEENS1_11VectorImageIsLj2EEEE22VerifyInputInformationEv@Base 5.0.0
 _ZN3itk18ImageToImageFilterIN3otb5ImageIhLj2EEENS1_11VectorImageIsLj2EEEE28GenerateInputRequestedRegionEv@Base 5.0.0
 _ZN3itk18ImageToImageFilterIN3otb5ImageIhLj2EEENS1_11VectorImageIsLj2EEEE33CallCopyInputRegionToOutputRegionERNS_11ImageRegionILj2EEERKS8_@Base 5.0.0
 _ZN3itk18ImageToImageFilterIN3otb5ImageIhLj2EEENS1_11VectorImageIsLj2EEEE33CallCopyOutputRegionToInputRegionERNS_11ImageRegionILj2EEERKS8_@Base 5.0.0
 _ZN3itk18ImageToImageFilterIN3otb5ImageIhLj2EEENS1_11VectorImageIsLj2EEEE8SetInputEPKS3_@Base 5.0.0
 _ZN3itk18ImageToImageFilterIN3otb5ImageIhLj2EEENS1_11VectorImageIsLj2EEEE8SetInputEjPKS3_@Base 5.0.0
 _ZN3itk18ImageToImageFilterIN3otb5ImageIhLj2EEENS1_11VectorImageIsLj2EEEED0Ev@Base 5.0.0
 _ZN3itk18ImageToImageFilterIN3otb5ImageIhLj2EEENS1_11VectorImageIsLj2EEEED1Ev@Base 5.0.0
 _ZN3itk18ImageToImageFilterIN3otb5ImageIhLj2EEENS1_11VectorImageIsLj2EEEED2Ev@Base 5.0.0
 _ZN3itk18ImageToImageFilterIN3otb5ImageIhLj2EEENS1_11VectorImageItLj2EEEE12PopBackInputEv@Base 5.0.0
 _ZN3itk18ImageToImageFilterIN3otb5ImageIhLj2EEENS1_11VectorImageItLj2EEEE13PopFrontInputEv@Base 5.0.0
 _ZN3itk18ImageToImageFilterIN3otb5ImageIhLj2EEENS1_11VectorImageItLj2EEEE13PushBackInputEPKNS_10DataObjectE@Base 5.0.0
 _ZN3itk18ImageToImageFilterIN3otb5ImageIhLj2EEENS1_11VectorImageItLj2EEEE13PushBackInputEPKS3_@Base 5.0.0
 _ZN3itk18ImageToImageFilterIN3otb5ImageIhLj2EEENS1_11VectorImageItLj2EEEE14PushFrontInputEPKNS_10DataObjectE@Base 5.0.0
 _ZN3itk18ImageToImageFilterIN3otb5ImageIhLj2EEENS1_11VectorImageItLj2EEEE14PushFrontInputEPKS3_@Base 5.0.0
 _ZN3itk18ImageToImageFilterIN3otb5ImageIhLj2EEENS1_11VectorImageItLj2EEEE21SetDirectionToleranceEd@Base 5.0.0
 _ZN3itk18ImageToImageFilterIN3otb5ImageIhLj2EEENS1_11VectorImageItLj2EEEE22SetCoordinateToleranceEd@Base 5.0.0
 _ZN3itk18ImageToImageFilterIN3otb5ImageIhLj2EEENS1_11VectorImageItLj2EEEE22VerifyInputInformationEv@Base 5.0.0
 _ZN3itk18ImageToImageFilterIN3otb5ImageIhLj2EEENS1_11VectorImageItLj2EEEE28GenerateInputRequestedRegionEv@Base 5.0.0
 _ZN3itk18ImageToImageFilterIN3otb5ImageIhLj2EEENS1_11VectorImageItLj2EEEE33CallCopyInputRegionToOutputRegionERNS_11ImageRegionILj2EEERKS8_@Base 5.0.0
 _ZN3itk18ImageToImageFilterIN3otb5ImageIhLj2EEENS1_11VectorImageItLj2EEEE33CallCopyOutputRegionToInputRegionERNS_11ImageRegionILj2EEERKS8_@Base 5.0.0
 _ZN3itk18ImageToImageFilterIN3otb5ImageIhLj2EEENS1_11VectorImageItLj2EEEE8SetInputEPKS3_@Base 5.0.0
 _ZN3itk18ImageToImageFilterIN3otb5ImageIhLj2EEENS1_11VectorImageItLj2EEEE8SetInputEjPKS3_@Base 5.0.0
 _ZN3itk18ImageToImageFilterIN3otb5ImageIhLj2EEENS1_11VectorImageItLj2EEEED0Ev@Base 5.0.0
 _ZN3itk18ImageToImageFilterIN3otb5ImageIhLj2EEENS1_11VectorImageItLj2EEEED1Ev@Base 5.0.0
 _ZN3itk18ImageToImageFilterIN3otb5ImageIhLj2EEENS1_11VectorImageItLj2EEEED2Ev@Base 5.0.0
 _ZN3itk18ImageToImageFilterIN3otb5ImageIhLj2EEENS2_IdLj2EEEE12PopBackInputEv@Base 5.0.0
 _ZN3itk18ImageToImageFilterIN3otb5ImageIhLj2EEENS2_IdLj2EEEE13PopFrontInputEv@Base 5.0.0
 _ZN3itk18ImageToImageFilterIN3otb5ImageIhLj2EEENS2_IdLj2EEEE13PushBackInputEPKNS_10DataObjectE@Base 5.0.0
 _ZN3itk18ImageToImageFilterIN3otb5ImageIhLj2EEENS2_IdLj2EEEE13PushBackInputEPKS3_@Base 5.0.0
 _ZN3itk18ImageToImageFilterIN3otb5ImageIhLj2EEENS2_IdLj2EEEE14PushFrontInputEPKNS_10DataObjectE@Base 5.0.0
 _ZN3itk18ImageToImageFilterIN3otb5ImageIhLj2EEENS2_IdLj2EEEE14PushFrontInputEPKS3_@Base 5.0.0
 _ZN3itk18ImageToImageFilterIN3otb5ImageIhLj2EEENS2_IdLj2EEEE21SetDirectionToleranceEd@Base 5.0.0
 _ZN3itk18ImageToImageFilterIN3otb5ImageIhLj2EEENS2_IdLj2EEEE22SetCoordinateToleranceEd@Base 5.0.0
 _ZN3itk18ImageToImageFilterIN3otb5ImageIhLj2EEENS2_IdLj2EEEE22VerifyInputInformationEv@Base 5.0.0
 _ZN3itk18ImageToImageFilterIN3otb5ImageIhLj2EEENS2_IdLj2EEEE28GenerateInputRequestedRegionEv@Base 5.0.0
 _ZN3itk18ImageToImageFilterIN3otb5ImageIhLj2EEENS2_IdLj2EEEE33CallCopyInputRegionToOutputRegionERNS_11ImageRegionILj2EEERKS7_@Base 5.0.0
 _ZN3itk18ImageToImageFilterIN3otb5ImageIhLj2EEENS2_IdLj2EEEE33CallCopyOutputRegionToInputRegionERNS_11ImageRegionILj2EEERKS7_@Base 5.0.0
 _ZN3itk18ImageToImageFilterIN3otb5ImageIhLj2EEENS2_IdLj2EEEE8SetInputEPKS3_@Base 5.0.0
 _ZN3itk18ImageToImageFilterIN3otb5ImageIhLj2EEENS2_IdLj2EEEE8SetInputEjPKS3_@Base 5.0.0
 _ZN3itk18ImageToImageFilterIN3otb5ImageIhLj2EEENS2_IdLj2EEEED0Ev@Base 5.0.0
 _ZN3itk18ImageToImageFilterIN3otb5ImageIhLj2EEENS2_IdLj2EEEED1Ev@Base 5.0.0
 _ZN3itk18ImageToImageFilterIN3otb5ImageIhLj2EEENS2_IdLj2EEEED2Ev@Base 5.0.0
 _ZN3itk18ImageToImageFilterIN3otb5ImageIhLj2EEENS2_IfLj2EEEE12PopBackInputEv@Base 5.0.0
 _ZN3itk18ImageToImageFilterIN3otb5ImageIhLj2EEENS2_IfLj2EEEE13PopFrontInputEv@Base 5.0.0
 _ZN3itk18ImageToImageFilterIN3otb5ImageIhLj2EEENS2_IfLj2EEEE13PushBackInputEPKNS_10DataObjectE@Base 5.0.0
 _ZN3itk18ImageToImageFilterIN3otb5ImageIhLj2EEENS2_IfLj2EEEE13PushBackInputEPKS3_@Base 5.0.0
 _ZN3itk18ImageToImageFilterIN3otb5ImageIhLj2EEENS2_IfLj2EEEE14PushFrontInputEPKNS_10DataObjectE@Base 5.0.0
 _ZN3itk18ImageToImageFilterIN3otb5ImageIhLj2EEENS2_IfLj2EEEE14PushFrontInputEPKS3_@Base 5.0.0
 _ZN3itk18ImageToImageFilterIN3otb5ImageIhLj2EEENS2_IfLj2EEEE21SetDirectionToleranceEd@Base 5.0.0
 _ZN3itk18ImageToImageFilterIN3otb5ImageIhLj2EEENS2_IfLj2EEEE22SetCoordinateToleranceEd@Base 5.0.0
 _ZN3itk18ImageToImageFilterIN3otb5ImageIhLj2EEENS2_IfLj2EEEE22VerifyInputInformationEv@Base 5.0.0
 _ZN3itk18ImageToImageFilterIN3otb5ImageIhLj2EEENS2_IfLj2EEEE28GenerateInputRequestedRegionEv@Base 5.0.0
 _ZN3itk18ImageToImageFilterIN3otb5ImageIhLj2EEENS2_IfLj2EEEE33CallCopyInputRegionToOutputRegionERNS_11ImageRegionILj2EEERKS7_@Base 5.0.0
 _ZN3itk18ImageToImageFilterIN3otb5ImageIhLj2EEENS2_IfLj2EEEE33CallCopyOutputRegionToInputRegionERNS_11ImageRegionILj2EEERKS7_@Base 5.0.0
 _ZN3itk18ImageToImageFilterIN3otb5ImageIhLj2EEENS2_IfLj2EEEE8SetInputEPKS3_@Base 5.0.0
 _ZN3itk18ImageToImageFilterIN3otb5ImageIhLj2EEENS2_IfLj2EEEE8SetInputEjPKS3_@Base 5.0.0
 _ZN3itk18ImageToImageFilterIN3otb5ImageIhLj2EEENS2_IfLj2EEEED0Ev@Base 5.0.0
 _ZN3itk18ImageToImageFilterIN3otb5ImageIhLj2EEENS2_IfLj2EEEED1Ev@Base 5.0.0
 _ZN3itk18ImageToImageFilterIN3otb5ImageIhLj2EEENS2_IfLj2EEEED2Ev@Base 5.0.0
 _ZN3itk18ImageToImageFilterIN3otb5ImageIhLj2EEENS2_IiLj2EEEE12PopBackInputEv@Base 5.0.0
 _ZN3itk18ImageToImageFilterIN3otb5ImageIhLj2EEENS2_IiLj2EEEE13PopFrontInputEv@Base 5.0.0
 _ZN3itk18ImageToImageFilterIN3otb5ImageIhLj2EEENS2_IiLj2EEEE13PushBackInputEPKNS_10DataObjectE@Base 5.0.0
 _ZN3itk18ImageToImageFilterIN3otb5ImageIhLj2EEENS2_IiLj2EEEE13PushBackInputEPKS3_@Base 5.0.0
 _ZN3itk18ImageToImageFilterIN3otb5ImageIhLj2EEENS2_IiLj2EEEE14PushFrontInputEPKNS_10DataObjectE@Base 5.0.0
 _ZN3itk18ImageToImageFilterIN3otb5ImageIhLj2EEENS2_IiLj2EEEE14PushFrontInputEPKS3_@Base 5.0.0
 _ZN3itk18ImageToImageFilterIN3otb5ImageIhLj2EEENS2_IiLj2EEEE21SetDirectionToleranceEd@Base 5.0.0
 _ZN3itk18ImageToImageFilterIN3otb5ImageIhLj2EEENS2_IiLj2EEEE22SetCoordinateToleranceEd@Base 5.0.0
 _ZN3itk18ImageToImageFilterIN3otb5ImageIhLj2EEENS2_IiLj2EEEE22VerifyInputInformationEv@Base 5.0.0
 _ZN3itk18ImageToImageFilterIN3otb5ImageIhLj2EEENS2_IiLj2EEEE28GenerateInputRequestedRegionEv@Base 5.0.0
 _ZN3itk18ImageToImageFilterIN3otb5ImageIhLj2EEENS2_IiLj2EEEE33CallCopyInputRegionToOutputRegionERNS_11ImageRegionILj2EEERKS7_@Base 5.0.0
 _ZN3itk18ImageToImageFilterIN3otb5ImageIhLj2EEENS2_IiLj2EEEE33CallCopyOutputRegionToInputRegionERNS_11ImageRegionILj2EEERKS7_@Base 5.0.0
 _ZN3itk18ImageToImageFilterIN3otb5ImageIhLj2EEENS2_IiLj2EEEE8SetInputEPKS3_@Base 5.0.0
 _ZN3itk18ImageToImageFilterIN3otb5ImageIhLj2EEENS2_IiLj2EEEE8SetInputEjPKS3_@Base 5.0.0
 _ZN3itk18ImageToImageFilterIN3otb5ImageIhLj2EEENS2_IiLj2EEEED0Ev@Base 5.0.0
 _ZN3itk18ImageToImageFilterIN3otb5ImageIhLj2EEENS2_IiLj2EEEED1Ev@Base 5.0.0
 _ZN3itk18ImageToImageFilterIN3otb5ImageIhLj2EEENS2_IiLj2EEEED2Ev@Base 5.0.0
 _ZN3itk18ImageToImageFilterIN3otb5ImageIhLj2EEENS2_IjLj2EEEE12PopBackInputEv@Base 5.0.0
 _ZN3itk18ImageToImageFilterIN3otb5ImageIhLj2EEENS2_IjLj2EEEE13PopFrontInputEv@Base 5.0.0
 _ZN3itk18ImageToImageFilterIN3otb5ImageIhLj2EEENS2_IjLj2EEEE13PushBackInputEPKNS_10DataObjectE@Base 5.0.0
 _ZN3itk18ImageToImageFilterIN3otb5ImageIhLj2EEENS2_IjLj2EEEE13PushBackInputEPKS3_@Base 5.0.0
 _ZN3itk18ImageToImageFilterIN3otb5ImageIhLj2EEENS2_IjLj2EEEE14PushFrontInputEPKNS_10DataObjectE@Base 5.0.0
 _ZN3itk18ImageToImageFilterIN3otb5ImageIhLj2EEENS2_IjLj2EEEE14PushFrontInputEPKS3_@Base 5.0.0
 _ZN3itk18ImageToImageFilterIN3otb5ImageIhLj2EEENS2_IjLj2EEEE21SetDirectionToleranceEd@Base 5.0.0
 _ZN3itk18ImageToImageFilterIN3otb5ImageIhLj2EEENS2_IjLj2EEEE22SetCoordinateToleranceEd@Base 5.0.0
 _ZN3itk18ImageToImageFilterIN3otb5ImageIhLj2EEENS2_IjLj2EEEE22VerifyInputInformationEv@Base 5.0.0
 _ZN3itk18ImageToImageFilterIN3otb5ImageIhLj2EEENS2_IjLj2EEEE28GenerateInputRequestedRegionEv@Base 5.0.0
 _ZN3itk18ImageToImageFilterIN3otb5ImageIhLj2EEENS2_IjLj2EEEE33CallCopyInputRegionToOutputRegionERNS_11ImageRegionILj2EEERKS7_@Base 5.0.0
 _ZN3itk18ImageToImageFilterIN3otb5ImageIhLj2EEENS2_IjLj2EEEE33CallCopyOutputRegionToInputRegionERNS_11ImageRegionILj2EEERKS7_@Base 5.0.0
 _ZN3itk18ImageToImageFilterIN3otb5ImageIhLj2EEENS2_IjLj2EEEE8SetInputEPKS3_@Base 5.0.0
 _ZN3itk18ImageToImageFilterIN3otb5ImageIhLj2EEENS2_IjLj2EEEE8SetInputEjPKS3_@Base 5.0.0
 _ZN3itk18ImageToImageFilterIN3otb5ImageIhLj2EEENS2_IjLj2EEEED0Ev@Base 5.0.0
 _ZN3itk18ImageToImageFilterIN3otb5ImageIhLj2EEENS2_IjLj2EEEED1Ev@Base 5.0.0
 _ZN3itk18ImageToImageFilterIN3otb5ImageIhLj2EEENS2_IjLj2EEEED2Ev@Base 5.0.0
 _ZN3itk18ImageToImageFilterIN3otb5ImageIhLj2EEENS2_IsLj2EEEE12PopBackInputEv@Base 5.0.0
 _ZN3itk18ImageToImageFilterIN3otb5ImageIhLj2EEENS2_IsLj2EEEE13PopFrontInputEv@Base 5.0.0
 _ZN3itk18ImageToImageFilterIN3otb5ImageIhLj2EEENS2_IsLj2EEEE13PushBackInputEPKNS_10DataObjectE@Base 5.0.0
 _ZN3itk18ImageToImageFilterIN3otb5ImageIhLj2EEENS2_IsLj2EEEE13PushBackInputEPKS3_@Base 5.0.0
 _ZN3itk18ImageToImageFilterIN3otb5ImageIhLj2EEENS2_IsLj2EEEE14PushFrontInputEPKNS_10DataObjectE@Base 5.0.0
 _ZN3itk18ImageToImageFilterIN3otb5ImageIhLj2EEENS2_IsLj2EEEE14PushFrontInputEPKS3_@Base 5.0.0
 _ZN3itk18ImageToImageFilterIN3otb5ImageIhLj2EEENS2_IsLj2EEEE21SetDirectionToleranceEd@Base 5.0.0
 _ZN3itk18ImageToImageFilterIN3otb5ImageIhLj2EEENS2_IsLj2EEEE22SetCoordinateToleranceEd@Base 5.0.0
 _ZN3itk18ImageToImageFilterIN3otb5ImageIhLj2EEENS2_IsLj2EEEE22VerifyInputInformationEv@Base 5.0.0
 _ZN3itk18ImageToImageFilterIN3otb5ImageIhLj2EEENS2_IsLj2EEEE28GenerateInputRequestedRegionEv@Base 5.0.0
 _ZN3itk18ImageToImageFilterIN3otb5ImageIhLj2EEENS2_IsLj2EEEE33CallCopyInputRegionToOutputRegionERNS_11ImageRegionILj2EEERKS7_@Base 5.0.0
 _ZN3itk18ImageToImageFilterIN3otb5ImageIhLj2EEENS2_IsLj2EEEE33CallCopyOutputRegionToInputRegionERNS_11ImageRegionILj2EEERKS7_@Base 5.0.0
 _ZN3itk18ImageToImageFilterIN3otb5ImageIhLj2EEENS2_IsLj2EEEE8SetInputEPKS3_@Base 5.0.0
 _ZN3itk18ImageToImageFilterIN3otb5ImageIhLj2EEENS2_IsLj2EEEE8SetInputEjPKS3_@Base 5.0.0
 _ZN3itk18ImageToImageFilterIN3otb5ImageIhLj2EEENS2_IsLj2EEEED0Ev@Base 5.0.0
 _ZN3itk18ImageToImageFilterIN3otb5ImageIhLj2EEENS2_IsLj2EEEED1Ev@Base 5.0.0
 _ZN3itk18ImageToImageFilterIN3otb5ImageIhLj2EEENS2_IsLj2EEEED2Ev@Base 5.0.0
 _ZN3itk18ImageToImageFilterIN3otb5ImageIhLj2EEENS2_ItLj2EEEE12PopBackInputEv@Base 5.0.0
 _ZN3itk18ImageToImageFilterIN3otb5ImageIhLj2EEENS2_ItLj2EEEE13PopFrontInputEv@Base 5.0.0
 _ZN3itk18ImageToImageFilterIN3otb5ImageIhLj2EEENS2_ItLj2EEEE13PushBackInputEPKNS_10DataObjectE@Base 5.0.0
 _ZN3itk18ImageToImageFilterIN3otb5ImageIhLj2EEENS2_ItLj2EEEE13PushBackInputEPKS3_@Base 5.0.0
 _ZN3itk18ImageToImageFilterIN3otb5ImageIhLj2EEENS2_ItLj2EEEE14PushFrontInputEPKNS_10DataObjectE@Base 5.0.0
 _ZN3itk18ImageToImageFilterIN3otb5ImageIhLj2EEENS2_ItLj2EEEE14PushFrontInputEPKS3_@Base 5.0.0
 _ZN3itk18ImageToImageFilterIN3otb5ImageIhLj2EEENS2_ItLj2EEEE21SetDirectionToleranceEd@Base 5.0.0
 _ZN3itk18ImageToImageFilterIN3otb5ImageIhLj2EEENS2_ItLj2EEEE22SetCoordinateToleranceEd@Base 5.0.0
 _ZN3itk18ImageToImageFilterIN3otb5ImageIhLj2EEENS2_ItLj2EEEE22VerifyInputInformationEv@Base 5.0.0
 _ZN3itk18ImageToImageFilterIN3otb5ImageIhLj2EEENS2_ItLj2EEEE28GenerateInputRequestedRegionEv@Base 5.0.0
 _ZN3itk18ImageToImageFilterIN3otb5ImageIhLj2EEENS2_ItLj2EEEE33CallCopyInputRegionToOutputRegionERNS_11ImageRegionILj2EEERKS7_@Base 5.0.0
 _ZN3itk18ImageToImageFilterIN3otb5ImageIhLj2EEENS2_ItLj2EEEE33CallCopyOutputRegionToInputRegionERNS_11ImageRegionILj2EEERKS7_@Base 5.0.0
 _ZN3itk18ImageToImageFilterIN3otb5ImageIhLj2EEENS2_ItLj2EEEE8SetInputEPKS3_@Base 5.0.0
 _ZN3itk18ImageToImageFilterIN3otb5ImageIhLj2EEENS2_ItLj2EEEE8SetInputEjPKS3_@Base 5.0.0
 _ZN3itk18ImageToImageFilterIN3otb5ImageIhLj2EEENS2_ItLj2EEEED0Ev@Base 5.0.0
 _ZN3itk18ImageToImageFilterIN3otb5ImageIhLj2EEENS2_ItLj2EEEED1Ev@Base 5.0.0
 _ZN3itk18ImageToImageFilterIN3otb5ImageIhLj2EEENS2_ItLj2EEEED2Ev@Base 5.0.0
 _ZN3itk18ImageToImageFilterIN3otb5ImageIhLj2EEES3_E12PopBackInputEv@Base 5.0.0
 _ZN3itk18ImageToImageFilterIN3otb5ImageIhLj2EEES3_E13PopFrontInputEv@Base 5.0.0
 _ZN3itk18ImageToImageFilterIN3otb5ImageIhLj2EEES3_E13PushBackInputEPKNS_10DataObjectE@Base 5.0.0
 _ZN3itk18ImageToImageFilterIN3otb5ImageIhLj2EEES3_E13PushBackInputEPKS3_@Base 5.0.0
 _ZN3itk18ImageToImageFilterIN3otb5ImageIhLj2EEES3_E14PushFrontInputEPKNS_10DataObjectE@Base 5.0.0
 _ZN3itk18ImageToImageFilterIN3otb5ImageIhLj2EEES3_E14PushFrontInputEPKS3_@Base 5.0.0
 _ZN3itk18ImageToImageFilterIN3otb5ImageIhLj2EEES3_E21SetDirectionToleranceEd@Base 5.0.0
 _ZN3itk18ImageToImageFilterIN3otb5ImageIhLj2EEES3_E22SetCoordinateToleranceEd@Base 5.0.0
 _ZN3itk18ImageToImageFilterIN3otb5ImageIhLj2EEES3_E22VerifyInputInformationEv@Base 5.0.0
 _ZN3itk18ImageToImageFilterIN3otb5ImageIhLj2EEES3_E28GenerateInputRequestedRegionEv@Base 5.0.0
 _ZN3itk18ImageToImageFilterIN3otb5ImageIhLj2EEES3_E33CallCopyInputRegionToOutputRegionERNS_11ImageRegionILj2EEERKS6_@Base 5.0.0
 _ZN3itk18ImageToImageFilterIN3otb5ImageIhLj2EEES3_E33CallCopyOutputRegionToInputRegionERNS_11ImageRegionILj2EEERKS6_@Base 5.0.0
 _ZN3itk18ImageToImageFilterIN3otb5ImageIhLj2EEES3_E8SetInputEPKS3_@Base 5.0.0
 _ZN3itk18ImageToImageFilterIN3otb5ImageIhLj2EEES3_E8SetInputEjPKS3_@Base 5.0.0
 _ZN3itk18ImageToImageFilterIN3otb5ImageIhLj2EEES3_ED0Ev@Base 5.0.0
 _ZN3itk18ImageToImageFilterIN3otb5ImageIhLj2EEES3_ED1Ev@Base 5.0.0
 _ZN3itk18ImageToImageFilterIN3otb5ImageIhLj2EEES3_ED2Ev@Base 5.0.0
 _ZN3itk18ImageToImageFilterIN3otb5ImageIiLj2EEENS1_11VectorImageIdLj2EEEE12PopBackInputEv@Base 5.0.0
 _ZN3itk18ImageToImageFilterIN3otb5ImageIiLj2EEENS1_11VectorImageIdLj2EEEE13PopFrontInputEv@Base 5.0.0
 _ZN3itk18ImageToImageFilterIN3otb5ImageIiLj2EEENS1_11VectorImageIdLj2EEEE13PushBackInputEPKNS_10DataObjectE@Base 5.0.0
 _ZN3itk18ImageToImageFilterIN3otb5ImageIiLj2EEENS1_11VectorImageIdLj2EEEE13PushBackInputEPKS3_@Base 5.0.0
 _ZN3itk18ImageToImageFilterIN3otb5ImageIiLj2EEENS1_11VectorImageIdLj2EEEE14PushFrontInputEPKNS_10DataObjectE@Base 5.0.0
 _ZN3itk18ImageToImageFilterIN3otb5ImageIiLj2EEENS1_11VectorImageIdLj2EEEE14PushFrontInputEPKS3_@Base 5.0.0
 _ZN3itk18ImageToImageFilterIN3otb5ImageIiLj2EEENS1_11VectorImageIdLj2EEEE21SetDirectionToleranceEd@Base 5.0.0
 _ZN3itk18ImageToImageFilterIN3otb5ImageIiLj2EEENS1_11VectorImageIdLj2EEEE22SetCoordinateToleranceEd@Base 5.0.0
 _ZN3itk18ImageToImageFilterIN3otb5ImageIiLj2EEENS1_11VectorImageIdLj2EEEE22VerifyInputInformationEv@Base 5.0.0
 _ZN3itk18ImageToImageFilterIN3otb5ImageIiLj2EEENS1_11VectorImageIdLj2EEEE28GenerateInputRequestedRegionEv@Base 5.0.0
 _ZN3itk18ImageToImageFilterIN3otb5ImageIiLj2EEENS1_11VectorImageIdLj2EEEE33CallCopyInputRegionToOutputRegionERNS_11ImageRegionILj2EEERKS8_@Base 5.0.0
 _ZN3itk18ImageToImageFilterIN3otb5ImageIiLj2EEENS1_11VectorImageIdLj2EEEE33CallCopyOutputRegionToInputRegionERNS_11ImageRegionILj2EEERKS8_@Base 5.0.0
 _ZN3itk18ImageToImageFilterIN3otb5ImageIiLj2EEENS1_11VectorImageIdLj2EEEE8SetInputEPKS3_@Base 5.0.0
 _ZN3itk18ImageToImageFilterIN3otb5ImageIiLj2EEENS1_11VectorImageIdLj2EEEE8SetInputEjPKS3_@Base 5.0.0
 _ZN3itk18ImageToImageFilterIN3otb5ImageIiLj2EEENS1_11VectorImageIdLj2EEEED0Ev@Base 5.0.0
 _ZN3itk18ImageToImageFilterIN3otb5ImageIiLj2EEENS1_11VectorImageIdLj2EEEED1Ev@Base 5.0.0
 _ZN3itk18ImageToImageFilterIN3otb5ImageIiLj2EEENS1_11VectorImageIdLj2EEEED2Ev@Base 5.0.0
 _ZN3itk18ImageToImageFilterIN3otb5ImageIiLj2EEENS1_11VectorImageIfLj2EEEE12PopBackInputEv@Base 5.0.0
 _ZN3itk18ImageToImageFilterIN3otb5ImageIiLj2EEENS1_11VectorImageIfLj2EEEE13PopFrontInputEv@Base 5.0.0
 _ZN3itk18ImageToImageFilterIN3otb5ImageIiLj2EEENS1_11VectorImageIfLj2EEEE13PushBackInputEPKNS_10DataObjectE@Base 5.0.0
 _ZN3itk18ImageToImageFilterIN3otb5ImageIiLj2EEENS1_11VectorImageIfLj2EEEE13PushBackInputEPKS3_@Base 5.0.0
 _ZN3itk18ImageToImageFilterIN3otb5ImageIiLj2EEENS1_11VectorImageIfLj2EEEE14PushFrontInputEPKNS_10DataObjectE@Base 5.0.0
 _ZN3itk18ImageToImageFilterIN3otb5ImageIiLj2EEENS1_11VectorImageIfLj2EEEE14PushFrontInputEPKS3_@Base 5.0.0
 _ZN3itk18ImageToImageFilterIN3otb5ImageIiLj2EEENS1_11VectorImageIfLj2EEEE21SetDirectionToleranceEd@Base 5.0.0
 _ZN3itk18ImageToImageFilterIN3otb5ImageIiLj2EEENS1_11VectorImageIfLj2EEEE22SetCoordinateToleranceEd@Base 5.0.0
 _ZN3itk18ImageToImageFilterIN3otb5ImageIiLj2EEENS1_11VectorImageIfLj2EEEE22VerifyInputInformationEv@Base 5.0.0
 _ZN3itk18ImageToImageFilterIN3otb5ImageIiLj2EEENS1_11VectorImageIfLj2EEEE28GenerateInputRequestedRegionEv@Base 5.0.0
 _ZN3itk18ImageToImageFilterIN3otb5ImageIiLj2EEENS1_11VectorImageIfLj2EEEE33CallCopyInputRegionToOutputRegionERNS_11ImageRegionILj2EEERKS8_@Base 5.0.0
 _ZN3itk18ImageToImageFilterIN3otb5ImageIiLj2EEENS1_11VectorImageIfLj2EEEE33CallCopyOutputRegionToInputRegionERNS_11ImageRegionILj2EEERKS8_@Base 5.0.0
 _ZN3itk18ImageToImageFilterIN3otb5ImageIiLj2EEENS1_11VectorImageIfLj2EEEE8SetInputEPKS3_@Base 5.0.0
 _ZN3itk18ImageToImageFilterIN3otb5ImageIiLj2EEENS1_11VectorImageIfLj2EEEE8SetInputEjPKS3_@Base 5.0.0
 _ZN3itk18ImageToImageFilterIN3otb5ImageIiLj2EEENS1_11VectorImageIfLj2EEEED0Ev@Base 5.0.0
 _ZN3itk18ImageToImageFilterIN3otb5ImageIiLj2EEENS1_11VectorImageIfLj2EEEED1Ev@Base 5.0.0
 _ZN3itk18ImageToImageFilterIN3otb5ImageIiLj2EEENS1_11VectorImageIfLj2EEEED2Ev@Base 5.0.0
 _ZN3itk18ImageToImageFilterIN3otb5ImageIiLj2EEENS1_11VectorImageIhLj2EEEE12PopBackInputEv@Base 5.0.0
 _ZN3itk18ImageToImageFilterIN3otb5ImageIiLj2EEENS1_11VectorImageIhLj2EEEE13PopFrontInputEv@Base 5.0.0
 _ZN3itk18ImageToImageFilterIN3otb5ImageIiLj2EEENS1_11VectorImageIhLj2EEEE13PushBackInputEPKNS_10DataObjectE@Base 5.0.0
 _ZN3itk18ImageToImageFilterIN3otb5ImageIiLj2EEENS1_11VectorImageIhLj2EEEE13PushBackInputEPKS3_@Base 5.0.0
 _ZN3itk18ImageToImageFilterIN3otb5ImageIiLj2EEENS1_11VectorImageIhLj2EEEE14PushFrontInputEPKNS_10DataObjectE@Base 5.0.0
 _ZN3itk18ImageToImageFilterIN3otb5ImageIiLj2EEENS1_11VectorImageIhLj2EEEE14PushFrontInputEPKS3_@Base 5.0.0
 _ZN3itk18ImageToImageFilterIN3otb5ImageIiLj2EEENS1_11VectorImageIhLj2EEEE21SetDirectionToleranceEd@Base 5.0.0
 _ZN3itk18ImageToImageFilterIN3otb5ImageIiLj2EEENS1_11VectorImageIhLj2EEEE22SetCoordinateToleranceEd@Base 5.0.0
 _ZN3itk18ImageToImageFilterIN3otb5ImageIiLj2EEENS1_11VectorImageIhLj2EEEE22VerifyInputInformationEv@Base 5.0.0
 _ZN3itk18ImageToImageFilterIN3otb5ImageIiLj2EEENS1_11VectorImageIhLj2EEEE28GenerateInputRequestedRegionEv@Base 5.0.0
 _ZN3itk18ImageToImageFilterIN3otb5ImageIiLj2EEENS1_11VectorImageIhLj2EEEE33CallCopyInputRegionToOutputRegionERNS_11ImageRegionILj2EEERKS8_@Base 5.0.0
 _ZN3itk18ImageToImageFilterIN3otb5ImageIiLj2EEENS1_11VectorImageIhLj2EEEE33CallCopyOutputRegionToInputRegionERNS_11ImageRegionILj2EEERKS8_@Base 5.0.0
 _ZN3itk18ImageToImageFilterIN3otb5ImageIiLj2EEENS1_11VectorImageIhLj2EEEE8SetInputEPKS3_@Base 5.0.0
 _ZN3itk18ImageToImageFilterIN3otb5ImageIiLj2EEENS1_11VectorImageIhLj2EEEE8SetInputEjPKS3_@Base 5.0.0
 _ZN3itk18ImageToImageFilterIN3otb5ImageIiLj2EEENS1_11VectorImageIhLj2EEEED0Ev@Base 5.0.0
 _ZN3itk18ImageToImageFilterIN3otb5ImageIiLj2EEENS1_11VectorImageIhLj2EEEED1Ev@Base 5.0.0
 _ZN3itk18ImageToImageFilterIN3otb5ImageIiLj2EEENS1_11VectorImageIhLj2EEEED2Ev@Base 5.0.0
 _ZN3itk18ImageToImageFilterIN3otb5ImageIiLj2EEENS1_11VectorImageIiLj2EEEE12PopBackInputEv@Base 5.0.0
 _ZN3itk18ImageToImageFilterIN3otb5ImageIiLj2EEENS1_11VectorImageIiLj2EEEE13PopFrontInputEv@Base 5.0.0
 _ZN3itk18ImageToImageFilterIN3otb5ImageIiLj2EEENS1_11VectorImageIiLj2EEEE13PushBackInputEPKNS_10DataObjectE@Base 5.0.0
 _ZN3itk18ImageToImageFilterIN3otb5ImageIiLj2EEENS1_11VectorImageIiLj2EEEE13PushBackInputEPKS3_@Base 5.0.0
 _ZN3itk18ImageToImageFilterIN3otb5ImageIiLj2EEENS1_11VectorImageIiLj2EEEE14PushFrontInputEPKNS_10DataObjectE@Base 5.0.0
 _ZN3itk18ImageToImageFilterIN3otb5ImageIiLj2EEENS1_11VectorImageIiLj2EEEE14PushFrontInputEPKS3_@Base 5.0.0
 _ZN3itk18ImageToImageFilterIN3otb5ImageIiLj2EEENS1_11VectorImageIiLj2EEEE21SetDirectionToleranceEd@Base 5.0.0
 _ZN3itk18ImageToImageFilterIN3otb5ImageIiLj2EEENS1_11VectorImageIiLj2EEEE22SetCoordinateToleranceEd@Base 5.0.0
 _ZN3itk18ImageToImageFilterIN3otb5ImageIiLj2EEENS1_11VectorImageIiLj2EEEE22VerifyInputInformationEv@Base 5.0.0
 _ZN3itk18ImageToImageFilterIN3otb5ImageIiLj2EEENS1_11VectorImageIiLj2EEEE28GenerateInputRequestedRegionEv@Base 5.0.0
 _ZN3itk18ImageToImageFilterIN3otb5ImageIiLj2EEENS1_11VectorImageIiLj2EEEE33CallCopyInputRegionToOutputRegionERNS_11ImageRegionILj2EEERKS8_@Base 5.0.0
 _ZN3itk18ImageToImageFilterIN3otb5ImageIiLj2EEENS1_11VectorImageIiLj2EEEE33CallCopyOutputRegionToInputRegionERNS_11ImageRegionILj2EEERKS8_@Base 5.0.0
 _ZN3itk18ImageToImageFilterIN3otb5ImageIiLj2EEENS1_11VectorImageIiLj2EEEE8SetInputEPKS3_@Base 5.0.0
 _ZN3itk18ImageToImageFilterIN3otb5ImageIiLj2EEENS1_11VectorImageIiLj2EEEE8SetInputEjPKS3_@Base 5.0.0
 _ZN3itk18ImageToImageFilterIN3otb5ImageIiLj2EEENS1_11VectorImageIiLj2EEEED0Ev@Base 5.0.0
 _ZN3itk18ImageToImageFilterIN3otb5ImageIiLj2EEENS1_11VectorImageIiLj2EEEED1Ev@Base 5.0.0
 _ZN3itk18ImageToImageFilterIN3otb5ImageIiLj2EEENS1_11VectorImageIiLj2EEEED2Ev@Base 5.0.0
 _ZN3itk18ImageToImageFilterIN3otb5ImageIiLj2EEENS1_11VectorImageIjLj2EEEE12PopBackInputEv@Base 5.0.0
 _ZN3itk18ImageToImageFilterIN3otb5ImageIiLj2EEENS1_11VectorImageIjLj2EEEE13PopFrontInputEv@Base 5.0.0
 _ZN3itk18ImageToImageFilterIN3otb5ImageIiLj2EEENS1_11VectorImageIjLj2EEEE13PushBackInputEPKNS_10DataObjectE@Base 5.0.0
 _ZN3itk18ImageToImageFilterIN3otb5ImageIiLj2EEENS1_11VectorImageIjLj2EEEE13PushBackInputEPKS3_@Base 5.0.0
 _ZN3itk18ImageToImageFilterIN3otb5ImageIiLj2EEENS1_11VectorImageIjLj2EEEE14PushFrontInputEPKNS_10DataObjectE@Base 5.0.0
 _ZN3itk18ImageToImageFilterIN3otb5ImageIiLj2EEENS1_11VectorImageIjLj2EEEE14PushFrontInputEPKS3_@Base 5.0.0
 _ZN3itk18ImageToImageFilterIN3otb5ImageIiLj2EEENS1_11VectorImageIjLj2EEEE21SetDirectionToleranceEd@Base 5.0.0
 _ZN3itk18ImageToImageFilterIN3otb5ImageIiLj2EEENS1_11VectorImageIjLj2EEEE22SetCoordinateToleranceEd@Base 5.0.0
 _ZN3itk18ImageToImageFilterIN3otb5ImageIiLj2EEENS1_11VectorImageIjLj2EEEE22VerifyInputInformationEv@Base 5.0.0
 _ZN3itk18ImageToImageFilterIN3otb5ImageIiLj2EEENS1_11VectorImageIjLj2EEEE28GenerateInputRequestedRegionEv@Base 5.0.0
 _ZN3itk18ImageToImageFilterIN3otb5ImageIiLj2EEENS1_11VectorImageIjLj2EEEE33CallCopyInputRegionToOutputRegionERNS_11ImageRegionILj2EEERKS8_@Base 5.0.0
 _ZN3itk18ImageToImageFilterIN3otb5ImageIiLj2EEENS1_11VectorImageIjLj2EEEE33CallCopyOutputRegionToInputRegionERNS_11ImageRegionILj2EEERKS8_@Base 5.0.0
 _ZN3itk18ImageToImageFilterIN3otb5ImageIiLj2EEENS1_11VectorImageIjLj2EEEE8SetInputEPKS3_@Base 5.0.0
 _ZN3itk18ImageToImageFilterIN3otb5ImageIiLj2EEENS1_11VectorImageIjLj2EEEE8SetInputEjPKS3_@Base 5.0.0
 _ZN3itk18ImageToImageFilterIN3otb5ImageIiLj2EEENS1_11VectorImageIjLj2EEEED0Ev@Base 5.0.0
 _ZN3itk18ImageToImageFilterIN3otb5ImageIiLj2EEENS1_11VectorImageIjLj2EEEED1Ev@Base 5.0.0
 _ZN3itk18ImageToImageFilterIN3otb5ImageIiLj2EEENS1_11VectorImageIjLj2EEEED2Ev@Base 5.0.0
 _ZN3itk18ImageToImageFilterIN3otb5ImageIiLj2EEENS1_11VectorImageIsLj2EEEE12PopBackInputEv@Base 5.0.0
 _ZN3itk18ImageToImageFilterIN3otb5ImageIiLj2EEENS1_11VectorImageIsLj2EEEE13PopFrontInputEv@Base 5.0.0
 _ZN3itk18ImageToImageFilterIN3otb5ImageIiLj2EEENS1_11VectorImageIsLj2EEEE13PushBackInputEPKNS_10DataObjectE@Base 5.0.0
 _ZN3itk18ImageToImageFilterIN3otb5ImageIiLj2EEENS1_11VectorImageIsLj2EEEE13PushBackInputEPKS3_@Base 5.0.0
 _ZN3itk18ImageToImageFilterIN3otb5ImageIiLj2EEENS1_11VectorImageIsLj2EEEE14PushFrontInputEPKNS_10DataObjectE@Base 5.0.0
 _ZN3itk18ImageToImageFilterIN3otb5ImageIiLj2EEENS1_11VectorImageIsLj2EEEE14PushFrontInputEPKS3_@Base 5.0.0
 _ZN3itk18ImageToImageFilterIN3otb5ImageIiLj2EEENS1_11VectorImageIsLj2EEEE21SetDirectionToleranceEd@Base 5.0.0
 _ZN3itk18ImageToImageFilterIN3otb5ImageIiLj2EEENS1_11VectorImageIsLj2EEEE22SetCoordinateToleranceEd@Base 5.0.0
 _ZN3itk18ImageToImageFilterIN3otb5ImageIiLj2EEENS1_11VectorImageIsLj2EEEE22VerifyInputInformationEv@Base 5.0.0
 _ZN3itk18ImageToImageFilterIN3otb5ImageIiLj2EEENS1_11VectorImageIsLj2EEEE28GenerateInputRequestedRegionEv@Base 5.0.0
 _ZN3itk18ImageToImageFilterIN3otb5ImageIiLj2EEENS1_11VectorImageIsLj2EEEE33CallCopyInputRegionToOutputRegionERNS_11ImageRegionILj2EEERKS8_@Base 5.0.0
 _ZN3itk18ImageToImageFilterIN3otb5ImageIiLj2EEENS1_11VectorImageIsLj2EEEE33CallCopyOutputRegionToInputRegionERNS_11ImageRegionILj2EEERKS8_@Base 5.0.0
 _ZN3itk18ImageToImageFilterIN3otb5ImageIiLj2EEENS1_11VectorImageIsLj2EEEE8SetInputEPKS3_@Base 5.0.0
 _ZN3itk18ImageToImageFilterIN3otb5ImageIiLj2EEENS1_11VectorImageIsLj2EEEE8SetInputEjPKS3_@Base 5.0.0
 _ZN3itk18ImageToImageFilterIN3otb5ImageIiLj2EEENS1_11VectorImageIsLj2EEEED0Ev@Base 5.0.0
 _ZN3itk18ImageToImageFilterIN3otb5ImageIiLj2EEENS1_11VectorImageIsLj2EEEED1Ev@Base 5.0.0
 _ZN3itk18ImageToImageFilterIN3otb5ImageIiLj2EEENS1_11VectorImageIsLj2EEEED2Ev@Base 5.0.0
 _ZN3itk18ImageToImageFilterIN3otb5ImageIiLj2EEENS1_11VectorImageItLj2EEEE12PopBackInputEv@Base 5.0.0
 _ZN3itk18ImageToImageFilterIN3otb5ImageIiLj2EEENS1_11VectorImageItLj2EEEE13PopFrontInputEv@Base 5.0.0
 _ZN3itk18ImageToImageFilterIN3otb5ImageIiLj2EEENS1_11VectorImageItLj2EEEE13PushBackInputEPKNS_10DataObjectE@Base 5.0.0
 _ZN3itk18ImageToImageFilterIN3otb5ImageIiLj2EEENS1_11VectorImageItLj2EEEE13PushBackInputEPKS3_@Base 5.0.0
 _ZN3itk18ImageToImageFilterIN3otb5ImageIiLj2EEENS1_11VectorImageItLj2EEEE14PushFrontInputEPKNS_10DataObjectE@Base 5.0.0
 _ZN3itk18ImageToImageFilterIN3otb5ImageIiLj2EEENS1_11VectorImageItLj2EEEE14PushFrontInputEPKS3_@Base 5.0.0
 _ZN3itk18ImageToImageFilterIN3otb5ImageIiLj2EEENS1_11VectorImageItLj2EEEE21SetDirectionToleranceEd@Base 5.0.0
 _ZN3itk18ImageToImageFilterIN3otb5ImageIiLj2EEENS1_11VectorImageItLj2EEEE22SetCoordinateToleranceEd@Base 5.0.0
 _ZN3itk18ImageToImageFilterIN3otb5ImageIiLj2EEENS1_11VectorImageItLj2EEEE22VerifyInputInformationEv@Base 5.0.0
 _ZN3itk18ImageToImageFilterIN3otb5ImageIiLj2EEENS1_11VectorImageItLj2EEEE28GenerateInputRequestedRegionEv@Base 5.0.0
 _ZN3itk18ImageToImageFilterIN3otb5ImageIiLj2EEENS1_11VectorImageItLj2EEEE33CallCopyInputRegionToOutputRegionERNS_11ImageRegionILj2EEERKS8_@Base 5.0.0
 _ZN3itk18ImageToImageFilterIN3otb5ImageIiLj2EEENS1_11VectorImageItLj2EEEE33CallCopyOutputRegionToInputRegionERNS_11ImageRegionILj2EEERKS8_@Base 5.0.0
 _ZN3itk18ImageToImageFilterIN3otb5ImageIiLj2EEENS1_11VectorImageItLj2EEEE8SetInputEPKS3_@Base 5.0.0
 _ZN3itk18ImageToImageFilterIN3otb5ImageIiLj2EEENS1_11VectorImageItLj2EEEE8SetInputEjPKS3_@Base 5.0.0
 _ZN3itk18ImageToImageFilterIN3otb5ImageIiLj2EEENS1_11VectorImageItLj2EEEED0Ev@Base 5.0.0
 _ZN3itk18ImageToImageFilterIN3otb5ImageIiLj2EEENS1_11VectorImageItLj2EEEED1Ev@Base 5.0.0
 _ZN3itk18ImageToImageFilterIN3otb5ImageIiLj2EEENS1_11VectorImageItLj2EEEED2Ev@Base 5.0.0
 _ZN3itk18ImageToImageFilterIN3otb5ImageIiLj2EEENS2_IdLj2EEEE12PopBackInputEv@Base 5.0.0
 _ZN3itk18ImageToImageFilterIN3otb5ImageIiLj2EEENS2_IdLj2EEEE13PopFrontInputEv@Base 5.0.0
 _ZN3itk18ImageToImageFilterIN3otb5ImageIiLj2EEENS2_IdLj2EEEE13PushBackInputEPKNS_10DataObjectE@Base 5.0.0
 _ZN3itk18ImageToImageFilterIN3otb5ImageIiLj2EEENS2_IdLj2EEEE13PushBackInputEPKS3_@Base 5.0.0
 _ZN3itk18ImageToImageFilterIN3otb5ImageIiLj2EEENS2_IdLj2EEEE14PushFrontInputEPKNS_10DataObjectE@Base 5.0.0
 _ZN3itk18ImageToImageFilterIN3otb5ImageIiLj2EEENS2_IdLj2EEEE14PushFrontInputEPKS3_@Base 5.0.0
 _ZN3itk18ImageToImageFilterIN3otb5ImageIiLj2EEENS2_IdLj2EEEE21SetDirectionToleranceEd@Base 5.0.0
 _ZN3itk18ImageToImageFilterIN3otb5ImageIiLj2EEENS2_IdLj2EEEE22SetCoordinateToleranceEd@Base 5.0.0
 _ZN3itk18ImageToImageFilterIN3otb5ImageIiLj2EEENS2_IdLj2EEEE22VerifyInputInformationEv@Base 5.0.0
 _ZN3itk18ImageToImageFilterIN3otb5ImageIiLj2EEENS2_IdLj2EEEE28GenerateInputRequestedRegionEv@Base 5.0.0
 _ZN3itk18ImageToImageFilterIN3otb5ImageIiLj2EEENS2_IdLj2EEEE33CallCopyInputRegionToOutputRegionERNS_11ImageRegionILj2EEERKS7_@Base 5.0.0
 _ZN3itk18ImageToImageFilterIN3otb5ImageIiLj2EEENS2_IdLj2EEEE33CallCopyOutputRegionToInputRegionERNS_11ImageRegionILj2EEERKS7_@Base 5.0.0
 _ZN3itk18ImageToImageFilterIN3otb5ImageIiLj2EEENS2_IdLj2EEEE8SetInputEPKS3_@Base 5.0.0
 _ZN3itk18ImageToImageFilterIN3otb5ImageIiLj2EEENS2_IdLj2EEEE8SetInputEjPKS3_@Base 5.0.0
 _ZN3itk18ImageToImageFilterIN3otb5ImageIiLj2EEENS2_IdLj2EEEED0Ev@Base 5.0.0
 _ZN3itk18ImageToImageFilterIN3otb5ImageIiLj2EEENS2_IdLj2EEEED1Ev@Base 5.0.0
 _ZN3itk18ImageToImageFilterIN3otb5ImageIiLj2EEENS2_IdLj2EEEED2Ev@Base 5.0.0
 _ZN3itk18ImageToImageFilterIN3otb5ImageIiLj2EEENS2_IfLj2EEEE12PopBackInputEv@Base 5.0.0
 _ZN3itk18ImageToImageFilterIN3otb5ImageIiLj2EEENS2_IfLj2EEEE13PopFrontInputEv@Base 5.0.0
 _ZN3itk18ImageToImageFilterIN3otb5ImageIiLj2EEENS2_IfLj2EEEE13PushBackInputEPKNS_10DataObjectE@Base 5.0.0
 _ZN3itk18ImageToImageFilterIN3otb5ImageIiLj2EEENS2_IfLj2EEEE13PushBackInputEPKS3_@Base 5.0.0
 _ZN3itk18ImageToImageFilterIN3otb5ImageIiLj2EEENS2_IfLj2EEEE14PushFrontInputEPKNS_10DataObjectE@Base 5.0.0
 _ZN3itk18ImageToImageFilterIN3otb5ImageIiLj2EEENS2_IfLj2EEEE14PushFrontInputEPKS3_@Base 5.0.0
 _ZN3itk18ImageToImageFilterIN3otb5ImageIiLj2EEENS2_IfLj2EEEE21SetDirectionToleranceEd@Base 5.0.0
 _ZN3itk18ImageToImageFilterIN3otb5ImageIiLj2EEENS2_IfLj2EEEE22SetCoordinateToleranceEd@Base 5.0.0
 _ZN3itk18ImageToImageFilterIN3otb5ImageIiLj2EEENS2_IfLj2EEEE22VerifyInputInformationEv@Base 5.0.0
 _ZN3itk18ImageToImageFilterIN3otb5ImageIiLj2EEENS2_IfLj2EEEE28GenerateInputRequestedRegionEv@Base 5.0.0
 _ZN3itk18ImageToImageFilterIN3otb5ImageIiLj2EEENS2_IfLj2EEEE33CallCopyInputRegionToOutputRegionERNS_11ImageRegionILj2EEERKS7_@Base 5.0.0
 _ZN3itk18ImageToImageFilterIN3otb5ImageIiLj2EEENS2_IfLj2EEEE33CallCopyOutputRegionToInputRegionERNS_11ImageRegionILj2EEERKS7_@Base 5.0.0
 _ZN3itk18ImageToImageFilterIN3otb5ImageIiLj2EEENS2_IfLj2EEEE8SetInputEPKS3_@Base 5.0.0
 _ZN3itk18ImageToImageFilterIN3otb5ImageIiLj2EEENS2_IfLj2EEEE8SetInputEjPKS3_@Base 5.0.0
 _ZN3itk18ImageToImageFilterIN3otb5ImageIiLj2EEENS2_IfLj2EEEED0Ev@Base 5.0.0
 _ZN3itk18ImageToImageFilterIN3otb5ImageIiLj2EEENS2_IfLj2EEEED1Ev@Base 5.0.0
 _ZN3itk18ImageToImageFilterIN3otb5ImageIiLj2EEENS2_IfLj2EEEED2Ev@Base 5.0.0
 _ZN3itk18ImageToImageFilterIN3otb5ImageIiLj2EEENS2_IhLj2EEEE12PopBackInputEv@Base 5.0.0
 _ZN3itk18ImageToImageFilterIN3otb5ImageIiLj2EEENS2_IhLj2EEEE13PopFrontInputEv@Base 5.0.0
 _ZN3itk18ImageToImageFilterIN3otb5ImageIiLj2EEENS2_IhLj2EEEE13PushBackInputEPKNS_10DataObjectE@Base 5.0.0
 _ZN3itk18ImageToImageFilterIN3otb5ImageIiLj2EEENS2_IhLj2EEEE13PushBackInputEPKS3_@Base 5.0.0
 _ZN3itk18ImageToImageFilterIN3otb5ImageIiLj2EEENS2_IhLj2EEEE14PushFrontInputEPKNS_10DataObjectE@Base 5.0.0
 _ZN3itk18ImageToImageFilterIN3otb5ImageIiLj2EEENS2_IhLj2EEEE14PushFrontInputEPKS3_@Base 5.0.0
 _ZN3itk18ImageToImageFilterIN3otb5ImageIiLj2EEENS2_IhLj2EEEE21SetDirectionToleranceEd@Base 5.0.0
 _ZN3itk18ImageToImageFilterIN3otb5ImageIiLj2EEENS2_IhLj2EEEE22SetCoordinateToleranceEd@Base 5.0.0
 _ZN3itk18ImageToImageFilterIN3otb5ImageIiLj2EEENS2_IhLj2EEEE22VerifyInputInformationEv@Base 5.0.0
 _ZN3itk18ImageToImageFilterIN3otb5ImageIiLj2EEENS2_IhLj2EEEE28GenerateInputRequestedRegionEv@Base 5.0.0
 _ZN3itk18ImageToImageFilterIN3otb5ImageIiLj2EEENS2_IhLj2EEEE33CallCopyInputRegionToOutputRegionERNS_11ImageRegionILj2EEERKS7_@Base 5.0.0
 _ZN3itk18ImageToImageFilterIN3otb5ImageIiLj2EEENS2_IhLj2EEEE33CallCopyOutputRegionToInputRegionERNS_11ImageRegionILj2EEERKS7_@Base 5.0.0
 _ZN3itk18ImageToImageFilterIN3otb5ImageIiLj2EEENS2_IhLj2EEEE8SetInputEPKS3_@Base 5.0.0
 _ZN3itk18ImageToImageFilterIN3otb5ImageIiLj2EEENS2_IhLj2EEEE8SetInputEjPKS3_@Base 5.0.0
 _ZN3itk18ImageToImageFilterIN3otb5ImageIiLj2EEENS2_IhLj2EEEED0Ev@Base 5.0.0
 _ZN3itk18ImageToImageFilterIN3otb5ImageIiLj2EEENS2_IhLj2EEEED1Ev@Base 5.0.0
 _ZN3itk18ImageToImageFilterIN3otb5ImageIiLj2EEENS2_IhLj2EEEED2Ev@Base 5.0.0
 _ZN3itk18ImageToImageFilterIN3otb5ImageIiLj2EEENS2_IjLj2EEEE12PopBackInputEv@Base 5.0.0
 _ZN3itk18ImageToImageFilterIN3otb5ImageIiLj2EEENS2_IjLj2EEEE13PopFrontInputEv@Base 5.0.0
 _ZN3itk18ImageToImageFilterIN3otb5ImageIiLj2EEENS2_IjLj2EEEE13PushBackInputEPKNS_10DataObjectE@Base 5.0.0
 _ZN3itk18ImageToImageFilterIN3otb5ImageIiLj2EEENS2_IjLj2EEEE13PushBackInputEPKS3_@Base 5.0.0
 _ZN3itk18ImageToImageFilterIN3otb5ImageIiLj2EEENS2_IjLj2EEEE14PushFrontInputEPKNS_10DataObjectE@Base 5.0.0
 _ZN3itk18ImageToImageFilterIN3otb5ImageIiLj2EEENS2_IjLj2EEEE14PushFrontInputEPKS3_@Base 5.0.0
 _ZN3itk18ImageToImageFilterIN3otb5ImageIiLj2EEENS2_IjLj2EEEE21SetDirectionToleranceEd@Base 5.0.0
 _ZN3itk18ImageToImageFilterIN3otb5ImageIiLj2EEENS2_IjLj2EEEE22SetCoordinateToleranceEd@Base 5.0.0
 _ZN3itk18ImageToImageFilterIN3otb5ImageIiLj2EEENS2_IjLj2EEEE22VerifyInputInformationEv@Base 5.0.0
 _ZN3itk18ImageToImageFilterIN3otb5ImageIiLj2EEENS2_IjLj2EEEE28GenerateInputRequestedRegionEv@Base 5.0.0
 _ZN3itk18ImageToImageFilterIN3otb5ImageIiLj2EEENS2_IjLj2EEEE33CallCopyInputRegionToOutputRegionERNS_11ImageRegionILj2EEERKS7_@Base 5.0.0
 _ZN3itk18ImageToImageFilterIN3otb5ImageIiLj2EEENS2_IjLj2EEEE33CallCopyOutputRegionToInputRegionERNS_11ImageRegionILj2EEERKS7_@Base 5.0.0
 _ZN3itk18ImageToImageFilterIN3otb5ImageIiLj2EEENS2_IjLj2EEEE8SetInputEPKS3_@Base 5.0.0
 _ZN3itk18ImageToImageFilterIN3otb5ImageIiLj2EEENS2_IjLj2EEEE8SetInputEjPKS3_@Base 5.0.0
 _ZN3itk18ImageToImageFilterIN3otb5ImageIiLj2EEENS2_IjLj2EEEED0Ev@Base 5.0.0
 _ZN3itk18ImageToImageFilterIN3otb5ImageIiLj2EEENS2_IjLj2EEEED1Ev@Base 5.0.0
 _ZN3itk18ImageToImageFilterIN3otb5ImageIiLj2EEENS2_IjLj2EEEED2Ev@Base 5.0.0
 _ZN3itk18ImageToImageFilterIN3otb5ImageIiLj2EEENS2_IsLj2EEEE12PopBackInputEv@Base 5.0.0
 _ZN3itk18ImageToImageFilterIN3otb5ImageIiLj2EEENS2_IsLj2EEEE13PopFrontInputEv@Base 5.0.0
 _ZN3itk18ImageToImageFilterIN3otb5ImageIiLj2EEENS2_IsLj2EEEE13PushBackInputEPKNS_10DataObjectE@Base 5.0.0
 _ZN3itk18ImageToImageFilterIN3otb5ImageIiLj2EEENS2_IsLj2EEEE13PushBackInputEPKS3_@Base 5.0.0
 _ZN3itk18ImageToImageFilterIN3otb5ImageIiLj2EEENS2_IsLj2EEEE14PushFrontInputEPKNS_10DataObjectE@Base 5.0.0
 _ZN3itk18ImageToImageFilterIN3otb5ImageIiLj2EEENS2_IsLj2EEEE14PushFrontInputEPKS3_@Base 5.0.0
 _ZN3itk18ImageToImageFilterIN3otb5ImageIiLj2EEENS2_IsLj2EEEE21SetDirectionToleranceEd@Base 5.0.0
 _ZN3itk18ImageToImageFilterIN3otb5ImageIiLj2EEENS2_IsLj2EEEE22SetCoordinateToleranceEd@Base 5.0.0
 _ZN3itk18ImageToImageFilterIN3otb5ImageIiLj2EEENS2_IsLj2EEEE22VerifyInputInformationEv@Base 5.0.0
 _ZN3itk18ImageToImageFilterIN3otb5ImageIiLj2EEENS2_IsLj2EEEE28GenerateInputRequestedRegionEv@Base 5.0.0
 _ZN3itk18ImageToImageFilterIN3otb5ImageIiLj2EEENS2_IsLj2EEEE33CallCopyInputRegionToOutputRegionERNS_11ImageRegionILj2EEERKS7_@Base 5.0.0
 _ZN3itk18ImageToImageFilterIN3otb5ImageIiLj2EEENS2_IsLj2EEEE33CallCopyOutputRegionToInputRegionERNS_11ImageRegionILj2EEERKS7_@Base 5.0.0
 _ZN3itk18ImageToImageFilterIN3otb5ImageIiLj2EEENS2_IsLj2EEEE8SetInputEPKS3_@Base 5.0.0
 _ZN3itk18ImageToImageFilterIN3otb5ImageIiLj2EEENS2_IsLj2EEEE8SetInputEjPKS3_@Base 5.0.0
 _ZN3itk18ImageToImageFilterIN3otb5ImageIiLj2EEENS2_IsLj2EEEED0Ev@Base 5.0.0
 _ZN3itk18ImageToImageFilterIN3otb5ImageIiLj2EEENS2_IsLj2EEEED1Ev@Base 5.0.0
 _ZN3itk18ImageToImageFilterIN3otb5ImageIiLj2EEENS2_IsLj2EEEED2Ev@Base 5.0.0
 _ZN3itk18ImageToImageFilterIN3otb5ImageIiLj2EEENS2_ItLj2EEEE12PopBackInputEv@Base 5.0.0
 _ZN3itk18ImageToImageFilterIN3otb5ImageIiLj2EEENS2_ItLj2EEEE13PopFrontInputEv@Base 5.0.0
 _ZN3itk18ImageToImageFilterIN3otb5ImageIiLj2EEENS2_ItLj2EEEE13PushBackInputEPKNS_10DataObjectE@Base 5.0.0
 _ZN3itk18ImageToImageFilterIN3otb5ImageIiLj2EEENS2_ItLj2EEEE13PushBackInputEPKS3_@Base 5.0.0
 _ZN3itk18ImageToImageFilterIN3otb5ImageIiLj2EEENS2_ItLj2EEEE14PushFrontInputEPKNS_10DataObjectE@Base 5.0.0
 _ZN3itk18ImageToImageFilterIN3otb5ImageIiLj2EEENS2_ItLj2EEEE14PushFrontInputEPKS3_@Base 5.0.0
 _ZN3itk18ImageToImageFilterIN3otb5ImageIiLj2EEENS2_ItLj2EEEE21SetDirectionToleranceEd@Base 5.0.0
 _ZN3itk18ImageToImageFilterIN3otb5ImageIiLj2EEENS2_ItLj2EEEE22SetCoordinateToleranceEd@Base 5.0.0
 _ZN3itk18ImageToImageFilterIN3otb5ImageIiLj2EEENS2_ItLj2EEEE22VerifyInputInformationEv@Base 5.0.0
 _ZN3itk18ImageToImageFilterIN3otb5ImageIiLj2EEENS2_ItLj2EEEE28GenerateInputRequestedRegionEv@Base 5.0.0
 _ZN3itk18ImageToImageFilterIN3otb5ImageIiLj2EEENS2_ItLj2EEEE33CallCopyInputRegionToOutputRegionERNS_11ImageRegionILj2EEERKS7_@Base 5.0.0
 _ZN3itk18ImageToImageFilterIN3otb5ImageIiLj2EEENS2_ItLj2EEEE33CallCopyOutputRegionToInputRegionERNS_11ImageRegionILj2EEERKS7_@Base 5.0.0
 _ZN3itk18ImageToImageFilterIN3otb5ImageIiLj2EEENS2_ItLj2EEEE8SetInputEPKS3_@Base 5.0.0
 _ZN3itk18ImageToImageFilterIN3otb5ImageIiLj2EEENS2_ItLj2EEEE8SetInputEjPKS3_@Base 5.0.0
 _ZN3itk18ImageToImageFilterIN3otb5ImageIiLj2EEENS2_ItLj2EEEED0Ev@Base 5.0.0
 _ZN3itk18ImageToImageFilterIN3otb5ImageIiLj2EEENS2_ItLj2EEEED1Ev@Base 5.0.0
 _ZN3itk18ImageToImageFilterIN3otb5ImageIiLj2EEENS2_ItLj2EEEED2Ev@Base 5.0.0
 _ZN3itk18ImageToImageFilterIN3otb5ImageIiLj2EEES3_E12PopBackInputEv@Base 5.0.0
 _ZN3itk18ImageToImageFilterIN3otb5ImageIiLj2EEES3_E13PopFrontInputEv@Base 5.0.0
 _ZN3itk18ImageToImageFilterIN3otb5ImageIiLj2EEES3_E13PushBackInputEPKNS_10DataObjectE@Base 5.0.0
 _ZN3itk18ImageToImageFilterIN3otb5ImageIiLj2EEES3_E13PushBackInputEPKS3_@Base 5.0.0
 _ZN3itk18ImageToImageFilterIN3otb5ImageIiLj2EEES3_E14PushFrontInputEPKNS_10DataObjectE@Base 5.0.0
 _ZN3itk18ImageToImageFilterIN3otb5ImageIiLj2EEES3_E14PushFrontInputEPKS3_@Base 5.0.0
 _ZN3itk18ImageToImageFilterIN3otb5ImageIiLj2EEES3_E21SetDirectionToleranceEd@Base 5.0.0
 _ZN3itk18ImageToImageFilterIN3otb5ImageIiLj2EEES3_E22SetCoordinateToleranceEd@Base 5.0.0
 _ZN3itk18ImageToImageFilterIN3otb5ImageIiLj2EEES3_E22VerifyInputInformationEv@Base 5.0.0
 _ZN3itk18ImageToImageFilterIN3otb5ImageIiLj2EEES3_E28GenerateInputRequestedRegionEv@Base 5.0.0
 _ZN3itk18ImageToImageFilterIN3otb5ImageIiLj2EEES3_E33CallCopyInputRegionToOutputRegionERNS_11ImageRegionILj2EEERKS6_@Base 5.0.0
 _ZN3itk18ImageToImageFilterIN3otb5ImageIiLj2EEES3_E33CallCopyOutputRegionToInputRegionERNS_11ImageRegionILj2EEERKS6_@Base 5.0.0
 _ZN3itk18ImageToImageFilterIN3otb5ImageIiLj2EEES3_E8SetInputEPKS3_@Base 5.0.0
 _ZN3itk18ImageToImageFilterIN3otb5ImageIiLj2EEES3_E8SetInputEjPKS3_@Base 5.0.0
 _ZN3itk18ImageToImageFilterIN3otb5ImageIiLj2EEES3_ED0Ev@Base 5.0.0
 _ZN3itk18ImageToImageFilterIN3otb5ImageIiLj2EEES3_ED1Ev@Base 5.0.0
 _ZN3itk18ImageToImageFilterIN3otb5ImageIiLj2EEES3_ED2Ev@Base 5.0.0
 _ZN3itk18ImageToImageFilterIN3otb5ImageIjLj2EEENS1_11VectorImageIdLj2EEEE12PopBackInputEv@Base 5.0.0
 _ZN3itk18ImageToImageFilterIN3otb5ImageIjLj2EEENS1_11VectorImageIdLj2EEEE13PopFrontInputEv@Base 5.0.0
 _ZN3itk18ImageToImageFilterIN3otb5ImageIjLj2EEENS1_11VectorImageIdLj2EEEE13PushBackInputEPKNS_10DataObjectE@Base 5.0.0
 _ZN3itk18ImageToImageFilterIN3otb5ImageIjLj2EEENS1_11VectorImageIdLj2EEEE13PushBackInputEPKS3_@Base 5.0.0
 _ZN3itk18ImageToImageFilterIN3otb5ImageIjLj2EEENS1_11VectorImageIdLj2EEEE14PushFrontInputEPKNS_10DataObjectE@Base 5.0.0
 _ZN3itk18ImageToImageFilterIN3otb5ImageIjLj2EEENS1_11VectorImageIdLj2EEEE14PushFrontInputEPKS3_@Base 5.0.0
 _ZN3itk18ImageToImageFilterIN3otb5ImageIjLj2EEENS1_11VectorImageIdLj2EEEE21SetDirectionToleranceEd@Base 5.0.0
 _ZN3itk18ImageToImageFilterIN3otb5ImageIjLj2EEENS1_11VectorImageIdLj2EEEE22SetCoordinateToleranceEd@Base 5.0.0
 _ZN3itk18ImageToImageFilterIN3otb5ImageIjLj2EEENS1_11VectorImageIdLj2EEEE22VerifyInputInformationEv@Base 5.0.0
 _ZN3itk18ImageToImageFilterIN3otb5ImageIjLj2EEENS1_11VectorImageIdLj2EEEE28GenerateInputRequestedRegionEv@Base 5.0.0
 _ZN3itk18ImageToImageFilterIN3otb5ImageIjLj2EEENS1_11VectorImageIdLj2EEEE33CallCopyInputRegionToOutputRegionERNS_11ImageRegionILj2EEERKS8_@Base 5.0.0
 _ZN3itk18ImageToImageFilterIN3otb5ImageIjLj2EEENS1_11VectorImageIdLj2EEEE33CallCopyOutputRegionToInputRegionERNS_11ImageRegionILj2EEERKS8_@Base 5.0.0
 _ZN3itk18ImageToImageFilterIN3otb5ImageIjLj2EEENS1_11VectorImageIdLj2EEEE8SetInputEPKS3_@Base 5.0.0
 _ZN3itk18ImageToImageFilterIN3otb5ImageIjLj2EEENS1_11VectorImageIdLj2EEEE8SetInputEjPKS3_@Base 5.0.0
 _ZN3itk18ImageToImageFilterIN3otb5ImageIjLj2EEENS1_11VectorImageIdLj2EEEED0Ev@Base 5.0.0
 _ZN3itk18ImageToImageFilterIN3otb5ImageIjLj2EEENS1_11VectorImageIdLj2EEEED1Ev@Base 5.0.0
 _ZN3itk18ImageToImageFilterIN3otb5ImageIjLj2EEENS1_11VectorImageIdLj2EEEED2Ev@Base 5.0.0
 _ZN3itk18ImageToImageFilterIN3otb5ImageIjLj2EEENS1_11VectorImageIfLj2EEEE12PopBackInputEv@Base 5.0.0
 _ZN3itk18ImageToImageFilterIN3otb5ImageIjLj2EEENS1_11VectorImageIfLj2EEEE13PopFrontInputEv@Base 5.0.0
 _ZN3itk18ImageToImageFilterIN3otb5ImageIjLj2EEENS1_11VectorImageIfLj2EEEE13PushBackInputEPKNS_10DataObjectE@Base 5.0.0
 _ZN3itk18ImageToImageFilterIN3otb5ImageIjLj2EEENS1_11VectorImageIfLj2EEEE13PushBackInputEPKS3_@Base 5.0.0
 _ZN3itk18ImageToImageFilterIN3otb5ImageIjLj2EEENS1_11VectorImageIfLj2EEEE14PushFrontInputEPKNS_10DataObjectE@Base 5.0.0
 _ZN3itk18ImageToImageFilterIN3otb5ImageIjLj2EEENS1_11VectorImageIfLj2EEEE14PushFrontInputEPKS3_@Base 5.0.0
 _ZN3itk18ImageToImageFilterIN3otb5ImageIjLj2EEENS1_11VectorImageIfLj2EEEE21SetDirectionToleranceEd@Base 5.0.0
 _ZN3itk18ImageToImageFilterIN3otb5ImageIjLj2EEENS1_11VectorImageIfLj2EEEE22SetCoordinateToleranceEd@Base 5.0.0
 _ZN3itk18ImageToImageFilterIN3otb5ImageIjLj2EEENS1_11VectorImageIfLj2EEEE22VerifyInputInformationEv@Base 5.0.0
 _ZN3itk18ImageToImageFilterIN3otb5ImageIjLj2EEENS1_11VectorImageIfLj2EEEE28GenerateInputRequestedRegionEv@Base 5.0.0
 _ZN3itk18ImageToImageFilterIN3otb5ImageIjLj2EEENS1_11VectorImageIfLj2EEEE33CallCopyInputRegionToOutputRegionERNS_11ImageRegionILj2EEERKS8_@Base 5.0.0
 _ZN3itk18ImageToImageFilterIN3otb5ImageIjLj2EEENS1_11VectorImageIfLj2EEEE33CallCopyOutputRegionToInputRegionERNS_11ImageRegionILj2EEERKS8_@Base 5.0.0
 _ZN3itk18ImageToImageFilterIN3otb5ImageIjLj2EEENS1_11VectorImageIfLj2EEEE8SetInputEPKS3_@Base 5.0.0
 _ZN3itk18ImageToImageFilterIN3otb5ImageIjLj2EEENS1_11VectorImageIfLj2EEEE8SetInputEjPKS3_@Base 5.0.0
 _ZN3itk18ImageToImageFilterIN3otb5ImageIjLj2EEENS1_11VectorImageIfLj2EEEED0Ev@Base 5.0.0
 _ZN3itk18ImageToImageFilterIN3otb5ImageIjLj2EEENS1_11VectorImageIfLj2EEEED1Ev@Base 5.0.0
 _ZN3itk18ImageToImageFilterIN3otb5ImageIjLj2EEENS1_11VectorImageIfLj2EEEED2Ev@Base 5.0.0
 _ZN3itk18ImageToImageFilterIN3otb5ImageIjLj2EEENS1_11VectorImageIhLj2EEEE12PopBackInputEv@Base 5.0.0
 _ZN3itk18ImageToImageFilterIN3otb5ImageIjLj2EEENS1_11VectorImageIhLj2EEEE13PopFrontInputEv@Base 5.0.0
 _ZN3itk18ImageToImageFilterIN3otb5ImageIjLj2EEENS1_11VectorImageIhLj2EEEE13PushBackInputEPKNS_10DataObjectE@Base 5.0.0
 _ZN3itk18ImageToImageFilterIN3otb5ImageIjLj2EEENS1_11VectorImageIhLj2EEEE13PushBackInputEPKS3_@Base 5.0.0
 _ZN3itk18ImageToImageFilterIN3otb5ImageIjLj2EEENS1_11VectorImageIhLj2EEEE14PushFrontInputEPKNS_10DataObjectE@Base 5.0.0
 _ZN3itk18ImageToImageFilterIN3otb5ImageIjLj2EEENS1_11VectorImageIhLj2EEEE14PushFrontInputEPKS3_@Base 5.0.0
 _ZN3itk18ImageToImageFilterIN3otb5ImageIjLj2EEENS1_11VectorImageIhLj2EEEE21SetDirectionToleranceEd@Base 5.0.0
 _ZN3itk18ImageToImageFilterIN3otb5ImageIjLj2EEENS1_11VectorImageIhLj2EEEE22SetCoordinateToleranceEd@Base 5.0.0
 _ZN3itk18ImageToImageFilterIN3otb5ImageIjLj2EEENS1_11VectorImageIhLj2EEEE22VerifyInputInformationEv@Base 5.0.0
 _ZN3itk18ImageToImageFilterIN3otb5ImageIjLj2EEENS1_11VectorImageIhLj2EEEE28GenerateInputRequestedRegionEv@Base 5.0.0
 _ZN3itk18ImageToImageFilterIN3otb5ImageIjLj2EEENS1_11VectorImageIhLj2EEEE33CallCopyInputRegionToOutputRegionERNS_11ImageRegionILj2EEERKS8_@Base 5.0.0
 _ZN3itk18ImageToImageFilterIN3otb5ImageIjLj2EEENS1_11VectorImageIhLj2EEEE33CallCopyOutputRegionToInputRegionERNS_11ImageRegionILj2EEERKS8_@Base 5.0.0
 _ZN3itk18ImageToImageFilterIN3otb5ImageIjLj2EEENS1_11VectorImageIhLj2EEEE8SetInputEPKS3_@Base 5.0.0
 _ZN3itk18ImageToImageFilterIN3otb5ImageIjLj2EEENS1_11VectorImageIhLj2EEEE8SetInputEjPKS3_@Base 5.0.0
 _ZN3itk18ImageToImageFilterIN3otb5ImageIjLj2EEENS1_11VectorImageIhLj2EEEED0Ev@Base 5.0.0
 _ZN3itk18ImageToImageFilterIN3otb5ImageIjLj2EEENS1_11VectorImageIhLj2EEEED1Ev@Base 5.0.0
 _ZN3itk18ImageToImageFilterIN3otb5ImageIjLj2EEENS1_11VectorImageIhLj2EEEED2Ev@Base 5.0.0
 _ZN3itk18ImageToImageFilterIN3otb5ImageIjLj2EEENS1_11VectorImageIiLj2EEEE12PopBackInputEv@Base 5.0.0
 _ZN3itk18ImageToImageFilterIN3otb5ImageIjLj2EEENS1_11VectorImageIiLj2EEEE13PopFrontInputEv@Base 5.0.0
 _ZN3itk18ImageToImageFilterIN3otb5ImageIjLj2EEENS1_11VectorImageIiLj2EEEE13PushBackInputEPKNS_10DataObjectE@Base 5.0.0
 _ZN3itk18ImageToImageFilterIN3otb5ImageIjLj2EEENS1_11VectorImageIiLj2EEEE13PushBackInputEPKS3_@Base 5.0.0
 _ZN3itk18ImageToImageFilterIN3otb5ImageIjLj2EEENS1_11VectorImageIiLj2EEEE14PushFrontInputEPKNS_10DataObjectE@Base 5.0.0
 _ZN3itk18ImageToImageFilterIN3otb5ImageIjLj2EEENS1_11VectorImageIiLj2EEEE14PushFrontInputEPKS3_@Base 5.0.0
 _ZN3itk18ImageToImageFilterIN3otb5ImageIjLj2EEENS1_11VectorImageIiLj2EEEE21SetDirectionToleranceEd@Base 5.0.0
 _ZN3itk18ImageToImageFilterIN3otb5ImageIjLj2EEENS1_11VectorImageIiLj2EEEE22SetCoordinateToleranceEd@Base 5.0.0
 _ZN3itk18ImageToImageFilterIN3otb5ImageIjLj2EEENS1_11VectorImageIiLj2EEEE22VerifyInputInformationEv@Base 5.0.0
 _ZN3itk18ImageToImageFilterIN3otb5ImageIjLj2EEENS1_11VectorImageIiLj2EEEE28GenerateInputRequestedRegionEv@Base 5.0.0
 _ZN3itk18ImageToImageFilterIN3otb5ImageIjLj2EEENS1_11VectorImageIiLj2EEEE33CallCopyInputRegionToOutputRegionERNS_11ImageRegionILj2EEERKS8_@Base 5.0.0
 _ZN3itk18ImageToImageFilterIN3otb5ImageIjLj2EEENS1_11VectorImageIiLj2EEEE33CallCopyOutputRegionToInputRegionERNS_11ImageRegionILj2EEERKS8_@Base 5.0.0
 _ZN3itk18ImageToImageFilterIN3otb5ImageIjLj2EEENS1_11VectorImageIiLj2EEEE8SetInputEPKS3_@Base 5.0.0
 _ZN3itk18ImageToImageFilterIN3otb5ImageIjLj2EEENS1_11VectorImageIiLj2EEEE8SetInputEjPKS3_@Base 5.0.0
 _ZN3itk18ImageToImageFilterIN3otb5ImageIjLj2EEENS1_11VectorImageIiLj2EEEED0Ev@Base 5.0.0
 _ZN3itk18ImageToImageFilterIN3otb5ImageIjLj2EEENS1_11VectorImageIiLj2EEEED1Ev@Base 5.0.0
 _ZN3itk18ImageToImageFilterIN3otb5ImageIjLj2EEENS1_11VectorImageIiLj2EEEED2Ev@Base 5.0.0
 _ZN3itk18ImageToImageFilterIN3otb5ImageIjLj2EEENS1_11VectorImageIjLj2EEEE12PopBackInputEv@Base 5.0.0
 _ZN3itk18ImageToImageFilterIN3otb5ImageIjLj2EEENS1_11VectorImageIjLj2EEEE13PopFrontInputEv@Base 5.0.0
 _ZN3itk18ImageToImageFilterIN3otb5ImageIjLj2EEENS1_11VectorImageIjLj2EEEE13PushBackInputEPKNS_10DataObjectE@Base 5.0.0
 _ZN3itk18ImageToImageFilterIN3otb5ImageIjLj2EEENS1_11VectorImageIjLj2EEEE13PushBackInputEPKS3_@Base 5.0.0
 _ZN3itk18ImageToImageFilterIN3otb5ImageIjLj2EEENS1_11VectorImageIjLj2EEEE14PushFrontInputEPKNS_10DataObjectE@Base 5.0.0
 _ZN3itk18ImageToImageFilterIN3otb5ImageIjLj2EEENS1_11VectorImageIjLj2EEEE14PushFrontInputEPKS3_@Base 5.0.0
 _ZN3itk18ImageToImageFilterIN3otb5ImageIjLj2EEENS1_11VectorImageIjLj2EEEE21SetDirectionToleranceEd@Base 5.0.0
 _ZN3itk18ImageToImageFilterIN3otb5ImageIjLj2EEENS1_11VectorImageIjLj2EEEE22SetCoordinateToleranceEd@Base 5.0.0
 _ZN3itk18ImageToImageFilterIN3otb5ImageIjLj2EEENS1_11VectorImageIjLj2EEEE22VerifyInputInformationEv@Base 5.0.0
 _ZN3itk18ImageToImageFilterIN3otb5ImageIjLj2EEENS1_11VectorImageIjLj2EEEE28GenerateInputRequestedRegionEv@Base 5.0.0
 _ZN3itk18ImageToImageFilterIN3otb5ImageIjLj2EEENS1_11VectorImageIjLj2EEEE33CallCopyInputRegionToOutputRegionERNS_11ImageRegionILj2EEERKS8_@Base 5.0.0
 _ZN3itk18ImageToImageFilterIN3otb5ImageIjLj2EEENS1_11VectorImageIjLj2EEEE33CallCopyOutputRegionToInputRegionERNS_11ImageRegionILj2EEERKS8_@Base 5.0.0
 _ZN3itk18ImageToImageFilterIN3otb5ImageIjLj2EEENS1_11VectorImageIjLj2EEEE8SetInputEPKS3_@Base 5.0.0
 _ZN3itk18ImageToImageFilterIN3otb5ImageIjLj2EEENS1_11VectorImageIjLj2EEEE8SetInputEjPKS3_@Base 5.0.0
 _ZN3itk18ImageToImageFilterIN3otb5ImageIjLj2EEENS1_11VectorImageIjLj2EEEED0Ev@Base 5.0.0
 _ZN3itk18ImageToImageFilterIN3otb5ImageIjLj2EEENS1_11VectorImageIjLj2EEEED1Ev@Base 5.0.0
 _ZN3itk18ImageToImageFilterIN3otb5ImageIjLj2EEENS1_11VectorImageIjLj2EEEED2Ev@Base 5.0.0
 _ZN3itk18ImageToImageFilterIN3otb5ImageIjLj2EEENS1_11VectorImageIsLj2EEEE12PopBackInputEv@Base 5.0.0
 _ZN3itk18ImageToImageFilterIN3otb5ImageIjLj2EEENS1_11VectorImageIsLj2EEEE13PopFrontInputEv@Base 5.0.0
 _ZN3itk18ImageToImageFilterIN3otb5ImageIjLj2EEENS1_11VectorImageIsLj2EEEE13PushBackInputEPKNS_10DataObjectE@Base 5.0.0
 _ZN3itk18ImageToImageFilterIN3otb5ImageIjLj2EEENS1_11VectorImageIsLj2EEEE13PushBackInputEPKS3_@Base 5.0.0
 _ZN3itk18ImageToImageFilterIN3otb5ImageIjLj2EEENS1_11VectorImageIsLj2EEEE14PushFrontInputEPKNS_10DataObjectE@Base 5.0.0
 _ZN3itk18ImageToImageFilterIN3otb5ImageIjLj2EEENS1_11VectorImageIsLj2EEEE14PushFrontInputEPKS3_@Base 5.0.0
 _ZN3itk18ImageToImageFilterIN3otb5ImageIjLj2EEENS1_11VectorImageIsLj2EEEE21SetDirectionToleranceEd@Base 5.0.0
 _ZN3itk18ImageToImageFilterIN3otb5ImageIjLj2EEENS1_11VectorImageIsLj2EEEE22SetCoordinateToleranceEd@Base 5.0.0
 _ZN3itk18ImageToImageFilterIN3otb5ImageIjLj2EEENS1_11VectorImageIsLj2EEEE22VerifyInputInformationEv@Base 5.0.0
 _ZN3itk18ImageToImageFilterIN3otb5ImageIjLj2EEENS1_11VectorImageIsLj2EEEE28GenerateInputRequestedRegionEv@Base 5.0.0
 _ZN3itk18ImageToImageFilterIN3otb5ImageIjLj2EEENS1_11VectorImageIsLj2EEEE33CallCopyInputRegionToOutputRegionERNS_11ImageRegionILj2EEERKS8_@Base 5.0.0
 _ZN3itk18ImageToImageFilterIN3otb5ImageIjLj2EEENS1_11VectorImageIsLj2EEEE33CallCopyOutputRegionToInputRegionERNS_11ImageRegionILj2EEERKS8_@Base 5.0.0
 _ZN3itk18ImageToImageFilterIN3otb5ImageIjLj2EEENS1_11VectorImageIsLj2EEEE8SetInputEPKS3_@Base 5.0.0
 _ZN3itk18ImageToImageFilterIN3otb5ImageIjLj2EEENS1_11VectorImageIsLj2EEEE8SetInputEjPKS3_@Base 5.0.0
 _ZN3itk18ImageToImageFilterIN3otb5ImageIjLj2EEENS1_11VectorImageIsLj2EEEED0Ev@Base 5.0.0
 _ZN3itk18ImageToImageFilterIN3otb5ImageIjLj2EEENS1_11VectorImageIsLj2EEEED1Ev@Base 5.0.0
 _ZN3itk18ImageToImageFilterIN3otb5ImageIjLj2EEENS1_11VectorImageIsLj2EEEED2Ev@Base 5.0.0
 _ZN3itk18ImageToImageFilterIN3otb5ImageIjLj2EEENS1_11VectorImageItLj2EEEE12PopBackInputEv@Base 5.0.0
 _ZN3itk18ImageToImageFilterIN3otb5ImageIjLj2EEENS1_11VectorImageItLj2EEEE13PopFrontInputEv@Base 5.0.0
 _ZN3itk18ImageToImageFilterIN3otb5ImageIjLj2EEENS1_11VectorImageItLj2EEEE13PushBackInputEPKNS_10DataObjectE@Base 5.0.0
 _ZN3itk18ImageToImageFilterIN3otb5ImageIjLj2EEENS1_11VectorImageItLj2EEEE13PushBackInputEPKS3_@Base 5.0.0
 _ZN3itk18ImageToImageFilterIN3otb5ImageIjLj2EEENS1_11VectorImageItLj2EEEE14PushFrontInputEPKNS_10DataObjectE@Base 5.0.0
 _ZN3itk18ImageToImageFilterIN3otb5ImageIjLj2EEENS1_11VectorImageItLj2EEEE14PushFrontInputEPKS3_@Base 5.0.0
 _ZN3itk18ImageToImageFilterIN3otb5ImageIjLj2EEENS1_11VectorImageItLj2EEEE21SetDirectionToleranceEd@Base 5.0.0
 _ZN3itk18ImageToImageFilterIN3otb5ImageIjLj2EEENS1_11VectorImageItLj2EEEE22SetCoordinateToleranceEd@Base 5.0.0
 _ZN3itk18ImageToImageFilterIN3otb5ImageIjLj2EEENS1_11VectorImageItLj2EEEE22VerifyInputInformationEv@Base 5.0.0
 _ZN3itk18ImageToImageFilterIN3otb5ImageIjLj2EEENS1_11VectorImageItLj2EEEE28GenerateInputRequestedRegionEv@Base 5.0.0
 _ZN3itk18ImageToImageFilterIN3otb5ImageIjLj2EEENS1_11VectorImageItLj2EEEE33CallCopyInputRegionToOutputRegionERNS_11ImageRegionILj2EEERKS8_@Base 5.0.0
 _ZN3itk18ImageToImageFilterIN3otb5ImageIjLj2EEENS1_11VectorImageItLj2EEEE33CallCopyOutputRegionToInputRegionERNS_11ImageRegionILj2EEERKS8_@Base 5.0.0
 _ZN3itk18ImageToImageFilterIN3otb5ImageIjLj2EEENS1_11VectorImageItLj2EEEE8SetInputEPKS3_@Base 5.0.0
 _ZN3itk18ImageToImageFilterIN3otb5ImageIjLj2EEENS1_11VectorImageItLj2EEEE8SetInputEjPKS3_@Base 5.0.0
 _ZN3itk18ImageToImageFilterIN3otb5ImageIjLj2EEENS1_11VectorImageItLj2EEEED0Ev@Base 5.0.0
 _ZN3itk18ImageToImageFilterIN3otb5ImageIjLj2EEENS1_11VectorImageItLj2EEEED1Ev@Base 5.0.0
 _ZN3itk18ImageToImageFilterIN3otb5ImageIjLj2EEENS1_11VectorImageItLj2EEEED2Ev@Base 5.0.0
 _ZN3itk18ImageToImageFilterIN3otb5ImageIjLj2EEENS2_IdLj2EEEE12PopBackInputEv@Base 5.0.0
 _ZN3itk18ImageToImageFilterIN3otb5ImageIjLj2EEENS2_IdLj2EEEE13PopFrontInputEv@Base 5.0.0
 _ZN3itk18ImageToImageFilterIN3otb5ImageIjLj2EEENS2_IdLj2EEEE13PushBackInputEPKNS_10DataObjectE@Base 5.0.0
 _ZN3itk18ImageToImageFilterIN3otb5ImageIjLj2EEENS2_IdLj2EEEE13PushBackInputEPKS3_@Base 5.0.0
 _ZN3itk18ImageToImageFilterIN3otb5ImageIjLj2EEENS2_IdLj2EEEE14PushFrontInputEPKNS_10DataObjectE@Base 5.0.0
 _ZN3itk18ImageToImageFilterIN3otb5ImageIjLj2EEENS2_IdLj2EEEE14PushFrontInputEPKS3_@Base 5.0.0
 _ZN3itk18ImageToImageFilterIN3otb5ImageIjLj2EEENS2_IdLj2EEEE21SetDirectionToleranceEd@Base 5.0.0
 _ZN3itk18ImageToImageFilterIN3otb5ImageIjLj2EEENS2_IdLj2EEEE22SetCoordinateToleranceEd@Base 5.0.0
 _ZN3itk18ImageToImageFilterIN3otb5ImageIjLj2EEENS2_IdLj2EEEE22VerifyInputInformationEv@Base 5.0.0
 _ZN3itk18ImageToImageFilterIN3otb5ImageIjLj2EEENS2_IdLj2EEEE28GenerateInputRequestedRegionEv@Base 5.0.0
 _ZN3itk18ImageToImageFilterIN3otb5ImageIjLj2EEENS2_IdLj2EEEE33CallCopyInputRegionToOutputRegionERNS_11ImageRegionILj2EEERKS7_@Base 5.0.0
 _ZN3itk18ImageToImageFilterIN3otb5ImageIjLj2EEENS2_IdLj2EEEE33CallCopyOutputRegionToInputRegionERNS_11ImageRegionILj2EEERKS7_@Base 5.0.0
 _ZN3itk18ImageToImageFilterIN3otb5ImageIjLj2EEENS2_IdLj2EEEE8SetInputEPKS3_@Base 5.0.0
 _ZN3itk18ImageToImageFilterIN3otb5ImageIjLj2EEENS2_IdLj2EEEE8SetInputEjPKS3_@Base 5.0.0
 _ZN3itk18ImageToImageFilterIN3otb5ImageIjLj2EEENS2_IdLj2EEEED0Ev@Base 5.0.0
 _ZN3itk18ImageToImageFilterIN3otb5ImageIjLj2EEENS2_IdLj2EEEED1Ev@Base 5.0.0
 _ZN3itk18ImageToImageFilterIN3otb5ImageIjLj2EEENS2_IdLj2EEEED2Ev@Base 5.0.0
 _ZN3itk18ImageToImageFilterIN3otb5ImageIjLj2EEENS2_IfLj2EEEE12PopBackInputEv@Base 5.0.0
 _ZN3itk18ImageToImageFilterIN3otb5ImageIjLj2EEENS2_IfLj2EEEE13PopFrontInputEv@Base 5.0.0
 _ZN3itk18ImageToImageFilterIN3otb5ImageIjLj2EEENS2_IfLj2EEEE13PushBackInputEPKNS_10DataObjectE@Base 5.0.0
 _ZN3itk18ImageToImageFilterIN3otb5ImageIjLj2EEENS2_IfLj2EEEE13PushBackInputEPKS3_@Base 5.0.0
 _ZN3itk18ImageToImageFilterIN3otb5ImageIjLj2EEENS2_IfLj2EEEE14PushFrontInputEPKNS_10DataObjectE@Base 5.0.0
 _ZN3itk18ImageToImageFilterIN3otb5ImageIjLj2EEENS2_IfLj2EEEE14PushFrontInputEPKS3_@Base 5.0.0
 _ZN3itk18ImageToImageFilterIN3otb5ImageIjLj2EEENS2_IfLj2EEEE21SetDirectionToleranceEd@Base 5.0.0
 _ZN3itk18ImageToImageFilterIN3otb5ImageIjLj2EEENS2_IfLj2EEEE22SetCoordinateToleranceEd@Base 5.0.0
 _ZN3itk18ImageToImageFilterIN3otb5ImageIjLj2EEENS2_IfLj2EEEE22VerifyInputInformationEv@Base 5.0.0
 _ZN3itk18ImageToImageFilterIN3otb5ImageIjLj2EEENS2_IfLj2EEEE28GenerateInputRequestedRegionEv@Base 5.0.0
 _ZN3itk18ImageToImageFilterIN3otb5ImageIjLj2EEENS2_IfLj2EEEE33CallCopyInputRegionToOutputRegionERNS_11ImageRegionILj2EEERKS7_@Base 5.0.0
 _ZN3itk18ImageToImageFilterIN3otb5ImageIjLj2EEENS2_IfLj2EEEE33CallCopyOutputRegionToInputRegionERNS_11ImageRegionILj2EEERKS7_@Base 5.0.0
 _ZN3itk18ImageToImageFilterIN3otb5ImageIjLj2EEENS2_IfLj2EEEE8SetInputEPKS3_@Base 5.0.0
 _ZN3itk18ImageToImageFilterIN3otb5ImageIjLj2EEENS2_IfLj2EEEE8SetInputEjPKS3_@Base 5.0.0
 _ZN3itk18ImageToImageFilterIN3otb5ImageIjLj2EEENS2_IfLj2EEEED0Ev@Base 5.0.0
 _ZN3itk18ImageToImageFilterIN3otb5ImageIjLj2EEENS2_IfLj2EEEED1Ev@Base 5.0.0
 _ZN3itk18ImageToImageFilterIN3otb5ImageIjLj2EEENS2_IfLj2EEEED2Ev@Base 5.0.0
 _ZN3itk18ImageToImageFilterIN3otb5ImageIjLj2EEENS2_IhLj2EEEE12PopBackInputEv@Base 5.0.0
 _ZN3itk18ImageToImageFilterIN3otb5ImageIjLj2EEENS2_IhLj2EEEE13PopFrontInputEv@Base 5.0.0
 _ZN3itk18ImageToImageFilterIN3otb5ImageIjLj2EEENS2_IhLj2EEEE13PushBackInputEPKNS_10DataObjectE@Base 5.0.0
 _ZN3itk18ImageToImageFilterIN3otb5ImageIjLj2EEENS2_IhLj2EEEE13PushBackInputEPKS3_@Base 5.0.0
 _ZN3itk18ImageToImageFilterIN3otb5ImageIjLj2EEENS2_IhLj2EEEE14PushFrontInputEPKNS_10DataObjectE@Base 5.0.0
 _ZN3itk18ImageToImageFilterIN3otb5ImageIjLj2EEENS2_IhLj2EEEE14PushFrontInputEPKS3_@Base 5.0.0
 _ZN3itk18ImageToImageFilterIN3otb5ImageIjLj2EEENS2_IhLj2EEEE21SetDirectionToleranceEd@Base 5.0.0
 _ZN3itk18ImageToImageFilterIN3otb5ImageIjLj2EEENS2_IhLj2EEEE22SetCoordinateToleranceEd@Base 5.0.0
 _ZN3itk18ImageToImageFilterIN3otb5ImageIjLj2EEENS2_IhLj2EEEE22VerifyInputInformationEv@Base 5.0.0
 _ZN3itk18ImageToImageFilterIN3otb5ImageIjLj2EEENS2_IhLj2EEEE28GenerateInputRequestedRegionEv@Base 5.0.0
 _ZN3itk18ImageToImageFilterIN3otb5ImageIjLj2EEENS2_IhLj2EEEE33CallCopyInputRegionToOutputRegionERNS_11ImageRegionILj2EEERKS7_@Base 5.0.0
 _ZN3itk18ImageToImageFilterIN3otb5ImageIjLj2EEENS2_IhLj2EEEE33CallCopyOutputRegionToInputRegionERNS_11ImageRegionILj2EEERKS7_@Base 5.0.0
 _ZN3itk18ImageToImageFilterIN3otb5ImageIjLj2EEENS2_IhLj2EEEE8SetInputEPKS3_@Base 5.0.0
 _ZN3itk18ImageToImageFilterIN3otb5ImageIjLj2EEENS2_IhLj2EEEE8SetInputEjPKS3_@Base 5.0.0
 _ZN3itk18ImageToImageFilterIN3otb5ImageIjLj2EEENS2_IhLj2EEEED0Ev@Base 5.0.0
 _ZN3itk18ImageToImageFilterIN3otb5ImageIjLj2EEENS2_IhLj2EEEED1Ev@Base 5.0.0
 _ZN3itk18ImageToImageFilterIN3otb5ImageIjLj2EEENS2_IhLj2EEEED2Ev@Base 5.0.0
 _ZN3itk18ImageToImageFilterIN3otb5ImageIjLj2EEENS2_IiLj2EEEE12PopBackInputEv@Base 5.0.0
 _ZN3itk18ImageToImageFilterIN3otb5ImageIjLj2EEENS2_IiLj2EEEE13PopFrontInputEv@Base 5.0.0
 _ZN3itk18ImageToImageFilterIN3otb5ImageIjLj2EEENS2_IiLj2EEEE13PushBackInputEPKNS_10DataObjectE@Base 5.0.0
 _ZN3itk18ImageToImageFilterIN3otb5ImageIjLj2EEENS2_IiLj2EEEE13PushBackInputEPKS3_@Base 5.0.0
 _ZN3itk18ImageToImageFilterIN3otb5ImageIjLj2EEENS2_IiLj2EEEE14PushFrontInputEPKNS_10DataObjectE@Base 5.0.0
 _ZN3itk18ImageToImageFilterIN3otb5ImageIjLj2EEENS2_IiLj2EEEE14PushFrontInputEPKS3_@Base 5.0.0
 _ZN3itk18ImageToImageFilterIN3otb5ImageIjLj2EEENS2_IiLj2EEEE21SetDirectionToleranceEd@Base 5.0.0
 _ZN3itk18ImageToImageFilterIN3otb5ImageIjLj2EEENS2_IiLj2EEEE22SetCoordinateToleranceEd@Base 5.0.0
 _ZN3itk18ImageToImageFilterIN3otb5ImageIjLj2EEENS2_IiLj2EEEE22VerifyInputInformationEv@Base 5.0.0
 _ZN3itk18ImageToImageFilterIN3otb5ImageIjLj2EEENS2_IiLj2EEEE28GenerateInputRequestedRegionEv@Base 5.0.0
 _ZN3itk18ImageToImageFilterIN3otb5ImageIjLj2EEENS2_IiLj2EEEE33CallCopyInputRegionToOutputRegionERNS_11ImageRegionILj2EEERKS7_@Base 5.0.0
 _ZN3itk18ImageToImageFilterIN3otb5ImageIjLj2EEENS2_IiLj2EEEE33CallCopyOutputRegionToInputRegionERNS_11ImageRegionILj2EEERKS7_@Base 5.0.0
 _ZN3itk18ImageToImageFilterIN3otb5ImageIjLj2EEENS2_IiLj2EEEE8SetInputEPKS3_@Base 5.0.0
 _ZN3itk18ImageToImageFilterIN3otb5ImageIjLj2EEENS2_IiLj2EEEE8SetInputEjPKS3_@Base 5.0.0
 _ZN3itk18ImageToImageFilterIN3otb5ImageIjLj2EEENS2_IiLj2EEEED0Ev@Base 5.0.0
 _ZN3itk18ImageToImageFilterIN3otb5ImageIjLj2EEENS2_IiLj2EEEED1Ev@Base 5.0.0
 _ZN3itk18ImageToImageFilterIN3otb5ImageIjLj2EEENS2_IiLj2EEEED2Ev@Base 5.0.0
 _ZN3itk18ImageToImageFilterIN3otb5ImageIjLj2EEENS2_IsLj2EEEE12PopBackInputEv@Base 5.0.0
 _ZN3itk18ImageToImageFilterIN3otb5ImageIjLj2EEENS2_IsLj2EEEE13PopFrontInputEv@Base 5.0.0
 _ZN3itk18ImageToImageFilterIN3otb5ImageIjLj2EEENS2_IsLj2EEEE13PushBackInputEPKNS_10DataObjectE@Base 5.0.0
 _ZN3itk18ImageToImageFilterIN3otb5ImageIjLj2EEENS2_IsLj2EEEE13PushBackInputEPKS3_@Base 5.0.0
 _ZN3itk18ImageToImageFilterIN3otb5ImageIjLj2EEENS2_IsLj2EEEE14PushFrontInputEPKNS_10DataObjectE@Base 5.0.0
 _ZN3itk18ImageToImageFilterIN3otb5ImageIjLj2EEENS2_IsLj2EEEE14PushFrontInputEPKS3_@Base 5.0.0
 _ZN3itk18ImageToImageFilterIN3otb5ImageIjLj2EEENS2_IsLj2EEEE21SetDirectionToleranceEd@Base 5.0.0
 _ZN3itk18ImageToImageFilterIN3otb5ImageIjLj2EEENS2_IsLj2EEEE22SetCoordinateToleranceEd@Base 5.0.0
 _ZN3itk18ImageToImageFilterIN3otb5ImageIjLj2EEENS2_IsLj2EEEE22VerifyInputInformationEv@Base 5.0.0
 _ZN3itk18ImageToImageFilterIN3otb5ImageIjLj2EEENS2_IsLj2EEEE28GenerateInputRequestedRegionEv@Base 5.0.0
 _ZN3itk18ImageToImageFilterIN3otb5ImageIjLj2EEENS2_IsLj2EEEE33CallCopyInputRegionToOutputRegionERNS_11ImageRegionILj2EEERKS7_@Base 5.0.0
 _ZN3itk18ImageToImageFilterIN3otb5ImageIjLj2EEENS2_IsLj2EEEE33CallCopyOutputRegionToInputRegionERNS_11ImageRegionILj2EEERKS7_@Base 5.0.0
 _ZN3itk18ImageToImageFilterIN3otb5ImageIjLj2EEENS2_IsLj2EEEE8SetInputEPKS3_@Base 5.0.0
 _ZN3itk18ImageToImageFilterIN3otb5ImageIjLj2EEENS2_IsLj2EEEE8SetInputEjPKS3_@Base 5.0.0
 _ZN3itk18ImageToImageFilterIN3otb5ImageIjLj2EEENS2_IsLj2EEEED0Ev@Base 5.0.0
 _ZN3itk18ImageToImageFilterIN3otb5ImageIjLj2EEENS2_IsLj2EEEED1Ev@Base 5.0.0
 _ZN3itk18ImageToImageFilterIN3otb5ImageIjLj2EEENS2_IsLj2EEEED2Ev@Base 5.0.0
 _ZN3itk18ImageToImageFilterIN3otb5ImageIjLj2EEENS2_ItLj2EEEE12PopBackInputEv@Base 5.0.0
 _ZN3itk18ImageToImageFilterIN3otb5ImageIjLj2EEENS2_ItLj2EEEE13PopFrontInputEv@Base 5.0.0
 _ZN3itk18ImageToImageFilterIN3otb5ImageIjLj2EEENS2_ItLj2EEEE13PushBackInputEPKNS_10DataObjectE@Base 5.0.0
 _ZN3itk18ImageToImageFilterIN3otb5ImageIjLj2EEENS2_ItLj2EEEE13PushBackInputEPKS3_@Base 5.0.0
 _ZN3itk18ImageToImageFilterIN3otb5ImageIjLj2EEENS2_ItLj2EEEE14PushFrontInputEPKNS_10DataObjectE@Base 5.0.0
 _ZN3itk18ImageToImageFilterIN3otb5ImageIjLj2EEENS2_ItLj2EEEE14PushFrontInputEPKS3_@Base 5.0.0
 _ZN3itk18ImageToImageFilterIN3otb5ImageIjLj2EEENS2_ItLj2EEEE21SetDirectionToleranceEd@Base 5.0.0
 _ZN3itk18ImageToImageFilterIN3otb5ImageIjLj2EEENS2_ItLj2EEEE22SetCoordinateToleranceEd@Base 5.0.0
 _ZN3itk18ImageToImageFilterIN3otb5ImageIjLj2EEENS2_ItLj2EEEE22VerifyInputInformationEv@Base 5.0.0
 _ZN3itk18ImageToImageFilterIN3otb5ImageIjLj2EEENS2_ItLj2EEEE28GenerateInputRequestedRegionEv@Base 5.0.0
 _ZN3itk18ImageToImageFilterIN3otb5ImageIjLj2EEENS2_ItLj2EEEE33CallCopyInputRegionToOutputRegionERNS_11ImageRegionILj2EEERKS7_@Base 5.0.0
 _ZN3itk18ImageToImageFilterIN3otb5ImageIjLj2EEENS2_ItLj2EEEE33CallCopyOutputRegionToInputRegionERNS_11ImageRegionILj2EEERKS7_@Base 5.0.0
 _ZN3itk18ImageToImageFilterIN3otb5ImageIjLj2EEENS2_ItLj2EEEE8SetInputEPKS3_@Base 5.0.0
 _ZN3itk18ImageToImageFilterIN3otb5ImageIjLj2EEENS2_ItLj2EEEE8SetInputEjPKS3_@Base 5.0.0
 _ZN3itk18ImageToImageFilterIN3otb5ImageIjLj2EEENS2_ItLj2EEEED0Ev@Base 5.0.0
 _ZN3itk18ImageToImageFilterIN3otb5ImageIjLj2EEENS2_ItLj2EEEED1Ev@Base 5.0.0
 _ZN3itk18ImageToImageFilterIN3otb5ImageIjLj2EEENS2_ItLj2EEEED2Ev@Base 5.0.0
 _ZN3itk18ImageToImageFilterIN3otb5ImageIjLj2EEES3_E12PopBackInputEv@Base 5.0.0
 _ZN3itk18ImageToImageFilterIN3otb5ImageIjLj2EEES3_E13PopFrontInputEv@Base 5.0.0
 _ZN3itk18ImageToImageFilterIN3otb5ImageIjLj2EEES3_E13PushBackInputEPKNS_10DataObjectE@Base 5.0.0
 _ZN3itk18ImageToImageFilterIN3otb5ImageIjLj2EEES3_E13PushBackInputEPKS3_@Base 5.0.0
 _ZN3itk18ImageToImageFilterIN3otb5ImageIjLj2EEES3_E14PushFrontInputEPKNS_10DataObjectE@Base 5.0.0
 _ZN3itk18ImageToImageFilterIN3otb5ImageIjLj2EEES3_E14PushFrontInputEPKS3_@Base 5.0.0
 _ZN3itk18ImageToImageFilterIN3otb5ImageIjLj2EEES3_E21SetDirectionToleranceEd@Base 5.0.0
 _ZN3itk18ImageToImageFilterIN3otb5ImageIjLj2EEES3_E22SetCoordinateToleranceEd@Base 5.0.0
 _ZN3itk18ImageToImageFilterIN3otb5ImageIjLj2EEES3_E22VerifyInputInformationEv@Base 5.0.0
 _ZN3itk18ImageToImageFilterIN3otb5ImageIjLj2EEES3_E28GenerateInputRequestedRegionEv@Base 5.0.0
 _ZN3itk18ImageToImageFilterIN3otb5ImageIjLj2EEES3_E33CallCopyInputRegionToOutputRegionERNS_11ImageRegionILj2EEERKS6_@Base 5.0.0
 _ZN3itk18ImageToImageFilterIN3otb5ImageIjLj2EEES3_E33CallCopyOutputRegionToInputRegionERNS_11ImageRegionILj2EEERKS6_@Base 5.0.0
 _ZN3itk18ImageToImageFilterIN3otb5ImageIjLj2EEES3_E8SetInputEPKS3_@Base 5.0.0
 _ZN3itk18ImageToImageFilterIN3otb5ImageIjLj2EEES3_E8SetInputEjPKS3_@Base 5.0.0
 _ZN3itk18ImageToImageFilterIN3otb5ImageIjLj2EEES3_ED0Ev@Base 5.0.0
 _ZN3itk18ImageToImageFilterIN3otb5ImageIjLj2EEES3_ED1Ev@Base 5.0.0
 _ZN3itk18ImageToImageFilterIN3otb5ImageIjLj2EEES3_ED2Ev@Base 5.0.0
 _ZN3itk18ImageToImageFilterIN3otb5ImageIsLj2EEENS1_11VectorImageIdLj2EEEE12PopBackInputEv@Base 5.0.0
 _ZN3itk18ImageToImageFilterIN3otb5ImageIsLj2EEENS1_11VectorImageIdLj2EEEE13PopFrontInputEv@Base 5.0.0
 _ZN3itk18ImageToImageFilterIN3otb5ImageIsLj2EEENS1_11VectorImageIdLj2EEEE13PushBackInputEPKNS_10DataObjectE@Base 5.0.0
 _ZN3itk18ImageToImageFilterIN3otb5ImageIsLj2EEENS1_11VectorImageIdLj2EEEE13PushBackInputEPKS3_@Base 5.0.0
 _ZN3itk18ImageToImageFilterIN3otb5ImageIsLj2EEENS1_11VectorImageIdLj2EEEE14PushFrontInputEPKNS_10DataObjectE@Base 5.0.0
 _ZN3itk18ImageToImageFilterIN3otb5ImageIsLj2EEENS1_11VectorImageIdLj2EEEE14PushFrontInputEPKS3_@Base 5.0.0
 _ZN3itk18ImageToImageFilterIN3otb5ImageIsLj2EEENS1_11VectorImageIdLj2EEEE21SetDirectionToleranceEd@Base 5.0.0
 _ZN3itk18ImageToImageFilterIN3otb5ImageIsLj2EEENS1_11VectorImageIdLj2EEEE22SetCoordinateToleranceEd@Base 5.0.0
 _ZN3itk18ImageToImageFilterIN3otb5ImageIsLj2EEENS1_11VectorImageIdLj2EEEE22VerifyInputInformationEv@Base 5.0.0
 _ZN3itk18ImageToImageFilterIN3otb5ImageIsLj2EEENS1_11VectorImageIdLj2EEEE28GenerateInputRequestedRegionEv@Base 5.0.0
 _ZN3itk18ImageToImageFilterIN3otb5ImageIsLj2EEENS1_11VectorImageIdLj2EEEE33CallCopyInputRegionToOutputRegionERNS_11ImageRegionILj2EEERKS8_@Base 5.0.0
 _ZN3itk18ImageToImageFilterIN3otb5ImageIsLj2EEENS1_11VectorImageIdLj2EEEE33CallCopyOutputRegionToInputRegionERNS_11ImageRegionILj2EEERKS8_@Base 5.0.0
 _ZN3itk18ImageToImageFilterIN3otb5ImageIsLj2EEENS1_11VectorImageIdLj2EEEE8SetInputEPKS3_@Base 5.0.0
 _ZN3itk18ImageToImageFilterIN3otb5ImageIsLj2EEENS1_11VectorImageIdLj2EEEE8SetInputEjPKS3_@Base 5.0.0
 _ZN3itk18ImageToImageFilterIN3otb5ImageIsLj2EEENS1_11VectorImageIdLj2EEEED0Ev@Base 5.0.0
 _ZN3itk18ImageToImageFilterIN3otb5ImageIsLj2EEENS1_11VectorImageIdLj2EEEED1Ev@Base 5.0.0
 _ZN3itk18ImageToImageFilterIN3otb5ImageIsLj2EEENS1_11VectorImageIdLj2EEEED2Ev@Base 5.0.0
 _ZN3itk18ImageToImageFilterIN3otb5ImageIsLj2EEENS1_11VectorImageIfLj2EEEE12PopBackInputEv@Base 5.0.0
 _ZN3itk18ImageToImageFilterIN3otb5ImageIsLj2EEENS1_11VectorImageIfLj2EEEE13PopFrontInputEv@Base 5.0.0
 _ZN3itk18ImageToImageFilterIN3otb5ImageIsLj2EEENS1_11VectorImageIfLj2EEEE13PushBackInputEPKNS_10DataObjectE@Base 5.0.0
 _ZN3itk18ImageToImageFilterIN3otb5ImageIsLj2EEENS1_11VectorImageIfLj2EEEE13PushBackInputEPKS3_@Base 5.0.0
 _ZN3itk18ImageToImageFilterIN3otb5ImageIsLj2EEENS1_11VectorImageIfLj2EEEE14PushFrontInputEPKNS_10DataObjectE@Base 5.0.0
 _ZN3itk18ImageToImageFilterIN3otb5ImageIsLj2EEENS1_11VectorImageIfLj2EEEE14PushFrontInputEPKS3_@Base 5.0.0
 _ZN3itk18ImageToImageFilterIN3otb5ImageIsLj2EEENS1_11VectorImageIfLj2EEEE21SetDirectionToleranceEd@Base 5.0.0
 _ZN3itk18ImageToImageFilterIN3otb5ImageIsLj2EEENS1_11VectorImageIfLj2EEEE22SetCoordinateToleranceEd@Base 5.0.0
 _ZN3itk18ImageToImageFilterIN3otb5ImageIsLj2EEENS1_11VectorImageIfLj2EEEE22VerifyInputInformationEv@Base 5.0.0
 _ZN3itk18ImageToImageFilterIN3otb5ImageIsLj2EEENS1_11VectorImageIfLj2EEEE28GenerateInputRequestedRegionEv@Base 5.0.0
 _ZN3itk18ImageToImageFilterIN3otb5ImageIsLj2EEENS1_11VectorImageIfLj2EEEE33CallCopyInputRegionToOutputRegionERNS_11ImageRegionILj2EEERKS8_@Base 5.0.0
 _ZN3itk18ImageToImageFilterIN3otb5ImageIsLj2EEENS1_11VectorImageIfLj2EEEE33CallCopyOutputRegionToInputRegionERNS_11ImageRegionILj2EEERKS8_@Base 5.0.0
 _ZN3itk18ImageToImageFilterIN3otb5ImageIsLj2EEENS1_11VectorImageIfLj2EEEE8SetInputEPKS3_@Base 5.0.0
 _ZN3itk18ImageToImageFilterIN3otb5ImageIsLj2EEENS1_11VectorImageIfLj2EEEE8SetInputEjPKS3_@Base 5.0.0
 _ZN3itk18ImageToImageFilterIN3otb5ImageIsLj2EEENS1_11VectorImageIfLj2EEEED0Ev@Base 5.0.0
 _ZN3itk18ImageToImageFilterIN3otb5ImageIsLj2EEENS1_11VectorImageIfLj2EEEED1Ev@Base 5.0.0
 _ZN3itk18ImageToImageFilterIN3otb5ImageIsLj2EEENS1_11VectorImageIfLj2EEEED2Ev@Base 5.0.0
 _ZN3itk18ImageToImageFilterIN3otb5ImageIsLj2EEENS1_11VectorImageIhLj2EEEE12PopBackInputEv@Base 5.0.0
 _ZN3itk18ImageToImageFilterIN3otb5ImageIsLj2EEENS1_11VectorImageIhLj2EEEE13PopFrontInputEv@Base 5.0.0
 _ZN3itk18ImageToImageFilterIN3otb5ImageIsLj2EEENS1_11VectorImageIhLj2EEEE13PushBackInputEPKNS_10DataObjectE@Base 5.0.0
 _ZN3itk18ImageToImageFilterIN3otb5ImageIsLj2EEENS1_11VectorImageIhLj2EEEE13PushBackInputEPKS3_@Base 5.0.0
 _ZN3itk18ImageToImageFilterIN3otb5ImageIsLj2EEENS1_11VectorImageIhLj2EEEE14PushFrontInputEPKNS_10DataObjectE@Base 5.0.0
 _ZN3itk18ImageToImageFilterIN3otb5ImageIsLj2EEENS1_11VectorImageIhLj2EEEE14PushFrontInputEPKS3_@Base 5.0.0
 _ZN3itk18ImageToImageFilterIN3otb5ImageIsLj2EEENS1_11VectorImageIhLj2EEEE21SetDirectionToleranceEd@Base 5.0.0
 _ZN3itk18ImageToImageFilterIN3otb5ImageIsLj2EEENS1_11VectorImageIhLj2EEEE22SetCoordinateToleranceEd@Base 5.0.0
 _ZN3itk18ImageToImageFilterIN3otb5ImageIsLj2EEENS1_11VectorImageIhLj2EEEE22VerifyInputInformationEv@Base 5.0.0
 _ZN3itk18ImageToImageFilterIN3otb5ImageIsLj2EEENS1_11VectorImageIhLj2EEEE28GenerateInputRequestedRegionEv@Base 5.0.0
 _ZN3itk18ImageToImageFilterIN3otb5ImageIsLj2EEENS1_11VectorImageIhLj2EEEE33CallCopyInputRegionToOutputRegionERNS_11ImageRegionILj2EEERKS8_@Base 5.0.0
 _ZN3itk18ImageToImageFilterIN3otb5ImageIsLj2EEENS1_11VectorImageIhLj2EEEE33CallCopyOutputRegionToInputRegionERNS_11ImageRegionILj2EEERKS8_@Base 5.0.0
 _ZN3itk18ImageToImageFilterIN3otb5ImageIsLj2EEENS1_11VectorImageIhLj2EEEE8SetInputEPKS3_@Base 5.0.0
 _ZN3itk18ImageToImageFilterIN3otb5ImageIsLj2EEENS1_11VectorImageIhLj2EEEE8SetInputEjPKS3_@Base 5.0.0
 _ZN3itk18ImageToImageFilterIN3otb5ImageIsLj2EEENS1_11VectorImageIhLj2EEEED0Ev@Base 5.0.0
 _ZN3itk18ImageToImageFilterIN3otb5ImageIsLj2EEENS1_11VectorImageIhLj2EEEED1Ev@Base 5.0.0
 _ZN3itk18ImageToImageFilterIN3otb5ImageIsLj2EEENS1_11VectorImageIhLj2EEEED2Ev@Base 5.0.0
 _ZN3itk18ImageToImageFilterIN3otb5ImageIsLj2EEENS1_11VectorImageIiLj2EEEE12PopBackInputEv@Base 5.0.0
 _ZN3itk18ImageToImageFilterIN3otb5ImageIsLj2EEENS1_11VectorImageIiLj2EEEE13PopFrontInputEv@Base 5.0.0
 _ZN3itk18ImageToImageFilterIN3otb5ImageIsLj2EEENS1_11VectorImageIiLj2EEEE13PushBackInputEPKNS_10DataObjectE@Base 5.0.0
 _ZN3itk18ImageToImageFilterIN3otb5ImageIsLj2EEENS1_11VectorImageIiLj2EEEE13PushBackInputEPKS3_@Base 5.0.0
 _ZN3itk18ImageToImageFilterIN3otb5ImageIsLj2EEENS1_11VectorImageIiLj2EEEE14PushFrontInputEPKNS_10DataObjectE@Base 5.0.0
 _ZN3itk18ImageToImageFilterIN3otb5ImageIsLj2EEENS1_11VectorImageIiLj2EEEE14PushFrontInputEPKS3_@Base 5.0.0
 _ZN3itk18ImageToImageFilterIN3otb5ImageIsLj2EEENS1_11VectorImageIiLj2EEEE21SetDirectionToleranceEd@Base 5.0.0
 _ZN3itk18ImageToImageFilterIN3otb5ImageIsLj2EEENS1_11VectorImageIiLj2EEEE22SetCoordinateToleranceEd@Base 5.0.0
 _ZN3itk18ImageToImageFilterIN3otb5ImageIsLj2EEENS1_11VectorImageIiLj2EEEE22VerifyInputInformationEv@Base 5.0.0
 _ZN3itk18ImageToImageFilterIN3otb5ImageIsLj2EEENS1_11VectorImageIiLj2EEEE28GenerateInputRequestedRegionEv@Base 5.0.0
 _ZN3itk18ImageToImageFilterIN3otb5ImageIsLj2EEENS1_11VectorImageIiLj2EEEE33CallCopyInputRegionToOutputRegionERNS_11ImageRegionILj2EEERKS8_@Base 5.0.0
 _ZN3itk18ImageToImageFilterIN3otb5ImageIsLj2EEENS1_11VectorImageIiLj2EEEE33CallCopyOutputRegionToInputRegionERNS_11ImageRegionILj2EEERKS8_@Base 5.0.0
 _ZN3itk18ImageToImageFilterIN3otb5ImageIsLj2EEENS1_11VectorImageIiLj2EEEE8SetInputEPKS3_@Base 5.0.0
 _ZN3itk18ImageToImageFilterIN3otb5ImageIsLj2EEENS1_11VectorImageIiLj2EEEE8SetInputEjPKS3_@Base 5.0.0
 _ZN3itk18ImageToImageFilterIN3otb5ImageIsLj2EEENS1_11VectorImageIiLj2EEEED0Ev@Base 5.0.0
 _ZN3itk18ImageToImageFilterIN3otb5ImageIsLj2EEENS1_11VectorImageIiLj2EEEED1Ev@Base 5.0.0
 _ZN3itk18ImageToImageFilterIN3otb5ImageIsLj2EEENS1_11VectorImageIiLj2EEEED2Ev@Base 5.0.0
 _ZN3itk18ImageToImageFilterIN3otb5ImageIsLj2EEENS1_11VectorImageIjLj2EEEE12PopBackInputEv@Base 5.0.0
 _ZN3itk18ImageToImageFilterIN3otb5ImageIsLj2EEENS1_11VectorImageIjLj2EEEE13PopFrontInputEv@Base 5.0.0
 _ZN3itk18ImageToImageFilterIN3otb5ImageIsLj2EEENS1_11VectorImageIjLj2EEEE13PushBackInputEPKNS_10DataObjectE@Base 5.0.0
 _ZN3itk18ImageToImageFilterIN3otb5ImageIsLj2EEENS1_11VectorImageIjLj2EEEE13PushBackInputEPKS3_@Base 5.0.0
 _ZN3itk18ImageToImageFilterIN3otb5ImageIsLj2EEENS1_11VectorImageIjLj2EEEE14PushFrontInputEPKNS_10DataObjectE@Base 5.0.0
 _ZN3itk18ImageToImageFilterIN3otb5ImageIsLj2EEENS1_11VectorImageIjLj2EEEE14PushFrontInputEPKS3_@Base 5.0.0
 _ZN3itk18ImageToImageFilterIN3otb5ImageIsLj2EEENS1_11VectorImageIjLj2EEEE21SetDirectionToleranceEd@Base 5.0.0
 _ZN3itk18ImageToImageFilterIN3otb5ImageIsLj2EEENS1_11VectorImageIjLj2EEEE22SetCoordinateToleranceEd@Base 5.0.0
 _ZN3itk18ImageToImageFilterIN3otb5ImageIsLj2EEENS1_11VectorImageIjLj2EEEE22VerifyInputInformationEv@Base 5.0.0
 _ZN3itk18ImageToImageFilterIN3otb5ImageIsLj2EEENS1_11VectorImageIjLj2EEEE28GenerateInputRequestedRegionEv@Base 5.0.0
 _ZN3itk18ImageToImageFilterIN3otb5ImageIsLj2EEENS1_11VectorImageIjLj2EEEE33CallCopyInputRegionToOutputRegionERNS_11ImageRegionILj2EEERKS8_@Base 5.0.0
 _ZN3itk18ImageToImageFilterIN3otb5ImageIsLj2EEENS1_11VectorImageIjLj2EEEE33CallCopyOutputRegionToInputRegionERNS_11ImageRegionILj2EEERKS8_@Base 5.0.0
 _ZN3itk18ImageToImageFilterIN3otb5ImageIsLj2EEENS1_11VectorImageIjLj2EEEE8SetInputEPKS3_@Base 5.0.0
 _ZN3itk18ImageToImageFilterIN3otb5ImageIsLj2EEENS1_11VectorImageIjLj2EEEE8SetInputEjPKS3_@Base 5.0.0
 _ZN3itk18ImageToImageFilterIN3otb5ImageIsLj2EEENS1_11VectorImageIjLj2EEEED0Ev@Base 5.0.0
 _ZN3itk18ImageToImageFilterIN3otb5ImageIsLj2EEENS1_11VectorImageIjLj2EEEED1Ev@Base 5.0.0
 _ZN3itk18ImageToImageFilterIN3otb5ImageIsLj2EEENS1_11VectorImageIjLj2EEEED2Ev@Base 5.0.0
 _ZN3itk18ImageToImageFilterIN3otb5ImageIsLj2EEENS1_11VectorImageIsLj2EEEE12PopBackInputEv@Base 5.0.0
 _ZN3itk18ImageToImageFilterIN3otb5ImageIsLj2EEENS1_11VectorImageIsLj2EEEE13PopFrontInputEv@Base 5.0.0
 _ZN3itk18ImageToImageFilterIN3otb5ImageIsLj2EEENS1_11VectorImageIsLj2EEEE13PushBackInputEPKNS_10DataObjectE@Base 5.0.0
 _ZN3itk18ImageToImageFilterIN3otb5ImageIsLj2EEENS1_11VectorImageIsLj2EEEE13PushBackInputEPKS3_@Base 5.0.0
 _ZN3itk18ImageToImageFilterIN3otb5ImageIsLj2EEENS1_11VectorImageIsLj2EEEE14PushFrontInputEPKNS_10DataObjectE@Base 5.0.0
 _ZN3itk18ImageToImageFilterIN3otb5ImageIsLj2EEENS1_11VectorImageIsLj2EEEE14PushFrontInputEPKS3_@Base 5.0.0
 _ZN3itk18ImageToImageFilterIN3otb5ImageIsLj2EEENS1_11VectorImageIsLj2EEEE21SetDirectionToleranceEd@Base 5.0.0
 _ZN3itk18ImageToImageFilterIN3otb5ImageIsLj2EEENS1_11VectorImageIsLj2EEEE22SetCoordinateToleranceEd@Base 5.0.0
 _ZN3itk18ImageToImageFilterIN3otb5ImageIsLj2EEENS1_11VectorImageIsLj2EEEE22VerifyInputInformationEv@Base 5.0.0
 _ZN3itk18ImageToImageFilterIN3otb5ImageIsLj2EEENS1_11VectorImageIsLj2EEEE28GenerateInputRequestedRegionEv@Base 5.0.0
 _ZN3itk18ImageToImageFilterIN3otb5ImageIsLj2EEENS1_11VectorImageIsLj2EEEE33CallCopyInputRegionToOutputRegionERNS_11ImageRegionILj2EEERKS8_@Base 5.0.0
 _ZN3itk18ImageToImageFilterIN3otb5ImageIsLj2EEENS1_11VectorImageIsLj2EEEE33CallCopyOutputRegionToInputRegionERNS_11ImageRegionILj2EEERKS8_@Base 5.0.0
 _ZN3itk18ImageToImageFilterIN3otb5ImageIsLj2EEENS1_11VectorImageIsLj2EEEE8SetInputEPKS3_@Base 5.0.0
 _ZN3itk18ImageToImageFilterIN3otb5ImageIsLj2EEENS1_11VectorImageIsLj2EEEE8SetInputEjPKS3_@Base 5.0.0
 _ZN3itk18ImageToImageFilterIN3otb5ImageIsLj2EEENS1_11VectorImageIsLj2EEEED0Ev@Base 5.0.0
 _ZN3itk18ImageToImageFilterIN3otb5ImageIsLj2EEENS1_11VectorImageIsLj2EEEED1Ev@Base 5.0.0
 _ZN3itk18ImageToImageFilterIN3otb5ImageIsLj2EEENS1_11VectorImageIsLj2EEEED2Ev@Base 5.0.0
 _ZN3itk18ImageToImageFilterIN3otb5ImageIsLj2EEENS1_11VectorImageItLj2EEEE12PopBackInputEv@Base 5.0.0
 _ZN3itk18ImageToImageFilterIN3otb5ImageIsLj2EEENS1_11VectorImageItLj2EEEE13PopFrontInputEv@Base 5.0.0
 _ZN3itk18ImageToImageFilterIN3otb5ImageIsLj2EEENS1_11VectorImageItLj2EEEE13PushBackInputEPKNS_10DataObjectE@Base 5.0.0
 _ZN3itk18ImageToImageFilterIN3otb5ImageIsLj2EEENS1_11VectorImageItLj2EEEE13PushBackInputEPKS3_@Base 5.0.0
 _ZN3itk18ImageToImageFilterIN3otb5ImageIsLj2EEENS1_11VectorImageItLj2EEEE14PushFrontInputEPKNS_10DataObjectE@Base 5.0.0
 _ZN3itk18ImageToImageFilterIN3otb5ImageIsLj2EEENS1_11VectorImageItLj2EEEE14PushFrontInputEPKS3_@Base 5.0.0
 _ZN3itk18ImageToImageFilterIN3otb5ImageIsLj2EEENS1_11VectorImageItLj2EEEE21SetDirectionToleranceEd@Base 5.0.0
 _ZN3itk18ImageToImageFilterIN3otb5ImageIsLj2EEENS1_11VectorImageItLj2EEEE22SetCoordinateToleranceEd@Base 5.0.0
 _ZN3itk18ImageToImageFilterIN3otb5ImageIsLj2EEENS1_11VectorImageItLj2EEEE22VerifyInputInformationEv@Base 5.0.0
 _ZN3itk18ImageToImageFilterIN3otb5ImageIsLj2EEENS1_11VectorImageItLj2EEEE28GenerateInputRequestedRegionEv@Base 5.0.0
 _ZN3itk18ImageToImageFilterIN3otb5ImageIsLj2EEENS1_11VectorImageItLj2EEEE33CallCopyInputRegionToOutputRegionERNS_11ImageRegionILj2EEERKS8_@Base 5.0.0
 _ZN3itk18ImageToImageFilterIN3otb5ImageIsLj2EEENS1_11VectorImageItLj2EEEE33CallCopyOutputRegionToInputRegionERNS_11ImageRegionILj2EEERKS8_@Base 5.0.0
 _ZN3itk18ImageToImageFilterIN3otb5ImageIsLj2EEENS1_11VectorImageItLj2EEEE8SetInputEPKS3_@Base 5.0.0
 _ZN3itk18ImageToImageFilterIN3otb5ImageIsLj2EEENS1_11VectorImageItLj2EEEE8SetInputEjPKS3_@Base 5.0.0
 _ZN3itk18ImageToImageFilterIN3otb5ImageIsLj2EEENS1_11VectorImageItLj2EEEED0Ev@Base 5.0.0
 _ZN3itk18ImageToImageFilterIN3otb5ImageIsLj2EEENS1_11VectorImageItLj2EEEED1Ev@Base 5.0.0
 _ZN3itk18ImageToImageFilterIN3otb5ImageIsLj2EEENS1_11VectorImageItLj2EEEED2Ev@Base 5.0.0
 _ZN3itk18ImageToImageFilterIN3otb5ImageIsLj2EEENS2_IdLj2EEEE12PopBackInputEv@Base 5.0.0
 _ZN3itk18ImageToImageFilterIN3otb5ImageIsLj2EEENS2_IdLj2EEEE13PopFrontInputEv@Base 5.0.0
 _ZN3itk18ImageToImageFilterIN3otb5ImageIsLj2EEENS2_IdLj2EEEE13PushBackInputEPKNS_10DataObjectE@Base 5.0.0
 _ZN3itk18ImageToImageFilterIN3otb5ImageIsLj2EEENS2_IdLj2EEEE13PushBackInputEPKS3_@Base 5.0.0
 _ZN3itk18ImageToImageFilterIN3otb5ImageIsLj2EEENS2_IdLj2EEEE14PushFrontInputEPKNS_10DataObjectE@Base 5.0.0
 _ZN3itk18ImageToImageFilterIN3otb5ImageIsLj2EEENS2_IdLj2EEEE14PushFrontInputEPKS3_@Base 5.0.0
 _ZN3itk18ImageToImageFilterIN3otb5ImageIsLj2EEENS2_IdLj2EEEE21SetDirectionToleranceEd@Base 5.0.0
 _ZN3itk18ImageToImageFilterIN3otb5ImageIsLj2EEENS2_IdLj2EEEE22SetCoordinateToleranceEd@Base 5.0.0
 _ZN3itk18ImageToImageFilterIN3otb5ImageIsLj2EEENS2_IdLj2EEEE22VerifyInputInformationEv@Base 5.0.0
 _ZN3itk18ImageToImageFilterIN3otb5ImageIsLj2EEENS2_IdLj2EEEE28GenerateInputRequestedRegionEv@Base 5.0.0
 _ZN3itk18ImageToImageFilterIN3otb5ImageIsLj2EEENS2_IdLj2EEEE33CallCopyInputRegionToOutputRegionERNS_11ImageRegionILj2EEERKS7_@Base 5.0.0
 _ZN3itk18ImageToImageFilterIN3otb5ImageIsLj2EEENS2_IdLj2EEEE33CallCopyOutputRegionToInputRegionERNS_11ImageRegionILj2EEERKS7_@Base 5.0.0
 _ZN3itk18ImageToImageFilterIN3otb5ImageIsLj2EEENS2_IdLj2EEEE8SetInputEPKS3_@Base 5.0.0
 _ZN3itk18ImageToImageFilterIN3otb5ImageIsLj2EEENS2_IdLj2EEEE8SetInputEjPKS3_@Base 5.0.0
 _ZN3itk18ImageToImageFilterIN3otb5ImageIsLj2EEENS2_IdLj2EEEED0Ev@Base 5.0.0
 _ZN3itk18ImageToImageFilterIN3otb5ImageIsLj2EEENS2_IdLj2EEEED1Ev@Base 5.0.0
 _ZN3itk18ImageToImageFilterIN3otb5ImageIsLj2EEENS2_IdLj2EEEED2Ev@Base 5.0.0
 _ZN3itk18ImageToImageFilterIN3otb5ImageIsLj2EEENS2_IfLj2EEEE12PopBackInputEv@Base 5.0.0
 _ZN3itk18ImageToImageFilterIN3otb5ImageIsLj2EEENS2_IfLj2EEEE13PopFrontInputEv@Base 5.0.0
 _ZN3itk18ImageToImageFilterIN3otb5ImageIsLj2EEENS2_IfLj2EEEE13PushBackInputEPKNS_10DataObjectE@Base 5.0.0
 _ZN3itk18ImageToImageFilterIN3otb5ImageIsLj2EEENS2_IfLj2EEEE13PushBackInputEPKS3_@Base 5.0.0
 _ZN3itk18ImageToImageFilterIN3otb5ImageIsLj2EEENS2_IfLj2EEEE14PushFrontInputEPKNS_10DataObjectE@Base 5.0.0
 _ZN3itk18ImageToImageFilterIN3otb5ImageIsLj2EEENS2_IfLj2EEEE14PushFrontInputEPKS3_@Base 5.0.0
 _ZN3itk18ImageToImageFilterIN3otb5ImageIsLj2EEENS2_IfLj2EEEE21SetDirectionToleranceEd@Base 5.0.0
 _ZN3itk18ImageToImageFilterIN3otb5ImageIsLj2EEENS2_IfLj2EEEE22SetCoordinateToleranceEd@Base 5.0.0
 _ZN3itk18ImageToImageFilterIN3otb5ImageIsLj2EEENS2_IfLj2EEEE22VerifyInputInformationEv@Base 5.0.0
 _ZN3itk18ImageToImageFilterIN3otb5ImageIsLj2EEENS2_IfLj2EEEE28GenerateInputRequestedRegionEv@Base 5.0.0
 _ZN3itk18ImageToImageFilterIN3otb5ImageIsLj2EEENS2_IfLj2EEEE33CallCopyInputRegionToOutputRegionERNS_11ImageRegionILj2EEERKS7_@Base 5.0.0
 _ZN3itk18ImageToImageFilterIN3otb5ImageIsLj2EEENS2_IfLj2EEEE33CallCopyOutputRegionToInputRegionERNS_11ImageRegionILj2EEERKS7_@Base 5.0.0
 _ZN3itk18ImageToImageFilterIN3otb5ImageIsLj2EEENS2_IfLj2EEEE8SetInputEPKS3_@Base 5.0.0
 _ZN3itk18ImageToImageFilterIN3otb5ImageIsLj2EEENS2_IfLj2EEEE8SetInputEjPKS3_@Base 5.0.0
 _ZN3itk18ImageToImageFilterIN3otb5ImageIsLj2EEENS2_IfLj2EEEED0Ev@Base 5.0.0
 _ZN3itk18ImageToImageFilterIN3otb5ImageIsLj2EEENS2_IfLj2EEEED1Ev@Base 5.0.0
 _ZN3itk18ImageToImageFilterIN3otb5ImageIsLj2EEENS2_IfLj2EEEED2Ev@Base 5.0.0
 _ZN3itk18ImageToImageFilterIN3otb5ImageIsLj2EEENS2_IhLj2EEEE12PopBackInputEv@Base 5.0.0
 _ZN3itk18ImageToImageFilterIN3otb5ImageIsLj2EEENS2_IhLj2EEEE13PopFrontInputEv@Base 5.0.0
 _ZN3itk18ImageToImageFilterIN3otb5ImageIsLj2EEENS2_IhLj2EEEE13PushBackInputEPKNS_10DataObjectE@Base 5.0.0
 _ZN3itk18ImageToImageFilterIN3otb5ImageIsLj2EEENS2_IhLj2EEEE13PushBackInputEPKS3_@Base 5.0.0
 _ZN3itk18ImageToImageFilterIN3otb5ImageIsLj2EEENS2_IhLj2EEEE14PushFrontInputEPKNS_10DataObjectE@Base 5.0.0
 _ZN3itk18ImageToImageFilterIN3otb5ImageIsLj2EEENS2_IhLj2EEEE14PushFrontInputEPKS3_@Base 5.0.0
 _ZN3itk18ImageToImageFilterIN3otb5ImageIsLj2EEENS2_IhLj2EEEE21SetDirectionToleranceEd@Base 5.0.0
 _ZN3itk18ImageToImageFilterIN3otb5ImageIsLj2EEENS2_IhLj2EEEE22SetCoordinateToleranceEd@Base 5.0.0
 _ZN3itk18ImageToImageFilterIN3otb5ImageIsLj2EEENS2_IhLj2EEEE22VerifyInputInformationEv@Base 5.0.0
 _ZN3itk18ImageToImageFilterIN3otb5ImageIsLj2EEENS2_IhLj2EEEE28GenerateInputRequestedRegionEv@Base 5.0.0
 _ZN3itk18ImageToImageFilterIN3otb5ImageIsLj2EEENS2_IhLj2EEEE33CallCopyInputRegionToOutputRegionERNS_11ImageRegionILj2EEERKS7_@Base 5.0.0
 _ZN3itk18ImageToImageFilterIN3otb5ImageIsLj2EEENS2_IhLj2EEEE33CallCopyOutputRegionToInputRegionERNS_11ImageRegionILj2EEERKS7_@Base 5.0.0
 _ZN3itk18ImageToImageFilterIN3otb5ImageIsLj2EEENS2_IhLj2EEEE8SetInputEPKS3_@Base 5.0.0
 _ZN3itk18ImageToImageFilterIN3otb5ImageIsLj2EEENS2_IhLj2EEEE8SetInputEjPKS3_@Base 5.0.0
 _ZN3itk18ImageToImageFilterIN3otb5ImageIsLj2EEENS2_IhLj2EEEED0Ev@Base 5.0.0
 _ZN3itk18ImageToImageFilterIN3otb5ImageIsLj2EEENS2_IhLj2EEEED1Ev@Base 5.0.0
 _ZN3itk18ImageToImageFilterIN3otb5ImageIsLj2EEENS2_IhLj2EEEED2Ev@Base 5.0.0
 _ZN3itk18ImageToImageFilterIN3otb5ImageIsLj2EEENS2_IiLj2EEEE12PopBackInputEv@Base 5.0.0
 _ZN3itk18ImageToImageFilterIN3otb5ImageIsLj2EEENS2_IiLj2EEEE13PopFrontInputEv@Base 5.0.0
 _ZN3itk18ImageToImageFilterIN3otb5ImageIsLj2EEENS2_IiLj2EEEE13PushBackInputEPKNS_10DataObjectE@Base 5.0.0
 _ZN3itk18ImageToImageFilterIN3otb5ImageIsLj2EEENS2_IiLj2EEEE13PushBackInputEPKS3_@Base 5.0.0
 _ZN3itk18ImageToImageFilterIN3otb5ImageIsLj2EEENS2_IiLj2EEEE14PushFrontInputEPKNS_10DataObjectE@Base 5.0.0
 _ZN3itk18ImageToImageFilterIN3otb5ImageIsLj2EEENS2_IiLj2EEEE14PushFrontInputEPKS3_@Base 5.0.0
 _ZN3itk18ImageToImageFilterIN3otb5ImageIsLj2EEENS2_IiLj2EEEE21SetDirectionToleranceEd@Base 5.0.0
 _ZN3itk18ImageToImageFilterIN3otb5ImageIsLj2EEENS2_IiLj2EEEE22SetCoordinateToleranceEd@Base 5.0.0
 _ZN3itk18ImageToImageFilterIN3otb5ImageIsLj2EEENS2_IiLj2EEEE22VerifyInputInformationEv@Base 5.0.0
 _ZN3itk18ImageToImageFilterIN3otb5ImageIsLj2EEENS2_IiLj2EEEE28GenerateInputRequestedRegionEv@Base 5.0.0
 _ZN3itk18ImageToImageFilterIN3otb5ImageIsLj2EEENS2_IiLj2EEEE33CallCopyInputRegionToOutputRegionERNS_11ImageRegionILj2EEERKS7_@Base 5.0.0
 _ZN3itk18ImageToImageFilterIN3otb5ImageIsLj2EEENS2_IiLj2EEEE33CallCopyOutputRegionToInputRegionERNS_11ImageRegionILj2EEERKS7_@Base 5.0.0
 _ZN3itk18ImageToImageFilterIN3otb5ImageIsLj2EEENS2_IiLj2EEEE8SetInputEPKS3_@Base 5.0.0
 _ZN3itk18ImageToImageFilterIN3otb5ImageIsLj2EEENS2_IiLj2EEEE8SetInputEjPKS3_@Base 5.0.0
 _ZN3itk18ImageToImageFilterIN3otb5ImageIsLj2EEENS2_IiLj2EEEED0Ev@Base 5.0.0
 _ZN3itk18ImageToImageFilterIN3otb5ImageIsLj2EEENS2_IiLj2EEEED1Ev@Base 5.0.0
 _ZN3itk18ImageToImageFilterIN3otb5ImageIsLj2EEENS2_IiLj2EEEED2Ev@Base 5.0.0
 _ZN3itk18ImageToImageFilterIN3otb5ImageIsLj2EEENS2_IjLj2EEEE12PopBackInputEv@Base 5.0.0
 _ZN3itk18ImageToImageFilterIN3otb5ImageIsLj2EEENS2_IjLj2EEEE13PopFrontInputEv@Base 5.0.0
 _ZN3itk18ImageToImageFilterIN3otb5ImageIsLj2EEENS2_IjLj2EEEE13PushBackInputEPKNS_10DataObjectE@Base 5.0.0
 _ZN3itk18ImageToImageFilterIN3otb5ImageIsLj2EEENS2_IjLj2EEEE13PushBackInputEPKS3_@Base 5.0.0
 _ZN3itk18ImageToImageFilterIN3otb5ImageIsLj2EEENS2_IjLj2EEEE14PushFrontInputEPKNS_10DataObjectE@Base 5.0.0
 _ZN3itk18ImageToImageFilterIN3otb5ImageIsLj2EEENS2_IjLj2EEEE14PushFrontInputEPKS3_@Base 5.0.0
 _ZN3itk18ImageToImageFilterIN3otb5ImageIsLj2EEENS2_IjLj2EEEE21SetDirectionToleranceEd@Base 5.0.0
 _ZN3itk18ImageToImageFilterIN3otb5ImageIsLj2EEENS2_IjLj2EEEE22SetCoordinateToleranceEd@Base 5.0.0
 _ZN3itk18ImageToImageFilterIN3otb5ImageIsLj2EEENS2_IjLj2EEEE22VerifyInputInformationEv@Base 5.0.0
 _ZN3itk18ImageToImageFilterIN3otb5ImageIsLj2EEENS2_IjLj2EEEE28GenerateInputRequestedRegionEv@Base 5.0.0
 _ZN3itk18ImageToImageFilterIN3otb5ImageIsLj2EEENS2_IjLj2EEEE33CallCopyInputRegionToOutputRegionERNS_11ImageRegionILj2EEERKS7_@Base 5.0.0
 _ZN3itk18ImageToImageFilterIN3otb5ImageIsLj2EEENS2_IjLj2EEEE33CallCopyOutputRegionToInputRegionERNS_11ImageRegionILj2EEERKS7_@Base 5.0.0
 _ZN3itk18ImageToImageFilterIN3otb5ImageIsLj2EEENS2_IjLj2EEEE8SetInputEPKS3_@Base 5.0.0
 _ZN3itk18ImageToImageFilterIN3otb5ImageIsLj2EEENS2_IjLj2EEEE8SetInputEjPKS3_@Base 5.0.0
 _ZN3itk18ImageToImageFilterIN3otb5ImageIsLj2EEENS2_IjLj2EEEED0Ev@Base 5.0.0
 _ZN3itk18ImageToImageFilterIN3otb5ImageIsLj2EEENS2_IjLj2EEEED1Ev@Base 5.0.0
 _ZN3itk18ImageToImageFilterIN3otb5ImageIsLj2EEENS2_IjLj2EEEED2Ev@Base 5.0.0
 _ZN3itk18ImageToImageFilterIN3otb5ImageIsLj2EEENS2_ItLj2EEEE12PopBackInputEv@Base 5.0.0
 _ZN3itk18ImageToImageFilterIN3otb5ImageIsLj2EEENS2_ItLj2EEEE13PopFrontInputEv@Base 5.0.0
 _ZN3itk18ImageToImageFilterIN3otb5ImageIsLj2EEENS2_ItLj2EEEE13PushBackInputEPKNS_10DataObjectE@Base 5.0.0
 _ZN3itk18ImageToImageFilterIN3otb5ImageIsLj2EEENS2_ItLj2EEEE13PushBackInputEPKS3_@Base 5.0.0
 _ZN3itk18ImageToImageFilterIN3otb5ImageIsLj2EEENS2_ItLj2EEEE14PushFrontInputEPKNS_10DataObjectE@Base 5.0.0
 _ZN3itk18ImageToImageFilterIN3otb5ImageIsLj2EEENS2_ItLj2EEEE14PushFrontInputEPKS3_@Base 5.0.0
 _ZN3itk18ImageToImageFilterIN3otb5ImageIsLj2EEENS2_ItLj2EEEE21SetDirectionToleranceEd@Base 5.0.0
 _ZN3itk18ImageToImageFilterIN3otb5ImageIsLj2EEENS2_ItLj2EEEE22SetCoordinateToleranceEd@Base 5.0.0
 _ZN3itk18ImageToImageFilterIN3otb5ImageIsLj2EEENS2_ItLj2EEEE22VerifyInputInformationEv@Base 5.0.0
 _ZN3itk18ImageToImageFilterIN3otb5ImageIsLj2EEENS2_ItLj2EEEE28GenerateInputRequestedRegionEv@Base 5.0.0
 _ZN3itk18ImageToImageFilterIN3otb5ImageIsLj2EEENS2_ItLj2EEEE33CallCopyInputRegionToOutputRegionERNS_11ImageRegionILj2EEERKS7_@Base 5.0.0
 _ZN3itk18ImageToImageFilterIN3otb5ImageIsLj2EEENS2_ItLj2EEEE33CallCopyOutputRegionToInputRegionERNS_11ImageRegionILj2EEERKS7_@Base 5.0.0
 _ZN3itk18ImageToImageFilterIN3otb5ImageIsLj2EEENS2_ItLj2EEEE8SetInputEPKS3_@Base 5.0.0
 _ZN3itk18ImageToImageFilterIN3otb5ImageIsLj2EEENS2_ItLj2EEEE8SetInputEjPKS3_@Base 5.0.0
 _ZN3itk18ImageToImageFilterIN3otb5ImageIsLj2EEENS2_ItLj2EEEED0Ev@Base 5.0.0
 _ZN3itk18ImageToImageFilterIN3otb5ImageIsLj2EEENS2_ItLj2EEEED1Ev@Base 5.0.0
 _ZN3itk18ImageToImageFilterIN3otb5ImageIsLj2EEENS2_ItLj2EEEED2Ev@Base 5.0.0
 _ZN3itk18ImageToImageFilterIN3otb5ImageIsLj2EEES3_E12PopBackInputEv@Base 5.0.0
 _ZN3itk18ImageToImageFilterIN3otb5ImageIsLj2EEES3_E13PopFrontInputEv@Base 5.0.0
 _ZN3itk18ImageToImageFilterIN3otb5ImageIsLj2EEES3_E13PushBackInputEPKNS_10DataObjectE@Base 5.0.0
 _ZN3itk18ImageToImageFilterIN3otb5ImageIsLj2EEES3_E13PushBackInputEPKS3_@Base 5.0.0
 _ZN3itk18ImageToImageFilterIN3otb5ImageIsLj2EEES3_E14PushFrontInputEPKNS_10DataObjectE@Base 5.0.0
 _ZN3itk18ImageToImageFilterIN3otb5ImageIsLj2EEES3_E14PushFrontInputEPKS3_@Base 5.0.0
 _ZN3itk18ImageToImageFilterIN3otb5ImageIsLj2EEES3_E21SetDirectionToleranceEd@Base 5.0.0
 _ZN3itk18ImageToImageFilterIN3otb5ImageIsLj2EEES3_E22SetCoordinateToleranceEd@Base 5.0.0
 _ZN3itk18ImageToImageFilterIN3otb5ImageIsLj2EEES3_E22VerifyInputInformationEv@Base 5.0.0
 _ZN3itk18ImageToImageFilterIN3otb5ImageIsLj2EEES3_E28GenerateInputRequestedRegionEv@Base 5.0.0
 _ZN3itk18ImageToImageFilterIN3otb5ImageIsLj2EEES3_E33CallCopyInputRegionToOutputRegionERNS_11ImageRegionILj2EEERKS6_@Base 5.0.0
 _ZN3itk18ImageToImageFilterIN3otb5ImageIsLj2EEES3_E33CallCopyOutputRegionToInputRegionERNS_11ImageRegionILj2EEERKS6_@Base 5.0.0
 _ZN3itk18ImageToImageFilterIN3otb5ImageIsLj2EEES3_E8SetInputEPKS3_@Base 5.0.0
 _ZN3itk18ImageToImageFilterIN3otb5ImageIsLj2EEES3_E8SetInputEjPKS3_@Base 5.0.0
 _ZN3itk18ImageToImageFilterIN3otb5ImageIsLj2EEES3_ED0Ev@Base 5.0.0
 _ZN3itk18ImageToImageFilterIN3otb5ImageIsLj2EEES3_ED1Ev@Base 5.0.0
 _ZN3itk18ImageToImageFilterIN3otb5ImageIsLj2EEES3_ED2Ev@Base 5.0.0
 _ZN3itk18ImageToImageFilterIN3otb5ImageItLj2EEENS1_11VectorImageIdLj2EEEE12PopBackInputEv@Base 5.0.0
 _ZN3itk18ImageToImageFilterIN3otb5ImageItLj2EEENS1_11VectorImageIdLj2EEEE13PopFrontInputEv@Base 5.0.0
 _ZN3itk18ImageToImageFilterIN3otb5ImageItLj2EEENS1_11VectorImageIdLj2EEEE13PushBackInputEPKNS_10DataObjectE@Base 5.0.0
 _ZN3itk18ImageToImageFilterIN3otb5ImageItLj2EEENS1_11VectorImageIdLj2EEEE13PushBackInputEPKS3_@Base 5.0.0
 _ZN3itk18ImageToImageFilterIN3otb5ImageItLj2EEENS1_11VectorImageIdLj2EEEE14PushFrontInputEPKNS_10DataObjectE@Base 5.0.0
 _ZN3itk18ImageToImageFilterIN3otb5ImageItLj2EEENS1_11VectorImageIdLj2EEEE14PushFrontInputEPKS3_@Base 5.0.0
 _ZN3itk18ImageToImageFilterIN3otb5ImageItLj2EEENS1_11VectorImageIdLj2EEEE21SetDirectionToleranceEd@Base 5.0.0
 _ZN3itk18ImageToImageFilterIN3otb5ImageItLj2EEENS1_11VectorImageIdLj2EEEE22SetCoordinateToleranceEd@Base 5.0.0
 _ZN3itk18ImageToImageFilterIN3otb5ImageItLj2EEENS1_11VectorImageIdLj2EEEE22VerifyInputInformationEv@Base 5.0.0
 _ZN3itk18ImageToImageFilterIN3otb5ImageItLj2EEENS1_11VectorImageIdLj2EEEE28GenerateInputRequestedRegionEv@Base 5.0.0
 _ZN3itk18ImageToImageFilterIN3otb5ImageItLj2EEENS1_11VectorImageIdLj2EEEE33CallCopyInputRegionToOutputRegionERNS_11ImageRegionILj2EEERKS8_@Base 5.0.0
 _ZN3itk18ImageToImageFilterIN3otb5ImageItLj2EEENS1_11VectorImageIdLj2EEEE33CallCopyOutputRegionToInputRegionERNS_11ImageRegionILj2EEERKS8_@Base 5.0.0
 _ZN3itk18ImageToImageFilterIN3otb5ImageItLj2EEENS1_11VectorImageIdLj2EEEE8SetInputEPKS3_@Base 5.0.0
 _ZN3itk18ImageToImageFilterIN3otb5ImageItLj2EEENS1_11VectorImageIdLj2EEEE8SetInputEjPKS3_@Base 5.0.0
 _ZN3itk18ImageToImageFilterIN3otb5ImageItLj2EEENS1_11VectorImageIdLj2EEEED0Ev@Base 5.0.0
 _ZN3itk18ImageToImageFilterIN3otb5ImageItLj2EEENS1_11VectorImageIdLj2EEEED1Ev@Base 5.0.0
 _ZN3itk18ImageToImageFilterIN3otb5ImageItLj2EEENS1_11VectorImageIdLj2EEEED2Ev@Base 5.0.0
 _ZN3itk18ImageToImageFilterIN3otb5ImageItLj2EEENS1_11VectorImageIfLj2EEEE12PopBackInputEv@Base 5.0.0
 _ZN3itk18ImageToImageFilterIN3otb5ImageItLj2EEENS1_11VectorImageIfLj2EEEE13PopFrontInputEv@Base 5.0.0
 _ZN3itk18ImageToImageFilterIN3otb5ImageItLj2EEENS1_11VectorImageIfLj2EEEE13PushBackInputEPKNS_10DataObjectE@Base 5.0.0
 _ZN3itk18ImageToImageFilterIN3otb5ImageItLj2EEENS1_11VectorImageIfLj2EEEE13PushBackInputEPKS3_@Base 5.0.0
 _ZN3itk18ImageToImageFilterIN3otb5ImageItLj2EEENS1_11VectorImageIfLj2EEEE14PushFrontInputEPKNS_10DataObjectE@Base 5.0.0
 _ZN3itk18ImageToImageFilterIN3otb5ImageItLj2EEENS1_11VectorImageIfLj2EEEE14PushFrontInputEPKS3_@Base 5.0.0
 _ZN3itk18ImageToImageFilterIN3otb5ImageItLj2EEENS1_11VectorImageIfLj2EEEE21SetDirectionToleranceEd@Base 5.0.0
 _ZN3itk18ImageToImageFilterIN3otb5ImageItLj2EEENS1_11VectorImageIfLj2EEEE22SetCoordinateToleranceEd@Base 5.0.0
 _ZN3itk18ImageToImageFilterIN3otb5ImageItLj2EEENS1_11VectorImageIfLj2EEEE22VerifyInputInformationEv@Base 5.0.0
 _ZN3itk18ImageToImageFilterIN3otb5ImageItLj2EEENS1_11VectorImageIfLj2EEEE28GenerateInputRequestedRegionEv@Base 5.0.0
 _ZN3itk18ImageToImageFilterIN3otb5ImageItLj2EEENS1_11VectorImageIfLj2EEEE33CallCopyInputRegionToOutputRegionERNS_11ImageRegionILj2EEERKS8_@Base 5.0.0
 _ZN3itk18ImageToImageFilterIN3otb5ImageItLj2EEENS1_11VectorImageIfLj2EEEE33CallCopyOutputRegionToInputRegionERNS_11ImageRegionILj2EEERKS8_@Base 5.0.0
 _ZN3itk18ImageToImageFilterIN3otb5ImageItLj2EEENS1_11VectorImageIfLj2EEEE8SetInputEPKS3_@Base 5.0.0
 _ZN3itk18ImageToImageFilterIN3otb5ImageItLj2EEENS1_11VectorImageIfLj2EEEE8SetInputEjPKS3_@Base 5.0.0
 _ZN3itk18ImageToImageFilterIN3otb5ImageItLj2EEENS1_11VectorImageIfLj2EEEED0Ev@Base 5.0.0
 _ZN3itk18ImageToImageFilterIN3otb5ImageItLj2EEENS1_11VectorImageIfLj2EEEED1Ev@Base 5.0.0
 _ZN3itk18ImageToImageFilterIN3otb5ImageItLj2EEENS1_11VectorImageIfLj2EEEED2Ev@Base 5.0.0
 _ZN3itk18ImageToImageFilterIN3otb5ImageItLj2EEENS1_11VectorImageIhLj2EEEE12PopBackInputEv@Base 5.0.0
 _ZN3itk18ImageToImageFilterIN3otb5ImageItLj2EEENS1_11VectorImageIhLj2EEEE13PopFrontInputEv@Base 5.0.0
 _ZN3itk18ImageToImageFilterIN3otb5ImageItLj2EEENS1_11VectorImageIhLj2EEEE13PushBackInputEPKNS_10DataObjectE@Base 5.0.0
 _ZN3itk18ImageToImageFilterIN3otb5ImageItLj2EEENS1_11VectorImageIhLj2EEEE13PushBackInputEPKS3_@Base 5.0.0
 _ZN3itk18ImageToImageFilterIN3otb5ImageItLj2EEENS1_11VectorImageIhLj2EEEE14PushFrontInputEPKNS_10DataObjectE@Base 5.0.0
 _ZN3itk18ImageToImageFilterIN3otb5ImageItLj2EEENS1_11VectorImageIhLj2EEEE14PushFrontInputEPKS3_@Base 5.0.0
 _ZN3itk18ImageToImageFilterIN3otb5ImageItLj2EEENS1_11VectorImageIhLj2EEEE21SetDirectionToleranceEd@Base 5.0.0
 _ZN3itk18ImageToImageFilterIN3otb5ImageItLj2EEENS1_11VectorImageIhLj2EEEE22SetCoordinateToleranceEd@Base 5.0.0
 _ZN3itk18ImageToImageFilterIN3otb5ImageItLj2EEENS1_11VectorImageIhLj2EEEE22VerifyInputInformationEv@Base 5.0.0
 _ZN3itk18ImageToImageFilterIN3otb5ImageItLj2EEENS1_11VectorImageIhLj2EEEE28GenerateInputRequestedRegionEv@Base 5.0.0
 _ZN3itk18ImageToImageFilterIN3otb5ImageItLj2EEENS1_11VectorImageIhLj2EEEE33CallCopyInputRegionToOutputRegionERNS_11ImageRegionILj2EEERKS8_@Base 5.0.0
 _ZN3itk18ImageToImageFilterIN3otb5ImageItLj2EEENS1_11VectorImageIhLj2EEEE33CallCopyOutputRegionToInputRegionERNS_11ImageRegionILj2EEERKS8_@Base 5.0.0
 _ZN3itk18ImageToImageFilterIN3otb5ImageItLj2EEENS1_11VectorImageIhLj2EEEE8SetInputEPKS3_@Base 5.0.0
 _ZN3itk18ImageToImageFilterIN3otb5ImageItLj2EEENS1_11VectorImageIhLj2EEEE8SetInputEjPKS3_@Base 5.0.0
 _ZN3itk18ImageToImageFilterIN3otb5ImageItLj2EEENS1_11VectorImageIhLj2EEEED0Ev@Base 5.0.0
 _ZN3itk18ImageToImageFilterIN3otb5ImageItLj2EEENS1_11VectorImageIhLj2EEEED1Ev@Base 5.0.0
 _ZN3itk18ImageToImageFilterIN3otb5ImageItLj2EEENS1_11VectorImageIhLj2EEEED2Ev@Base 5.0.0
 _ZN3itk18ImageToImageFilterIN3otb5ImageItLj2EEENS1_11VectorImageIiLj2EEEE12PopBackInputEv@Base 5.0.0
 _ZN3itk18ImageToImageFilterIN3otb5ImageItLj2EEENS1_11VectorImageIiLj2EEEE13PopFrontInputEv@Base 5.0.0
 _ZN3itk18ImageToImageFilterIN3otb5ImageItLj2EEENS1_11VectorImageIiLj2EEEE13PushBackInputEPKNS_10DataObjectE@Base 5.0.0
 _ZN3itk18ImageToImageFilterIN3otb5ImageItLj2EEENS1_11VectorImageIiLj2EEEE13PushBackInputEPKS3_@Base 5.0.0
 _ZN3itk18ImageToImageFilterIN3otb5ImageItLj2EEENS1_11VectorImageIiLj2EEEE14PushFrontInputEPKNS_10DataObjectE@Base 5.0.0
 _ZN3itk18ImageToImageFilterIN3otb5ImageItLj2EEENS1_11VectorImageIiLj2EEEE14PushFrontInputEPKS3_@Base 5.0.0
 _ZN3itk18ImageToImageFilterIN3otb5ImageItLj2EEENS1_11VectorImageIiLj2EEEE21SetDirectionToleranceEd@Base 5.0.0
 _ZN3itk18ImageToImageFilterIN3otb5ImageItLj2EEENS1_11VectorImageIiLj2EEEE22SetCoordinateToleranceEd@Base 5.0.0
 _ZN3itk18ImageToImageFilterIN3otb5ImageItLj2EEENS1_11VectorImageIiLj2EEEE22VerifyInputInformationEv@Base 5.0.0
 _ZN3itk18ImageToImageFilterIN3otb5ImageItLj2EEENS1_11VectorImageIiLj2EEEE28GenerateInputRequestedRegionEv@Base 5.0.0
 _ZN3itk18ImageToImageFilterIN3otb5ImageItLj2EEENS1_11VectorImageIiLj2EEEE33CallCopyInputRegionToOutputRegionERNS_11ImageRegionILj2EEERKS8_@Base 5.0.0
 _ZN3itk18ImageToImageFilterIN3otb5ImageItLj2EEENS1_11VectorImageIiLj2EEEE33CallCopyOutputRegionToInputRegionERNS_11ImageRegionILj2EEERKS8_@Base 5.0.0
 _ZN3itk18ImageToImageFilterIN3otb5ImageItLj2EEENS1_11VectorImageIiLj2EEEE8SetInputEPKS3_@Base 5.0.0
 _ZN3itk18ImageToImageFilterIN3otb5ImageItLj2EEENS1_11VectorImageIiLj2EEEE8SetInputEjPKS3_@Base 5.0.0
 _ZN3itk18ImageToImageFilterIN3otb5ImageItLj2EEENS1_11VectorImageIiLj2EEEED0Ev@Base 5.0.0
 _ZN3itk18ImageToImageFilterIN3otb5ImageItLj2EEENS1_11VectorImageIiLj2EEEED1Ev@Base 5.0.0
 _ZN3itk18ImageToImageFilterIN3otb5ImageItLj2EEENS1_11VectorImageIiLj2EEEED2Ev@Base 5.0.0
 _ZN3itk18ImageToImageFilterIN3otb5ImageItLj2EEENS1_11VectorImageIjLj2EEEE12PopBackInputEv@Base 5.0.0
 _ZN3itk18ImageToImageFilterIN3otb5ImageItLj2EEENS1_11VectorImageIjLj2EEEE13PopFrontInputEv@Base 5.0.0
 _ZN3itk18ImageToImageFilterIN3otb5ImageItLj2EEENS1_11VectorImageIjLj2EEEE13PushBackInputEPKNS_10DataObjectE@Base 5.0.0
 _ZN3itk18ImageToImageFilterIN3otb5ImageItLj2EEENS1_11VectorImageIjLj2EEEE13PushBackInputEPKS3_@Base 5.0.0
 _ZN3itk18ImageToImageFilterIN3otb5ImageItLj2EEENS1_11VectorImageIjLj2EEEE14PushFrontInputEPKNS_10DataObjectE@Base 5.0.0
 _ZN3itk18ImageToImageFilterIN3otb5ImageItLj2EEENS1_11VectorImageIjLj2EEEE14PushFrontInputEPKS3_@Base 5.0.0
 _ZN3itk18ImageToImageFilterIN3otb5ImageItLj2EEENS1_11VectorImageIjLj2EEEE21SetDirectionToleranceEd@Base 5.0.0
 _ZN3itk18ImageToImageFilterIN3otb5ImageItLj2EEENS1_11VectorImageIjLj2EEEE22SetCoordinateToleranceEd@Base 5.0.0
 _ZN3itk18ImageToImageFilterIN3otb5ImageItLj2EEENS1_11VectorImageIjLj2EEEE22VerifyInputInformationEv@Base 5.0.0
 _ZN3itk18ImageToImageFilterIN3otb5ImageItLj2EEENS1_11VectorImageIjLj2EEEE28GenerateInputRequestedRegionEv@Base 5.0.0
 _ZN3itk18ImageToImageFilterIN3otb5ImageItLj2EEENS1_11VectorImageIjLj2EEEE33CallCopyInputRegionToOutputRegionERNS_11ImageRegionILj2EEERKS8_@Base 5.0.0
 _ZN3itk18ImageToImageFilterIN3otb5ImageItLj2EEENS1_11VectorImageIjLj2EEEE33CallCopyOutputRegionToInputRegionERNS_11ImageRegionILj2EEERKS8_@Base 5.0.0
 _ZN3itk18ImageToImageFilterIN3otb5ImageItLj2EEENS1_11VectorImageIjLj2EEEE8SetInputEPKS3_@Base 5.0.0
 _ZN3itk18ImageToImageFilterIN3otb5ImageItLj2EEENS1_11VectorImageIjLj2EEEE8SetInputEjPKS3_@Base 5.0.0
 _ZN3itk18ImageToImageFilterIN3otb5ImageItLj2EEENS1_11VectorImageIjLj2EEEED0Ev@Base 5.0.0
 _ZN3itk18ImageToImageFilterIN3otb5ImageItLj2EEENS1_11VectorImageIjLj2EEEED1Ev@Base 5.0.0
 _ZN3itk18ImageToImageFilterIN3otb5ImageItLj2EEENS1_11VectorImageIjLj2EEEED2Ev@Base 5.0.0
 _ZN3itk18ImageToImageFilterIN3otb5ImageItLj2EEENS1_11VectorImageIsLj2EEEE12PopBackInputEv@Base 5.0.0
 _ZN3itk18ImageToImageFilterIN3otb5ImageItLj2EEENS1_11VectorImageIsLj2EEEE13PopFrontInputEv@Base 5.0.0
 _ZN3itk18ImageToImageFilterIN3otb5ImageItLj2EEENS1_11VectorImageIsLj2EEEE13PushBackInputEPKNS_10DataObjectE@Base 5.0.0
 _ZN3itk18ImageToImageFilterIN3otb5ImageItLj2EEENS1_11VectorImageIsLj2EEEE13PushBackInputEPKS3_@Base 5.0.0
 _ZN3itk18ImageToImageFilterIN3otb5ImageItLj2EEENS1_11VectorImageIsLj2EEEE14PushFrontInputEPKNS_10DataObjectE@Base 5.0.0
 _ZN3itk18ImageToImageFilterIN3otb5ImageItLj2EEENS1_11VectorImageIsLj2EEEE14PushFrontInputEPKS3_@Base 5.0.0
 _ZN3itk18ImageToImageFilterIN3otb5ImageItLj2EEENS1_11VectorImageIsLj2EEEE21SetDirectionToleranceEd@Base 5.0.0
 _ZN3itk18ImageToImageFilterIN3otb5ImageItLj2EEENS1_11VectorImageIsLj2EEEE22SetCoordinateToleranceEd@Base 5.0.0
 _ZN3itk18ImageToImageFilterIN3otb5ImageItLj2EEENS1_11VectorImageIsLj2EEEE22VerifyInputInformationEv@Base 5.0.0
 _ZN3itk18ImageToImageFilterIN3otb5ImageItLj2EEENS1_11VectorImageIsLj2EEEE28GenerateInputRequestedRegionEv@Base 5.0.0
 _ZN3itk18ImageToImageFilterIN3otb5ImageItLj2EEENS1_11VectorImageIsLj2EEEE33CallCopyInputRegionToOutputRegionERNS_11ImageRegionILj2EEERKS8_@Base 5.0.0
 _ZN3itk18ImageToImageFilterIN3otb5ImageItLj2EEENS1_11VectorImageIsLj2EEEE33CallCopyOutputRegionToInputRegionERNS_11ImageRegionILj2EEERKS8_@Base 5.0.0
 _ZN3itk18ImageToImageFilterIN3otb5ImageItLj2EEENS1_11VectorImageIsLj2EEEE8SetInputEPKS3_@Base 5.0.0
 _ZN3itk18ImageToImageFilterIN3otb5ImageItLj2EEENS1_11VectorImageIsLj2EEEE8SetInputEjPKS3_@Base 5.0.0
 _ZN3itk18ImageToImageFilterIN3otb5ImageItLj2EEENS1_11VectorImageIsLj2EEEED0Ev@Base 5.0.0
 _ZN3itk18ImageToImageFilterIN3otb5ImageItLj2EEENS1_11VectorImageIsLj2EEEED1Ev@Base 5.0.0
 _ZN3itk18ImageToImageFilterIN3otb5ImageItLj2EEENS1_11VectorImageIsLj2EEEED2Ev@Base 5.0.0
 _ZN3itk18ImageToImageFilterIN3otb5ImageItLj2EEENS1_11VectorImageItLj2EEEE12PopBackInputEv@Base 5.0.0
 _ZN3itk18ImageToImageFilterIN3otb5ImageItLj2EEENS1_11VectorImageItLj2EEEE13PopFrontInputEv@Base 5.0.0
 _ZN3itk18ImageToImageFilterIN3otb5ImageItLj2EEENS1_11VectorImageItLj2EEEE13PushBackInputEPKNS_10DataObjectE@Base 5.0.0
 _ZN3itk18ImageToImageFilterIN3otb5ImageItLj2EEENS1_11VectorImageItLj2EEEE13PushBackInputEPKS3_@Base 5.0.0
 _ZN3itk18ImageToImageFilterIN3otb5ImageItLj2EEENS1_11VectorImageItLj2EEEE14PushFrontInputEPKNS_10DataObjectE@Base 5.0.0
 _ZN3itk18ImageToImageFilterIN3otb5ImageItLj2EEENS1_11VectorImageItLj2EEEE14PushFrontInputEPKS3_@Base 5.0.0
 _ZN3itk18ImageToImageFilterIN3otb5ImageItLj2EEENS1_11VectorImageItLj2EEEE21SetDirectionToleranceEd@Base 5.0.0
 _ZN3itk18ImageToImageFilterIN3otb5ImageItLj2EEENS1_11VectorImageItLj2EEEE22SetCoordinateToleranceEd@Base 5.0.0
 _ZN3itk18ImageToImageFilterIN3otb5ImageItLj2EEENS1_11VectorImageItLj2EEEE22VerifyInputInformationEv@Base 5.0.0
 _ZN3itk18ImageToImageFilterIN3otb5ImageItLj2EEENS1_11VectorImageItLj2EEEE28GenerateInputRequestedRegionEv@Base 5.0.0
 _ZN3itk18ImageToImageFilterIN3otb5ImageItLj2EEENS1_11VectorImageItLj2EEEE33CallCopyInputRegionToOutputRegionERNS_11ImageRegionILj2EEERKS8_@Base 5.0.0
 _ZN3itk18ImageToImageFilterIN3otb5ImageItLj2EEENS1_11VectorImageItLj2EEEE33CallCopyOutputRegionToInputRegionERNS_11ImageRegionILj2EEERKS8_@Base 5.0.0
 _ZN3itk18ImageToImageFilterIN3otb5ImageItLj2EEENS1_11VectorImageItLj2EEEE8SetInputEPKS3_@Base 5.0.0
 _ZN3itk18ImageToImageFilterIN3otb5ImageItLj2EEENS1_11VectorImageItLj2EEEE8SetInputEjPKS3_@Base 5.0.0
 _ZN3itk18ImageToImageFilterIN3otb5ImageItLj2EEENS1_11VectorImageItLj2EEEED0Ev@Base 5.0.0
 _ZN3itk18ImageToImageFilterIN3otb5ImageItLj2EEENS1_11VectorImageItLj2EEEED1Ev@Base 5.0.0
 _ZN3itk18ImageToImageFilterIN3otb5ImageItLj2EEENS1_11VectorImageItLj2EEEED2Ev@Base 5.0.0
 _ZN3itk18ImageToImageFilterIN3otb5ImageItLj2EEENS2_IdLj2EEEE12PopBackInputEv@Base 5.0.0
 _ZN3itk18ImageToImageFilterIN3otb5ImageItLj2EEENS2_IdLj2EEEE13PopFrontInputEv@Base 5.0.0
 _ZN3itk18ImageToImageFilterIN3otb5ImageItLj2EEENS2_IdLj2EEEE13PushBackInputEPKNS_10DataObjectE@Base 5.0.0
 _ZN3itk18ImageToImageFilterIN3otb5ImageItLj2EEENS2_IdLj2EEEE13PushBackInputEPKS3_@Base 5.0.0
 _ZN3itk18ImageToImageFilterIN3otb5ImageItLj2EEENS2_IdLj2EEEE14PushFrontInputEPKNS_10DataObjectE@Base 5.0.0
 _ZN3itk18ImageToImageFilterIN3otb5ImageItLj2EEENS2_IdLj2EEEE14PushFrontInputEPKS3_@Base 5.0.0
 _ZN3itk18ImageToImageFilterIN3otb5ImageItLj2EEENS2_IdLj2EEEE21SetDirectionToleranceEd@Base 5.0.0
 _ZN3itk18ImageToImageFilterIN3otb5ImageItLj2EEENS2_IdLj2EEEE22SetCoordinateToleranceEd@Base 5.0.0
 _ZN3itk18ImageToImageFilterIN3otb5ImageItLj2EEENS2_IdLj2EEEE22VerifyInputInformationEv@Base 5.0.0
 _ZN3itk18ImageToImageFilterIN3otb5ImageItLj2EEENS2_IdLj2EEEE28GenerateInputRequestedRegionEv@Base 5.0.0
 _ZN3itk18ImageToImageFilterIN3otb5ImageItLj2EEENS2_IdLj2EEEE33CallCopyInputRegionToOutputRegionERNS_11ImageRegionILj2EEERKS7_@Base 5.0.0
 _ZN3itk18ImageToImageFilterIN3otb5ImageItLj2EEENS2_IdLj2EEEE33CallCopyOutputRegionToInputRegionERNS_11ImageRegionILj2EEERKS7_@Base 5.0.0
 _ZN3itk18ImageToImageFilterIN3otb5ImageItLj2EEENS2_IdLj2EEEE8SetInputEPKS3_@Base 5.0.0
 _ZN3itk18ImageToImageFilterIN3otb5ImageItLj2EEENS2_IdLj2EEEE8SetInputEjPKS3_@Base 5.0.0
 _ZN3itk18ImageToImageFilterIN3otb5ImageItLj2EEENS2_IdLj2EEEED0Ev@Base 5.0.0
 _ZN3itk18ImageToImageFilterIN3otb5ImageItLj2EEENS2_IdLj2EEEED1Ev@Base 5.0.0
 _ZN3itk18ImageToImageFilterIN3otb5ImageItLj2EEENS2_IdLj2EEEED2Ev@Base 5.0.0
 _ZN3itk18ImageToImageFilterIN3otb5ImageItLj2EEENS2_IfLj2EEEE12PopBackInputEv@Base 5.0.0
 _ZN3itk18ImageToImageFilterIN3otb5ImageItLj2EEENS2_IfLj2EEEE13PopFrontInputEv@Base 5.0.0
 _ZN3itk18ImageToImageFilterIN3otb5ImageItLj2EEENS2_IfLj2EEEE13PushBackInputEPKNS_10DataObjectE@Base 5.0.0
 _ZN3itk18ImageToImageFilterIN3otb5ImageItLj2EEENS2_IfLj2EEEE13PushBackInputEPKS3_@Base 5.0.0
 _ZN3itk18ImageToImageFilterIN3otb5ImageItLj2EEENS2_IfLj2EEEE14PushFrontInputEPKNS_10DataObjectE@Base 5.0.0
 _ZN3itk18ImageToImageFilterIN3otb5ImageItLj2EEENS2_IfLj2EEEE14PushFrontInputEPKS3_@Base 5.0.0
 _ZN3itk18ImageToImageFilterIN3otb5ImageItLj2EEENS2_IfLj2EEEE21SetDirectionToleranceEd@Base 5.0.0
 _ZN3itk18ImageToImageFilterIN3otb5ImageItLj2EEENS2_IfLj2EEEE22SetCoordinateToleranceEd@Base 5.0.0
 _ZN3itk18ImageToImageFilterIN3otb5ImageItLj2EEENS2_IfLj2EEEE22VerifyInputInformationEv@Base 5.0.0
 _ZN3itk18ImageToImageFilterIN3otb5ImageItLj2EEENS2_IfLj2EEEE28GenerateInputRequestedRegionEv@Base 5.0.0
 _ZN3itk18ImageToImageFilterIN3otb5ImageItLj2EEENS2_IfLj2EEEE33CallCopyInputRegionToOutputRegionERNS_11ImageRegionILj2EEERKS7_@Base 5.0.0
 _ZN3itk18ImageToImageFilterIN3otb5ImageItLj2EEENS2_IfLj2EEEE33CallCopyOutputRegionToInputRegionERNS_11ImageRegionILj2EEERKS7_@Base 5.0.0
 _ZN3itk18ImageToImageFilterIN3otb5ImageItLj2EEENS2_IfLj2EEEE8SetInputEPKS3_@Base 5.0.0
 _ZN3itk18ImageToImageFilterIN3otb5ImageItLj2EEENS2_IfLj2EEEE8SetInputEjPKS3_@Base 5.0.0
 _ZN3itk18ImageToImageFilterIN3otb5ImageItLj2EEENS2_IfLj2EEEED0Ev@Base 5.0.0
 _ZN3itk18ImageToImageFilterIN3otb5ImageItLj2EEENS2_IfLj2EEEED1Ev@Base 5.0.0
 _ZN3itk18ImageToImageFilterIN3otb5ImageItLj2EEENS2_IfLj2EEEED2Ev@Base 5.0.0
 _ZN3itk18ImageToImageFilterIN3otb5ImageItLj2EEENS2_IhLj2EEEE12PopBackInputEv@Base 5.0.0
 _ZN3itk18ImageToImageFilterIN3otb5ImageItLj2EEENS2_IhLj2EEEE13PopFrontInputEv@Base 5.0.0
 _ZN3itk18ImageToImageFilterIN3otb5ImageItLj2EEENS2_IhLj2EEEE13PushBackInputEPKNS_10DataObjectE@Base 5.0.0
 _ZN3itk18ImageToImageFilterIN3otb5ImageItLj2EEENS2_IhLj2EEEE13PushBackInputEPKS3_@Base 5.0.0
 _ZN3itk18ImageToImageFilterIN3otb5ImageItLj2EEENS2_IhLj2EEEE14PushFrontInputEPKNS_10DataObjectE@Base 5.0.0
 _ZN3itk18ImageToImageFilterIN3otb5ImageItLj2EEENS2_IhLj2EEEE14PushFrontInputEPKS3_@Base 5.0.0
 _ZN3itk18ImageToImageFilterIN3otb5ImageItLj2EEENS2_IhLj2EEEE21SetDirectionToleranceEd@Base 5.0.0
 _ZN3itk18ImageToImageFilterIN3otb5ImageItLj2EEENS2_IhLj2EEEE22SetCoordinateToleranceEd@Base 5.0.0
 _ZN3itk18ImageToImageFilterIN3otb5ImageItLj2EEENS2_IhLj2EEEE22VerifyInputInformationEv@Base 5.0.0
 _ZN3itk18ImageToImageFilterIN3otb5ImageItLj2EEENS2_IhLj2EEEE28GenerateInputRequestedRegionEv@Base 5.0.0
 _ZN3itk18ImageToImageFilterIN3otb5ImageItLj2EEENS2_IhLj2EEEE33CallCopyInputRegionToOutputRegionERNS_11ImageRegionILj2EEERKS7_@Base 5.0.0
 _ZN3itk18ImageToImageFilterIN3otb5ImageItLj2EEENS2_IhLj2EEEE33CallCopyOutputRegionToInputRegionERNS_11ImageRegionILj2EEERKS7_@Base 5.0.0
 _ZN3itk18ImageToImageFilterIN3otb5ImageItLj2EEENS2_IhLj2EEEE8SetInputEPKS3_@Base 5.0.0
 _ZN3itk18ImageToImageFilterIN3otb5ImageItLj2EEENS2_IhLj2EEEE8SetInputEjPKS3_@Base 5.0.0
 _ZN3itk18ImageToImageFilterIN3otb5ImageItLj2EEENS2_IhLj2EEEED0Ev@Base 5.0.0
 _ZN3itk18ImageToImageFilterIN3otb5ImageItLj2EEENS2_IhLj2EEEED1Ev@Base 5.0.0
 _ZN3itk18ImageToImageFilterIN3otb5ImageItLj2EEENS2_IhLj2EEEED2Ev@Base 5.0.0
 _ZN3itk18ImageToImageFilterIN3otb5ImageItLj2EEENS2_IiLj2EEEE12PopBackInputEv@Base 5.0.0
 _ZN3itk18ImageToImageFilterIN3otb5ImageItLj2EEENS2_IiLj2EEEE13PopFrontInputEv@Base 5.0.0
 _ZN3itk18ImageToImageFilterIN3otb5ImageItLj2EEENS2_IiLj2EEEE13PushBackInputEPKNS_10DataObjectE@Base 5.0.0
 _ZN3itk18ImageToImageFilterIN3otb5ImageItLj2EEENS2_IiLj2EEEE13PushBackInputEPKS3_@Base 5.0.0
 _ZN3itk18ImageToImageFilterIN3otb5ImageItLj2EEENS2_IiLj2EEEE14PushFrontInputEPKNS_10DataObjectE@Base 5.0.0
 _ZN3itk18ImageToImageFilterIN3otb5ImageItLj2EEENS2_IiLj2EEEE14PushFrontInputEPKS3_@Base 5.0.0
 _ZN3itk18ImageToImageFilterIN3otb5ImageItLj2EEENS2_IiLj2EEEE21SetDirectionToleranceEd@Base 5.0.0
 _ZN3itk18ImageToImageFilterIN3otb5ImageItLj2EEENS2_IiLj2EEEE22SetCoordinateToleranceEd@Base 5.0.0
 _ZN3itk18ImageToImageFilterIN3otb5ImageItLj2EEENS2_IiLj2EEEE22VerifyInputInformationEv@Base 5.0.0
 _ZN3itk18ImageToImageFilterIN3otb5ImageItLj2EEENS2_IiLj2EEEE28GenerateInputRequestedRegionEv@Base 5.0.0
 _ZN3itk18ImageToImageFilterIN3otb5ImageItLj2EEENS2_IiLj2EEEE33CallCopyInputRegionToOutputRegionERNS_11ImageRegionILj2EEERKS7_@Base 5.0.0
 _ZN3itk18ImageToImageFilterIN3otb5ImageItLj2EEENS2_IiLj2EEEE33CallCopyOutputRegionToInputRegionERNS_11ImageRegionILj2EEERKS7_@Base 5.0.0
 _ZN3itk18ImageToImageFilterIN3otb5ImageItLj2EEENS2_IiLj2EEEE8SetInputEPKS3_@Base 5.0.0
 _ZN3itk18ImageToImageFilterIN3otb5ImageItLj2EEENS2_IiLj2EEEE8SetInputEjPKS3_@Base 5.0.0
 _ZN3itk18ImageToImageFilterIN3otb5ImageItLj2EEENS2_IiLj2EEEED0Ev@Base 5.0.0
 _ZN3itk18ImageToImageFilterIN3otb5ImageItLj2EEENS2_IiLj2EEEED1Ev@Base 5.0.0
 _ZN3itk18ImageToImageFilterIN3otb5ImageItLj2EEENS2_IiLj2EEEED2Ev@Base 5.0.0
 _ZN3itk18ImageToImageFilterIN3otb5ImageItLj2EEENS2_IjLj2EEEE12PopBackInputEv@Base 5.0.0
 _ZN3itk18ImageToImageFilterIN3otb5ImageItLj2EEENS2_IjLj2EEEE13PopFrontInputEv@Base 5.0.0
 _ZN3itk18ImageToImageFilterIN3otb5ImageItLj2EEENS2_IjLj2EEEE13PushBackInputEPKNS_10DataObjectE@Base 5.0.0
 _ZN3itk18ImageToImageFilterIN3otb5ImageItLj2EEENS2_IjLj2EEEE13PushBackInputEPKS3_@Base 5.0.0
 _ZN3itk18ImageToImageFilterIN3otb5ImageItLj2EEENS2_IjLj2EEEE14PushFrontInputEPKNS_10DataObjectE@Base 5.0.0
 _ZN3itk18ImageToImageFilterIN3otb5ImageItLj2EEENS2_IjLj2EEEE14PushFrontInputEPKS3_@Base 5.0.0
 _ZN3itk18ImageToImageFilterIN3otb5ImageItLj2EEENS2_IjLj2EEEE21SetDirectionToleranceEd@Base 5.0.0
 _ZN3itk18ImageToImageFilterIN3otb5ImageItLj2EEENS2_IjLj2EEEE22SetCoordinateToleranceEd@Base 5.0.0
 _ZN3itk18ImageToImageFilterIN3otb5ImageItLj2EEENS2_IjLj2EEEE22VerifyInputInformationEv@Base 5.0.0
 _ZN3itk18ImageToImageFilterIN3otb5ImageItLj2EEENS2_IjLj2EEEE28GenerateInputRequestedRegionEv@Base 5.0.0
 _ZN3itk18ImageToImageFilterIN3otb5ImageItLj2EEENS2_IjLj2EEEE33CallCopyInputRegionToOutputRegionERNS_11ImageRegionILj2EEERKS7_@Base 5.0.0
 _ZN3itk18ImageToImageFilterIN3otb5ImageItLj2EEENS2_IjLj2EEEE33CallCopyOutputRegionToInputRegionERNS_11ImageRegionILj2EEERKS7_@Base 5.0.0
 _ZN3itk18ImageToImageFilterIN3otb5ImageItLj2EEENS2_IjLj2EEEE8SetInputEPKS3_@Base 5.0.0
 _ZN3itk18ImageToImageFilterIN3otb5ImageItLj2EEENS2_IjLj2EEEE8SetInputEjPKS3_@Base 5.0.0
 _ZN3itk18ImageToImageFilterIN3otb5ImageItLj2EEENS2_IjLj2EEEED0Ev@Base 5.0.0
 _ZN3itk18ImageToImageFilterIN3otb5ImageItLj2EEENS2_IjLj2EEEED1Ev@Base 5.0.0
 _ZN3itk18ImageToImageFilterIN3otb5ImageItLj2EEENS2_IjLj2EEEED2Ev@Base 5.0.0
 _ZN3itk18ImageToImageFilterIN3otb5ImageItLj2EEENS2_IsLj2EEEE12PopBackInputEv@Base 5.0.0
 _ZN3itk18ImageToImageFilterIN3otb5ImageItLj2EEENS2_IsLj2EEEE13PopFrontInputEv@Base 5.0.0
 _ZN3itk18ImageToImageFilterIN3otb5ImageItLj2EEENS2_IsLj2EEEE13PushBackInputEPKNS_10DataObjectE@Base 5.0.0
 _ZN3itk18ImageToImageFilterIN3otb5ImageItLj2EEENS2_IsLj2EEEE13PushBackInputEPKS3_@Base 5.0.0
 _ZN3itk18ImageToImageFilterIN3otb5ImageItLj2EEENS2_IsLj2EEEE14PushFrontInputEPKNS_10DataObjectE@Base 5.0.0
 _ZN3itk18ImageToImageFilterIN3otb5ImageItLj2EEENS2_IsLj2EEEE14PushFrontInputEPKS3_@Base 5.0.0
 _ZN3itk18ImageToImageFilterIN3otb5ImageItLj2EEENS2_IsLj2EEEE21SetDirectionToleranceEd@Base 5.0.0
 _ZN3itk18ImageToImageFilterIN3otb5ImageItLj2EEENS2_IsLj2EEEE22SetCoordinateToleranceEd@Base 5.0.0
 _ZN3itk18ImageToImageFilterIN3otb5ImageItLj2EEENS2_IsLj2EEEE22VerifyInputInformationEv@Base 5.0.0
 _ZN3itk18ImageToImageFilterIN3otb5ImageItLj2EEENS2_IsLj2EEEE28GenerateInputRequestedRegionEv@Base 5.0.0
 _ZN3itk18ImageToImageFilterIN3otb5ImageItLj2EEENS2_IsLj2EEEE33CallCopyInputRegionToOutputRegionERNS_11ImageRegionILj2EEERKS7_@Base 5.0.0
 _ZN3itk18ImageToImageFilterIN3otb5ImageItLj2EEENS2_IsLj2EEEE33CallCopyOutputRegionToInputRegionERNS_11ImageRegionILj2EEERKS7_@Base 5.0.0
 _ZN3itk18ImageToImageFilterIN3otb5ImageItLj2EEENS2_IsLj2EEEE8SetInputEPKS3_@Base 5.0.0
 _ZN3itk18ImageToImageFilterIN3otb5ImageItLj2EEENS2_IsLj2EEEE8SetInputEjPKS3_@Base 5.0.0
 _ZN3itk18ImageToImageFilterIN3otb5ImageItLj2EEENS2_IsLj2EEEED0Ev@Base 5.0.0
 _ZN3itk18ImageToImageFilterIN3otb5ImageItLj2EEENS2_IsLj2EEEED1Ev@Base 5.0.0
 _ZN3itk18ImageToImageFilterIN3otb5ImageItLj2EEENS2_IsLj2EEEED2Ev@Base 5.0.0
 _ZN3itk18ImageToImageFilterIN3otb5ImageItLj2EEES3_E12PopBackInputEv@Base 5.0.0
 _ZN3itk18ImageToImageFilterIN3otb5ImageItLj2EEES3_E13PopFrontInputEv@Base 5.0.0
 _ZN3itk18ImageToImageFilterIN3otb5ImageItLj2EEES3_E13PushBackInputEPKNS_10DataObjectE@Base 5.0.0
 _ZN3itk18ImageToImageFilterIN3otb5ImageItLj2EEES3_E13PushBackInputEPKS3_@Base 5.0.0
 _ZN3itk18ImageToImageFilterIN3otb5ImageItLj2EEES3_E14PushFrontInputEPKNS_10DataObjectE@Base 5.0.0
 _ZN3itk18ImageToImageFilterIN3otb5ImageItLj2EEES3_E14PushFrontInputEPKS3_@Base 5.0.0
 _ZN3itk18ImageToImageFilterIN3otb5ImageItLj2EEES3_E21SetDirectionToleranceEd@Base 5.0.0
 _ZN3itk18ImageToImageFilterIN3otb5ImageItLj2EEES3_E22SetCoordinateToleranceEd@Base 5.0.0
 _ZN3itk18ImageToImageFilterIN3otb5ImageItLj2EEES3_E22VerifyInputInformationEv@Base 5.0.0
 _ZN3itk18ImageToImageFilterIN3otb5ImageItLj2EEES3_E28GenerateInputRequestedRegionEv@Base 5.0.0
 _ZN3itk18ImageToImageFilterIN3otb5ImageItLj2EEES3_E33CallCopyInputRegionToOutputRegionERNS_11ImageRegionILj2EEERKS6_@Base 5.0.0
 _ZN3itk18ImageToImageFilterIN3otb5ImageItLj2EEES3_E33CallCopyOutputRegionToInputRegionERNS_11ImageRegionILj2EEERKS6_@Base 5.0.0
 _ZN3itk18ImageToImageFilterIN3otb5ImageItLj2EEES3_E8SetInputEPKS3_@Base 5.0.0
 _ZN3itk18ImageToImageFilterIN3otb5ImageItLj2EEES3_E8SetInputEjPKS3_@Base 5.0.0
 _ZN3itk18ImageToImageFilterIN3otb5ImageItLj2EEES3_ED0Ev@Base 5.0.0
 _ZN3itk18ImageToImageFilterIN3otb5ImageItLj2EEES3_ED1Ev@Base 5.0.0
 _ZN3itk18ImageToImageFilterIN3otb5ImageItLj2EEES3_ED2Ev@Base 5.0.0
 _ZN3itk18InPlaceImageFilterIN3otb11VectorImageISt7complexIdELj2EEENS2_IS3_IfELj2EEEE10InPlaceOffEv@Base 5.0.0
 _ZN3itk18InPlaceImageFilterIN3otb11VectorImageISt7complexIdELj2EEENS2_IS3_IfELj2EEEE10SetInPlaceEb@Base 5.0.0
 _ZN3itk18InPlaceImageFilterIN3otb11VectorImageISt7complexIdELj2EEENS2_IS3_IfELj2EEEE13ReleaseInputsEv@Base 5.0.0
 _ZN3itk18InPlaceImageFilterIN3otb11VectorImageISt7complexIdELj2EEENS2_IS3_IfELj2EEEE15AllocateOutputsEv@Base 5.0.0
 _ZN3itk18InPlaceImageFilterIN3otb11VectorImageISt7complexIdELj2EEENS2_IS3_IfELj2EEEE9InPlaceOnEv@Base 5.0.0
 _ZN3itk18InPlaceImageFilterIN3otb11VectorImageISt7complexIdELj2EEENS2_IS3_IfELj2EEEED0Ev@Base 5.0.0
 _ZN3itk18InPlaceImageFilterIN3otb11VectorImageISt7complexIdELj2EEENS2_IS3_IfELj2EEEED1Ev@Base 5.0.0
 _ZN3itk18InPlaceImageFilterIN3otb11VectorImageISt7complexIdELj2EEENS2_IS3_IfELj2EEEED2Ev@Base 5.0.0
 _ZN3itk18InPlaceImageFilterIN3otb11VectorImageISt7complexIdELj2EEES5_E10InPlaceOffEv@Base 5.0.0
 _ZN3itk18InPlaceImageFilterIN3otb11VectorImageISt7complexIdELj2EEES5_E10SetInPlaceEb@Base 5.0.0
 _ZN3itk18InPlaceImageFilterIN3otb11VectorImageISt7complexIdELj2EEES5_E13ReleaseInputsEv@Base 5.0.0
 _ZN3itk18InPlaceImageFilterIN3otb11VectorImageISt7complexIdELj2EEES5_E15AllocateOutputsEv@Base 5.0.0
 _ZN3itk18InPlaceImageFilterIN3otb11VectorImageISt7complexIdELj2EEES5_E23InternalAllocateOutputsERKNS_8TrueTypeE@Base 5.0.0
 _ZN3itk18InPlaceImageFilterIN3otb11VectorImageISt7complexIdELj2EEES5_E9InPlaceOnEv@Base 5.0.0
 _ZN3itk18InPlaceImageFilterIN3otb11VectorImageISt7complexIdELj2EEES5_ED0Ev@Base 5.0.0
 _ZN3itk18InPlaceImageFilterIN3otb11VectorImageISt7complexIdELj2EEES5_ED1Ev@Base 5.0.0
 _ZN3itk18InPlaceImageFilterIN3otb11VectorImageISt7complexIdELj2EEES5_ED2Ev@Base 5.0.0
 _ZN3itk18InPlaceImageFilterIN3otb11VectorImageISt7complexIfELj2EEENS2_IS3_IdELj2EEEE10InPlaceOffEv@Base 5.0.0
 _ZN3itk18InPlaceImageFilterIN3otb11VectorImageISt7complexIfELj2EEENS2_IS3_IdELj2EEEE10SetInPlaceEb@Base 5.0.0
 _ZN3itk18InPlaceImageFilterIN3otb11VectorImageISt7complexIfELj2EEENS2_IS3_IdELj2EEEE13ReleaseInputsEv@Base 5.0.0
 _ZN3itk18InPlaceImageFilterIN3otb11VectorImageISt7complexIfELj2EEENS2_IS3_IdELj2EEEE15AllocateOutputsEv@Base 5.0.0
 _ZN3itk18InPlaceImageFilterIN3otb11VectorImageISt7complexIfELj2EEENS2_IS3_IdELj2EEEE9InPlaceOnEv@Base 5.0.0
 _ZN3itk18InPlaceImageFilterIN3otb11VectorImageISt7complexIfELj2EEENS2_IS3_IdELj2EEEED0Ev@Base 5.0.0
 _ZN3itk18InPlaceImageFilterIN3otb11VectorImageISt7complexIfELj2EEENS2_IS3_IdELj2EEEED1Ev@Base 5.0.0
 _ZN3itk18InPlaceImageFilterIN3otb11VectorImageISt7complexIfELj2EEENS2_IS3_IdELj2EEEED2Ev@Base 5.0.0
 _ZN3itk18InPlaceImageFilterIN3otb11VectorImageISt7complexIfELj2EEES5_E10InPlaceOffEv@Base 5.0.0
 _ZN3itk18InPlaceImageFilterIN3otb11VectorImageISt7complexIfELj2EEES5_E10SetInPlaceEb@Base 5.0.0
 _ZN3itk18InPlaceImageFilterIN3otb11VectorImageISt7complexIfELj2EEES5_E13ReleaseInputsEv@Base 5.0.0
 _ZN3itk18InPlaceImageFilterIN3otb11VectorImageISt7complexIfELj2EEES5_E15AllocateOutputsEv@Base 5.0.0
 _ZN3itk18InPlaceImageFilterIN3otb11VectorImageISt7complexIfELj2EEES5_E23InternalAllocateOutputsERKNS_8TrueTypeE@Base 5.0.0
 _ZN3itk18InPlaceImageFilterIN3otb11VectorImageISt7complexIfELj2EEES5_E9InPlaceOnEv@Base 5.0.0
 _ZN3itk18InPlaceImageFilterIN3otb11VectorImageISt7complexIfELj2EEES5_ED0Ev@Base 5.0.0
 _ZN3itk18InPlaceImageFilterIN3otb11VectorImageISt7complexIfELj2EEES5_ED1Ev@Base 5.0.0
 _ZN3itk18InPlaceImageFilterIN3otb11VectorImageISt7complexIfELj2EEES5_ED2Ev@Base 5.0.0
 _ZN3itk18InPlaceImageFilterIN3otb11VectorImageIdLj2EEENS2_IfLj2EEEE10InPlaceOffEv@Base 5.0.0
 _ZN3itk18InPlaceImageFilterIN3otb11VectorImageIdLj2EEENS2_IfLj2EEEE10SetInPlaceEb@Base 5.0.0
 _ZN3itk18InPlaceImageFilterIN3otb11VectorImageIdLj2EEENS2_IfLj2EEEE13ReleaseInputsEv@Base 5.0.0
 _ZN3itk18InPlaceImageFilterIN3otb11VectorImageIdLj2EEENS2_IfLj2EEEE15AllocateOutputsEv@Base 5.0.0
 _ZN3itk18InPlaceImageFilterIN3otb11VectorImageIdLj2EEENS2_IfLj2EEEE9InPlaceOnEv@Base 5.0.0
 _ZN3itk18InPlaceImageFilterIN3otb11VectorImageIdLj2EEENS2_IfLj2EEEED0Ev@Base 5.0.0
 _ZN3itk18InPlaceImageFilterIN3otb11VectorImageIdLj2EEENS2_IfLj2EEEED1Ev@Base 5.0.0
 _ZN3itk18InPlaceImageFilterIN3otb11VectorImageIdLj2EEENS2_IfLj2EEEED2Ev@Base 5.0.0
 _ZN3itk18InPlaceImageFilterIN3otb11VectorImageIdLj2EEENS2_IhLj2EEEE10InPlaceOffEv@Base 5.0.0
 _ZN3itk18InPlaceImageFilterIN3otb11VectorImageIdLj2EEENS2_IhLj2EEEE10SetInPlaceEb@Base 5.0.0
 _ZN3itk18InPlaceImageFilterIN3otb11VectorImageIdLj2EEENS2_IhLj2EEEE13ReleaseInputsEv@Base 5.0.0
 _ZN3itk18InPlaceImageFilterIN3otb11VectorImageIdLj2EEENS2_IhLj2EEEE15AllocateOutputsEv@Base 5.0.0
 _ZN3itk18InPlaceImageFilterIN3otb11VectorImageIdLj2EEENS2_IhLj2EEEE9InPlaceOnEv@Base 5.0.0
 _ZN3itk18InPlaceImageFilterIN3otb11VectorImageIdLj2EEENS2_IhLj2EEEED0Ev@Base 5.0.0
 _ZN3itk18InPlaceImageFilterIN3otb11VectorImageIdLj2EEENS2_IhLj2EEEED1Ev@Base 5.0.0
 _ZN3itk18InPlaceImageFilterIN3otb11VectorImageIdLj2EEENS2_IhLj2EEEED2Ev@Base 5.0.0
 _ZN3itk18InPlaceImageFilterIN3otb11VectorImageIdLj2EEENS2_IiLj2EEEE10InPlaceOffEv@Base 5.0.0
 _ZN3itk18InPlaceImageFilterIN3otb11VectorImageIdLj2EEENS2_IiLj2EEEE10SetInPlaceEb@Base 5.0.0
 _ZN3itk18InPlaceImageFilterIN3otb11VectorImageIdLj2EEENS2_IiLj2EEEE13ReleaseInputsEv@Base 5.0.0
 _ZN3itk18InPlaceImageFilterIN3otb11VectorImageIdLj2EEENS2_IiLj2EEEE15AllocateOutputsEv@Base 5.0.0
 _ZN3itk18InPlaceImageFilterIN3otb11VectorImageIdLj2EEENS2_IiLj2EEEE9InPlaceOnEv@Base 5.0.0
 _ZN3itk18InPlaceImageFilterIN3otb11VectorImageIdLj2EEENS2_IiLj2EEEED0Ev@Base 5.0.0
 _ZN3itk18InPlaceImageFilterIN3otb11VectorImageIdLj2EEENS2_IiLj2EEEED1Ev@Base 5.0.0
 _ZN3itk18InPlaceImageFilterIN3otb11VectorImageIdLj2EEENS2_IiLj2EEEED2Ev@Base 5.0.0
 _ZN3itk18InPlaceImageFilterIN3otb11VectorImageIdLj2EEENS2_IjLj2EEEE10InPlaceOffEv@Base 5.0.0
 _ZN3itk18InPlaceImageFilterIN3otb11VectorImageIdLj2EEENS2_IjLj2EEEE10SetInPlaceEb@Base 5.0.0
 _ZN3itk18InPlaceImageFilterIN3otb11VectorImageIdLj2EEENS2_IjLj2EEEE13ReleaseInputsEv@Base 5.0.0
 _ZN3itk18InPlaceImageFilterIN3otb11VectorImageIdLj2EEENS2_IjLj2EEEE15AllocateOutputsEv@Base 5.0.0
 _ZN3itk18InPlaceImageFilterIN3otb11VectorImageIdLj2EEENS2_IjLj2EEEE9InPlaceOnEv@Base 5.0.0
 _ZN3itk18InPlaceImageFilterIN3otb11VectorImageIdLj2EEENS2_IjLj2EEEED0Ev@Base 5.0.0
 _ZN3itk18InPlaceImageFilterIN3otb11VectorImageIdLj2EEENS2_IjLj2EEEED1Ev@Base 5.0.0
 _ZN3itk18InPlaceImageFilterIN3otb11VectorImageIdLj2EEENS2_IjLj2EEEED2Ev@Base 5.0.0
 _ZN3itk18InPlaceImageFilterIN3otb11VectorImageIdLj2EEENS2_IsLj2EEEE10InPlaceOffEv@Base 5.0.0
 _ZN3itk18InPlaceImageFilterIN3otb11VectorImageIdLj2EEENS2_IsLj2EEEE10SetInPlaceEb@Base 5.0.0
 _ZN3itk18InPlaceImageFilterIN3otb11VectorImageIdLj2EEENS2_IsLj2EEEE13ReleaseInputsEv@Base 5.0.0
 _ZN3itk18InPlaceImageFilterIN3otb11VectorImageIdLj2EEENS2_IsLj2EEEE15AllocateOutputsEv@Base 5.0.0
 _ZN3itk18InPlaceImageFilterIN3otb11VectorImageIdLj2EEENS2_IsLj2EEEE9InPlaceOnEv@Base 5.0.0
 _ZN3itk18InPlaceImageFilterIN3otb11VectorImageIdLj2EEENS2_IsLj2EEEED0Ev@Base 5.0.0
 _ZN3itk18InPlaceImageFilterIN3otb11VectorImageIdLj2EEENS2_IsLj2EEEED1Ev@Base 5.0.0
 _ZN3itk18InPlaceImageFilterIN3otb11VectorImageIdLj2EEENS2_IsLj2EEEED2Ev@Base 5.0.0
 _ZN3itk18InPlaceImageFilterIN3otb11VectorImageIdLj2EEENS2_ItLj2EEEE10InPlaceOffEv@Base 5.0.0
 _ZN3itk18InPlaceImageFilterIN3otb11VectorImageIdLj2EEENS2_ItLj2EEEE10SetInPlaceEb@Base 5.0.0
 _ZN3itk18InPlaceImageFilterIN3otb11VectorImageIdLj2EEENS2_ItLj2EEEE13ReleaseInputsEv@Base 5.0.0
 _ZN3itk18InPlaceImageFilterIN3otb11VectorImageIdLj2EEENS2_ItLj2EEEE15AllocateOutputsEv@Base 5.0.0
 _ZN3itk18InPlaceImageFilterIN3otb11VectorImageIdLj2EEENS2_ItLj2EEEE9InPlaceOnEv@Base 5.0.0
 _ZN3itk18InPlaceImageFilterIN3otb11VectorImageIdLj2EEENS2_ItLj2EEEED0Ev@Base 5.0.0
 _ZN3itk18InPlaceImageFilterIN3otb11VectorImageIdLj2EEENS2_ItLj2EEEED1Ev@Base 5.0.0
 _ZN3itk18InPlaceImageFilterIN3otb11VectorImageIdLj2EEENS2_ItLj2EEEED2Ev@Base 5.0.0
 _ZN3itk18InPlaceImageFilterIN3otb11VectorImageIdLj2EEES3_E10InPlaceOffEv@Base 5.0.0
 _ZN3itk18InPlaceImageFilterIN3otb11VectorImageIdLj2EEES3_E10SetInPlaceEb@Base 5.0.0
 _ZN3itk18InPlaceImageFilterIN3otb11VectorImageIdLj2EEES3_E13ReleaseInputsEv@Base 5.0.0
 _ZN3itk18InPlaceImageFilterIN3otb11VectorImageIdLj2EEES3_E15AllocateOutputsEv@Base 5.0.0
 _ZN3itk18InPlaceImageFilterIN3otb11VectorImageIdLj2EEES3_E23InternalAllocateOutputsERKNS_8TrueTypeE@Base 5.0.0
 _ZN3itk18InPlaceImageFilterIN3otb11VectorImageIdLj2EEES3_E9InPlaceOnEv@Base 5.0.0
 _ZN3itk18InPlaceImageFilterIN3otb11VectorImageIdLj2EEES3_ED0Ev@Base 5.0.0
 _ZN3itk18InPlaceImageFilterIN3otb11VectorImageIdLj2EEES3_ED1Ev@Base 5.0.0
 _ZN3itk18InPlaceImageFilterIN3otb11VectorImageIdLj2EEES3_ED2Ev@Base 5.0.0
 _ZN3itk18InPlaceImageFilterIN3otb11VectorImageIfLj2EEENS2_IdLj2EEEE10InPlaceOffEv@Base 5.0.0
 _ZN3itk18InPlaceImageFilterIN3otb11VectorImageIfLj2EEENS2_IdLj2EEEE10SetInPlaceEb@Base 5.0.0
 _ZN3itk18InPlaceImageFilterIN3otb11VectorImageIfLj2EEENS2_IdLj2EEEE13ReleaseInputsEv@Base 5.0.0
 _ZN3itk18InPlaceImageFilterIN3otb11VectorImageIfLj2EEENS2_IdLj2EEEE15AllocateOutputsEv@Base 5.0.0
 _ZN3itk18InPlaceImageFilterIN3otb11VectorImageIfLj2EEENS2_IdLj2EEEE9InPlaceOnEv@Base 5.0.0
 _ZN3itk18InPlaceImageFilterIN3otb11VectorImageIfLj2EEENS2_IdLj2EEEED0Ev@Base 5.0.0
 _ZN3itk18InPlaceImageFilterIN3otb11VectorImageIfLj2EEENS2_IdLj2EEEED1Ev@Base 5.0.0
 _ZN3itk18InPlaceImageFilterIN3otb11VectorImageIfLj2EEENS2_IdLj2EEEED2Ev@Base 5.0.0
 _ZN3itk18InPlaceImageFilterIN3otb11VectorImageIfLj2EEENS2_IhLj2EEEE10InPlaceOffEv@Base 5.0.0
 _ZN3itk18InPlaceImageFilterIN3otb11VectorImageIfLj2EEENS2_IhLj2EEEE10SetInPlaceEb@Base 5.0.0
 _ZN3itk18InPlaceImageFilterIN3otb11VectorImageIfLj2EEENS2_IhLj2EEEE13ReleaseInputsEv@Base 5.0.0
 _ZN3itk18InPlaceImageFilterIN3otb11VectorImageIfLj2EEENS2_IhLj2EEEE15AllocateOutputsEv@Base 5.0.0
 _ZN3itk18InPlaceImageFilterIN3otb11VectorImageIfLj2EEENS2_IhLj2EEEE9InPlaceOnEv@Base 5.0.0
 _ZN3itk18InPlaceImageFilterIN3otb11VectorImageIfLj2EEENS2_IhLj2EEEED0Ev@Base 5.0.0
 _ZN3itk18InPlaceImageFilterIN3otb11VectorImageIfLj2EEENS2_IhLj2EEEED1Ev@Base 5.0.0
 _ZN3itk18InPlaceImageFilterIN3otb11VectorImageIfLj2EEENS2_IhLj2EEEED2Ev@Base 5.0.0
 _ZN3itk18InPlaceImageFilterIN3otb11VectorImageIfLj2EEENS2_IiLj2EEEE10InPlaceOffEv@Base 5.0.0
 _ZN3itk18InPlaceImageFilterIN3otb11VectorImageIfLj2EEENS2_IiLj2EEEE10SetInPlaceEb@Base 5.0.0
 _ZN3itk18InPlaceImageFilterIN3otb11VectorImageIfLj2EEENS2_IiLj2EEEE13ReleaseInputsEv@Base 5.0.0
 _ZN3itk18InPlaceImageFilterIN3otb11VectorImageIfLj2EEENS2_IiLj2EEEE15AllocateOutputsEv@Base 5.0.0
 _ZN3itk18InPlaceImageFilterIN3otb11VectorImageIfLj2EEENS2_IiLj2EEEE9InPlaceOnEv@Base 5.0.0
 _ZN3itk18InPlaceImageFilterIN3otb11VectorImageIfLj2EEENS2_IiLj2EEEED0Ev@Base 5.0.0
 _ZN3itk18InPlaceImageFilterIN3otb11VectorImageIfLj2EEENS2_IiLj2EEEED1Ev@Base 5.0.0
 _ZN3itk18InPlaceImageFilterIN3otb11VectorImageIfLj2EEENS2_IiLj2EEEED2Ev@Base 5.0.0
 _ZN3itk18InPlaceImageFilterIN3otb11VectorImageIfLj2EEENS2_IjLj2EEEE10InPlaceOffEv@Base 5.0.0
 _ZN3itk18InPlaceImageFilterIN3otb11VectorImageIfLj2EEENS2_IjLj2EEEE10SetInPlaceEb@Base 5.0.0
 _ZN3itk18InPlaceImageFilterIN3otb11VectorImageIfLj2EEENS2_IjLj2EEEE13ReleaseInputsEv@Base 5.0.0
 _ZN3itk18InPlaceImageFilterIN3otb11VectorImageIfLj2EEENS2_IjLj2EEEE15AllocateOutputsEv@Base 5.0.0
 _ZN3itk18InPlaceImageFilterIN3otb11VectorImageIfLj2EEENS2_IjLj2EEEE9InPlaceOnEv@Base 5.0.0
 _ZN3itk18InPlaceImageFilterIN3otb11VectorImageIfLj2EEENS2_IjLj2EEEED0Ev@Base 5.0.0
 _ZN3itk18InPlaceImageFilterIN3otb11VectorImageIfLj2EEENS2_IjLj2EEEED1Ev@Base 5.0.0
 _ZN3itk18InPlaceImageFilterIN3otb11VectorImageIfLj2EEENS2_IjLj2EEEED2Ev@Base 5.0.0
 _ZN3itk18InPlaceImageFilterIN3otb11VectorImageIfLj2EEENS2_IsLj2EEEE10InPlaceOffEv@Base 5.0.0
 _ZN3itk18InPlaceImageFilterIN3otb11VectorImageIfLj2EEENS2_IsLj2EEEE10SetInPlaceEb@Base 5.0.0
 _ZN3itk18InPlaceImageFilterIN3otb11VectorImageIfLj2EEENS2_IsLj2EEEE13ReleaseInputsEv@Base 5.0.0
 _ZN3itk18InPlaceImageFilterIN3otb11VectorImageIfLj2EEENS2_IsLj2EEEE15AllocateOutputsEv@Base 5.0.0
 _ZN3itk18InPlaceImageFilterIN3otb11VectorImageIfLj2EEENS2_IsLj2EEEE9InPlaceOnEv@Base 5.0.0
 _ZN3itk18InPlaceImageFilterIN3otb11VectorImageIfLj2EEENS2_IsLj2EEEED0Ev@Base 5.0.0
 _ZN3itk18InPlaceImageFilterIN3otb11VectorImageIfLj2EEENS2_IsLj2EEEED1Ev@Base 5.0.0
 _ZN3itk18InPlaceImageFilterIN3otb11VectorImageIfLj2EEENS2_IsLj2EEEED2Ev@Base 5.0.0
 _ZN3itk18InPlaceImageFilterIN3otb11VectorImageIfLj2EEENS2_ItLj2EEEE10InPlaceOffEv@Base 5.0.0
 _ZN3itk18InPlaceImageFilterIN3otb11VectorImageIfLj2EEENS2_ItLj2EEEE10SetInPlaceEb@Base 5.0.0
 _ZN3itk18InPlaceImageFilterIN3otb11VectorImageIfLj2EEENS2_ItLj2EEEE13ReleaseInputsEv@Base 5.0.0
 _ZN3itk18InPlaceImageFilterIN3otb11VectorImageIfLj2EEENS2_ItLj2EEEE15AllocateOutputsEv@Base 5.0.0
 _ZN3itk18InPlaceImageFilterIN3otb11VectorImageIfLj2EEENS2_ItLj2EEEE9InPlaceOnEv@Base 5.0.0
 _ZN3itk18InPlaceImageFilterIN3otb11VectorImageIfLj2EEENS2_ItLj2EEEED0Ev@Base 5.0.0
 _ZN3itk18InPlaceImageFilterIN3otb11VectorImageIfLj2EEENS2_ItLj2EEEED1Ev@Base 5.0.0
 _ZN3itk18InPlaceImageFilterIN3otb11VectorImageIfLj2EEENS2_ItLj2EEEED2Ev@Base 5.0.0
 _ZN3itk18InPlaceImageFilterIN3otb11VectorImageIfLj2EEES3_E10InPlaceOffEv@Base 5.0.0
 _ZN3itk18InPlaceImageFilterIN3otb11VectorImageIfLj2EEES3_E10SetInPlaceEb@Base 5.0.0
 _ZN3itk18InPlaceImageFilterIN3otb11VectorImageIfLj2EEES3_E13ReleaseInputsEv@Base 5.0.0
 _ZN3itk18InPlaceImageFilterIN3otb11VectorImageIfLj2EEES3_E15AllocateOutputsEv@Base 5.0.0
 _ZN3itk18InPlaceImageFilterIN3otb11VectorImageIfLj2EEES3_E23InternalAllocateOutputsERKNS_8TrueTypeE@Base 5.0.0
 _ZN3itk18InPlaceImageFilterIN3otb11VectorImageIfLj2EEES3_E9InPlaceOnEv@Base 5.0.0
 _ZN3itk18InPlaceImageFilterIN3otb11VectorImageIfLj2EEES3_ED0Ev@Base 5.0.0
 _ZN3itk18InPlaceImageFilterIN3otb11VectorImageIfLj2EEES3_ED1Ev@Base 5.0.0
 _ZN3itk18InPlaceImageFilterIN3otb11VectorImageIfLj2EEES3_ED2Ev@Base 5.0.0
 _ZN3itk18InPlaceImageFilterIN3otb11VectorImageIhLj2EEENS2_IdLj2EEEE10InPlaceOffEv@Base 5.0.0
 _ZN3itk18InPlaceImageFilterIN3otb11VectorImageIhLj2EEENS2_IdLj2EEEE10SetInPlaceEb@Base 5.0.0
 _ZN3itk18InPlaceImageFilterIN3otb11VectorImageIhLj2EEENS2_IdLj2EEEE13ReleaseInputsEv@Base 5.0.0
 _ZN3itk18InPlaceImageFilterIN3otb11VectorImageIhLj2EEENS2_IdLj2EEEE15AllocateOutputsEv@Base 5.0.0
 _ZN3itk18InPlaceImageFilterIN3otb11VectorImageIhLj2EEENS2_IdLj2EEEE9InPlaceOnEv@Base 5.0.0
 _ZN3itk18InPlaceImageFilterIN3otb11VectorImageIhLj2EEENS2_IdLj2EEEED0Ev@Base 5.0.0
 _ZN3itk18InPlaceImageFilterIN3otb11VectorImageIhLj2EEENS2_IdLj2EEEED1Ev@Base 5.0.0
 _ZN3itk18InPlaceImageFilterIN3otb11VectorImageIhLj2EEENS2_IdLj2EEEED2Ev@Base 5.0.0
 _ZN3itk18InPlaceImageFilterIN3otb11VectorImageIhLj2EEENS2_IfLj2EEEE10InPlaceOffEv@Base 5.0.0
 _ZN3itk18InPlaceImageFilterIN3otb11VectorImageIhLj2EEENS2_IfLj2EEEE10SetInPlaceEb@Base 5.0.0
 _ZN3itk18InPlaceImageFilterIN3otb11VectorImageIhLj2EEENS2_IfLj2EEEE13ReleaseInputsEv@Base 5.0.0
 _ZN3itk18InPlaceImageFilterIN3otb11VectorImageIhLj2EEENS2_IfLj2EEEE15AllocateOutputsEv@Base 5.0.0
 _ZN3itk18InPlaceImageFilterIN3otb11VectorImageIhLj2EEENS2_IfLj2EEEE9InPlaceOnEv@Base 5.0.0
 _ZN3itk18InPlaceImageFilterIN3otb11VectorImageIhLj2EEENS2_IfLj2EEEED0Ev@Base 5.0.0
 _ZN3itk18InPlaceImageFilterIN3otb11VectorImageIhLj2EEENS2_IfLj2EEEED1Ev@Base 5.0.0
 _ZN3itk18InPlaceImageFilterIN3otb11VectorImageIhLj2EEENS2_IfLj2EEEED2Ev@Base 5.0.0
 _ZN3itk18InPlaceImageFilterIN3otb11VectorImageIhLj2EEENS2_IiLj2EEEE10InPlaceOffEv@Base 5.0.0
 _ZN3itk18InPlaceImageFilterIN3otb11VectorImageIhLj2EEENS2_IiLj2EEEE10SetInPlaceEb@Base 5.0.0
 _ZN3itk18InPlaceImageFilterIN3otb11VectorImageIhLj2EEENS2_IiLj2EEEE13ReleaseInputsEv@Base 5.0.0
 _ZN3itk18InPlaceImageFilterIN3otb11VectorImageIhLj2EEENS2_IiLj2EEEE15AllocateOutputsEv@Base 5.0.0
 _ZN3itk18InPlaceImageFilterIN3otb11VectorImageIhLj2EEENS2_IiLj2EEEE9InPlaceOnEv@Base 5.0.0
 _ZN3itk18InPlaceImageFilterIN3otb11VectorImageIhLj2EEENS2_IiLj2EEEED0Ev@Base 5.0.0
 _ZN3itk18InPlaceImageFilterIN3otb11VectorImageIhLj2EEENS2_IiLj2EEEED1Ev@Base 5.0.0
 _ZN3itk18InPlaceImageFilterIN3otb11VectorImageIhLj2EEENS2_IiLj2EEEED2Ev@Base 5.0.0
 _ZN3itk18InPlaceImageFilterIN3otb11VectorImageIhLj2EEENS2_IjLj2EEEE10InPlaceOffEv@Base 5.0.0
 _ZN3itk18InPlaceImageFilterIN3otb11VectorImageIhLj2EEENS2_IjLj2EEEE10SetInPlaceEb@Base 5.0.0
 _ZN3itk18InPlaceImageFilterIN3otb11VectorImageIhLj2EEENS2_IjLj2EEEE13ReleaseInputsEv@Base 5.0.0
 _ZN3itk18InPlaceImageFilterIN3otb11VectorImageIhLj2EEENS2_IjLj2EEEE15AllocateOutputsEv@Base 5.0.0
 _ZN3itk18InPlaceImageFilterIN3otb11VectorImageIhLj2EEENS2_IjLj2EEEE9InPlaceOnEv@Base 5.0.0
 _ZN3itk18InPlaceImageFilterIN3otb11VectorImageIhLj2EEENS2_IjLj2EEEED0Ev@Base 5.0.0
 _ZN3itk18InPlaceImageFilterIN3otb11VectorImageIhLj2EEENS2_IjLj2EEEED1Ev@Base 5.0.0
 _ZN3itk18InPlaceImageFilterIN3otb11VectorImageIhLj2EEENS2_IjLj2EEEED2Ev@Base 5.0.0
 _ZN3itk18InPlaceImageFilterIN3otb11VectorImageIhLj2EEENS2_IsLj2EEEE10InPlaceOffEv@Base 5.0.0
 _ZN3itk18InPlaceImageFilterIN3otb11VectorImageIhLj2EEENS2_IsLj2EEEE10SetInPlaceEb@Base 5.0.0
 _ZN3itk18InPlaceImageFilterIN3otb11VectorImageIhLj2EEENS2_IsLj2EEEE13ReleaseInputsEv@Base 5.0.0
 _ZN3itk18InPlaceImageFilterIN3otb11VectorImageIhLj2EEENS2_IsLj2EEEE15AllocateOutputsEv@Base 5.0.0
 _ZN3itk18InPlaceImageFilterIN3otb11VectorImageIhLj2EEENS2_IsLj2EEEE9InPlaceOnEv@Base 5.0.0
 _ZN3itk18InPlaceImageFilterIN3otb11VectorImageIhLj2EEENS2_IsLj2EEEED0Ev@Base 5.0.0
 _ZN3itk18InPlaceImageFilterIN3otb11VectorImageIhLj2EEENS2_IsLj2EEEED1Ev@Base 5.0.0
 _ZN3itk18InPlaceImageFilterIN3otb11VectorImageIhLj2EEENS2_IsLj2EEEED2Ev@Base 5.0.0
 _ZN3itk18InPlaceImageFilterIN3otb11VectorImageIhLj2EEENS2_ItLj2EEEE10InPlaceOffEv@Base 5.0.0
 _ZN3itk18InPlaceImageFilterIN3otb11VectorImageIhLj2EEENS2_ItLj2EEEE10SetInPlaceEb@Base 5.0.0
 _ZN3itk18InPlaceImageFilterIN3otb11VectorImageIhLj2EEENS2_ItLj2EEEE13ReleaseInputsEv@Base 5.0.0
 _ZN3itk18InPlaceImageFilterIN3otb11VectorImageIhLj2EEENS2_ItLj2EEEE15AllocateOutputsEv@Base 5.0.0
 _ZN3itk18InPlaceImageFilterIN3otb11VectorImageIhLj2EEENS2_ItLj2EEEE9InPlaceOnEv@Base 5.0.0
 _ZN3itk18InPlaceImageFilterIN3otb11VectorImageIhLj2EEENS2_ItLj2EEEED0Ev@Base 5.0.0
 _ZN3itk18InPlaceImageFilterIN3otb11VectorImageIhLj2EEENS2_ItLj2EEEED1Ev@Base 5.0.0
 _ZN3itk18InPlaceImageFilterIN3otb11VectorImageIhLj2EEENS2_ItLj2EEEED2Ev@Base 5.0.0
 _ZN3itk18InPlaceImageFilterIN3otb11VectorImageIhLj2EEES3_E10InPlaceOffEv@Base 5.0.0
 _ZN3itk18InPlaceImageFilterIN3otb11VectorImageIhLj2EEES3_E10SetInPlaceEb@Base 5.0.0
 _ZN3itk18InPlaceImageFilterIN3otb11VectorImageIhLj2EEES3_E13ReleaseInputsEv@Base 5.0.0
 _ZN3itk18InPlaceImageFilterIN3otb11VectorImageIhLj2EEES3_E15AllocateOutputsEv@Base 5.0.0
 _ZN3itk18InPlaceImageFilterIN3otb11VectorImageIhLj2EEES3_E23InternalAllocateOutputsERKNS_8TrueTypeE@Base 5.0.0
 _ZN3itk18InPlaceImageFilterIN3otb11VectorImageIhLj2EEES3_E9InPlaceOnEv@Base 5.0.0
 _ZN3itk18InPlaceImageFilterIN3otb11VectorImageIhLj2EEES3_ED0Ev@Base 5.0.0
 _ZN3itk18InPlaceImageFilterIN3otb11VectorImageIhLj2EEES3_ED1Ev@Base 5.0.0
 _ZN3itk18InPlaceImageFilterIN3otb11VectorImageIhLj2EEES3_ED2Ev@Base 5.0.0
 _ZN3itk18InPlaceImageFilterIN3otb11VectorImageIiLj2EEENS2_IdLj2EEEE10InPlaceOffEv@Base 5.0.0
 _ZN3itk18InPlaceImageFilterIN3otb11VectorImageIiLj2EEENS2_IdLj2EEEE10SetInPlaceEb@Base 5.0.0
 _ZN3itk18InPlaceImageFilterIN3otb11VectorImageIiLj2EEENS2_IdLj2EEEE13ReleaseInputsEv@Base 5.0.0
 _ZN3itk18InPlaceImageFilterIN3otb11VectorImageIiLj2EEENS2_IdLj2EEEE15AllocateOutputsEv@Base 5.0.0
 _ZN3itk18InPlaceImageFilterIN3otb11VectorImageIiLj2EEENS2_IdLj2EEEE9InPlaceOnEv@Base 5.0.0
 _ZN3itk18InPlaceImageFilterIN3otb11VectorImageIiLj2EEENS2_IdLj2EEEED0Ev@Base 5.0.0
 _ZN3itk18InPlaceImageFilterIN3otb11VectorImageIiLj2EEENS2_IdLj2EEEED1Ev@Base 5.0.0
 _ZN3itk18InPlaceImageFilterIN3otb11VectorImageIiLj2EEENS2_IdLj2EEEED2Ev@Base 5.0.0
 _ZN3itk18InPlaceImageFilterIN3otb11VectorImageIiLj2EEENS2_IfLj2EEEE10InPlaceOffEv@Base 5.0.0
 _ZN3itk18InPlaceImageFilterIN3otb11VectorImageIiLj2EEENS2_IfLj2EEEE10SetInPlaceEb@Base 5.0.0
 _ZN3itk18InPlaceImageFilterIN3otb11VectorImageIiLj2EEENS2_IfLj2EEEE13ReleaseInputsEv@Base 5.0.0
 _ZN3itk18InPlaceImageFilterIN3otb11VectorImageIiLj2EEENS2_IfLj2EEEE15AllocateOutputsEv@Base 5.0.0
 _ZN3itk18InPlaceImageFilterIN3otb11VectorImageIiLj2EEENS2_IfLj2EEEE9InPlaceOnEv@Base 5.0.0
 _ZN3itk18InPlaceImageFilterIN3otb11VectorImageIiLj2EEENS2_IfLj2EEEED0Ev@Base 5.0.0
 _ZN3itk18InPlaceImageFilterIN3otb11VectorImageIiLj2EEENS2_IfLj2EEEED1Ev@Base 5.0.0
 _ZN3itk18InPlaceImageFilterIN3otb11VectorImageIiLj2EEENS2_IfLj2EEEED2Ev@Base 5.0.0
 _ZN3itk18InPlaceImageFilterIN3otb11VectorImageIiLj2EEENS2_IhLj2EEEE10InPlaceOffEv@Base 5.0.0
 _ZN3itk18InPlaceImageFilterIN3otb11VectorImageIiLj2EEENS2_IhLj2EEEE10SetInPlaceEb@Base 5.0.0
 _ZN3itk18InPlaceImageFilterIN3otb11VectorImageIiLj2EEENS2_IhLj2EEEE13ReleaseInputsEv@Base 5.0.0
 _ZN3itk18InPlaceImageFilterIN3otb11VectorImageIiLj2EEENS2_IhLj2EEEE15AllocateOutputsEv@Base 5.0.0
 _ZN3itk18InPlaceImageFilterIN3otb11VectorImageIiLj2EEENS2_IhLj2EEEE9InPlaceOnEv@Base 5.0.0
 _ZN3itk18InPlaceImageFilterIN3otb11VectorImageIiLj2EEENS2_IhLj2EEEED0Ev@Base 5.0.0
 _ZN3itk18InPlaceImageFilterIN3otb11VectorImageIiLj2EEENS2_IhLj2EEEED1Ev@Base 5.0.0
 _ZN3itk18InPlaceImageFilterIN3otb11VectorImageIiLj2EEENS2_IhLj2EEEED2Ev@Base 5.0.0
 _ZN3itk18InPlaceImageFilterIN3otb11VectorImageIiLj2EEENS2_IjLj2EEEE10InPlaceOffEv@Base 5.0.0
 _ZN3itk18InPlaceImageFilterIN3otb11VectorImageIiLj2EEENS2_IjLj2EEEE10SetInPlaceEb@Base 5.0.0
 _ZN3itk18InPlaceImageFilterIN3otb11VectorImageIiLj2EEENS2_IjLj2EEEE13ReleaseInputsEv@Base 5.0.0
 _ZN3itk18InPlaceImageFilterIN3otb11VectorImageIiLj2EEENS2_IjLj2EEEE15AllocateOutputsEv@Base 5.0.0
 _ZN3itk18InPlaceImageFilterIN3otb11VectorImageIiLj2EEENS2_IjLj2EEEE9InPlaceOnEv@Base 5.0.0
 _ZN3itk18InPlaceImageFilterIN3otb11VectorImageIiLj2EEENS2_IjLj2EEEED0Ev@Base 5.0.0
 _ZN3itk18InPlaceImageFilterIN3otb11VectorImageIiLj2EEENS2_IjLj2EEEED1Ev@Base 5.0.0
 _ZN3itk18InPlaceImageFilterIN3otb11VectorImageIiLj2EEENS2_IjLj2EEEED2Ev@Base 5.0.0
 _ZN3itk18InPlaceImageFilterIN3otb11VectorImageIiLj2EEENS2_IsLj2EEEE10InPlaceOffEv@Base 5.0.0
 _ZN3itk18InPlaceImageFilterIN3otb11VectorImageIiLj2EEENS2_IsLj2EEEE10SetInPlaceEb@Base 5.0.0
 _ZN3itk18InPlaceImageFilterIN3otb11VectorImageIiLj2EEENS2_IsLj2EEEE13ReleaseInputsEv@Base 5.0.0
 _ZN3itk18InPlaceImageFilterIN3otb11VectorImageIiLj2EEENS2_IsLj2EEEE15AllocateOutputsEv@Base 5.0.0
 _ZN3itk18InPlaceImageFilterIN3otb11VectorImageIiLj2EEENS2_IsLj2EEEE9InPlaceOnEv@Base 5.0.0
 _ZN3itk18InPlaceImageFilterIN3otb11VectorImageIiLj2EEENS2_IsLj2EEEED0Ev@Base 5.0.0
 _ZN3itk18InPlaceImageFilterIN3otb11VectorImageIiLj2EEENS2_IsLj2EEEED1Ev@Base 5.0.0
 _ZN3itk18InPlaceImageFilterIN3otb11VectorImageIiLj2EEENS2_IsLj2EEEED2Ev@Base 5.0.0
 _ZN3itk18InPlaceImageFilterIN3otb11VectorImageIiLj2EEENS2_ItLj2EEEE10InPlaceOffEv@Base 5.0.0
 _ZN3itk18InPlaceImageFilterIN3otb11VectorImageIiLj2EEENS2_ItLj2EEEE10SetInPlaceEb@Base 5.0.0
 _ZN3itk18InPlaceImageFilterIN3otb11VectorImageIiLj2EEENS2_ItLj2EEEE13ReleaseInputsEv@Base 5.0.0
 _ZN3itk18InPlaceImageFilterIN3otb11VectorImageIiLj2EEENS2_ItLj2EEEE15AllocateOutputsEv@Base 5.0.0
 _ZN3itk18InPlaceImageFilterIN3otb11VectorImageIiLj2EEENS2_ItLj2EEEE9InPlaceOnEv@Base 5.0.0
 _ZN3itk18InPlaceImageFilterIN3otb11VectorImageIiLj2EEENS2_ItLj2EEEED0Ev@Base 5.0.0
 _ZN3itk18InPlaceImageFilterIN3otb11VectorImageIiLj2EEENS2_ItLj2EEEED1Ev@Base 5.0.0
 _ZN3itk18InPlaceImageFilterIN3otb11VectorImageIiLj2EEENS2_ItLj2EEEED2Ev@Base 5.0.0
 _ZN3itk18InPlaceImageFilterIN3otb11VectorImageIiLj2EEES3_E10InPlaceOffEv@Base 5.0.0
 _ZN3itk18InPlaceImageFilterIN3otb11VectorImageIiLj2EEES3_E10SetInPlaceEb@Base 5.0.0
 _ZN3itk18InPlaceImageFilterIN3otb11VectorImageIiLj2EEES3_E13ReleaseInputsEv@Base 5.0.0
 _ZN3itk18InPlaceImageFilterIN3otb11VectorImageIiLj2EEES3_E15AllocateOutputsEv@Base 5.0.0
 _ZN3itk18InPlaceImageFilterIN3otb11VectorImageIiLj2EEES3_E23InternalAllocateOutputsERKNS_8TrueTypeE@Base 5.0.0
 _ZN3itk18InPlaceImageFilterIN3otb11VectorImageIiLj2EEES3_E9InPlaceOnEv@Base 5.0.0
 _ZN3itk18InPlaceImageFilterIN3otb11VectorImageIiLj2EEES3_ED0Ev@Base 5.0.0
 _ZN3itk18InPlaceImageFilterIN3otb11VectorImageIiLj2EEES3_ED1Ev@Base 5.0.0
 _ZN3itk18InPlaceImageFilterIN3otb11VectorImageIiLj2EEES3_ED2Ev@Base 5.0.0
 _ZN3itk18InPlaceImageFilterIN3otb11VectorImageIjLj2EEENS2_IdLj2EEEE10InPlaceOffEv@Base 5.0.0
 _ZN3itk18InPlaceImageFilterIN3otb11VectorImageIjLj2EEENS2_IdLj2EEEE10SetInPlaceEb@Base 5.0.0
 _ZN3itk18InPlaceImageFilterIN3otb11VectorImageIjLj2EEENS2_IdLj2EEEE13ReleaseInputsEv@Base 5.0.0
 _ZN3itk18InPlaceImageFilterIN3otb11VectorImageIjLj2EEENS2_IdLj2EEEE15AllocateOutputsEv@Base 5.0.0
 _ZN3itk18InPlaceImageFilterIN3otb11VectorImageIjLj2EEENS2_IdLj2EEEE9InPlaceOnEv@Base 5.0.0
 _ZN3itk18InPlaceImageFilterIN3otb11VectorImageIjLj2EEENS2_IdLj2EEEED0Ev@Base 5.0.0
 _ZN3itk18InPlaceImageFilterIN3otb11VectorImageIjLj2EEENS2_IdLj2EEEED1Ev@Base 5.0.0
 _ZN3itk18InPlaceImageFilterIN3otb11VectorImageIjLj2EEENS2_IdLj2EEEED2Ev@Base 5.0.0
 _ZN3itk18InPlaceImageFilterIN3otb11VectorImageIjLj2EEENS2_IfLj2EEEE10InPlaceOffEv@Base 5.0.0
 _ZN3itk18InPlaceImageFilterIN3otb11VectorImageIjLj2EEENS2_IfLj2EEEE10SetInPlaceEb@Base 5.0.0
 _ZN3itk18InPlaceImageFilterIN3otb11VectorImageIjLj2EEENS2_IfLj2EEEE13ReleaseInputsEv@Base 5.0.0
 _ZN3itk18InPlaceImageFilterIN3otb11VectorImageIjLj2EEENS2_IfLj2EEEE15AllocateOutputsEv@Base 5.0.0
 _ZN3itk18InPlaceImageFilterIN3otb11VectorImageIjLj2EEENS2_IfLj2EEEE9InPlaceOnEv@Base 5.0.0
 _ZN3itk18InPlaceImageFilterIN3otb11VectorImageIjLj2EEENS2_IfLj2EEEED0Ev@Base 5.0.0
 _ZN3itk18InPlaceImageFilterIN3otb11VectorImageIjLj2EEENS2_IfLj2EEEED1Ev@Base 5.0.0
 _ZN3itk18InPlaceImageFilterIN3otb11VectorImageIjLj2EEENS2_IfLj2EEEED2Ev@Base 5.0.0
 _ZN3itk18InPlaceImageFilterIN3otb11VectorImageIjLj2EEENS2_IhLj2EEEE10InPlaceOffEv@Base 5.0.0
 _ZN3itk18InPlaceImageFilterIN3otb11VectorImageIjLj2EEENS2_IhLj2EEEE10SetInPlaceEb@Base 5.0.0
 _ZN3itk18InPlaceImageFilterIN3otb11VectorImageIjLj2EEENS2_IhLj2EEEE13ReleaseInputsEv@Base 5.0.0
 _ZN3itk18InPlaceImageFilterIN3otb11VectorImageIjLj2EEENS2_IhLj2EEEE15AllocateOutputsEv@Base 5.0.0
 _ZN3itk18InPlaceImageFilterIN3otb11VectorImageIjLj2EEENS2_IhLj2EEEE9InPlaceOnEv@Base 5.0.0
 _ZN3itk18InPlaceImageFilterIN3otb11VectorImageIjLj2EEENS2_IhLj2EEEED0Ev@Base 5.0.0
 _ZN3itk18InPlaceImageFilterIN3otb11VectorImageIjLj2EEENS2_IhLj2EEEED1Ev@Base 5.0.0
 _ZN3itk18InPlaceImageFilterIN3otb11VectorImageIjLj2EEENS2_IhLj2EEEED2Ev@Base 5.0.0
 _ZN3itk18InPlaceImageFilterIN3otb11VectorImageIjLj2EEENS2_IiLj2EEEE10InPlaceOffEv@Base 5.0.0
 _ZN3itk18InPlaceImageFilterIN3otb11VectorImageIjLj2EEENS2_IiLj2EEEE10SetInPlaceEb@Base 5.0.0
 _ZN3itk18InPlaceImageFilterIN3otb11VectorImageIjLj2EEENS2_IiLj2EEEE13ReleaseInputsEv@Base 5.0.0
 _ZN3itk18InPlaceImageFilterIN3otb11VectorImageIjLj2EEENS2_IiLj2EEEE15AllocateOutputsEv@Base 5.0.0
 _ZN3itk18InPlaceImageFilterIN3otb11VectorImageIjLj2EEENS2_IiLj2EEEE9InPlaceOnEv@Base 5.0.0
 _ZN3itk18InPlaceImageFilterIN3otb11VectorImageIjLj2EEENS2_IiLj2EEEED0Ev@Base 5.0.0
 _ZN3itk18InPlaceImageFilterIN3otb11VectorImageIjLj2EEENS2_IiLj2EEEED1Ev@Base 5.0.0
 _ZN3itk18InPlaceImageFilterIN3otb11VectorImageIjLj2EEENS2_IiLj2EEEED2Ev@Base 5.0.0
 _ZN3itk18InPlaceImageFilterIN3otb11VectorImageIjLj2EEENS2_IsLj2EEEE10InPlaceOffEv@Base 5.0.0
 _ZN3itk18InPlaceImageFilterIN3otb11VectorImageIjLj2EEENS2_IsLj2EEEE10SetInPlaceEb@Base 5.0.0
 _ZN3itk18InPlaceImageFilterIN3otb11VectorImageIjLj2EEENS2_IsLj2EEEE13ReleaseInputsEv@Base 5.0.0
 _ZN3itk18InPlaceImageFilterIN3otb11VectorImageIjLj2EEENS2_IsLj2EEEE15AllocateOutputsEv@Base 5.0.0
 _ZN3itk18InPlaceImageFilterIN3otb11VectorImageIjLj2EEENS2_IsLj2EEEE9InPlaceOnEv@Base 5.0.0
 _ZN3itk18InPlaceImageFilterIN3otb11VectorImageIjLj2EEENS2_IsLj2EEEED0Ev@Base 5.0.0
 _ZN3itk18InPlaceImageFilterIN3otb11VectorImageIjLj2EEENS2_IsLj2EEEED1Ev@Base 5.0.0
 _ZN3itk18InPlaceImageFilterIN3otb11VectorImageIjLj2EEENS2_IsLj2EEEED2Ev@Base 5.0.0
 _ZN3itk18InPlaceImageFilterIN3otb11VectorImageIjLj2EEENS2_ItLj2EEEE10InPlaceOffEv@Base 5.0.0
 _ZN3itk18InPlaceImageFilterIN3otb11VectorImageIjLj2EEENS2_ItLj2EEEE10SetInPlaceEb@Base 5.0.0
 _ZN3itk18InPlaceImageFilterIN3otb11VectorImageIjLj2EEENS2_ItLj2EEEE13ReleaseInputsEv@Base 5.0.0
 _ZN3itk18InPlaceImageFilterIN3otb11VectorImageIjLj2EEENS2_ItLj2EEEE15AllocateOutputsEv@Base 5.0.0
 _ZN3itk18InPlaceImageFilterIN3otb11VectorImageIjLj2EEENS2_ItLj2EEEE9InPlaceOnEv@Base 5.0.0
 _ZN3itk18InPlaceImageFilterIN3otb11VectorImageIjLj2EEENS2_ItLj2EEEED0Ev@Base 5.0.0
 _ZN3itk18InPlaceImageFilterIN3otb11VectorImageIjLj2EEENS2_ItLj2EEEED1Ev@Base 5.0.0
 _ZN3itk18InPlaceImageFilterIN3otb11VectorImageIjLj2EEENS2_ItLj2EEEED2Ev@Base 5.0.0
 _ZN3itk18InPlaceImageFilterIN3otb11VectorImageIjLj2EEES3_E10InPlaceOffEv@Base 5.0.0
 _ZN3itk18InPlaceImageFilterIN3otb11VectorImageIjLj2EEES3_E10SetInPlaceEb@Base 5.0.0
 _ZN3itk18InPlaceImageFilterIN3otb11VectorImageIjLj2EEES3_E13ReleaseInputsEv@Base 5.0.0
 _ZN3itk18InPlaceImageFilterIN3otb11VectorImageIjLj2EEES3_E15AllocateOutputsEv@Base 5.0.0
 _ZN3itk18InPlaceImageFilterIN3otb11VectorImageIjLj2EEES3_E23InternalAllocateOutputsERKNS_8TrueTypeE@Base 5.0.0
 _ZN3itk18InPlaceImageFilterIN3otb11VectorImageIjLj2EEES3_E9InPlaceOnEv@Base 5.0.0
 _ZN3itk18InPlaceImageFilterIN3otb11VectorImageIjLj2EEES3_ED0Ev@Base 5.0.0
 _ZN3itk18InPlaceImageFilterIN3otb11VectorImageIjLj2EEES3_ED1Ev@Base 5.0.0
 _ZN3itk18InPlaceImageFilterIN3otb11VectorImageIjLj2EEES3_ED2Ev@Base 5.0.0
 _ZN3itk18InPlaceImageFilterIN3otb11VectorImageIsLj2EEENS2_IdLj2EEEE10InPlaceOffEv@Base 5.0.0
 _ZN3itk18InPlaceImageFilterIN3otb11VectorImageIsLj2EEENS2_IdLj2EEEE10SetInPlaceEb@Base 5.0.0
 _ZN3itk18InPlaceImageFilterIN3otb11VectorImageIsLj2EEENS2_IdLj2EEEE13ReleaseInputsEv@Base 5.0.0
 _ZN3itk18InPlaceImageFilterIN3otb11VectorImageIsLj2EEENS2_IdLj2EEEE15AllocateOutputsEv@Base 5.0.0
 _ZN3itk18InPlaceImageFilterIN3otb11VectorImageIsLj2EEENS2_IdLj2EEEE9InPlaceOnEv@Base 5.0.0
 _ZN3itk18InPlaceImageFilterIN3otb11VectorImageIsLj2EEENS2_IdLj2EEEED0Ev@Base 5.0.0
 _ZN3itk18InPlaceImageFilterIN3otb11VectorImageIsLj2EEENS2_IdLj2EEEED1Ev@Base 5.0.0
 _ZN3itk18InPlaceImageFilterIN3otb11VectorImageIsLj2EEENS2_IdLj2EEEED2Ev@Base 5.0.0
 _ZN3itk18InPlaceImageFilterIN3otb11VectorImageIsLj2EEENS2_IfLj2EEEE10InPlaceOffEv@Base 5.0.0
 _ZN3itk18InPlaceImageFilterIN3otb11VectorImageIsLj2EEENS2_IfLj2EEEE10SetInPlaceEb@Base 5.0.0
 _ZN3itk18InPlaceImageFilterIN3otb11VectorImageIsLj2EEENS2_IfLj2EEEE13ReleaseInputsEv@Base 5.0.0
 _ZN3itk18InPlaceImageFilterIN3otb11VectorImageIsLj2EEENS2_IfLj2EEEE15AllocateOutputsEv@Base 5.0.0
 _ZN3itk18InPlaceImageFilterIN3otb11VectorImageIsLj2EEENS2_IfLj2EEEE9InPlaceOnEv@Base 5.0.0
 _ZN3itk18InPlaceImageFilterIN3otb11VectorImageIsLj2EEENS2_IfLj2EEEED0Ev@Base 5.0.0
 _ZN3itk18InPlaceImageFilterIN3otb11VectorImageIsLj2EEENS2_IfLj2EEEED1Ev@Base 5.0.0
 _ZN3itk18InPlaceImageFilterIN3otb11VectorImageIsLj2EEENS2_IfLj2EEEED2Ev@Base 5.0.0
 _ZN3itk18InPlaceImageFilterIN3otb11VectorImageIsLj2EEENS2_IhLj2EEEE10InPlaceOffEv@Base 5.0.0
 _ZN3itk18InPlaceImageFilterIN3otb11VectorImageIsLj2EEENS2_IhLj2EEEE10SetInPlaceEb@Base 5.0.0
 _ZN3itk18InPlaceImageFilterIN3otb11VectorImageIsLj2EEENS2_IhLj2EEEE13ReleaseInputsEv@Base 5.0.0
 _ZN3itk18InPlaceImageFilterIN3otb11VectorImageIsLj2EEENS2_IhLj2EEEE15AllocateOutputsEv@Base 5.0.0
 _ZN3itk18InPlaceImageFilterIN3otb11VectorImageIsLj2EEENS2_IhLj2EEEE9InPlaceOnEv@Base 5.0.0
 _ZN3itk18InPlaceImageFilterIN3otb11VectorImageIsLj2EEENS2_IhLj2EEEED0Ev@Base 5.0.0
 _ZN3itk18InPlaceImageFilterIN3otb11VectorImageIsLj2EEENS2_IhLj2EEEED1Ev@Base 5.0.0
 _ZN3itk18InPlaceImageFilterIN3otb11VectorImageIsLj2EEENS2_IhLj2EEEED2Ev@Base 5.0.0
 _ZN3itk18InPlaceImageFilterIN3otb11VectorImageIsLj2EEENS2_IiLj2EEEE10InPlaceOffEv@Base 5.0.0
 _ZN3itk18InPlaceImageFilterIN3otb11VectorImageIsLj2EEENS2_IiLj2EEEE10SetInPlaceEb@Base 5.0.0
 _ZN3itk18InPlaceImageFilterIN3otb11VectorImageIsLj2EEENS2_IiLj2EEEE13ReleaseInputsEv@Base 5.0.0
 _ZN3itk18InPlaceImageFilterIN3otb11VectorImageIsLj2EEENS2_IiLj2EEEE15AllocateOutputsEv@Base 5.0.0
 _ZN3itk18InPlaceImageFilterIN3otb11VectorImageIsLj2EEENS2_IiLj2EEEE9InPlaceOnEv@Base 5.0.0
 _ZN3itk18InPlaceImageFilterIN3otb11VectorImageIsLj2EEENS2_IiLj2EEEED0Ev@Base 5.0.0
 _ZN3itk18InPlaceImageFilterIN3otb11VectorImageIsLj2EEENS2_IiLj2EEEED1Ev@Base 5.0.0
 _ZN3itk18InPlaceImageFilterIN3otb11VectorImageIsLj2EEENS2_IiLj2EEEED2Ev@Base 5.0.0
 _ZN3itk18InPlaceImageFilterIN3otb11VectorImageIsLj2EEENS2_IjLj2EEEE10InPlaceOffEv@Base 5.0.0
 _ZN3itk18InPlaceImageFilterIN3otb11VectorImageIsLj2EEENS2_IjLj2EEEE10SetInPlaceEb@Base 5.0.0
 _ZN3itk18InPlaceImageFilterIN3otb11VectorImageIsLj2EEENS2_IjLj2EEEE13ReleaseInputsEv@Base 5.0.0
 _ZN3itk18InPlaceImageFilterIN3otb11VectorImageIsLj2EEENS2_IjLj2EEEE15AllocateOutputsEv@Base 5.0.0
 _ZN3itk18InPlaceImageFilterIN3otb11VectorImageIsLj2EEENS2_IjLj2EEEE9InPlaceOnEv@Base 5.0.0
 _ZN3itk18InPlaceImageFilterIN3otb11VectorImageIsLj2EEENS2_IjLj2EEEED0Ev@Base 5.0.0
 _ZN3itk18InPlaceImageFilterIN3otb11VectorImageIsLj2EEENS2_IjLj2EEEED1Ev@Base 5.0.0
 _ZN3itk18InPlaceImageFilterIN3otb11VectorImageIsLj2EEENS2_IjLj2EEEED2Ev@Base 5.0.0
 _ZN3itk18InPlaceImageFilterIN3otb11VectorImageIsLj2EEENS2_ItLj2EEEE10InPlaceOffEv@Base 5.0.0
 _ZN3itk18InPlaceImageFilterIN3otb11VectorImageIsLj2EEENS2_ItLj2EEEE10SetInPlaceEb@Base 5.0.0
 _ZN3itk18InPlaceImageFilterIN3otb11VectorImageIsLj2EEENS2_ItLj2EEEE13ReleaseInputsEv@Base 5.0.0
 _ZN3itk18InPlaceImageFilterIN3otb11VectorImageIsLj2EEENS2_ItLj2EEEE15AllocateOutputsEv@Base 5.0.0
 _ZN3itk18InPlaceImageFilterIN3otb11VectorImageIsLj2EEENS2_ItLj2EEEE9InPlaceOnEv@Base 5.0.0
 _ZN3itk18InPlaceImageFilterIN3otb11VectorImageIsLj2EEENS2_ItLj2EEEED0Ev@Base 5.0.0
 _ZN3itk18InPlaceImageFilterIN3otb11VectorImageIsLj2EEENS2_ItLj2EEEED1Ev@Base 5.0.0
 _ZN3itk18InPlaceImageFilterIN3otb11VectorImageIsLj2EEENS2_ItLj2EEEED2Ev@Base 5.0.0
 _ZN3itk18InPlaceImageFilterIN3otb11VectorImageIsLj2EEES3_E10InPlaceOffEv@Base 5.0.0
 _ZN3itk18InPlaceImageFilterIN3otb11VectorImageIsLj2EEES3_E10SetInPlaceEb@Base 5.0.0
 _ZN3itk18InPlaceImageFilterIN3otb11VectorImageIsLj2EEES3_E13ReleaseInputsEv@Base 5.0.0
 _ZN3itk18InPlaceImageFilterIN3otb11VectorImageIsLj2EEES3_E15AllocateOutputsEv@Base 5.0.0
 _ZN3itk18InPlaceImageFilterIN3otb11VectorImageIsLj2EEES3_E23InternalAllocateOutputsERKNS_8TrueTypeE@Base 5.0.0
 _ZN3itk18InPlaceImageFilterIN3otb11VectorImageIsLj2EEES3_E9InPlaceOnEv@Base 5.0.0
 _ZN3itk18InPlaceImageFilterIN3otb11VectorImageIsLj2EEES3_ED0Ev@Base 5.0.0
 _ZN3itk18InPlaceImageFilterIN3otb11VectorImageIsLj2EEES3_ED1Ev@Base 5.0.0
 _ZN3itk18InPlaceImageFilterIN3otb11VectorImageIsLj2EEES3_ED2Ev@Base 5.0.0
 _ZN3itk18InPlaceImageFilterIN3otb11VectorImageItLj2EEENS2_IdLj2EEEE10InPlaceOffEv@Base 5.0.0
 _ZN3itk18InPlaceImageFilterIN3otb11VectorImageItLj2EEENS2_IdLj2EEEE10SetInPlaceEb@Base 5.0.0
 _ZN3itk18InPlaceImageFilterIN3otb11VectorImageItLj2EEENS2_IdLj2EEEE13ReleaseInputsEv@Base 5.0.0
 _ZN3itk18InPlaceImageFilterIN3otb11VectorImageItLj2EEENS2_IdLj2EEEE15AllocateOutputsEv@Base 5.0.0
 _ZN3itk18InPlaceImageFilterIN3otb11VectorImageItLj2EEENS2_IdLj2EEEE9InPlaceOnEv@Base 5.0.0
 _ZN3itk18InPlaceImageFilterIN3otb11VectorImageItLj2EEENS2_IdLj2EEEED0Ev@Base 5.0.0
 _ZN3itk18InPlaceImageFilterIN3otb11VectorImageItLj2EEENS2_IdLj2EEEED1Ev@Base 5.0.0
 _ZN3itk18InPlaceImageFilterIN3otb11VectorImageItLj2EEENS2_IdLj2EEEED2Ev@Base 5.0.0
 _ZN3itk18InPlaceImageFilterIN3otb11VectorImageItLj2EEENS2_IfLj2EEEE10InPlaceOffEv@Base 5.0.0
 _ZN3itk18InPlaceImageFilterIN3otb11VectorImageItLj2EEENS2_IfLj2EEEE10SetInPlaceEb@Base 5.0.0
 _ZN3itk18InPlaceImageFilterIN3otb11VectorImageItLj2EEENS2_IfLj2EEEE13ReleaseInputsEv@Base 5.0.0
 _ZN3itk18InPlaceImageFilterIN3otb11VectorImageItLj2EEENS2_IfLj2EEEE15AllocateOutputsEv@Base 5.0.0
 _ZN3itk18InPlaceImageFilterIN3otb11VectorImageItLj2EEENS2_IfLj2EEEE9InPlaceOnEv@Base 5.0.0
 _ZN3itk18InPlaceImageFilterIN3otb11VectorImageItLj2EEENS2_IfLj2EEEED0Ev@Base 5.0.0
 _ZN3itk18InPlaceImageFilterIN3otb11VectorImageItLj2EEENS2_IfLj2EEEED1Ev@Base 5.0.0
 _ZN3itk18InPlaceImageFilterIN3otb11VectorImageItLj2EEENS2_IfLj2EEEED2Ev@Base 5.0.0
 _ZN3itk18InPlaceImageFilterIN3otb11VectorImageItLj2EEENS2_IhLj2EEEE10InPlaceOffEv@Base 5.0.0
 _ZN3itk18InPlaceImageFilterIN3otb11VectorImageItLj2EEENS2_IhLj2EEEE10SetInPlaceEb@Base 5.0.0
 _ZN3itk18InPlaceImageFilterIN3otb11VectorImageItLj2EEENS2_IhLj2EEEE13ReleaseInputsEv@Base 5.0.0
 _ZN3itk18InPlaceImageFilterIN3otb11VectorImageItLj2EEENS2_IhLj2EEEE15AllocateOutputsEv@Base 5.0.0
 _ZN3itk18InPlaceImageFilterIN3otb11VectorImageItLj2EEENS2_IhLj2EEEE9InPlaceOnEv@Base 5.0.0
 _ZN3itk18InPlaceImageFilterIN3otb11VectorImageItLj2EEENS2_IhLj2EEEED0Ev@Base 5.0.0
 _ZN3itk18InPlaceImageFilterIN3otb11VectorImageItLj2EEENS2_IhLj2EEEED1Ev@Base 5.0.0
 _ZN3itk18InPlaceImageFilterIN3otb11VectorImageItLj2EEENS2_IhLj2EEEED2Ev@Base 5.0.0
 _ZN3itk18InPlaceImageFilterIN3otb11VectorImageItLj2EEENS2_IiLj2EEEE10InPlaceOffEv@Base 5.0.0
 _ZN3itk18InPlaceImageFilterIN3otb11VectorImageItLj2EEENS2_IiLj2EEEE10SetInPlaceEb@Base 5.0.0
 _ZN3itk18InPlaceImageFilterIN3otb11VectorImageItLj2EEENS2_IiLj2EEEE13ReleaseInputsEv@Base 5.0.0
 _ZN3itk18InPlaceImageFilterIN3otb11VectorImageItLj2EEENS2_IiLj2EEEE15AllocateOutputsEv@Base 5.0.0
 _ZN3itk18InPlaceImageFilterIN3otb11VectorImageItLj2EEENS2_IiLj2EEEE9InPlaceOnEv@Base 5.0.0
 _ZN3itk18InPlaceImageFilterIN3otb11VectorImageItLj2EEENS2_IiLj2EEEED0Ev@Base 5.0.0
 _ZN3itk18InPlaceImageFilterIN3otb11VectorImageItLj2EEENS2_IiLj2EEEED1Ev@Base 5.0.0
 _ZN3itk18InPlaceImageFilterIN3otb11VectorImageItLj2EEENS2_IiLj2EEEED2Ev@Base 5.0.0
 _ZN3itk18InPlaceImageFilterIN3otb11VectorImageItLj2EEENS2_IjLj2EEEE10InPlaceOffEv@Base 5.0.0
 _ZN3itk18InPlaceImageFilterIN3otb11VectorImageItLj2EEENS2_IjLj2EEEE10SetInPlaceEb@Base 5.0.0
 _ZN3itk18InPlaceImageFilterIN3otb11VectorImageItLj2EEENS2_IjLj2EEEE13ReleaseInputsEv@Base 5.0.0
 _ZN3itk18InPlaceImageFilterIN3otb11VectorImageItLj2EEENS2_IjLj2EEEE15AllocateOutputsEv@Base 5.0.0
 _ZN3itk18InPlaceImageFilterIN3otb11VectorImageItLj2EEENS2_IjLj2EEEE9InPlaceOnEv@Base 5.0.0
 _ZN3itk18InPlaceImageFilterIN3otb11VectorImageItLj2EEENS2_IjLj2EEEED0Ev@Base 5.0.0
 _ZN3itk18InPlaceImageFilterIN3otb11VectorImageItLj2EEENS2_IjLj2EEEED1Ev@Base 5.0.0
 _ZN3itk18InPlaceImageFilterIN3otb11VectorImageItLj2EEENS2_IjLj2EEEED2Ev@Base 5.0.0
 _ZN3itk18InPlaceImageFilterIN3otb11VectorImageItLj2EEENS2_IsLj2EEEE10InPlaceOffEv@Base 5.0.0
 _ZN3itk18InPlaceImageFilterIN3otb11VectorImageItLj2EEENS2_IsLj2EEEE10SetInPlaceEb@Base 5.0.0
 _ZN3itk18InPlaceImageFilterIN3otb11VectorImageItLj2EEENS2_IsLj2EEEE13ReleaseInputsEv@Base 5.0.0
 _ZN3itk18InPlaceImageFilterIN3otb11VectorImageItLj2EEENS2_IsLj2EEEE15AllocateOutputsEv@Base 5.0.0
 _ZN3itk18InPlaceImageFilterIN3otb11VectorImageItLj2EEENS2_IsLj2EEEE9InPlaceOnEv@Base 5.0.0
 _ZN3itk18InPlaceImageFilterIN3otb11VectorImageItLj2EEENS2_IsLj2EEEED0Ev@Base 5.0.0
 _ZN3itk18InPlaceImageFilterIN3otb11VectorImageItLj2EEENS2_IsLj2EEEED1Ev@Base 5.0.0
 _ZN3itk18InPlaceImageFilterIN3otb11VectorImageItLj2EEENS2_IsLj2EEEED2Ev@Base 5.0.0
 _ZN3itk18InPlaceImageFilterIN3otb11VectorImageItLj2EEES3_E10InPlaceOffEv@Base 5.0.0
 _ZN3itk18InPlaceImageFilterIN3otb11VectorImageItLj2EEES3_E10SetInPlaceEb@Base 5.0.0
 _ZN3itk18InPlaceImageFilterIN3otb11VectorImageItLj2EEES3_E13ReleaseInputsEv@Base 5.0.0
 _ZN3itk18InPlaceImageFilterIN3otb11VectorImageItLj2EEES3_E15AllocateOutputsEv@Base 5.0.0
 _ZN3itk18InPlaceImageFilterIN3otb11VectorImageItLj2EEES3_E23InternalAllocateOutputsERKNS_8TrueTypeE@Base 5.0.0
 _ZN3itk18InPlaceImageFilterIN3otb11VectorImageItLj2EEES3_E9InPlaceOnEv@Base 5.0.0
 _ZN3itk18InPlaceImageFilterIN3otb11VectorImageItLj2EEES3_ED0Ev@Base 5.0.0
 _ZN3itk18InPlaceImageFilterIN3otb11VectorImageItLj2EEES3_ED1Ev@Base 5.0.0
 _ZN3itk18InPlaceImageFilterIN3otb11VectorImageItLj2EEES3_ED2Ev@Base 5.0.0
 _ZN3itk18InPlaceImageFilterIN3otb5ImageINS_8RGBPixelIhEELj2EEES5_E10InPlaceOffEv@Base 5.0.0
 _ZN3itk18InPlaceImageFilterIN3otb5ImageINS_8RGBPixelIhEELj2EEES5_E10SetInPlaceEb@Base 5.0.0
 _ZN3itk18InPlaceImageFilterIN3otb5ImageINS_8RGBPixelIhEELj2EEES5_E13ReleaseInputsEv@Base 5.0.0
 _ZN3itk18InPlaceImageFilterIN3otb5ImageINS_8RGBPixelIhEELj2EEES5_E15AllocateOutputsEv@Base 5.0.0
 _ZN3itk18InPlaceImageFilterIN3otb5ImageINS_8RGBPixelIhEELj2EEES5_E23InternalAllocateOutputsERKNS_8TrueTypeE@Base 5.0.0
 _ZN3itk18InPlaceImageFilterIN3otb5ImageINS_8RGBPixelIhEELj2EEES5_E9InPlaceOnEv@Base 5.0.0
 _ZN3itk18InPlaceImageFilterIN3otb5ImageINS_8RGBPixelIhEELj2EEES5_ED0Ev@Base 5.0.0
 _ZN3itk18InPlaceImageFilterIN3otb5ImageINS_8RGBPixelIhEELj2EEES5_ED1Ev@Base 5.0.0
 _ZN3itk18InPlaceImageFilterIN3otb5ImageINS_8RGBPixelIhEELj2EEES5_ED2Ev@Base 5.0.0
 _ZN3itk18InPlaceImageFilterIN3otb5ImageINS_9RGBAPixelIhEELj2EEES5_E10InPlaceOffEv@Base 5.0.0
 _ZN3itk18InPlaceImageFilterIN3otb5ImageINS_9RGBAPixelIhEELj2EEES5_E10SetInPlaceEb@Base 5.0.0
 _ZN3itk18InPlaceImageFilterIN3otb5ImageINS_9RGBAPixelIhEELj2EEES5_E13ReleaseInputsEv@Base 5.0.0
 _ZN3itk18InPlaceImageFilterIN3otb5ImageINS_9RGBAPixelIhEELj2EEES5_E15AllocateOutputsEv@Base 5.0.0
 _ZN3itk18InPlaceImageFilterIN3otb5ImageINS_9RGBAPixelIhEELj2EEES5_E23InternalAllocateOutputsERKNS_8TrueTypeE@Base 5.0.0
 _ZN3itk18InPlaceImageFilterIN3otb5ImageINS_9RGBAPixelIhEELj2EEES5_E9InPlaceOnEv@Base 5.0.0
 _ZN3itk18InPlaceImageFilterIN3otb5ImageINS_9RGBAPixelIhEELj2EEES5_ED0Ev@Base 5.0.0
 _ZN3itk18InPlaceImageFilterIN3otb5ImageINS_9RGBAPixelIhEELj2EEES5_ED1Ev@Base 5.0.0
 _ZN3itk18InPlaceImageFilterIN3otb5ImageINS_9RGBAPixelIhEELj2EEES5_ED2Ev@Base 5.0.0
 _ZN3itk18InPlaceImageFilterIN3otb5ImageISt7complexIdELj2EEENS2_IS3_IfELj2EEEE10InPlaceOffEv@Base 5.0.0
 _ZN3itk18InPlaceImageFilterIN3otb5ImageISt7complexIdELj2EEENS2_IS3_IfELj2EEEE10SetInPlaceEb@Base 5.0.0
 _ZN3itk18InPlaceImageFilterIN3otb5ImageISt7complexIdELj2EEENS2_IS3_IfELj2EEEE13ReleaseInputsEv@Base 5.0.0
 _ZN3itk18InPlaceImageFilterIN3otb5ImageISt7complexIdELj2EEENS2_IS3_IfELj2EEEE15AllocateOutputsEv@Base 5.0.0
 _ZN3itk18InPlaceImageFilterIN3otb5ImageISt7complexIdELj2EEENS2_IS3_IfELj2EEEE9InPlaceOnEv@Base 5.0.0
 _ZN3itk18InPlaceImageFilterIN3otb5ImageISt7complexIdELj2EEENS2_IS3_IfELj2EEEED0Ev@Base 5.0.0
 _ZN3itk18InPlaceImageFilterIN3otb5ImageISt7complexIdELj2EEENS2_IS3_IfELj2EEEED1Ev@Base 5.0.0
 _ZN3itk18InPlaceImageFilterIN3otb5ImageISt7complexIdELj2EEENS2_IS3_IfELj2EEEED2Ev@Base 5.0.0
 _ZN3itk18InPlaceImageFilterIN3otb5ImageISt7complexIdELj2EEES5_E10InPlaceOffEv@Base 5.0.0
 _ZN3itk18InPlaceImageFilterIN3otb5ImageISt7complexIdELj2EEES5_E10SetInPlaceEb@Base 5.0.0
 _ZN3itk18InPlaceImageFilterIN3otb5ImageISt7complexIdELj2EEES5_E13ReleaseInputsEv@Base 5.0.0
 _ZN3itk18InPlaceImageFilterIN3otb5ImageISt7complexIdELj2EEES5_E15AllocateOutputsEv@Base 5.0.0
 _ZN3itk18InPlaceImageFilterIN3otb5ImageISt7complexIdELj2EEES5_E23InternalAllocateOutputsERKNS_8TrueTypeE@Base 5.0.0
 _ZN3itk18InPlaceImageFilterIN3otb5ImageISt7complexIdELj2EEES5_E9InPlaceOnEv@Base 5.0.0
 _ZN3itk18InPlaceImageFilterIN3otb5ImageISt7complexIdELj2EEES5_ED0Ev@Base 5.0.0
 _ZN3itk18InPlaceImageFilterIN3otb5ImageISt7complexIdELj2EEES5_ED1Ev@Base 5.0.0
 _ZN3itk18InPlaceImageFilterIN3otb5ImageISt7complexIdELj2EEES5_ED2Ev@Base 5.0.0
 _ZN3itk18InPlaceImageFilterIN3otb5ImageISt7complexIfELj2EEENS2_IS3_IdELj2EEEE10InPlaceOffEv@Base 5.0.0
 _ZN3itk18InPlaceImageFilterIN3otb5ImageISt7complexIfELj2EEENS2_IS3_IdELj2EEEE10SetInPlaceEb@Base 5.0.0
 _ZN3itk18InPlaceImageFilterIN3otb5ImageISt7complexIfELj2EEENS2_IS3_IdELj2EEEE13ReleaseInputsEv@Base 5.0.0
 _ZN3itk18InPlaceImageFilterIN3otb5ImageISt7complexIfELj2EEENS2_IS3_IdELj2EEEE15AllocateOutputsEv@Base 5.0.0
 _ZN3itk18InPlaceImageFilterIN3otb5ImageISt7complexIfELj2EEENS2_IS3_IdELj2EEEE9InPlaceOnEv@Base 5.0.0
 _ZN3itk18InPlaceImageFilterIN3otb5ImageISt7complexIfELj2EEENS2_IS3_IdELj2EEEED0Ev@Base 5.0.0
 _ZN3itk18InPlaceImageFilterIN3otb5ImageISt7complexIfELj2EEENS2_IS3_IdELj2EEEED1Ev@Base 5.0.0
 _ZN3itk18InPlaceImageFilterIN3otb5ImageISt7complexIfELj2EEENS2_IS3_IdELj2EEEED2Ev@Base 5.0.0
 _ZN3itk18InPlaceImageFilterIN3otb5ImageISt7complexIfELj2EEES5_E10InPlaceOffEv@Base 5.0.0
 _ZN3itk18InPlaceImageFilterIN3otb5ImageISt7complexIfELj2EEES5_E10SetInPlaceEb@Base 5.0.0
 _ZN3itk18InPlaceImageFilterIN3otb5ImageISt7complexIfELj2EEES5_E13ReleaseInputsEv@Base 5.0.0
 _ZN3itk18InPlaceImageFilterIN3otb5ImageISt7complexIfELj2EEES5_E15AllocateOutputsEv@Base 5.0.0
 _ZN3itk18InPlaceImageFilterIN3otb5ImageISt7complexIfELj2EEES5_E23InternalAllocateOutputsERKNS_8TrueTypeE@Base 5.0.0
 _ZN3itk18InPlaceImageFilterIN3otb5ImageISt7complexIfELj2EEES5_E9InPlaceOnEv@Base 5.0.0
 _ZN3itk18InPlaceImageFilterIN3otb5ImageISt7complexIfELj2EEES5_ED0Ev@Base 5.0.0
 _ZN3itk18InPlaceImageFilterIN3otb5ImageISt7complexIfELj2EEES5_ED1Ev@Base 5.0.0
 _ZN3itk18InPlaceImageFilterIN3otb5ImageISt7complexIfELj2EEES5_ED2Ev@Base 5.0.0
 _ZN3itk18InPlaceImageFilterIN3otb5ImageIdLj2EEENS1_11VectorImageIdLj2EEEE10InPlaceOffEv@Base 5.0.0
 _ZN3itk18InPlaceImageFilterIN3otb5ImageIdLj2EEENS1_11VectorImageIdLj2EEEE10SetInPlaceEb@Base 5.0.0
 _ZN3itk18InPlaceImageFilterIN3otb5ImageIdLj2EEENS1_11VectorImageIdLj2EEEE13ReleaseInputsEv@Base 5.0.0
 _ZN3itk18InPlaceImageFilterIN3otb5ImageIdLj2EEENS1_11VectorImageIdLj2EEEE15AllocateOutputsEv@Base 5.0.0
 _ZN3itk18InPlaceImageFilterIN3otb5ImageIdLj2EEENS1_11VectorImageIdLj2EEEE9InPlaceOnEv@Base 5.0.0
 _ZN3itk18InPlaceImageFilterIN3otb5ImageIdLj2EEENS1_11VectorImageIdLj2EEEED0Ev@Base 5.0.0
 _ZN3itk18InPlaceImageFilterIN3otb5ImageIdLj2EEENS1_11VectorImageIdLj2EEEED1Ev@Base 5.0.0
 _ZN3itk18InPlaceImageFilterIN3otb5ImageIdLj2EEENS1_11VectorImageIdLj2EEEED2Ev@Base 5.0.0
 _ZN3itk18InPlaceImageFilterIN3otb5ImageIdLj2EEENS1_11VectorImageIfLj2EEEE10InPlaceOffEv@Base 5.0.0
 _ZN3itk18InPlaceImageFilterIN3otb5ImageIdLj2EEENS1_11VectorImageIfLj2EEEE10SetInPlaceEb@Base 5.0.0
 _ZN3itk18InPlaceImageFilterIN3otb5ImageIdLj2EEENS1_11VectorImageIfLj2EEEE13ReleaseInputsEv@Base 5.0.0
 _ZN3itk18InPlaceImageFilterIN3otb5ImageIdLj2EEENS1_11VectorImageIfLj2EEEE15AllocateOutputsEv@Base 5.0.0
 _ZN3itk18InPlaceImageFilterIN3otb5ImageIdLj2EEENS1_11VectorImageIfLj2EEEE9InPlaceOnEv@Base 5.0.0
 _ZN3itk18InPlaceImageFilterIN3otb5ImageIdLj2EEENS1_11VectorImageIfLj2EEEED0Ev@Base 5.0.0
 _ZN3itk18InPlaceImageFilterIN3otb5ImageIdLj2EEENS1_11VectorImageIfLj2EEEED1Ev@Base 5.0.0
 _ZN3itk18InPlaceImageFilterIN3otb5ImageIdLj2EEENS1_11VectorImageIfLj2EEEED2Ev@Base 5.0.0
 _ZN3itk18InPlaceImageFilterIN3otb5ImageIdLj2EEENS1_11VectorImageIhLj2EEEE10InPlaceOffEv@Base 5.0.0
 _ZN3itk18InPlaceImageFilterIN3otb5ImageIdLj2EEENS1_11VectorImageIhLj2EEEE10SetInPlaceEb@Base 5.0.0
 _ZN3itk18InPlaceImageFilterIN3otb5ImageIdLj2EEENS1_11VectorImageIhLj2EEEE13ReleaseInputsEv@Base 5.0.0
 _ZN3itk18InPlaceImageFilterIN3otb5ImageIdLj2EEENS1_11VectorImageIhLj2EEEE15AllocateOutputsEv@Base 5.0.0
 _ZN3itk18InPlaceImageFilterIN3otb5ImageIdLj2EEENS1_11VectorImageIhLj2EEEE9InPlaceOnEv@Base 5.0.0
 _ZN3itk18InPlaceImageFilterIN3otb5ImageIdLj2EEENS1_11VectorImageIhLj2EEEED0Ev@Base 5.0.0
 _ZN3itk18InPlaceImageFilterIN3otb5ImageIdLj2EEENS1_11VectorImageIhLj2EEEED1Ev@Base 5.0.0
 _ZN3itk18InPlaceImageFilterIN3otb5ImageIdLj2EEENS1_11VectorImageIhLj2EEEED2Ev@Base 5.0.0
 _ZN3itk18InPlaceImageFilterIN3otb5ImageIdLj2EEENS1_11VectorImageIiLj2EEEE10InPlaceOffEv@Base 5.0.0
 _ZN3itk18InPlaceImageFilterIN3otb5ImageIdLj2EEENS1_11VectorImageIiLj2EEEE10SetInPlaceEb@Base 5.0.0
 _ZN3itk18InPlaceImageFilterIN3otb5ImageIdLj2EEENS1_11VectorImageIiLj2EEEE13ReleaseInputsEv@Base 5.0.0
 _ZN3itk18InPlaceImageFilterIN3otb5ImageIdLj2EEENS1_11VectorImageIiLj2EEEE15AllocateOutputsEv@Base 5.0.0
 _ZN3itk18InPlaceImageFilterIN3otb5ImageIdLj2EEENS1_11VectorImageIiLj2EEEE9InPlaceOnEv@Base 5.0.0
 _ZN3itk18InPlaceImageFilterIN3otb5ImageIdLj2EEENS1_11VectorImageIiLj2EEEED0Ev@Base 5.0.0
 _ZN3itk18InPlaceImageFilterIN3otb5ImageIdLj2EEENS1_11VectorImageIiLj2EEEED1Ev@Base 5.0.0
 _ZN3itk18InPlaceImageFilterIN3otb5ImageIdLj2EEENS1_11VectorImageIiLj2EEEED2Ev@Base 5.0.0
 _ZN3itk18InPlaceImageFilterIN3otb5ImageIdLj2EEENS1_11VectorImageIjLj2EEEE10InPlaceOffEv@Base 5.0.0
 _ZN3itk18InPlaceImageFilterIN3otb5ImageIdLj2EEENS1_11VectorImageIjLj2EEEE10SetInPlaceEb@Base 5.0.0
 _ZN3itk18InPlaceImageFilterIN3otb5ImageIdLj2EEENS1_11VectorImageIjLj2EEEE13ReleaseInputsEv@Base 5.0.0
 _ZN3itk18InPlaceImageFilterIN3otb5ImageIdLj2EEENS1_11VectorImageIjLj2EEEE15AllocateOutputsEv@Base 5.0.0
 _ZN3itk18InPlaceImageFilterIN3otb5ImageIdLj2EEENS1_11VectorImageIjLj2EEEE9InPlaceOnEv@Base 5.0.0
 _ZN3itk18InPlaceImageFilterIN3otb5ImageIdLj2EEENS1_11VectorImageIjLj2EEEED0Ev@Base 5.0.0
 _ZN3itk18InPlaceImageFilterIN3otb5ImageIdLj2EEENS1_11VectorImageIjLj2EEEED1Ev@Base 5.0.0
 _ZN3itk18InPlaceImageFilterIN3otb5ImageIdLj2EEENS1_11VectorImageIjLj2EEEED2Ev@Base 5.0.0
 _ZN3itk18InPlaceImageFilterIN3otb5ImageIdLj2EEENS1_11VectorImageIsLj2EEEE10InPlaceOffEv@Base 5.0.0
 _ZN3itk18InPlaceImageFilterIN3otb5ImageIdLj2EEENS1_11VectorImageIsLj2EEEE10SetInPlaceEb@Base 5.0.0
 _ZN3itk18InPlaceImageFilterIN3otb5ImageIdLj2EEENS1_11VectorImageIsLj2EEEE13ReleaseInputsEv@Base 5.0.0
 _ZN3itk18InPlaceImageFilterIN3otb5ImageIdLj2EEENS1_11VectorImageIsLj2EEEE15AllocateOutputsEv@Base 5.0.0
 _ZN3itk18InPlaceImageFilterIN3otb5ImageIdLj2EEENS1_11VectorImageIsLj2EEEE9InPlaceOnEv@Base 5.0.0
 _ZN3itk18InPlaceImageFilterIN3otb5ImageIdLj2EEENS1_11VectorImageIsLj2EEEED0Ev@Base 5.0.0
 _ZN3itk18InPlaceImageFilterIN3otb5ImageIdLj2EEENS1_11VectorImageIsLj2EEEED1Ev@Base 5.0.0
 _ZN3itk18InPlaceImageFilterIN3otb5ImageIdLj2EEENS1_11VectorImageIsLj2EEEED2Ev@Base 5.0.0
 _ZN3itk18InPlaceImageFilterIN3otb5ImageIdLj2EEENS1_11VectorImageItLj2EEEE10InPlaceOffEv@Base 5.0.0
 _ZN3itk18InPlaceImageFilterIN3otb5ImageIdLj2EEENS1_11VectorImageItLj2EEEE10SetInPlaceEb@Base 5.0.0
 _ZN3itk18InPlaceImageFilterIN3otb5ImageIdLj2EEENS1_11VectorImageItLj2EEEE13ReleaseInputsEv@Base 5.0.0
 _ZN3itk18InPlaceImageFilterIN3otb5ImageIdLj2EEENS1_11VectorImageItLj2EEEE15AllocateOutputsEv@Base 5.0.0
 _ZN3itk18InPlaceImageFilterIN3otb5ImageIdLj2EEENS1_11VectorImageItLj2EEEE9InPlaceOnEv@Base 5.0.0
 _ZN3itk18InPlaceImageFilterIN3otb5ImageIdLj2EEENS1_11VectorImageItLj2EEEED0Ev@Base 5.0.0
 _ZN3itk18InPlaceImageFilterIN3otb5ImageIdLj2EEENS1_11VectorImageItLj2EEEED1Ev@Base 5.0.0
 _ZN3itk18InPlaceImageFilterIN3otb5ImageIdLj2EEENS1_11VectorImageItLj2EEEED2Ev@Base 5.0.0
 _ZN3itk18InPlaceImageFilterIN3otb5ImageIdLj2EEENS2_ISt7complexIdELj2EEEE10InPlaceOffEv@Base 5.0.0
 _ZN3itk18InPlaceImageFilterIN3otb5ImageIdLj2EEENS2_ISt7complexIdELj2EEEE10SetInPlaceEb@Base 5.0.0
 _ZN3itk18InPlaceImageFilterIN3otb5ImageIdLj2EEENS2_ISt7complexIdELj2EEEE13ReleaseInputsEv@Base 5.0.0
 _ZN3itk18InPlaceImageFilterIN3otb5ImageIdLj2EEENS2_ISt7complexIdELj2EEEE15AllocateOutputsEv@Base 5.0.0
 _ZN3itk18InPlaceImageFilterIN3otb5ImageIdLj2EEENS2_ISt7complexIdELj2EEEE9InPlaceOnEv@Base 5.0.0
 _ZN3itk18InPlaceImageFilterIN3otb5ImageIdLj2EEENS2_ISt7complexIdELj2EEEED0Ev@Base 5.0.0
 _ZN3itk18InPlaceImageFilterIN3otb5ImageIdLj2EEENS2_ISt7complexIdELj2EEEED1Ev@Base 5.0.0
 _ZN3itk18InPlaceImageFilterIN3otb5ImageIdLj2EEENS2_ISt7complexIdELj2EEEED2Ev@Base 5.0.0
 _ZN3itk18InPlaceImageFilterIN3otb5ImageIdLj2EEENS2_ISt7complexIfELj2EEEE10InPlaceOffEv@Base 5.0.0
 _ZN3itk18InPlaceImageFilterIN3otb5ImageIdLj2EEENS2_ISt7complexIfELj2EEEE10SetInPlaceEb@Base 5.0.0
 _ZN3itk18InPlaceImageFilterIN3otb5ImageIdLj2EEENS2_ISt7complexIfELj2EEEE13ReleaseInputsEv@Base 5.0.0
 _ZN3itk18InPlaceImageFilterIN3otb5ImageIdLj2EEENS2_ISt7complexIfELj2EEEE15AllocateOutputsEv@Base 5.0.0
 _ZN3itk18InPlaceImageFilterIN3otb5ImageIdLj2EEENS2_ISt7complexIfELj2EEEE9InPlaceOnEv@Base 5.0.0
 _ZN3itk18InPlaceImageFilterIN3otb5ImageIdLj2EEENS2_ISt7complexIfELj2EEEED0Ev@Base 5.0.0
 _ZN3itk18InPlaceImageFilterIN3otb5ImageIdLj2EEENS2_ISt7complexIfELj2EEEED1Ev@Base 5.0.0
 _ZN3itk18InPlaceImageFilterIN3otb5ImageIdLj2EEENS2_ISt7complexIfELj2EEEED2Ev@Base 5.0.0
 _ZN3itk18InPlaceImageFilterIN3otb5ImageIdLj2EEENS2_IfLj2EEEE10InPlaceOffEv@Base 5.0.0
 _ZN3itk18InPlaceImageFilterIN3otb5ImageIdLj2EEENS2_IfLj2EEEE10SetInPlaceEb@Base 5.0.0
 _ZN3itk18InPlaceImageFilterIN3otb5ImageIdLj2EEENS2_IfLj2EEEE13ReleaseInputsEv@Base 5.0.0
 _ZN3itk18InPlaceImageFilterIN3otb5ImageIdLj2EEENS2_IfLj2EEEE15AllocateOutputsEv@Base 5.0.0
 _ZN3itk18InPlaceImageFilterIN3otb5ImageIdLj2EEENS2_IfLj2EEEE9InPlaceOnEv@Base 5.0.0
 _ZN3itk18InPlaceImageFilterIN3otb5ImageIdLj2EEENS2_IfLj2EEEED0Ev@Base 5.0.0
 _ZN3itk18InPlaceImageFilterIN3otb5ImageIdLj2EEENS2_IfLj2EEEED1Ev@Base 5.0.0
 _ZN3itk18InPlaceImageFilterIN3otb5ImageIdLj2EEENS2_IfLj2EEEED2Ev@Base 5.0.0
 _ZN3itk18InPlaceImageFilterIN3otb5ImageIdLj2EEENS2_IhLj2EEEE10InPlaceOffEv@Base 5.0.0
 _ZN3itk18InPlaceImageFilterIN3otb5ImageIdLj2EEENS2_IhLj2EEEE10SetInPlaceEb@Base 5.0.0
 _ZN3itk18InPlaceImageFilterIN3otb5ImageIdLj2EEENS2_IhLj2EEEE13ReleaseInputsEv@Base 5.0.0
 _ZN3itk18InPlaceImageFilterIN3otb5ImageIdLj2EEENS2_IhLj2EEEE15AllocateOutputsEv@Base 5.0.0
 _ZN3itk18InPlaceImageFilterIN3otb5ImageIdLj2EEENS2_IhLj2EEEE9InPlaceOnEv@Base 5.0.0
 _ZN3itk18InPlaceImageFilterIN3otb5ImageIdLj2EEENS2_IhLj2EEEED0Ev@Base 5.0.0
 _ZN3itk18InPlaceImageFilterIN3otb5ImageIdLj2EEENS2_IhLj2EEEED1Ev@Base 5.0.0
 _ZN3itk18InPlaceImageFilterIN3otb5ImageIdLj2EEENS2_IhLj2EEEED2Ev@Base 5.0.0
 _ZN3itk18InPlaceImageFilterIN3otb5ImageIdLj2EEENS2_IiLj2EEEE10InPlaceOffEv@Base 5.0.0
 _ZN3itk18InPlaceImageFilterIN3otb5ImageIdLj2EEENS2_IiLj2EEEE10SetInPlaceEb@Base 5.0.0
 _ZN3itk18InPlaceImageFilterIN3otb5ImageIdLj2EEENS2_IiLj2EEEE13ReleaseInputsEv@Base 5.0.0
 _ZN3itk18InPlaceImageFilterIN3otb5ImageIdLj2EEENS2_IiLj2EEEE15AllocateOutputsEv@Base 5.0.0
 _ZN3itk18InPlaceImageFilterIN3otb5ImageIdLj2EEENS2_IiLj2EEEE9InPlaceOnEv@Base 5.0.0
 _ZN3itk18InPlaceImageFilterIN3otb5ImageIdLj2EEENS2_IiLj2EEEED0Ev@Base 5.0.0
 _ZN3itk18InPlaceImageFilterIN3otb5ImageIdLj2EEENS2_IiLj2EEEED1Ev@Base 5.0.0
 _ZN3itk18InPlaceImageFilterIN3otb5ImageIdLj2EEENS2_IiLj2EEEED2Ev@Base 5.0.0
 _ZN3itk18InPlaceImageFilterIN3otb5ImageIdLj2EEENS2_IjLj2EEEE10InPlaceOffEv@Base 5.0.0
 _ZN3itk18InPlaceImageFilterIN3otb5ImageIdLj2EEENS2_IjLj2EEEE10SetInPlaceEb@Base 5.0.0
 _ZN3itk18InPlaceImageFilterIN3otb5ImageIdLj2EEENS2_IjLj2EEEE13ReleaseInputsEv@Base 5.0.0
 _ZN3itk18InPlaceImageFilterIN3otb5ImageIdLj2EEENS2_IjLj2EEEE15AllocateOutputsEv@Base 5.0.0
 _ZN3itk18InPlaceImageFilterIN3otb5ImageIdLj2EEENS2_IjLj2EEEE9InPlaceOnEv@Base 5.0.0
 _ZN3itk18InPlaceImageFilterIN3otb5ImageIdLj2EEENS2_IjLj2EEEED0Ev@Base 5.0.0
 _ZN3itk18InPlaceImageFilterIN3otb5ImageIdLj2EEENS2_IjLj2EEEED1Ev@Base 5.0.0
 _ZN3itk18InPlaceImageFilterIN3otb5ImageIdLj2EEENS2_IjLj2EEEED2Ev@Base 5.0.0
 _ZN3itk18InPlaceImageFilterIN3otb5ImageIdLj2EEENS2_IsLj2EEEE10InPlaceOffEv@Base 5.0.0
 _ZN3itk18InPlaceImageFilterIN3otb5ImageIdLj2EEENS2_IsLj2EEEE10SetInPlaceEb@Base 5.0.0
 _ZN3itk18InPlaceImageFilterIN3otb5ImageIdLj2EEENS2_IsLj2EEEE13ReleaseInputsEv@Base 5.0.0
 _ZN3itk18InPlaceImageFilterIN3otb5ImageIdLj2EEENS2_IsLj2EEEE15AllocateOutputsEv@Base 5.0.0
 _ZN3itk18InPlaceImageFilterIN3otb5ImageIdLj2EEENS2_IsLj2EEEE9InPlaceOnEv@Base 5.0.0
 _ZN3itk18InPlaceImageFilterIN3otb5ImageIdLj2EEENS2_IsLj2EEEED0Ev@Base 5.0.0
 _ZN3itk18InPlaceImageFilterIN3otb5ImageIdLj2EEENS2_IsLj2EEEED1Ev@Base 5.0.0
 _ZN3itk18InPlaceImageFilterIN3otb5ImageIdLj2EEENS2_IsLj2EEEED2Ev@Base 5.0.0
 _ZN3itk18InPlaceImageFilterIN3otb5ImageIdLj2EEENS2_ItLj2EEEE10InPlaceOffEv@Base 5.0.0
 _ZN3itk18InPlaceImageFilterIN3otb5ImageIdLj2EEENS2_ItLj2EEEE10SetInPlaceEb@Base 5.0.0
 _ZN3itk18InPlaceImageFilterIN3otb5ImageIdLj2EEENS2_ItLj2EEEE13ReleaseInputsEv@Base 5.0.0
 _ZN3itk18InPlaceImageFilterIN3otb5ImageIdLj2EEENS2_ItLj2EEEE15AllocateOutputsEv@Base 5.0.0
 _ZN3itk18InPlaceImageFilterIN3otb5ImageIdLj2EEENS2_ItLj2EEEE9InPlaceOnEv@Base 5.0.0
 _ZN3itk18InPlaceImageFilterIN3otb5ImageIdLj2EEENS2_ItLj2EEEED0Ev@Base 5.0.0
 _ZN3itk18InPlaceImageFilterIN3otb5ImageIdLj2EEENS2_ItLj2EEEED1Ev@Base 5.0.0
 _ZN3itk18InPlaceImageFilterIN3otb5ImageIdLj2EEENS2_ItLj2EEEED2Ev@Base 5.0.0
 _ZN3itk18InPlaceImageFilterIN3otb5ImageIdLj2EEES3_E10InPlaceOffEv@Base 5.0.0
 _ZN3itk18InPlaceImageFilterIN3otb5ImageIdLj2EEES3_E10SetInPlaceEb@Base 5.0.0
 _ZN3itk18InPlaceImageFilterIN3otb5ImageIdLj2EEES3_E13ReleaseInputsEv@Base 5.0.0
 _ZN3itk18InPlaceImageFilterIN3otb5ImageIdLj2EEES3_E15AllocateOutputsEv@Base 5.0.0
 _ZN3itk18InPlaceImageFilterIN3otb5ImageIdLj2EEES3_E23InternalAllocateOutputsERKNS_8TrueTypeE@Base 5.0.0
 _ZN3itk18InPlaceImageFilterIN3otb5ImageIdLj2EEES3_E9InPlaceOnEv@Base 5.0.0
 _ZN3itk18InPlaceImageFilterIN3otb5ImageIdLj2EEES3_ED0Ev@Base 5.0.0
 _ZN3itk18InPlaceImageFilterIN3otb5ImageIdLj2EEES3_ED1Ev@Base 5.0.0
 _ZN3itk18InPlaceImageFilterIN3otb5ImageIdLj2EEES3_ED2Ev@Base 5.0.0
 _ZN3itk18InPlaceImageFilterIN3otb5ImageIfLj2EEENS1_11VectorImageIdLj2EEEE10InPlaceOffEv@Base 5.0.0
 _ZN3itk18InPlaceImageFilterIN3otb5ImageIfLj2EEENS1_11VectorImageIdLj2EEEE10SetInPlaceEb@Base 5.0.0
 _ZN3itk18InPlaceImageFilterIN3otb5ImageIfLj2EEENS1_11VectorImageIdLj2EEEE13ReleaseInputsEv@Base 5.0.0
 _ZN3itk18InPlaceImageFilterIN3otb5ImageIfLj2EEENS1_11VectorImageIdLj2EEEE15AllocateOutputsEv@Base 5.0.0
 _ZN3itk18InPlaceImageFilterIN3otb5ImageIfLj2EEENS1_11VectorImageIdLj2EEEE9InPlaceOnEv@Base 5.0.0
 _ZN3itk18InPlaceImageFilterIN3otb5ImageIfLj2EEENS1_11VectorImageIdLj2EEEED0Ev@Base 5.0.0
 _ZN3itk18InPlaceImageFilterIN3otb5ImageIfLj2EEENS1_11VectorImageIdLj2EEEED1Ev@Base 5.0.0
 _ZN3itk18InPlaceImageFilterIN3otb5ImageIfLj2EEENS1_11VectorImageIdLj2EEEED2Ev@Base 5.0.0
 _ZN3itk18InPlaceImageFilterIN3otb5ImageIfLj2EEENS1_11VectorImageIfLj2EEEE10InPlaceOffEv@Base 5.0.0
 _ZN3itk18InPlaceImageFilterIN3otb5ImageIfLj2EEENS1_11VectorImageIfLj2EEEE10SetInPlaceEb@Base 5.0.0
 _ZN3itk18InPlaceImageFilterIN3otb5ImageIfLj2EEENS1_11VectorImageIfLj2EEEE13ReleaseInputsEv@Base 5.0.0
 _ZN3itk18InPlaceImageFilterIN3otb5ImageIfLj2EEENS1_11VectorImageIfLj2EEEE15AllocateOutputsEv@Base 5.0.0
 _ZN3itk18InPlaceImageFilterIN3otb5ImageIfLj2EEENS1_11VectorImageIfLj2EEEE9InPlaceOnEv@Base 5.0.0
 _ZN3itk18InPlaceImageFilterIN3otb5ImageIfLj2EEENS1_11VectorImageIfLj2EEEED0Ev@Base 5.0.0
 _ZN3itk18InPlaceImageFilterIN3otb5ImageIfLj2EEENS1_11VectorImageIfLj2EEEED1Ev@Base 5.0.0
 _ZN3itk18InPlaceImageFilterIN3otb5ImageIfLj2EEENS1_11VectorImageIfLj2EEEED2Ev@Base 5.0.0
 _ZN3itk18InPlaceImageFilterIN3otb5ImageIfLj2EEENS1_11VectorImageIhLj2EEEE10InPlaceOffEv@Base 5.0.0
 _ZN3itk18InPlaceImageFilterIN3otb5ImageIfLj2EEENS1_11VectorImageIhLj2EEEE10SetInPlaceEb@Base 5.0.0
 _ZN3itk18InPlaceImageFilterIN3otb5ImageIfLj2EEENS1_11VectorImageIhLj2EEEE13ReleaseInputsEv@Base 5.0.0
 _ZN3itk18InPlaceImageFilterIN3otb5ImageIfLj2EEENS1_11VectorImageIhLj2EEEE15AllocateOutputsEv@Base 5.0.0
 _ZN3itk18InPlaceImageFilterIN3otb5ImageIfLj2EEENS1_11VectorImageIhLj2EEEE9InPlaceOnEv@Base 5.0.0
 _ZN3itk18InPlaceImageFilterIN3otb5ImageIfLj2EEENS1_11VectorImageIhLj2EEEED0Ev@Base 5.0.0
 _ZN3itk18InPlaceImageFilterIN3otb5ImageIfLj2EEENS1_11VectorImageIhLj2EEEED1Ev@Base 5.0.0
 _ZN3itk18InPlaceImageFilterIN3otb5ImageIfLj2EEENS1_11VectorImageIhLj2EEEED2Ev@Base 5.0.0
 _ZN3itk18InPlaceImageFilterIN3otb5ImageIfLj2EEENS1_11VectorImageIiLj2EEEE10InPlaceOffEv@Base 5.0.0
 _ZN3itk18InPlaceImageFilterIN3otb5ImageIfLj2EEENS1_11VectorImageIiLj2EEEE10SetInPlaceEb@Base 5.0.0
 _ZN3itk18InPlaceImageFilterIN3otb5ImageIfLj2EEENS1_11VectorImageIiLj2EEEE13ReleaseInputsEv@Base 5.0.0
 _ZN3itk18InPlaceImageFilterIN3otb5ImageIfLj2EEENS1_11VectorImageIiLj2EEEE15AllocateOutputsEv@Base 5.0.0
 _ZN3itk18InPlaceImageFilterIN3otb5ImageIfLj2EEENS1_11VectorImageIiLj2EEEE9InPlaceOnEv@Base 5.0.0
 _ZN3itk18InPlaceImageFilterIN3otb5ImageIfLj2EEENS1_11VectorImageIiLj2EEEED0Ev@Base 5.0.0
 _ZN3itk18InPlaceImageFilterIN3otb5ImageIfLj2EEENS1_11VectorImageIiLj2EEEED1Ev@Base 5.0.0
 _ZN3itk18InPlaceImageFilterIN3otb5ImageIfLj2EEENS1_11VectorImageIiLj2EEEED2Ev@Base 5.0.0
 _ZN3itk18InPlaceImageFilterIN3otb5ImageIfLj2EEENS1_11VectorImageIjLj2EEEE10InPlaceOffEv@Base 5.0.0
 _ZN3itk18InPlaceImageFilterIN3otb5ImageIfLj2EEENS1_11VectorImageIjLj2EEEE10SetInPlaceEb@Base 5.0.0
 _ZN3itk18InPlaceImageFilterIN3otb5ImageIfLj2EEENS1_11VectorImageIjLj2EEEE13ReleaseInputsEv@Base 5.0.0
 _ZN3itk18InPlaceImageFilterIN3otb5ImageIfLj2EEENS1_11VectorImageIjLj2EEEE15AllocateOutputsEv@Base 5.0.0
 _ZN3itk18InPlaceImageFilterIN3otb5ImageIfLj2EEENS1_11VectorImageIjLj2EEEE9InPlaceOnEv@Base 5.0.0
 _ZN3itk18InPlaceImageFilterIN3otb5ImageIfLj2EEENS1_11VectorImageIjLj2EEEED0Ev@Base 5.0.0
 _ZN3itk18InPlaceImageFilterIN3otb5ImageIfLj2EEENS1_11VectorImageIjLj2EEEED1Ev@Base 5.0.0
 _ZN3itk18InPlaceImageFilterIN3otb5ImageIfLj2EEENS1_11VectorImageIjLj2EEEED2Ev@Base 5.0.0
 _ZN3itk18InPlaceImageFilterIN3otb5ImageIfLj2EEENS1_11VectorImageIsLj2EEEE10InPlaceOffEv@Base 5.0.0
 _ZN3itk18InPlaceImageFilterIN3otb5ImageIfLj2EEENS1_11VectorImageIsLj2EEEE10SetInPlaceEb@Base 5.0.0
 _ZN3itk18InPlaceImageFilterIN3otb5ImageIfLj2EEENS1_11VectorImageIsLj2EEEE13ReleaseInputsEv@Base 5.0.0
 _ZN3itk18InPlaceImageFilterIN3otb5ImageIfLj2EEENS1_11VectorImageIsLj2EEEE15AllocateOutputsEv@Base 5.0.0
