# SymbolsHelper-Confirmed: 5.0.0 amd64 i386
libOTBTestKernel-5.0.so.1 libotbtestkernel-5.0-1 #MINVER#
 (optional=templinst)_ZN18vnl_matrix_inverseIdED0Ev@Base 5.0.0
 (optional=templinst)_ZN18vnl_matrix_inverseIdED1Ev@Base 5.0.0
 (optional=templinst)_ZN18vnl_matrix_inverseIdED2Ev@Base 5.0.0
 _ZN3itk10DataObject15CopyInformationEPKS0_@Base 5.0.0
 _ZN3itk10DataObject16SetRealTimeStampENS_13RealTimeStampE@Base 5.0.0
 _ZN3itk10DataObject17PrepareForNewDataEv@Base 5.0.0
 _ZN3itk10DataObject17ReleaseDataFlagOnEv@Base 5.0.0
 _ZN3itk10DataObject18ReleaseDataFlagOffEv@Base 5.0.0
 _ZN3itk10DataObject18SetRequestedRegionEPKS0_@Base 5.0.0
 _ZN3itk10DataObject21VerifyRequestedRegionEv@Base 5.0.0
 _ZN3itk10DataObject41SetRequestedRegionToLargestPossibleRegionEv@Base 5.0.0
 _ZN3itk10DataObject43RequestedRegionIsOutsideOfTheBufferedRegionEv@Base 5.0.0
 _ZN3itk10DataObject5GraftEPKS0_@Base 5.0.0
 _ZN3itk10StartEventD0Ev@Base 5.0.0
 _ZN3itk10StartEventD1Ev@Base 5.0.0
 _ZN3itk10StartEventD2Ev@Base 5.0.0
 (optional=templinst)_ZN3itk10Statistics10ListSampleINS_6VectorIdLj1EEEE5GraftEPKNS_10DataObjectE@Base 5.0.0
 (optional=templinst)_ZN3itk10Statistics10ListSampleINS_6VectorIdLj1EEEE8PushBackERKS3_@Base 5.0.0
 (optional=templinst)_ZN3itk10Statistics10ListSampleINS_6VectorIdLj1EEEED0Ev@Base 5.0.0
 (optional=templinst)_ZN3itk10Statistics10ListSampleINS_6VectorIdLj1EEEED1Ev@Base 5.0.0
 (optional=templinst)_ZN3itk10Statistics10ListSampleINS_6VectorIdLj1EEEED2Ev@Base 5.0.0
 (optional=templinst)_ZN3itk10Statistics23MeasurementVectorTraits6AssertIdLj1EEEjRKNS_10FixedArrayIT_XT0_EEEjPKc@Base 5.0.0
 (optional=templinst|arch=i386)_ZN3itk10Statistics23SampleToHistogramFilterINS0_10ListSampleINS_6VectorIdLj1EEEEENS0_9HistogramIfNS0_24DenseFrequencyContainer2EEEE10MakeOutputEj@Base 5.0.0
 (optional=templinst)_ZN3itk10Statistics23SampleToHistogramFilterINS0_10ListSampleINS_6VectorIdLj1EEEEENS0_9HistogramIfNS0_24DenseFrequencyContainer2EEEE10MakeOutputEm@Base 5.0.0
 (optional=templinst)_ZN3itk10Statistics23SampleToHistogramFilterINS0_10ListSampleINS_6VectorIdLj1EEEEENS0_9HistogramIfNS0_24DenseFrequencyContainer2EEEE11GraftOutputEPNS_10DataObjectE@Base 5.0.0
 (optional=templinst)_ZN3itk10Statistics23SampleToHistogramFilterINS0_10ListSampleINS_6VectorIdLj1EEEEENS0_9HistogramIfNS0_24DenseFrequencyContainer2EEEE12GenerateDataEv@Base 5.0.0
 (optional=templinst)_ZN3itk10Statistics23SampleToHistogramFilterINS0_10ListSampleINS_6VectorIdLj1EEEEENS0_9HistogramIfNS0_24DenseFrequencyContainer2EEEE16SetHistogramSizeEPKNS_25SimpleDataObjectDecoratorINS_5ArrayImEEEE@Base 5.0.0
 (optional=templinst)_ZN3itk10Statistics23SampleToHistogramFilterINS0_10ListSampleINS_6VectorIdLj1EEEEENS0_9HistogramIfNS0_24DenseFrequencyContainer2EEEE16SetHistogramSizeERKNS_5ArrayImEE@Base 5.0.0
 (optional=templinst)_ZN3itk10Statistics23SampleToHistogramFilterINS0_10ListSampleINS_6VectorIdLj1EEEEENS0_9HistogramIfNS0_24DenseFrequencyContainer2EEEE16SetMarginalScaleEPKNS_25SimpleDataObjectDecoratorIfEE@Base 5.0.0
 (optional=templinst)_ZN3itk10Statistics23SampleToHistogramFilterINS0_10ListSampleINS_6VectorIdLj1EEEEENS0_9HistogramIfNS0_24DenseFrequencyContainer2EEEE16SetMarginalScaleERKf@Base 5.0.0
 (optional=templinst)_ZN3itk10Statistics23SampleToHistogramFilterINS0_10ListSampleINS_6VectorIdLj1EEEEENS0_9HistogramIfNS0_24DenseFrequencyContainer2EEEE21SetAutoMinimumMaximumEPKNS_25SimpleDataObjectDecoratorIbEE@Base 5.0.0
 (optional=templinst)_ZN3itk10Statistics23SampleToHistogramFilterINS0_10ListSampleINS_6VectorIdLj1EEEEENS0_9HistogramIfNS0_24DenseFrequencyContainer2EEEE21SetAutoMinimumMaximumERKb@Base 5.0.0
 (optional=templinst)_ZN3itk10Statistics23SampleToHistogramFilterINS0_10ListSampleINS_6VectorIdLj1EEEEENS0_9HistogramIfNS0_24DenseFrequencyContainer2EEEE21SetHistogramSizeInputEPKNS_25SimpleDataObjectDecoratorINS_5ArrayImEEEE@Base 5.0.0
 (optional=templinst)_ZN3itk10Statistics23SampleToHistogramFilterINS0_10ListSampleINS_6VectorIdLj1EEEEENS0_9HistogramIfNS0_24DenseFrequencyContainer2EEEE21SetMarginalScaleInputEPKNS_25SimpleDataObjectDecoratorIfEE@Base 5.0.0
 (optional=templinst)_ZN3itk10Statistics23SampleToHistogramFilterINS0_10ListSampleINS_6VectorIdLj1EEEEENS0_9HistogramIfNS0_24DenseFrequencyContainer2EEEE22SetHistogramBinMaximumEPKNS_25SimpleDataObjectDecoratorINS_5ArrayIfEEEE@Base 5.0.0
 (optional=templinst)_ZN3itk10Statistics23SampleToHistogramFilterINS0_10ListSampleINS_6VectorIdLj1EEEEENS0_9HistogramIfNS0_24DenseFrequencyContainer2EEEE22SetHistogramBinMaximumERKNS_5ArrayIfEE@Base 5.0.0
 (optional=templinst)_ZN3itk10Statistics23SampleToHistogramFilterINS0_10ListSampleINS_6VectorIdLj1EEEEENS0_9HistogramIfNS0_24DenseFrequencyContainer2EEEE22SetHistogramBinMinimumEPKNS_25SimpleDataObjectDecoratorINS_5ArrayIfEEEE@Base 5.0.0
 (optional=templinst)_ZN3itk10Statistics23SampleToHistogramFilterINS0_10ListSampleINS_6VectorIdLj1EEEEENS0_9HistogramIfNS0_24DenseFrequencyContainer2EEEE22SetHistogramBinMinimumERKNS_5ArrayIfEE@Base 5.0.0
 (optional=templinst)_ZN3itk10Statistics23SampleToHistogramFilterINS0_10ListSampleINS_6VectorIdLj1EEEEENS0_9HistogramIfNS0_24DenseFrequencyContainer2EEEE26SetAutoMinimumMaximumInputEPKNS_25SimpleDataObjectDecoratorIbEE@Base 5.0.0
 (optional=templinst)_ZN3itk10Statistics23SampleToHistogramFilterINS0_10ListSampleINS_6VectorIdLj1EEEEENS0_9HistogramIfNS0_24DenseFrequencyContainer2EEEE27SetHistogramBinMaximumInputEPKNS_25SimpleDataObjectDecoratorINS_5ArrayIfEEEE@Base 5.0.0
 (optional=templinst)_ZN3itk10Statistics23SampleToHistogramFilterINS0_10ListSampleINS_6VectorIdLj1EEEEENS0_9HistogramIfNS0_24DenseFrequencyContainer2EEEE27SetHistogramBinMinimumInputEPKNS_25SimpleDataObjectDecoratorINS_5ArrayIfEEEE@Base 5.0.0
 (optional=templinst)_ZN3itk10Statistics23SampleToHistogramFilterINS0_10ListSampleINS_6VectorIdLj1EEEEENS0_9HistogramIfNS0_24DenseFrequencyContainer2EEEE8SetInputEPKS5_@Base 5.0.0
 (optional=templinst)_ZN3itk10Statistics23SampleToHistogramFilterINS0_10ListSampleINS_6VectorIdLj1EEEEENS0_9HistogramIfNS0_24DenseFrequencyContainer2EEEEC1Ev@Base 5.0.0
 (optional=templinst)_ZN3itk10Statistics23SampleToHistogramFilterINS0_10ListSampleINS_6VectorIdLj1EEEEENS0_9HistogramIfNS0_24DenseFrequencyContainer2EEEEC2Ev@Base 5.0.0
 (optional=templinst)_ZN3itk10Statistics23SampleToHistogramFilterINS0_10ListSampleINS_6VectorIdLj1EEEEENS0_9HistogramIfNS0_24DenseFrequencyContainer2EEEED0Ev@Base 5.0.0
 (optional=templinst)_ZN3itk10Statistics23SampleToHistogramFilterINS0_10ListSampleINS_6VectorIdLj1EEEEENS0_9HistogramIfNS0_24DenseFrequencyContainer2EEEED1Ev@Base 5.0.0
 (optional=templinst)_ZN3itk10Statistics23SampleToHistogramFilterINS0_10ListSampleINS_6VectorIdLj1EEEEENS0_9HistogramIfNS0_24DenseFrequencyContainer2EEEED2Ev@Base 5.0.0
 (optional=templinst)_ZN3itk10Statistics6SampleINS_5ArrayIfEEE24SetMeasurementVectorSizeEj@Base 5.0.0
 (optional=templinst)_ZN3itk10Statistics6SampleINS_5ArrayIfEEE5GraftEPKNS_10DataObjectE@Base 5.0.0
 (optional=templinst)_ZN3itk10Statistics6SampleINS_6VectorIdLj1EEEE24SetMeasurementVectorSizeEj@Base 5.0.0
 (optional=templinst)_ZN3itk10Statistics6SampleINS_6VectorIdLj1EEEE5GraftEPKNS_10DataObjectE@Base 5.0.0
 (optional=templinst)_ZN3itk10Statistics9Algorithm15FindSampleBoundINS0_10ListSampleINS_6VectorIdLj1EEEEEEEvPKT_RKNS7_13ConstIteratorESC_RNS7_21MeasurementVectorTypeESE_@Base 5.0.0
 (optional=templinst)_ZN3itk10Statistics9HistogramIfNS0_24DenseFrequencyContainer2EE10InitializeERKNS_5ArrayImEE@Base 5.0.0
 (optional=templinst)_ZN3itk10Statistics9HistogramIfNS0_24DenseFrequencyContainer2EE10InitializeERKNS_5ArrayImEERNS4_IfEES9_@Base 5.0.0
 (optional=templinst)_ZN3itk10Statistics9HistogramIfNS0_24DenseFrequencyContainer2EE10InitializeEv@Base 5.0.0
 (optional=templinst)_ZN3itk10Statistics9HistogramIfNS0_24DenseFrequencyContainer2EE17SetClipBinsAtEndsEb@Base 5.0.0
 (optional=templinst)_ZN3itk10Statistics9HistogramIfNS0_24DenseFrequencyContainer2EE5GraftEPKNS_10DataObjectE@Base 5.0.0
 (optional=templinst)_ZN3itk10Statistics9HistogramIfNS0_24DenseFrequencyContainer2EEC1Ev@Base 5.0.0
 (optional=templinst)_ZN3itk10Statistics9HistogramIfNS0_24DenseFrequencyContainer2EEC2Ev@Base 5.0.0
 (optional=templinst)_ZN3itk10Statistics9HistogramIfNS0_24DenseFrequencyContainer2EED0Ev@Base 5.0.0
 (optional=templinst)_ZN3itk10Statistics9HistogramIfNS0_24DenseFrequencyContainer2EED1Ev@Base 5.0.0
 (optional=templinst)_ZN3itk10Statistics9HistogramIfNS0_24DenseFrequencyContainer2EED2Ev@Base 5.0.0
 (optional=templinst)_ZN3itk11ImageRegionILj2EE4CropERKS1_@Base 5.0.0
 (optional=templinst)_ZN3itk11ImageRegionILj2EED0Ev@Base 5.0.0
 (optional=templinst)_ZN3itk11ImageRegionILj2EED1Ev@Base 5.0.0
 (optional=templinst)_ZN3itk11ImageRegionILj2EED2Ev@Base 5.0.0
 (optional=templinst)_ZN3itk11ImageRegionILj6EED0Ev@Base 5.0.0
 (optional=templinst)_ZN3itk11ImageRegionILj6EED1Ev@Base 5.0.0
 (optional=templinst)_ZN3itk11ImageRegionILj6EED2Ev@Base 5.0.0
 (optional=templinst)_ZN3itk11ImageSourceIN3otb11VectorImageIdLj2EEEE10MakeOutputERKNSt7__cxx1112basic_stringIcSt11char_traitsIcESaIcEEE@Base 5.0.0
 (optional=templinst|arch=i386)_ZN3itk11ImageSourceIN3otb11VectorImageIdLj2EEEE10MakeOutputEj@Base 5.0.0
 (optional=templinst)_ZN3itk11ImageSourceIN3otb11VectorImageIdLj2EEEE10MakeOutputEm@Base 5.0.0
 (optional=templinst)_ZN3itk11ImageSourceIN3otb11VectorImageIdLj2EEEE11GraftOutputEPNS_10DataObjectE@Base 5.0.0
 (optional=templinst)_ZN3itk11ImageSourceIN3otb11VectorImageIdLj2EEEE11GraftOutputERKNSt7__cxx1112basic_stringIcSt11char_traitsIcESaIcEEEPNS_10DataObjectE@Base 5.0.0
 (optional=templinst)_ZN3itk11ImageSourceIN3otb11VectorImageIdLj2EEEE11GraftOutputERKSsPNS_10DataObjectE@Base 5.0.0
 (optional=templinst)_ZN3itk11ImageSourceIN3otb11VectorImageIdLj2EEEE12GenerateDataEv@Base 5.0.0
 (optional=templinst)_ZN3itk11ImageSourceIN3otb11VectorImageIdLj2EEEE14GraftNthOutputEjPNS_10DataObjectE@Base 5.0.0
 (optional=templinst)_ZN3itk11ImageSourceIN3otb11VectorImageIdLj2EEEE15AllocateOutputsEv@Base 5.0.0
 (optional=templinst)_ZN3itk11ImageSourceIN3otb11VectorImageIdLj2EEEE16ThreaderCallbackEPv@Base 5.0.0
 (optional=templinst)_ZN3itk11ImageSourceIN3otb11VectorImageIdLj2EEEE20SplitRequestedRegionEjjRNS_11ImageRegionILj2EEE@Base 5.0.0
 (optional=templinst)_ZN3itk11ImageSourceIN3otb11VectorImageIdLj2EEEE20ThreadedGenerateDataERKNS_11ImageRegionILj2EEEj@Base 5.0.0
 (optional=templinst)_ZN3itk11ImageSourceIN3otb11VectorImageIdLj2EEEE25AfterThreadedGenerateDataEv@Base 5.0.0
 (optional=templinst)_ZN3itk11ImageSourceIN3otb11VectorImageIdLj2EEEE26BeforeThreadedGenerateDataEv@Base 5.0.0
 (optional=templinst)_ZN3itk11ImageSourceIN3otb11VectorImageIdLj2EEEEC1Ev@Base 5.0.0
 (optional=templinst)_ZN3itk11ImageSourceIN3otb11VectorImageIdLj2EEEEC2Ev@Base 5.0.0
 (optional=templinst)_ZN3itk11ImageSourceIN3otb11VectorImageIdLj2EEEED0Ev@Base 5.0.0
 (optional=templinst)_ZN3itk11ImageSourceIN3otb11VectorImageIdLj2EEEED1Ev@Base 5.0.0
 (optional=templinst)_ZN3itk11ImageSourceIN3otb11VectorImageIdLj2EEEED2Ev@Base 5.0.0
 (optional=templinst)_ZN3itk11ImageSourceIN3otb11VectorImageIhLj2EEEE10MakeOutputERKNSt7__cxx1112basic_stringIcSt11char_traitsIcESaIcEEE@Base 5.0.0
 (optional=templinst|arch=i386)_ZN3itk11ImageSourceIN3otb11VectorImageIhLj2EEEE10MakeOutputEj@Base 5.0.0
 (optional=templinst)_ZN3itk11ImageSourceIN3otb11VectorImageIhLj2EEEE10MakeOutputEm@Base 5.0.0
 (optional=templinst)_ZN3itk11ImageSourceIN3otb11VectorImageIhLj2EEEE11GraftOutputEPNS_10DataObjectE@Base 5.0.0
 (optional=templinst)_ZN3itk11ImageSourceIN3otb11VectorImageIhLj2EEEE11GraftOutputERKNSt7__cxx1112basic_stringIcSt11char_traitsIcESaIcEEEPNS_10DataObjectE@Base 5.0.0
 (optional=templinst)_ZN3itk11ImageSourceIN3otb11VectorImageIhLj2EEEE11GraftOutputERKSsPNS_10DataObjectE@Base 5.0.0
 (optional=templinst)_ZN3itk11ImageSourceIN3otb11VectorImageIhLj2EEEE12GenerateDataEv@Base 5.0.0
 (optional=templinst)_ZN3itk11ImageSourceIN3otb11VectorImageIhLj2EEEE14GraftNthOutputEjPNS_10DataObjectE@Base 5.0.0
 (optional=templinst)_ZN3itk11ImageSourceIN3otb11VectorImageIhLj2EEEE15AllocateOutputsEv@Base 5.0.0
 (optional=templinst)_ZN3itk11ImageSourceIN3otb11VectorImageIhLj2EEEE16ThreaderCallbackEPv@Base 5.0.0
 (optional=templinst)_ZN3itk11ImageSourceIN3otb11VectorImageIhLj2EEEE20SplitRequestedRegionEjjRNS_11ImageRegionILj2EEE@Base 5.0.0
 (optional=templinst)_ZN3itk11ImageSourceIN3otb11VectorImageIhLj2EEEE20ThreadedGenerateDataERKNS_11ImageRegionILj2EEEj@Base 5.0.0
 (optional=templinst)_ZN3itk11ImageSourceIN3otb11VectorImageIhLj2EEEE25AfterThreadedGenerateDataEv@Base 5.0.0
 (optional=templinst)_ZN3itk11ImageSourceIN3otb11VectorImageIhLj2EEEE26BeforeThreadedGenerateDataEv@Base 5.0.0
 (optional=templinst)_ZN3itk11ImageSourceIN3otb11VectorImageIhLj2EEEE9GetOutputEj@Base 5.0.0
 (optional=templinst)_ZN3itk11ImageSourceIN3otb11VectorImageIhLj2EEEEC1Ev@Base 5.0.0
 (optional=templinst)_ZN3itk11ImageSourceIN3otb11VectorImageIhLj2EEEEC2Ev@Base 5.0.0
 (optional=templinst)_ZN3itk11ImageSourceIN3otb11VectorImageIhLj2EEEED0Ev@Base 5.0.0
 (optional=templinst)_ZN3itk11ImageSourceIN3otb11VectorImageIhLj2EEEED1Ev@Base 5.0.0
 (optional=templinst)_ZN3itk11ImageSourceIN3otb11VectorImageIhLj2EEEED2Ev@Base 5.0.0
 (optional=templinst)_ZN3itk11ImageSourceIN3otb5ImageIdLj6EEEE10MakeOutputERKNSt7__cxx1112basic_stringIcSt11char_traitsIcESaIcEEE@Base 5.0.0
 (optional=templinst|arch=i386)_ZN3itk11ImageSourceIN3otb5ImageIdLj6EEEE10MakeOutputEj@Base 5.0.0
 (optional=templinst)_ZN3itk11ImageSourceIN3otb5ImageIdLj6EEEE10MakeOutputEm@Base 5.0.0
 (optional=templinst)_ZN3itk11ImageSourceIN3otb5ImageIdLj6EEEE11GraftOutputEPNS_10DataObjectE@Base 5.0.0
 (optional=templinst)_ZN3itk11ImageSourceIN3otb5ImageIdLj6EEEE11GraftOutputERKNSt7__cxx1112basic_stringIcSt11char_traitsIcESaIcEEEPNS_10DataObjectE@Base 5.0.0
 (optional=templinst)_ZN3itk11ImageSourceIN3otb5ImageIdLj6EEEE11GraftOutputERKSsPNS_10DataObjectE@Base 5.0.0
 (optional=templinst)_ZN3itk11ImageSourceIN3otb5ImageIdLj6EEEE12GenerateDataEv@Base 5.0.0
 (optional=templinst)_ZN3itk11ImageSourceIN3otb5ImageIdLj6EEEE14GraftNthOutputEjPNS_10DataObjectE@Base 5.0.0
 (optional=templinst)_ZN3itk11ImageSourceIN3otb5ImageIdLj6EEEE15AllocateOutputsEv@Base 5.0.0
 (optional=templinst)_ZN3itk11ImageSourceIN3otb5ImageIdLj6EEEE16ThreaderCallbackEPv@Base 5.0.0
 (optional=templinst)_ZN3itk11ImageSourceIN3otb5ImageIdLj6EEEE20SplitRequestedRegionEjjRNS_11ImageRegionILj6EEE@Base 5.0.0
 (optional=templinst)_ZN3itk11ImageSourceIN3otb5ImageIdLj6EEEE20ThreadedGenerateDataERKNS_11ImageRegionILj6EEEj@Base 5.0.0
 (optional=templinst)_ZN3itk11ImageSourceIN3otb5ImageIdLj6EEEE25AfterThreadedGenerateDataEv@Base 5.0.0
 (optional=templinst)_ZN3itk11ImageSourceIN3otb5ImageIdLj6EEEE26BeforeThreadedGenerateDataEv@Base 5.0.0
 (optional=templinst)_ZN3itk11ImageSourceIN3otb5ImageIdLj6EEEEC1Ev@Base 5.0.0
 (optional=templinst)_ZN3itk11ImageSourceIN3otb5ImageIdLj6EEEEC2Ev@Base 5.0.0
 (optional=templinst)_ZN3itk11ImageSourceIN3otb5ImageIdLj6EEEED0Ev@Base 5.0.0
 (optional=templinst)_ZN3itk11ImageSourceIN3otb5ImageIdLj6EEEED1Ev@Base 5.0.0
 (optional=templinst)_ZN3itk11ImageSourceIN3otb5ImageIdLj6EEEED2Ev@Base 5.0.0
 (optional=templinst)_ZN3itk11VectorImageIdLj2EE10InitializeEv@Base 5.0.0
 (optional=templinst)_ZN3itk11VectorImageIdLj2EE15SetVectorLengthEj@Base 5.0.0
 (optional=templinst)_ZN3itk11VectorImageIdLj2EE29SetNumberOfComponentsPerPixelEj@Base 5.0.0
 (optional=templinst)_ZN3itk11VectorImageIdLj2EE5GraftEPKNS_10DataObjectE@Base 5.0.0
 (optional=templinst)_ZN3itk11VectorImageIdLj2EE8AllocateEb@Base 5.0.0
 (optional=templinst)_ZN3itk11VectorImageIdLj2EEC1Ev@Base 5.0.0
 (optional=templinst)_ZN3itk11VectorImageIdLj2EEC2Ev@Base 5.0.0
 (optional=templinst)_ZN3itk11VectorImageIdLj2EED0Ev@Base 5.0.0
 (optional=templinst)_ZN3itk11VectorImageIdLj2EED1Ev@Base 5.0.0
 (optional=templinst)_ZN3itk11VectorImageIdLj2EED2Ev@Base 5.0.0
 (optional=templinst)_ZN3itk11VectorImageIhLj2EE10InitializeEv@Base 5.0.0
 (optional=templinst)_ZN3itk11VectorImageIhLj2EE15SetVectorLengthEj@Base 5.0.0
 (optional=templinst)_ZN3itk11VectorImageIhLj2EE29SetNumberOfComponentsPerPixelEj@Base 5.0.0
 (optional=templinst)_ZN3itk11VectorImageIhLj2EE5GraftEPKNS_10DataObjectE@Base 5.0.0
 (optional=templinst)_ZN3itk11VectorImageIhLj2EE8AllocateEb@Base 5.0.0
 (optional=templinst)_ZN3itk11VectorImageIhLj2EEC1Ev@Base 5.0.0
 (optional=templinst)_ZN3itk11VectorImageIhLj2EEC2Ev@Base 5.0.0
 (optional=templinst)_ZN3itk11VectorImageIhLj2EED0Ev@Base 5.0.0
 (optional=templinst)_ZN3itk11VectorImageIhLj2EED1Ev@Base 5.0.0
 (optional=templinst)_ZN3itk11VectorImageIhLj2EED2Ev@Base 5.0.0
 (optional=templinst)_ZN3itk12NeighborhoodINS_20VariableLengthVectorIdEELj2ENS_21NeighborhoodAllocatorIS2_EEE30ComputeNeighborhoodOffsetTableEv@Base 5.0.0
 (optional=templinst)_ZN3itk12NeighborhoodINS_20VariableLengthVectorIdEELj2ENS_21NeighborhoodAllocatorIS2_EEE30ComputeNeighborhoodStrideTableEv@Base 5.0.0
 (optional=templinst)_ZN3itk12NeighborhoodINS_20VariableLengthVectorIdEELj2ENS_21NeighborhoodAllocatorIS2_EEE8AllocateEm@Base 5.0.0
 (optional=templinst)_ZN3itk12NeighborhoodINS_20VariableLengthVectorIdEELj2ENS_21NeighborhoodAllocatorIS2_EEE9SetRadiusERKNS_4SizeILj2EEE@Base 5.0.0
 (optional=templinst)_ZN3itk12NeighborhoodINS_20VariableLengthVectorIdEELj2ENS_21NeighborhoodAllocatorIS2_EEED0Ev@Base 5.0.0
 (optional=templinst)_ZN3itk12NeighborhoodINS_20VariableLengthVectorIdEELj2ENS_21NeighborhoodAllocatorIS2_EEED1Ev@Base 5.0.0
 (optional=templinst)_ZN3itk12NeighborhoodINS_20VariableLengthVectorIdEELj2ENS_21NeighborhoodAllocatorIS2_EEED2Ev@Base 5.0.0
 (optional=templinst)_ZN3itk12NeighborhoodIPdLj2ENS_21NeighborhoodAllocatorIS1_EEE30ComputeNeighborhoodOffsetTableEv@Base 5.0.0
 (optional=templinst)_ZN3itk12NeighborhoodIPdLj2ENS_21NeighborhoodAllocatorIS1_EEE30ComputeNeighborhoodStrideTableEv@Base 5.0.0
 (optional=templinst)_ZN3itk12NeighborhoodIPdLj2ENS_21NeighborhoodAllocatorIS1_EEE8AllocateEm@Base 5.0.0
 (optional=templinst)_ZN3itk12NeighborhoodIPdLj2ENS_21NeighborhoodAllocatorIS1_EEED0Ev@Base 5.0.0
 (optional=templinst)_ZN3itk12NeighborhoodIPdLj2ENS_21NeighborhoodAllocatorIS1_EEED1Ev@Base 5.0.0
 (optional=templinst)_ZN3itk12NeighborhoodIPdLj2ENS_21NeighborhoodAllocatorIS1_EEED2Ev@Base 5.0.0
 (optional=templinst)_ZN3itk12SmartPointerIN3otb11ImageIOBaseEEaSEPS2_@Base 5.0.0
 (optional=templinst)_ZN3itk13MemberCommandIN3otb15ImageFileWriterINS1_11VectorImageIhLj2EEEEEE3NewEv@Base 5.0.0
 (optional=templinst)_ZN3itk13MemberCommandIN3otb15ImageFileWriterINS1_11VectorImageIhLj2EEEEEE7ExecuteEPKNS_6ObjectERKNS_11EventObjectE@Base 5.0.0
 (optional=templinst)_ZN3itk13MemberCommandIN3otb15ImageFileWriterINS1_11VectorImageIhLj2EEEEEE7ExecuteEPNS_6ObjectERKNS_11EventObjectE@Base 5.0.0
 (optional=templinst)_ZN3itk13MemberCommandIN3otb15ImageFileWriterINS1_11VectorImageIhLj2EEEEEED0Ev@Base 5.0.0
 (optional=templinst)_ZN3itk13MemberCommandIN3otb15ImageFileWriterINS1_11VectorImageIhLj2EEEEEED1Ev@Base 5.0.0
 (optional=templinst)_ZN3itk13MemberCommandIN3otb15ImageFileWriterINS1_11VectorImageIhLj2EEEEEED2Ev@Base 5.0.0
 (optional=templinst)_ZN3itk13NumericTraitsINS_6VectorIdLj1EEEE9SetLengthERS2_j@Base 5.0.0
 _ZN3itk13ProcessObject18SetNumberOfThreadsEj@Base 5.0.0
 _ZN3itk13ProcessObject19AbortGenerateDataOnEv@Base 5.0.0
 _ZN3itk13ProcessObject20AbortGenerateDataOffEv@Base 5.0.0
 _ZN3itk13ProcessObject20SetAbortGenerateDataEb@Base 5.0.0
 (arch=i386)_ZN3itk13ProcessObject26SetNumberOfRequiredOutputsEj@Base 5.0.0
 _ZN3itk13ProcessObject26SetNumberOfRequiredOutputsEm@Base 5.0.0
 _ZN3itk13ProcessObject28EnlargeOutputRequestedRegionEPNS_10DataObjectE@Base 5.0.0
 _ZN3itk13ProcessObject29ReleaseDataBeforeUpdateFlagOnEv@Base 5.0.0
 _ZN3itk13ProcessObject30ReleaseDataBeforeUpdateFlagOffEv@Base 5.0.0
 _ZN3itk13ProcessObject30SetReleaseDataBeforeUpdateFlagEb@Base 5.0.0
 _ZN3itk13ProcessObject8GetInputEm@Base 5.0.0
 _ZN3itk13ProgressEventD0Ev@Base 5.0.0
 _ZN3itk13ProgressEventD1Ev@Base 5.0.0
 _ZN3itk13ProgressEventD2Ev@Base 5.0.0
 (optional=templinst)_ZN3itk14ExposeMetaDataIN3otb16ImageKeywordlistEEEbRKNS_18MetaDataDictionaryENSt7__cxx1112basic_stringIcSt11char_traitsIcESaIcEEERT_@Base 5.0.0
 (optional=templinst)_ZN3itk14ExposeMetaDataIN3otb16ImageKeywordlistEEEbRKNS_18MetaDataDictionaryESsRT_@Base 5.0.0
 (optional=templinst)_ZN3itk14ExposeMetaDataINSt7__cxx1112basic_stringIcSt11char_traitsIcESaIcEEEEEbRKNS_18MetaDataDictionaryES6_RT_@Base 5.0.0
 (optional=templinst)_ZN3itk14ExposeMetaDataISsEEbRKNS_18MetaDataDictionaryESsRT_@Base 5.0.0
 (optional=templinst)_ZN3itk14ImageAlgorithm14DispatchedCopyIN3otb11VectorImageIhLj2EEES4_EEvPKT_PT0_RKNS5_10RegionTypeERKNS8_10RegionTypeENSt3tr117integral_constantIbLb0EEE@Base 5.0.0
 (optional=templinst)_ZN3itk14MetaDataObjectIN3otb16ImageKeywordlistEED0Ev@Base 5.0.0
 (optional=templinst)_ZN3itk14MetaDataObjectIN3otb16ImageKeywordlistEED1Ev@Base 5.0.0
 (optional=templinst)_ZN3itk14MetaDataObjectIN3otb16ImageKeywordlistEED2Ev@Base 5.0.0
 _ZN3itk14ProcessAbortedC1EPKcj@Base 5.0.0
 _ZN3itk14ProcessAbortedC2EPKcj@Base 5.0.0
 _ZN3itk16ProgressReporter14CompletedPixelEv@Base 5.0.0
 (optional=templinst|arch=i386)_ZN3itk18ConvertPixelBufferIcdN3otb25DefaultConvertPixelTraitsIdEEE7ConvertEPciPdj@Base 5.0.0
 (optional=templinst)_ZN3itk18ConvertPixelBufferIcdN3otb25DefaultConvertPixelTraitsIdEEE7ConvertEPciPdm@Base 5.0.0
 (optional=templinst|arch=i386)_ZN3itk18ConvertPixelBufferIddN3otb25DefaultConvertPixelTraitsIdEEE7ConvertEPdiS5_j@Base 5.0.0
 (optional=templinst)_ZN3itk18ConvertPixelBufferIddN3otb25DefaultConvertPixelTraitsIdEEE7ConvertEPdiS5_m@Base 5.0.0
 (optional=templinst|arch=i386)_ZN3itk18ConvertPixelBufferIfdN3otb25DefaultConvertPixelTraitsIdEEE7ConvertEPfiPdj@Base 5.0.0
 (optional=templinst)_ZN3itk18ConvertPixelBufferIfdN3otb25DefaultConvertPixelTraitsIdEEE7ConvertEPfiPdm@Base 5.0.0
 (optional=templinst|arch=i386)_ZN3itk18ConvertPixelBufferIhdN3otb25DefaultConvertPixelTraitsIdEEE7ConvertEPhiPdj@Base 5.0.0
 (optional=templinst)_ZN3itk18ConvertPixelBufferIhdN3otb25DefaultConvertPixelTraitsIdEEE7ConvertEPhiPdm@Base 5.0.0
 (optional=templinst|arch=i386)_ZN3itk18ConvertPixelBufferIidN3otb25DefaultConvertPixelTraitsIdEEE7ConvertEPiiPdj@Base 5.0.0
 (optional=templinst)_ZN3itk18ConvertPixelBufferIidN3otb25DefaultConvertPixelTraitsIdEEE7ConvertEPiiPdm@Base 5.0.0
 (optional=templinst|arch=i386)_ZN3itk18ConvertPixelBufferIjdN3otb25DefaultConvertPixelTraitsIdEEE7ConvertEPjiPdj@Base 5.0.0
 (optional=templinst)_ZN3itk18ConvertPixelBufferIjdN3otb25DefaultConvertPixelTraitsIdEEE7ConvertEPjiPdm@Base 5.0.0
 (optional=templinst|arch=i386)_ZN3itk18ConvertPixelBufferIldN3otb25DefaultConvertPixelTraitsIdEEE7ConvertEPliPdj@Base 5.0.0
 (optional=templinst)_ZN3itk18ConvertPixelBufferIldN3otb25DefaultConvertPixelTraitsIdEEE7ConvertEPliPdm@Base 5.0.0
 (optional=templinst|arch=i386)_ZN3itk18ConvertPixelBufferImdN3otb25DefaultConvertPixelTraitsIdEEE7ConvertEPmiPdj@Base 5.0.0
 (optional=templinst)_ZN3itk18ConvertPixelBufferImdN3otb25DefaultConvertPixelTraitsIdEEE7ConvertEPmiPdm@Base 5.0.0
 (optional=templinst|arch=i386)_ZN3itk18ConvertPixelBufferIsdN3otb25DefaultConvertPixelTraitsIdEEE7ConvertEPsiPdj@Base 5.0.0
 (optional=templinst)_ZN3itk18ConvertPixelBufferIsdN3otb25DefaultConvertPixelTraitsIdEEE7ConvertEPsiPdm@Base 5.0.0
 (optional=templinst|arch=i386)_ZN3itk18ConvertPixelBufferItdN3otb25DefaultConvertPixelTraitsIdEEE7ConvertEPtiPdj@Base 5.0.0
 (optional=templinst)_ZN3itk18ConvertPixelBufferItdN3otb25DefaultConvertPixelTraitsIdEEE7ConvertEPtiPdm@Base 5.0.0
 (optional=templinst)_ZN3itk18ExtractImageFilterIN3otb11VectorImageIhLj2EEES3_E12GenerateDataEv@Base 5.0.0
 (optional=templinst)_ZN3itk18ExtractImageFilterIN3otb11VectorImageIhLj2EEES3_E19SetExtractionRegionENS_11ImageRegionILj2EEE@Base 5.0.0
 (optional=templinst)_ZN3itk18ExtractImageFilterIN3otb11VectorImageIhLj2EEES3_E20ThreadedGenerateDataERKNS_11ImageRegionILj2EEEj@Base 5.0.0
 (optional=templinst)_ZN3itk18ExtractImageFilterIN3otb11VectorImageIhLj2EEES3_E25GenerateOutputInformationEv@Base 5.0.0
 (optional=templinst)_ZN3itk18ExtractImageFilterIN3otb11VectorImageIhLj2EEES3_E33CallCopyOutputRegionToInputRegionERNS_11ImageRegionILj2EEERKS6_@Base 5.0.0
 (optional=templinst)_ZN3itk18ExtractImageFilterIN3otb11VectorImageIhLj2EEES3_E3NewEv@Base 5.0.0
 (optional=templinst)_ZN3itk18ExtractImageFilterIN3otb11VectorImageIhLj2EEES3_EC1Ev@Base 5.0.0
 (optional=templinst)_ZN3itk18ExtractImageFilterIN3otb11VectorImageIhLj2EEES3_EC2Ev@Base 5.0.0
 (optional=templinst)_ZN3itk18ExtractImageFilterIN3otb11VectorImageIhLj2EEES3_ED0Ev@Base 5.0.0
 (optional=templinst)_ZN3itk18ExtractImageFilterIN3otb11VectorImageIhLj2EEES3_ED1Ev@Base 5.0.0
 (optional=templinst)_ZN3itk18ExtractImageFilterIN3otb11VectorImageIhLj2EEES3_ED2Ev@Base 5.0.0
 (optional=templinst)_ZN3itk18ImageConstIteratorIN3otb11VectorImageIdLj2EEEE8SetIndexERKNS_5IndexILj2EEE@Base 5.0.0
 (optional=templinst)_ZN3itk18ImageConstIteratorIN3otb11VectorImageIdLj2EEEE9SetRegionERKNS_11ImageRegionILj2EEE@Base 5.0.0
 (optional=templinst)_ZN3itk18ImageConstIteratorIN3otb11VectorImageIdLj2EEEEC1EPKS3_RKNS_11ImageRegionILj2EEE@Base 5.0.0
 (optional=templinst)_ZN3itk18ImageConstIteratorIN3otb11VectorImageIdLj2EEEEC2EPKS3_RKNS_11ImageRegionILj2EEE@Base 5.0.0
 (optional=templinst)_ZN3itk18ImageConstIteratorIN3otb11VectorImageIdLj2EEEED0Ev@Base 5.0.0
 (optional=templinst)_ZN3itk18ImageConstIteratorIN3otb11VectorImageIdLj2EEEED1Ev@Base 5.0.0
 (optional=templinst)_ZN3itk18ImageConstIteratorIN3otb11VectorImageIdLj2EEEED2Ev@Base 5.0.0
 (optional=templinst)_ZN3itk18ImageConstIteratorIN3otb11VectorImageIhLj2EEEE8SetIndexERKNS_5IndexILj2EEE@Base 5.0.0
 (optional=templinst)_ZN3itk18ImageConstIteratorIN3otb11VectorImageIhLj2EEEE9SetRegionERKNS_11ImageRegionILj2EEE@Base 5.0.0
 (optional=templinst)_ZN3itk18ImageConstIteratorIN3otb11VectorImageIhLj2EEEEC1EPKS3_RKNS_11ImageRegionILj2EEE@Base 5.0.0
 (optional=templinst)_ZN3itk18ImageConstIteratorIN3otb11VectorImageIhLj2EEEEC2EPKS3_RKNS_11ImageRegionILj2EEE@Base 5.0.0
 (optional=templinst)_ZN3itk18ImageConstIteratorIN3otb11VectorImageIhLj2EEEED0Ev@Base 5.0.0
 (optional=templinst)_ZN3itk18ImageConstIteratorIN3otb11VectorImageIhLj2EEEED1Ev@Base 5.0.0
 (optional=templinst)_ZN3itk18ImageConstIteratorIN3otb11VectorImageIhLj2EEEED2Ev@Base 5.0.0
 (optional=templinst)_ZN3itk18ImageConstIteratorIN3otb5ImageIhLj2EEEE8SetIndexERKNS_5IndexILj2EEE@Base 5.0.0
 (optional=templinst)_ZN3itk18ImageConstIteratorIN3otb5ImageIhLj2EEEE9SetRegionERKNS_11ImageRegionILj2EEE@Base 5.0.0
 (optional=templinst)_ZN3itk18ImageConstIteratorIN3otb5ImageIhLj2EEEEC1EPKS3_RKNS_11ImageRegionILj2EEE@Base 5.0.0
 (optional=templinst)_ZN3itk18ImageConstIteratorIN3otb5ImageIhLj2EEEEC2EPKS3_RKNS_11ImageRegionILj2EEE@Base 5.0.0
 (optional=templinst)_ZN3itk18ImageConstIteratorIN3otb5ImageIhLj2EEEED0Ev@Base 5.0.0
 (optional=templinst)_ZN3itk18ImageConstIteratorIN3otb5ImageIhLj2EEEED1Ev@Base 5.0.0
 (optional=templinst)_ZN3itk18ImageConstIteratorIN3otb5ImageIhLj2EEEED2Ev@Base 5.0.0
 (optional=templinst)_ZN3itk18ImageToImageFilterIN3otb11VectorImageIdLj2EEENS2_IhLj2EEEE12PopBackInputEv@Base 5.0.0
 (optional=templinst)_ZN3itk18ImageToImageFilterIN3otb11VectorImageIdLj2EEENS2_IhLj2EEEE13PopFrontInputEv@Base 5.0.0
 (optional=templinst)_ZN3itk18ImageToImageFilterIN3otb11VectorImageIdLj2EEENS2_IhLj2EEEE13PushBackInputEPKNS_10DataObjectE@Base 5.0.0
 (optional=templinst)_ZN3itk18ImageToImageFilterIN3otb11VectorImageIdLj2EEENS2_IhLj2EEEE13PushBackInputEPKS3_@Base 5.0.0
 (optional=templinst)_ZN3itk18ImageToImageFilterIN3otb11VectorImageIdLj2EEENS2_IhLj2EEEE14PushFrontInputEPKNS_10DataObjectE@Base 5.0.0
 (optional=templinst)_ZN3itk18ImageToImageFilterIN3otb11VectorImageIdLj2EEENS2_IhLj2EEEE14PushFrontInputEPKS3_@Base 5.0.0
 (optional=templinst)_ZN3itk18ImageToImageFilterIN3otb11VectorImageIdLj2EEENS2_IhLj2EEEE21SetDirectionToleranceEd@Base 5.0.0
 (optional=templinst)_ZN3itk18ImageToImageFilterIN3otb11VectorImageIdLj2EEENS2_IhLj2EEEE22SetCoordinateToleranceEd@Base 5.0.0
 (optional=templinst)_ZN3itk18ImageToImageFilterIN3otb11VectorImageIdLj2EEENS2_IhLj2EEEE22VerifyInputInformationEv@Base 5.0.0
 (optional=templinst)_ZN3itk18ImageToImageFilterIN3otb11VectorImageIdLj2EEENS2_IhLj2EEEE28GenerateInputRequestedRegionEv@Base 5.0.0
 (optional=templinst)_ZN3itk18ImageToImageFilterIN3otb11VectorImageIdLj2EEENS2_IhLj2EEEE33CallCopyInputRegionToOutputRegionERNS_11ImageRegionILj2EEERKS7_@Base 5.0.0
 (optional=templinst)_ZN3itk18ImageToImageFilterIN3otb11VectorImageIdLj2EEENS2_IhLj2EEEE33CallCopyOutputRegionToInputRegionERNS_11ImageRegionILj2EEERKS7_@Base 5.0.0
 (optional=templinst)_ZN3itk18ImageToImageFilterIN3otb11VectorImageIdLj2EEENS2_IhLj2EEEE8SetInputEPKS3_@Base 5.0.0
 (optional=templinst)_ZN3itk18ImageToImageFilterIN3otb11VectorImageIdLj2EEENS2_IhLj2EEEE8SetInputEjPKS3_@Base 5.0.0
 (optional=templinst)_ZN3itk18ImageToImageFilterIN3otb11VectorImageIdLj2EEENS2_IhLj2EEEED0Ev@Base 5.0.0
 (optional=templinst)_ZN3itk18ImageToImageFilterIN3otb11VectorImageIdLj2EEENS2_IhLj2EEEED1Ev@Base 5.0.0
 (optional=templinst)_ZN3itk18ImageToImageFilterIN3otb11VectorImageIdLj2EEENS2_IhLj2EEEED2Ev@Base 5.0.0
 (optional=templinst)_ZN3itk18ImageToImageFilterIN3otb11VectorImageIdLj2EEES3_E12PopBackInputEv@Base 5.0.0
 (optional=templinst)_ZN3itk18ImageToImageFilterIN3otb11VectorImageIdLj2EEES3_E13PopFrontInputEv@Base 5.0.0
 (optional=templinst)_ZN3itk18ImageToImageFilterIN3otb11VectorImageIdLj2EEES3_E13PushBackInputEPKNS_10DataObjectE@Base 5.0.0
 (optional=templinst)_ZN3itk18ImageToImageFilterIN3otb11VectorImageIdLj2EEES3_E13PushBackInputEPKS3_@Base 5.0.0
 (optional=templinst)_ZN3itk18ImageToImageFilterIN3otb11VectorImageIdLj2EEES3_E14PushFrontInputEPKNS_10DataObjectE@Base 5.0.0
 (optional=templinst)_ZN3itk18ImageToImageFilterIN3otb11VectorImageIdLj2EEES3_E14PushFrontInputEPKS3_@Base 5.0.0
 (optional=templinst)_ZN3itk18ImageToImageFilterIN3otb11VectorImageIdLj2EEES3_E21SetDirectionToleranceEd@Base 5.0.0
 (optional=templinst)_ZN3itk18ImageToImageFilterIN3otb11VectorImageIdLj2EEES3_E22SetCoordinateToleranceEd@Base 5.0.0
 (optional=templinst)_ZN3itk18ImageToImageFilterIN3otb11VectorImageIdLj2EEES3_E22VerifyInputInformationEv@Base 5.0.0
 (optional=templinst)_ZN3itk18ImageToImageFilterIN3otb11VectorImageIdLj2EEES3_E28GenerateInputRequestedRegionEv@Base 5.0.0
 (optional=templinst)_ZN3itk18ImageToImageFilterIN3otb11VectorImageIdLj2EEES3_E33CallCopyInputRegionToOutputRegionERNS_11ImageRegionILj2EEERKS6_@Base 5.0.0
 (optional=templinst)_ZN3itk18ImageToImageFilterIN3otb11VectorImageIdLj2EEES3_E33CallCopyOutputRegionToInputRegionERNS_11ImageRegionILj2EEERKS6_@Base 5.0.0
 (optional=templinst)_ZN3itk18ImageToImageFilterIN3otb11VectorImageIdLj2EEES3_E8SetInputEPKS3_@Base 5.0.0
 (optional=templinst)_ZN3itk18ImageToImageFilterIN3otb11VectorImageIdLj2EEES3_E8SetInputEjPKS3_@Base 5.0.0
 (optional=templinst)_ZN3itk18ImageToImageFilterIN3otb11VectorImageIdLj2EEES3_ED0Ev@Base 5.0.0
 (optional=templinst)_ZN3itk18ImageToImageFilterIN3otb11VectorImageIdLj2EEES3_ED1Ev@Base 5.0.0
 (optional=templinst)_ZN3itk18ImageToImageFilterIN3otb11VectorImageIdLj2EEES3_ED2Ev@Base 5.0.0
 (optional=templinst)_ZN3itk18ImageToImageFilterIN3otb11VectorImageIhLj2EEES3_E12PopBackInputEv@Base 5.0.0
 (optional=templinst)_ZN3itk18ImageToImageFilterIN3otb11VectorImageIhLj2EEES3_E13PopFrontInputEv@Base 5.0.0
 (optional=templinst)_ZN3itk18ImageToImageFilterIN3otb11VectorImageIhLj2EEES3_E13PushBackInputEPKNS_10DataObjectE@Base 5.0.0
 (optional=templinst)_ZN3itk18ImageToImageFilterIN3otb11VectorImageIhLj2EEES3_E13PushBackInputEPKS3_@Base 5.0.0
 (optional=templinst)_ZN3itk18ImageToImageFilterIN3otb11VectorImageIhLj2EEES3_E14PushFrontInputEPKNS_10DataObjectE@Base 5.0.0
 (optional=templinst)_ZN3itk18ImageToImageFilterIN3otb11VectorImageIhLj2EEES3_E14PushFrontInputEPKS3_@Base 5.0.0
 (optional=templinst)_ZN3itk18ImageToImageFilterIN3otb11VectorImageIhLj2EEES3_E21SetDirectionToleranceEd@Base 5.0.0
 (optional=templinst)_ZN3itk18ImageToImageFilterIN3otb11VectorImageIhLj2EEES3_E22SetCoordinateToleranceEd@Base 5.0.0
 (optional=templinst)_ZN3itk18ImageToImageFilterIN3otb11VectorImageIhLj2EEES3_E22VerifyInputInformationEv@Base 5.0.0
 (optional=templinst)_ZN3itk18ImageToImageFilterIN3otb11VectorImageIhLj2EEES3_E28GenerateInputRequestedRegionEv@Base 5.0.0
 (optional=templinst)_ZN3itk18ImageToImageFilterIN3otb11VectorImageIhLj2EEES3_E33CallCopyInputRegionToOutputRegionERNS_11ImageRegionILj2EEERKS6_@Base 5.0.0
 (optional=templinst)_ZN3itk18ImageToImageFilterIN3otb11VectorImageIhLj2EEES3_E33CallCopyOutputRegionToInputRegionERNS_11ImageRegionILj2EEERKS6_@Base 5.0.0
 (optional=templinst)_ZN3itk18ImageToImageFilterIN3otb11VectorImageIhLj2EEES3_E8SetInputEPKS3_@Base 5.0.0
 (optional=templinst)_ZN3itk18ImageToImageFilterIN3otb11VectorImageIhLj2EEES3_E8SetInputEjPKS3_@Base 5.0.0
 (optional=templinst)_ZN3itk18ImageToImageFilterIN3otb11VectorImageIhLj2EEES3_ED0Ev@Base 5.0.0
 (optional=templinst)_ZN3itk18ImageToImageFilterIN3otb11VectorImageIhLj2EEES3_ED1Ev@Base 5.0.0
 (optional=templinst)_ZN3itk18ImageToImageFilterIN3otb11VectorImageIhLj2EEES3_ED2Ev@Base 5.0.0
 (optional=templinst)_ZN3itk18InPlaceImageFilterIN3otb11VectorImageIdLj2EEENS2_IhLj2EEEE10InPlaceOffEv@Base 5.0.0
 (optional=templinst)_ZN3itk18InPlaceImageFilterIN3otb11VectorImageIdLj2EEENS2_IhLj2EEEE10SetInPlaceEb@Base 5.0.0
 (optional=templinst)_ZN3itk18InPlaceImageFilterIN3otb11VectorImageIdLj2EEENS2_IhLj2EEEE13ReleaseInputsEv@Base 5.0.0
 (optional=templinst)_ZN3itk18InPlaceImageFilterIN3otb11VectorImageIdLj2EEENS2_IhLj2EEEE15AllocateOutputsEv@Base 5.0.0
 (optional=templinst)_ZN3itk18InPlaceImageFilterIN3otb11VectorImageIdLj2EEENS2_IhLj2EEEE9InPlaceOnEv@Base 5.0.0
 (optional=templinst)_ZN3itk18InPlaceImageFilterIN3otb11VectorImageIdLj2EEENS2_IhLj2EEEED0Ev@Base 5.0.0
 (optional=templinst)_ZN3itk18InPlaceImageFilterIN3otb11VectorImageIdLj2EEENS2_IhLj2EEEED1Ev@Base 5.0.0
 (optional=templinst)_ZN3itk18InPlaceImageFilterIN3otb11VectorImageIdLj2EEENS2_IhLj2EEEED2Ev@Base 5.0.0
 (optional=templinst)_ZN3itk18InPlaceImageFilterIN3otb11VectorImageIhLj2EEES3_E10InPlaceOffEv@Base 5.0.0
 (optional=templinst)_ZN3itk18InPlaceImageFilterIN3otb11VectorImageIhLj2EEES3_E10SetInPlaceEb@Base 5.0.0
 (optional=templinst)_ZN3itk18InPlaceImageFilterIN3otb11VectorImageIhLj2EEES3_E13ReleaseInputsEv@Base 5.0.0
 (optional=templinst)_ZN3itk18InPlaceImageFilterIN3otb11VectorImageIhLj2EEES3_E15AllocateOutputsEv@Base 5.0.0
 (optional=templinst)_ZN3itk18InPlaceImageFilterIN3otb11VectorImageIhLj2EEES3_E23InternalAllocateOutputsERKNS_8TrueTypeE@Base 5.0.0
 (optional=templinst)_ZN3itk18InPlaceImageFilterIN3otb11VectorImageIhLj2EEES3_E9InPlaceOnEv@Base 5.0.0
 (optional=templinst)_ZN3itk18InPlaceImageFilterIN3otb11VectorImageIhLj2EEES3_ED0Ev@Base 5.0.0
 (optional=templinst)_ZN3itk18InPlaceImageFilterIN3otb11VectorImageIhLj2EEES3_ED1Ev@Base 5.0.0
 (optional=templinst)_ZN3itk18InPlaceImageFilterIN3otb11VectorImageIhLj2EEES3_ED2Ev@Base 5.0.0
 (optional=templinst)_ZN3itk19EncapsulateMetaDataIN3otb16ImageKeywordlistEEEvRNS_18MetaDataDictionaryEPKcRKT_@Base 5.0.0
 (optional=templinst)_ZN3itk19EncapsulateMetaDataINSt7__cxx1112basic_stringIcSt11char_traitsIcESaIcEEEEEvRNS_18MetaDataDictionaryEPKcRKT_@Base 5.0.0
 (optional=templinst)_ZN3itk19EncapsulateMetaDataISsEEvRNS_18MetaDataDictionaryEPKcRKT_@Base 5.0.0
 (optional=templinst)_ZN3itk19EncapsulateMetaDataIjEEvRNS_18MetaDataDictionaryEPKcRKT_@Base 5.0.0
 (optional=templinst)_ZN3itk19ImageRegionIteratorIN3otb11VectorImageIdLj2EEEED0Ev@Base 5.0.0
 (optional=templinst)_ZN3itk19ImageRegionIteratorIN3otb11VectorImageIdLj2EEEED1Ev@Base 5.0.0
 (optional=templinst)_ZN3itk19ImageRegionIteratorIN3otb11VectorImageIdLj2EEEED2Ev@Base 5.0.0
 (optional=templinst)_ZN3itk19ImageRegionIteratorIN3otb11VectorImageIhLj2EEEED0Ev@Base 5.0.0
 (optional=templinst)_ZN3itk19ImageRegionIteratorIN3otb11VectorImageIhLj2EEEED1Ev@Base 5.0.0
 (optional=templinst)_ZN3itk19ImageRegionIteratorIN3otb11VectorImageIhLj2EEEED2Ev@Base 5.0.0
 (optional=templinst)_ZN3itk19ImageRegionSplitterILj2EE17GetNumberOfSplitsERKNS_11ImageRegionILj2EEEj@Base 5.0.0
 (optional=templinst)_ZN3itk19ImageRegionSplitterILj2EE3NewEv@Base 5.0.0
 (optional=templinst)_ZN3itk19ImageRegionSplitterILj2EE8GetSplitEjjRKNS_11ImageRegionILj2EEE@Base 5.0.0
 (optional=templinst)_ZN3itk19ImageRegionSplitterILj2EED0Ev@Base 5.0.0
 (optional=templinst)_ZN3itk19ImageRegionSplitterILj2EED1Ev@Base 5.0.0
 (optional=templinst)_ZN3itk19ImageRegionSplitterILj2EED2Ev@Base 5.0.0
 (optional=templinst)_ZN3itk20DefaultPixelAccessorIhED0Ev@Base 5.0.0
 (optional=templinst)_ZN3itk20DefaultPixelAccessorIhED1Ev@Base 5.0.0
 (optional=templinst)_ZN3itk20DefaultPixelAccessorIhED2Ev@Base 5.0.0
 (optional=templinst)_ZN3itk20ImportImageContainerImdE11SetCapacityEm@Base 5.0.0
 (optional=templinst)_ZN3itk20ImportImageContainerImdE23ContainerManageMemoryOnEv@Base 5.0.0
 (optional=templinst)_ZN3itk20ImportImageContainerImdE23DeallocateManagedMemoryEv@Base 5.0.0
 (optional=templinst)_ZN3itk20ImportImageContainerImdE24ContainerManageMemoryOffEv@Base 5.0.0
 (optional=templinst)_ZN3itk20ImportImageContainerImdE24SetContainerManageMemoryEb@Base 5.0.0
 (optional=templinst)_ZN3itk20ImportImageContainerImdE3NewEv@Base 5.0.0
 (optional=templinst)_ZN3itk20ImportImageContainerImdE7ReserveEmb@Base 5.0.0
 (optional=templinst)_ZN3itk20ImportImageContainerImdE7SetSizeEm@Base 5.0.0
 (optional=templinst)_ZN3itk20ImportImageContainerImdED0Ev@Base 5.0.0
 (optional=templinst)_ZN3itk20ImportImageContainerImdED1Ev@Base 5.0.0
 (optional=templinst)_ZN3itk20ImportImageContainerImdED2Ev@Base 5.0.0
 (optional=templinst)_ZN3itk20ImportImageContainerImhE11SetCapacityEm@Base 5.0.0
 (optional=templinst)_ZN3itk20ImportImageContainerImhE23ContainerManageMemoryOnEv@Base 5.0.0
 (optional=templinst)_ZN3itk20ImportImageContainerImhE23DeallocateManagedMemoryEv@Base 5.0.0
 (optional=templinst)_ZN3itk20ImportImageContainerImhE24ContainerManageMemoryOffEv@Base 5.0.0
 (optional=templinst)_ZN3itk20ImportImageContainerImhE24SetContainerManageMemoryEb@Base 5.0.0
 (optional=templinst)_ZN3itk20ImportImageContainerImhE3NewEv@Base 5.0.0
 (optional=templinst)_ZN3itk20ImportImageContainerImhE7SetSizeEm@Base 5.0.0
 (optional=templinst)_ZN3itk20ImportImageContainerImhED0Ev@Base 5.0.0
 (optional=templinst)_ZN3itk20ImportImageContainerImhED1Ev@Base 5.0.0
 (optional=templinst)_ZN3itk20ImportImageContainerImhED2Ev@Base 5.0.0
 (optional=templinst)_ZN3itk20VariableLengthVectorIdE7SetSizeEjb@Base 5.0.0
 (optional=templinst)_ZN3itk20VariableLengthVectorIdEC1ERKS1_@Base 5.0.0
 (optional=templinst)_ZN3itk20VariableLengthVectorIdEC2ERKS1_@Base 5.0.0
 (optional=templinst)_ZN3itk20VariableLengthVectorIdEaSERKS1_@Base 5.0.0
 (optional=templinst)_ZN3itk20VariableLengthVectorIhE7SetSizeEjb@Base 5.0.0
 (optional=templinst)_ZN3itk20VariableLengthVectorIhEC1ERKS1_@Base 5.0.0
 (optional=templinst)_ZN3itk20VariableLengthVectorIhEC2ERKS1_@Base 5.0.0
 (optional=templinst)_ZN3itk20VariableLengthVectorIhEaSERKS1_@Base 5.0.0
 (optional=templinst)_ZN3itk21ImageScanlineIteratorIN3otb11VectorImageIhLj2EEEED0Ev@Base 5.0.0
 (optional=templinst)_ZN3itk21ImageScanlineIteratorIN3otb11VectorImageIhLj2EEEED1Ev@Base 5.0.0
 (optional=templinst)_ZN3itk21ImageScanlineIteratorIN3otb11VectorImageIhLj2EEEED2Ev@Base 5.0.0
 (optional=templinst)_ZN3itk21NeighborhoodAlgorithm28ImageBoundaryFacesCalculatorIN3otb11VectorImageIdLj2EEEEclEPKS4_NS_11ImageRegionILj2EEENS_4SizeILj2EEE@Base 5.0.0
 (optional=templinst)_ZN3itk22ImageBoundaryConditionIN3otb11VectorImageIdLj2EEES3_E28RequiresCompleteNeighborhoodEv@Base 5.0.0
 (optional=templinst)_ZN3itk23UnaryFunctorImageFilterIN3otb11VectorImageIdLj2EEENS2_IhLj2EEENS1_7Functor21VectorAffineTransformINS_20VariableLengthVectorIdEENS7_IhEEEEE20ThreadedGenerateDataERKNS_11ImageRegionILj2EEEj@Base 5.0.0
 (optional=templinst)_ZN3itk23UnaryFunctorImageFilterIN3otb11VectorImageIdLj2EEENS2_IhLj2EEENS1_7Functor21VectorAffineTransformINS_20VariableLengthVectorIdEENS7_IhEEEEE25GenerateOutputInformationEv@Base 5.0.0
 (optional=templinst)_ZN3itk23UnaryFunctorImageFilterIN3otb11VectorImageIdLj2EEENS2_IhLj2EEENS1_7Functor21VectorAffineTransformINS_20VariableLengthVectorIdEENS7_IhEEEEED0Ev@Base 5.0.0
 (optional=templinst)_ZN3itk23UnaryFunctorImageFilterIN3otb11VectorImageIdLj2EEENS2_IhLj2EEENS1_7Functor21VectorAffineTransformINS_20VariableLengthVectorIdEENS7_IhEEEEED1Ev@Base 5.0.0
 (optional=templinst)_ZN3itk23UnaryFunctorImageFilterIN3otb11VectorImageIdLj2EEENS2_IhLj2EEENS1_7Functor21VectorAffineTransformINS_20VariableLengthVectorIdEENS7_IhEEEEED2Ev@Base 5.0.0
 (optional=templinst)_ZN3itk24BinaryFunctorImageFilterIN3otb11VectorImageIhLj2EEENS1_5ImageIhLj2EEES3_NS1_7Functor11MaskFunctorINS_20VariableLengthVectorIdEEhNS8_IhEEEEE12SetConstant1ERKSA_@Base 5.0.0
 (optional=templinst)_ZN3itk24BinaryFunctorImageFilterIN3otb11VectorImageIhLj2EEENS1_5ImageIhLj2EEES3_NS1_7Functor11MaskFunctorINS_20VariableLengthVectorIdEEhNS8_IhEEEEE12SetConstant2ERKh@Base 5.0.0
 (optional=templinst)_ZN3itk24BinaryFunctorImageFilterIN3otb11VectorImageIhLj2EEENS1_5ImageIhLj2EEES3_NS1_7Functor11MaskFunctorINS_20VariableLengthVectorIdEEhNS8_IhEEEEE20ThreadedGenerateDataERKNS_11ImageRegionILj2EEEj@Base 5.0.0
 (optional=templinst)_ZN3itk24BinaryFunctorImageFilterIN3otb11VectorImageIhLj2EEENS1_5ImageIhLj2EEES3_NS1_7Functor11MaskFunctorINS_20VariableLengthVectorIdEEhNS8_IhEEEEE25GenerateOutputInformationEv@Base 5.0.0
 (optional=templinst)_ZN3itk24BinaryFunctorImageFilterIN3otb11VectorImageIhLj2EEENS1_5ImageIhLj2EEES3_NS1_7Functor11MaskFunctorINS_20VariableLengthVectorIdEEhNS8_IhEEEEE9SetInput1EPKNS_25SimpleDataObjectDecoratorISA_EE@Base 5.0.0
 (optional=templinst)_ZN3itk24BinaryFunctorImageFilterIN3otb11VectorImageIhLj2EEENS1_5ImageIhLj2EEES3_NS1_7Functor11MaskFunctorINS_20VariableLengthVectorIdEEhNS8_IhEEEEE9SetInput1EPKS3_@Base 5.0.0
 (optional=templinst)_ZN3itk24BinaryFunctorImageFilterIN3otb11VectorImageIhLj2EEENS1_5ImageIhLj2EEES3_NS1_7Functor11MaskFunctorINS_20VariableLengthVectorIdEEhNS8_IhEEEEE9SetInput1ERKSA_@Base 5.0.0
 (optional=templinst)_ZN3itk24BinaryFunctorImageFilterIN3otb11VectorImageIhLj2EEENS1_5ImageIhLj2EEES3_NS1_7Functor11MaskFunctorINS_20VariableLengthVectorIdEEhNS8_IhEEEEE9SetInput2EPKNS_25SimpleDataObjectDecoratorIhEE@Base 5.0.0
 (optional=templinst)_ZN3itk24BinaryFunctorImageFilterIN3otb11VectorImageIhLj2EEENS1_5ImageIhLj2EEES3_NS1_7Functor11MaskFunctorINS_20VariableLengthVectorIdEEhNS8_IhEEEEE9SetInput2EPKS5_@Base 5.0.0
 (optional=templinst)_ZN3itk24BinaryFunctorImageFilterIN3otb11VectorImageIhLj2EEENS1_5ImageIhLj2EEES3_NS1_7Functor11MaskFunctorINS_20VariableLengthVectorIdEEhNS8_IhEEEEE9SetInput2ERKh@Base 5.0.0
 (optional=templinst)_ZN3itk24BinaryFunctorImageFilterIN3otb11VectorImageIhLj2EEENS1_5ImageIhLj2EEES3_NS1_7Functor11MaskFunctorINS_20VariableLengthVectorIdEEhNS8_IhEEEEEC1Ev@Base 5.0.0
 (optional=templinst)_ZN3itk24BinaryFunctorImageFilterIN3otb11VectorImageIhLj2EEENS1_5ImageIhLj2EEES3_NS1_7Functor11MaskFunctorINS_20VariableLengthVectorIdEEhNS8_IhEEEEEC2Ev@Base 5.0.0
 (optional=templinst)_ZN3itk24BinaryFunctorImageFilterIN3otb11VectorImageIhLj2EEENS1_5ImageIhLj2EEES3_NS1_7Functor11MaskFunctorINS_20VariableLengthVectorIdEEhNS8_IhEEEEED0Ev@Base 5.0.0
 (optional=templinst)_ZN3itk24BinaryFunctorImageFilterIN3otb11VectorImageIhLj2EEENS1_5ImageIhLj2EEES3_NS1_7Functor11MaskFunctorINS_20VariableLengthVectorIdEEhNS8_IhEEEEED1Ev@Base 5.0.0
 (optional=templinst)_ZN3itk24BinaryFunctorImageFilterIN3otb11VectorImageIhLj2EEENS1_5ImageIhLj2EEES3_NS1_7Functor11MaskFunctorINS_20VariableLengthVectorIdEEhNS8_IhEEEEED2Ev@Base 5.0.0
 _ZN3itk24ImageFileWriterExceptionD0Ev@Base 5.0.0
 _ZN3itk24ImageFileWriterExceptionD1Ev@Base 5.0.0
 _ZN3itk24ImageFileWriterExceptionD2Ev@Base 5.0.0
 (optional=templinst)_ZN3itk24ImageRegionConstIteratorIN3otb11VectorImageIdLj2EEEE8SetIndexERKNS_5IndexILj2EEE@Base 5.0.0
 (optional=templinst)_ZN3itk24ImageRegionConstIteratorIN3otb11VectorImageIdLj2EEEE9IncrementEv@Base 5.0.0
 (optional=templinst)_ZN3itk24ImageRegionConstIteratorIN3otb11VectorImageIdLj2EEEED0Ev@Base 5.0.0
 (optional=templinst)_ZN3itk24ImageRegionConstIteratorIN3otb11VectorImageIdLj2EEEED1Ev@Base 5.0.0
 (optional=templinst)_ZN3itk24ImageRegionConstIteratorIN3otb11VectorImageIdLj2EEEED2Ev@Base 5.0.0
 (optional=templinst)_ZN3itk24ImageRegionConstIteratorIN3otb11VectorImageIhLj2EEEE8SetIndexERKNS_5IndexILj2EEE@Base 5.0.0
 (optional=templinst)_ZN3itk24ImageRegionConstIteratorIN3otb11VectorImageIhLj2EEEE9IncrementEv@Base 5.0.0
 (optional=templinst)_ZN3itk24ImageRegionConstIteratorIN3otb11VectorImageIhLj2EEEED0Ev@Base 5.0.0
 (optional=templinst)_ZN3itk24ImageRegionConstIteratorIN3otb11VectorImageIhLj2EEEED1Ev@Base 5.0.0
 (optional=templinst)_ZN3itk24ImageRegionConstIteratorIN3otb11VectorImageIhLj2EEEED2Ev@Base 5.0.0
 (optional=templinst)_ZN3itk25ConstNeighborhoodIteratorIN3otb11VectorImageIdLj2EEENS_32ZeroFluxNeumannBoundaryConditionIS3_S3_EEE10InitializeERKNS_4SizeILj2EEEPKS3_RKNS_11ImageRegionILj2EEE@Base 5.0.0
 (optional=templinst)_ZN3itk25ConstNeighborhoodIteratorIN3otb11VectorImageIdLj2EEENS_32ZeroFluxNeumannBoundaryConditionIS3_S3_EEE11SetEndIndexEv@Base 5.0.0
 (optional=templinst)_ZN3itk25ConstNeighborhoodIteratorIN3otb11VectorImageIdLj2EEENS_32ZeroFluxNeumannBoundaryConditionIS3_S3_EEE13SetBeginIndexERKNS_5IndexILj2EEE@Base 5.0.0
 (optional=templinst)_ZN3itk25ConstNeighborhoodIteratorIN3otb11VectorImageIdLj2EEENS_32ZeroFluxNeumannBoundaryConditionIS3_S3_EEE16SetPixelPointersERKNS_5IndexILj2EEE@Base 5.0.0
 (optional=templinst)_ZN3itk25ConstNeighborhoodIteratorIN3otb11VectorImageIdLj2EEENS_32ZeroFluxNeumannBoundaryConditionIS3_S3_EEE22ResetBoundaryConditionEv@Base 5.0.0
 (optional=templinst)_ZN3itk25ConstNeighborhoodIteratorIN3otb11VectorImageIdLj2EEENS_32ZeroFluxNeumannBoundaryConditionIS3_S3_EEE25OverrideBoundaryConditionEPNS_22ImageBoundaryConditionIS3_S3_EE@Base 5.0.0
 (optional=templinst)_ZN3itk25ConstNeighborhoodIteratorIN3otb11VectorImageIdLj2EEENS_32ZeroFluxNeumannBoundaryConditionIS3_S3_EEE7GoToEndEv@Base 5.0.0
 (optional=templinst)_ZN3itk25ConstNeighborhoodIteratorIN3otb11VectorImageIdLj2EEENS_32ZeroFluxNeumannBoundaryConditionIS3_S3_EEE7SetLoopERKNS_5IndexILj2EEE@Base 5.0.0
 (optional=templinst)_ZN3itk25ConstNeighborhoodIteratorIN3otb11VectorImageIdLj2EEENS_32ZeroFluxNeumannBoundaryConditionIS3_S3_EEE8SetBoundERKNS_4SizeILj2EEE@Base 5.0.0
 (optional=templinst)_ZN3itk25ConstNeighborhoodIteratorIN3otb11VectorImageIdLj2EEENS_32ZeroFluxNeumannBoundaryConditionIS3_S3_EEE9GoToBeginEv@Base 5.0.0
 (optional=templinst)_ZN3itk25ConstNeighborhoodIteratorIN3otb11VectorImageIdLj2EEENS_32ZeroFluxNeumannBoundaryConditionIS3_S3_EEE9SetRegionERKNS_11ImageRegionILj2EEE@Base 5.0.0
 (optional=templinst)_ZN3itk25ConstNeighborhoodIteratorIN3otb11VectorImageIdLj2EEENS_32ZeroFluxNeumannBoundaryConditionIS3_S3_EEED0Ev@Base 5.0.0
 (optional=templinst)_ZN3itk25ConstNeighborhoodIteratorIN3otb11VectorImageIdLj2EEENS_32ZeroFluxNeumannBoundaryConditionIS3_S3_EEED1Ev@Base 5.0.0
 (optional=templinst)_ZN3itk25ConstNeighborhoodIteratorIN3otb11VectorImageIdLj2EEENS_32ZeroFluxNeumannBoundaryConditionIS3_S3_EEED2Ev@Base 5.0.0
 _ZN3itk25MissingHistogramSizeInputD0Ev@Base 5.0.0
 _ZN3itk25MissingHistogramSizeInputD1Ev@Base 5.0.0
 _ZN3itk25MissingHistogramSizeInputD2Ev@Base 5.0.0
 (optional=templinst)_ZN3itk25SimpleDataObjectDecoratorINS_20VariableLengthVectorIhEEE3GetEv@Base 5.0.0
 (optional=templinst)_ZN3itk25SimpleDataObjectDecoratorINS_20VariableLengthVectorIhEEE3SetERKS2_@Base 5.0.0
 (optional=templinst)_ZN3itk25SimpleDataObjectDecoratorINS_20VariableLengthVectorIhEEEC1Ev@Base 5.0.0
 (optional=templinst)_ZN3itk25SimpleDataObjectDecoratorINS_20VariableLengthVectorIhEEEC2Ev@Base 5.0.0
 (optional=templinst)_ZN3itk25SimpleDataObjectDecoratorINS_20VariableLengthVectorIhEEED0Ev@Base 5.0.0
 (optional=templinst)_ZN3itk25SimpleDataObjectDecoratorINS_20VariableLengthVectorIhEEED1Ev@Base 5.0.0
 (optional=templinst)_ZN3itk25SimpleDataObjectDecoratorINS_20VariableLengthVectorIhEEED2Ev@Base 5.0.0
 (optional=templinst)_ZN3itk25SimpleDataObjectDecoratorINS_5ArrayIfEEE3GetEv@Base 5.0.0
 (optional=templinst)_ZN3itk25SimpleDataObjectDecoratorINS_5ArrayIfEEE3NewEv@Base 5.0.0
 (optional=templinst)_ZN3itk25SimpleDataObjectDecoratorINS_5ArrayIfEEE3SetERKS2_@Base 5.0.0
 (optional=templinst)_ZN3itk25SimpleDataObjectDecoratorINS_5ArrayIfEEEC1Ev@Base 5.0.0
 (optional=templinst)_ZN3itk25SimpleDataObjectDecoratorINS_5ArrayIfEEEC2Ev@Base 5.0.0
 (optional=templinst)_ZN3itk25SimpleDataObjectDecoratorINS_5ArrayIfEEED0Ev@Base 5.0.0
 (optional=templinst)_ZN3itk25SimpleDataObjectDecoratorINS_5ArrayIfEEED1Ev@Base 5.0.0
 (optional=templinst)_ZN3itk25SimpleDataObjectDecoratorINS_5ArrayIfEEED2Ev@Base 5.0.0
 (optional=templinst)_ZN3itk25SimpleDataObjectDecoratorINS_5ArrayImEEE3GetEv@Base 5.0.0
 (optional=templinst)_ZN3itk25SimpleDataObjectDecoratorINS_5ArrayImEEE3NewEv@Base 5.0.0
 (optional=templinst)_ZN3itk25SimpleDataObjectDecoratorINS_5ArrayImEEE3SetERKS2_@Base 5.0.0
 (optional=templinst)_ZN3itk25SimpleDataObjectDecoratorINS_5ArrayImEEEC1Ev@Base 5.0.0
 (optional=templinst)_ZN3itk25SimpleDataObjectDecoratorINS_5ArrayImEEEC2Ev@Base 5.0.0
 (optional=templinst)_ZN3itk25SimpleDataObjectDecoratorINS_5ArrayImEEED0Ev@Base 5.0.0
 (optional=templinst)_ZN3itk25SimpleDataObjectDecoratorINS_5ArrayImEEED1Ev@Base 5.0.0
 (optional=templinst)_ZN3itk25SimpleDataObjectDecoratorINS_5ArrayImEEED2Ev@Base 5.0.0
 (optional=templinst)_ZN3itk25SimpleDataObjectDecoratorIbE3GetEv@Base 5.0.0
 (optional=templinst)_ZN3itk25SimpleDataObjectDecoratorIbE3NewEv@Base 5.0.0
 (optional=templinst)_ZN3itk25SimpleDataObjectDecoratorIbE3SetERKb@Base 5.0.0
 (optional=templinst)_ZN3itk25SimpleDataObjectDecoratorIbED0Ev@Base 5.0.0
 (optional=templinst)_ZN3itk25SimpleDataObjectDecoratorIbED1Ev@Base 5.0.0
 (optional=templinst)_ZN3itk25SimpleDataObjectDecoratorIbED2Ev@Base 5.0.0
 (optional=templinst)_ZN3itk25SimpleDataObjectDecoratorIfE3GetEv@Base 5.0.0
 (optional=templinst)_ZN3itk25SimpleDataObjectDecoratorIfE3NewEv@Base 5.0.0
 (optional=templinst)_ZN3itk25SimpleDataObjectDecoratorIfE3SetERKf@Base 5.0.0
 (optional=templinst)_ZN3itk25SimpleDataObjectDecoratorIfED0Ev@Base 5.0.0
 (optional=templinst)_ZN3itk25SimpleDataObjectDecoratorIfED1Ev@Base 5.0.0
 (optional=templinst)_ZN3itk25SimpleDataObjectDecoratorIfED2Ev@Base 5.0.0
 (optional=templinst)_ZN3itk25SimpleDataObjectDecoratorIhE3GetEv@Base 5.0.0
 (optional=templinst)_ZN3itk25SimpleDataObjectDecoratorIhE3SetERKh@Base 5.0.0
 (optional=templinst)_ZN3itk25SimpleDataObjectDecoratorIhED0Ev@Base 5.0.0
 (optional=templinst)_ZN3itk25SimpleDataObjectDecoratorIhED1Ev@Base 5.0.0
 (optional=templinst)_ZN3itk25SimpleDataObjectDecoratorIhED2Ev@Base 5.0.0
 (optional=templinst)_ZN3itk26DefaultVectorPixelAccessorIdED0Ev@Base 5.0.0
 (optional=templinst)_ZN3itk26DefaultVectorPixelAccessorIdED1Ev@Base 5.0.0
 (optional=templinst)_ZN3itk26DefaultVectorPixelAccessorIdED2Ev@Base 5.0.0
 (optional=templinst)_ZN3itk26DefaultVectorPixelAccessorIhED0Ev@Base 5.0.0
 (optional=templinst)_ZN3itk26DefaultVectorPixelAccessorIhED1Ev@Base 5.0.0
 (optional=templinst)_ZN3itk26DefaultVectorPixelAccessorIhED2Ev@Base 5.0.0
 (optional=templinst)_ZN3itk26ImageScanlineConstIteratorIN3otb11VectorImageIdLj2EEEE8SetIndexERKNS_5IndexILj2EEE@Base 5.0.0
 (optional=templinst)_ZN3itk26ImageScanlineConstIteratorIN3otb11VectorImageIdLj2EEEE9IncrementEv@Base 5.0.0
 (optional=templinst)_ZN3itk26ImageScanlineConstIteratorIN3otb11VectorImageIdLj2EEEED0Ev@Base 5.0.0
 (optional=templinst)_ZN3itk26ImageScanlineConstIteratorIN3otb11VectorImageIdLj2EEEED1Ev@Base 5.0.0
 (optional=templinst)_ZN3itk26ImageScanlineConstIteratorIN3otb11VectorImageIdLj2EEEED2Ev@Base 5.0.0
 (optional=templinst)_ZN3itk26ImageScanlineConstIteratorIN3otb11VectorImageIhLj2EEEE8SetIndexERKNS_5IndexILj2EEE@Base 5.0.0
 (optional=templinst)_ZN3itk26ImageScanlineConstIteratorIN3otb11VectorImageIhLj2EEEE9IncrementEv@Base 5.0.0
 (optional=templinst)_ZN3itk26ImageScanlineConstIteratorIN3otb11VectorImageIhLj2EEEED0Ev@Base 5.0.0
 (optional=templinst)_ZN3itk26ImageScanlineConstIteratorIN3otb11VectorImageIhLj2EEEED1Ev@Base 5.0.0
 (optional=templinst)_ZN3itk26ImageScanlineConstIteratorIN3otb11VectorImageIhLj2EEEED2Ev@Base 5.0.0
 (optional=templinst)_ZN3itk26ImageScanlineConstIteratorIN3otb5ImageIhLj2EEEE8SetIndexERKNS_5IndexILj2EEE@Base 5.0.0
 (optional=templinst)_ZN3itk26ImageScanlineConstIteratorIN3otb5ImageIhLj2EEEE9IncrementEv@Base 5.0.0
 (optional=templinst)_ZN3itk26ImageScanlineConstIteratorIN3otb5ImageIhLj2EEEED0Ev@Base 5.0.0
 (optional=templinst)_ZN3itk26ImageScanlineConstIteratorIN3otb5ImageIhLj2EEEED1Ev@Base 5.0.0
 (optional=templinst)_ZN3itk26ImageScanlineConstIteratorIN3otb5ImageIhLj2EEEED2Ev@Base 5.0.0
 _ZN3itk27InvalidRequestedRegionErrorD0Ev@Base 5.0.0
 _ZN3itk27InvalidRequestedRegionErrorD1Ev@Base 5.0.0
 _ZN3itk27InvalidRequestedRegionErrorD2Ev@Base 5.0.0
 _ZN3itk31MissingHistogramBinMaximumInputD0Ev@Base 5.0.0
 _ZN3itk31MissingHistogramBinMaximumInputD1Ev@Base 5.0.0
 _ZN3itk31MissingHistogramBinMaximumInputD2Ev@Base 5.0.0
 _ZN3itk31MissingHistogramBinMinimumInputD0Ev@Base 5.0.0
 _ZN3itk31MissingHistogramBinMinimumInputD1Ev@Base 5.0.0
 _ZN3itk31MissingHistogramBinMinimumInputD2Ev@Base 5.0.0
 _ZN3itk32HistogramWrongNumberOfComponentsD0Ev@Base 5.0.0
 _ZN3itk32HistogramWrongNumberOfComponentsD1Ev@Base 5.0.0
 _ZN3itk32HistogramWrongNumberOfComponentsD2Ev@Base 5.0.0
 _ZN3itk32SampleToHistogramFilterExceptionD0Ev@Base 5.0.0
 _ZN3itk32SampleToHistogramFilterExceptionD1Ev@Base 5.0.0
 _ZN3itk32SampleToHistogramFilterExceptionD2Ev@Base 5.0.0
 (optional=templinst)_ZN3itk32ZeroFluxNeumannBoundaryConditionIN3otb11VectorImageIdLj2EEES3_ED0Ev@Base 5.0.0
 (optional=templinst)_ZN3itk32ZeroFluxNeumannBoundaryConditionIN3otb11VectorImageIdLj2EEES3_ED1Ev@Base 5.0.0
 (optional=templinst)_ZN3itk32ZeroFluxNeumannBoundaryConditionIN3otb11VectorImageIdLj2EEES3_ED2Ev@Base 5.0.0
 _ZN3itk34MissingHistogramMarginalScaleInputD0Ev@Base 5.0.0
 _ZN3itk34MissingHistogramMarginalScaleInputD1Ev@Base 5.0.0
 _ZN3itk34MissingHistogramMarginalScaleInputD2Ev@Base 5.0.0
 _ZN3itk43NullSizeHistogramInputMeasurementVectorSizeD0Ev@Base 5.0.0
 _ZN3itk43NullSizeHistogramInputMeasurementVectorSizeD1Ev@Base 5.0.0
 _ZN3itk43NullSizeHistogramInputMeasurementVectorSizeD2Ev@Base 5.0.0
 (optional=templinst)_ZN3itk5ArrayIfEaSERKS1_@Base 5.0.0
 (optional=templinst)_ZN3itk5ImageIdLj6EE10InitializeEv@Base 5.0.0
 (optional=templinst)_ZN3itk5ImageIdLj6EE16GetBufferPointerEv@Base 5.0.0
 (optional=templinst)_ZN3itk5ImageIdLj6EE35ComputeIndexToPhysicalPointMatricesEv@Base 5.0.0
 (optional=templinst)_ZN3itk5ImageIdLj6EE5GraftEPKNS_10DataObjectE@Base 5.0.0
 (optional=templinst)_ZN3itk5ImageIdLj6EE8AllocateEb@Base 5.0.0
 (optional=templinst)_ZN3itk5ImageIdLj6EEC1Ev@Base 5.0.0
 (optional=templinst)_ZN3itk5ImageIdLj6EEC2Ev@Base 5.0.0
 (optional=templinst)_ZN3itk5ImageIdLj6EED0Ev@Base 5.0.0
 (optional=templinst)_ZN3itk5ImageIdLj6EED1Ev@Base 5.0.0
 (optional=templinst)_ZN3itk5ImageIdLj6EED2Ev@Base 5.0.0
 _ZN3itk6Object13SetObjectNameENSt7__cxx1112basic_stringIcSt11char_traitsIcESaIcEEE@Base 5.0.0
 _ZN3itk6Object13SetObjectNameESs@Base 5.0.0
 _ZN3itk8AnyEventD0Ev@Base 5.0.0
 _ZN3itk8AnyEventD1Ev@Base 5.0.0
 _ZN3itk8AnyEventD2Ev@Base 5.0.0
 _ZN3itk8EndEventD0Ev@Base 5.0.0
 _ZN3itk8EndEventD1Ev@Base 5.0.0
 _ZN3itk8EndEventD2Ev@Base 5.0.0
 (optional=templinst)_ZN3itk9ImageBaseILj2EE10InitializeEv@Base 5.0.0
 (optional=templinst)_ZN3itk9ImageBaseILj2EE10SetRegionsERKNS_11ImageRegionILj2EEE@Base 5.0.0
 (optional=templinst)_ZN3itk9ImageBaseILj2EE10SetRegionsERKNS_4SizeILj2EEE@Base 5.0.0
 (optional=templinst)_ZN3itk9ImageBaseILj2EE10SetSpacingEPKd@Base 5.0.0
 (optional=templinst)_ZN3itk9ImageBaseILj2EE10SetSpacingEPKf@Base 5.0.0
 (optional=templinst)_ZN3itk9ImageBaseILj2EE10SetSpacingERKNS_6VectorIdLj2EEE@Base 5.0.0
 (optional=templinst)_ZN3itk9ImageBaseILj2EE12SetDirectionERKNS_6MatrixIdLj2ELj2EEE@Base 5.0.0
 (optional=templinst)_ZN3itk9ImageBaseILj2EE15CopyInformationEPKNS_10DataObjectE@Base 5.0.0
 (optional=templinst)_ZN3itk9ImageBaseILj2EE16UpdateOutputDataEv@Base 5.0.0
 (optional=templinst)_ZN3itk9ImageBaseILj2EE17SetBufferedRegionERKNS_11ImageRegionILj2EEE@Base 5.0.0
 (optional=templinst)_ZN3itk9ImageBaseILj2EE18SetRequestedRegionEPKNS_10DataObjectE@Base 5.0.0
 (optional=templinst)_ZN3itk9ImageBaseILj2EE18SetRequestedRegionERKNS_11ImageRegionILj2EEE@Base 5.0.0
 (optional=templinst)_ZN3itk9ImageBaseILj2EE21VerifyRequestedRegionEv@Base 5.0.0
 (optional=templinst)_ZN3itk9ImageBaseILj2EE23UpdateOutputInformationEv@Base 5.0.0
 (optional=templinst)_ZN3itk9ImageBaseILj2EE24InitializeBufferedRegionEv@Base 5.0.0
 (optional=templinst)_ZN3itk9ImageBaseILj2EE24SetLargestPossibleRegionERKNS_11ImageRegionILj2EEE@Base 5.0.0
 (optional=templinst)_ZN3itk9ImageBaseILj2EE29SetNumberOfComponentsPerPixelEj@Base 5.0.0
 (optional=templinst)_ZN3itk9ImageBaseILj2EE35ComputeIndexToPhysicalPointMatricesEv@Base 5.0.0
 (optional=templinst)_ZN3itk9ImageBaseILj2EE41SetRequestedRegionToLargestPossibleRegionEv@Base 5.0.0
 (optional=templinst)_ZN3itk9ImageBaseILj2EE43RequestedRegionIsOutsideOfTheBufferedRegionEv@Base 5.0.0
 (optional=templinst)_ZN3itk9ImageBaseILj2EE5GraftEPKNS_10DataObjectE@Base 5.0.0
 (optional=templinst)_ZN3itk9ImageBaseILj2EE8AllocateEb@Base 5.0.0
 (optional=templinst)_ZN3itk9ImageBaseILj2EE9SetOriginENS_5PointIdLj2EEE@Base 5.0.0
 (optional=templinst)_ZN3itk9ImageBaseILj2EE9SetOriginEPKd@Base 5.0.0
 (optional=templinst)_ZN3itk9ImageBaseILj2EE9SetOriginEPKf@Base 5.0.0
 (optional=templinst)_ZN3itk9ImageBaseILj2EEC1Ev@Base 5.0.0
 (optional=templinst)_ZN3itk9ImageBaseILj2EEC2Ev@Base 5.0.0
 (optional=templinst)_ZN3itk9ImageBaseILj2EED0Ev@Base 5.0.0
 (optional=templinst)_ZN3itk9ImageBaseILj2EED1Ev@Base 5.0.0
 (optional=templinst)_ZN3itk9ImageBaseILj2EED2Ev@Base 5.0.0
 (optional=templinst)_ZN3itk9ImageBaseILj6EE10InitializeEv@Base 5.0.0
 (optional=templinst)_ZN3itk9ImageBaseILj6EE10SetRegionsERKNS_11ImageRegionILj6EEE@Base 5.0.0
 (optional=templinst)_ZN3itk9ImageBaseILj6EE10SetRegionsERKNS_4SizeILj6EEE@Base 5.0.0
 (optional=templinst)_ZN3itk9ImageBaseILj6EE10SetSpacingEPKd@Base 5.0.0
 (optional=templinst)_ZN3itk9ImageBaseILj6EE10SetSpacingEPKf@Base 5.0.0
 (optional=templinst)_ZN3itk9ImageBaseILj6EE10SetSpacingERKNS_6VectorIdLj6EEE@Base 5.0.0
 (optional=templinst)_ZN3itk9ImageBaseILj6EE12SetDirectionERKNS_6MatrixIdLj6ELj6EEE@Base 5.0.0
 (optional=templinst)_ZN3itk9ImageBaseILj6EE15CopyInformationEPKNS_10DataObjectE@Base 5.0.0
 (optional=templinst)_ZN3itk9ImageBaseILj6EE16UpdateOutputDataEv@Base 5.0.0
 (optional=templinst)_ZN3itk9ImageBaseILj6EE17SetBufferedRegionERKNS_11ImageRegionILj6EEE@Base 5.0.0
 (optional=templinst)_ZN3itk9ImageBaseILj6EE18SetRequestedRegionEPKNS_10DataObjectE@Base 5.0.0
 (optional=templinst)_ZN3itk9ImageBaseILj6EE18SetRequestedRegionERKNS_11ImageRegionILj6EEE@Base 5.0.0
 (optional=templinst)_ZN3itk9ImageBaseILj6EE21VerifyRequestedRegionEv@Base 5.0.0
 (optional=templinst)_ZN3itk9ImageBaseILj6EE23UpdateOutputInformationEv@Base 5.0.0
 (optional=templinst)_ZN3itk9ImageBaseILj6EE24InitializeBufferedRegionEv@Base 5.0.0
 (optional=templinst)_ZN3itk9ImageBaseILj6EE24SetLargestPossibleRegionERKNS_11ImageRegionILj6EEE@Base 5.0.0
 (optional=templinst)_ZN3itk9ImageBaseILj6EE29SetNumberOfComponentsPerPixelEj@Base 5.0.0
 (optional=templinst)_ZN3itk9ImageBaseILj6EE35ComputeIndexToPhysicalPointMatricesEv@Base 5.0.0
 (optional=templinst)_ZN3itk9ImageBaseILj6EE41SetRequestedRegionToLargestPossibleRegionEv@Base 5.0.0
 (optional=templinst)_ZN3itk9ImageBaseILj6EE43RequestedRegionIsOutsideOfTheBufferedRegionEv@Base 5.0.0
 (optional=templinst)_ZN3itk9ImageBaseILj6EE5GraftEPKNS_10DataObjectE@Base 5.0.0
 (optional=templinst)_ZN3itk9ImageBaseILj6EE8AllocateEb@Base 5.0.0
 (optional=templinst)_ZN3itk9ImageBaseILj6EE9SetOriginENS_5PointIdLj6EEE@Base 5.0.0
 (optional=templinst)_ZN3itk9ImageBaseILj6EE9SetOriginEPKd@Base 5.0.0
 (optional=templinst)_ZN3itk9ImageBaseILj6EE9SetOriginEPKf@Base 5.0.0
 (optional=templinst)_ZN3itk9ImageBaseILj6EEC1Ev@Base 5.0.0
 (optional=templinst)_ZN3itk9ImageBaseILj6EEC2Ev@Base 5.0.0
 (optional=templinst)_ZN3itk9ImageBaseILj6EED0Ev@Base 5.0.0
 (optional=templinst)_ZN3itk9ImageBaseILj6EED1Ev@Base 5.0.0
 (optional=templinst)_ZN3itk9ImageBaseILj6EED2Ev@Base 5.0.0
 (optional=templinst)_ZN3itklsILj2EEERSoS1_RKNS_4SizeIXT_EEE@Base 5.0.0
 (optional=templinst)_ZN3itklsILj6EEERSoS1_RKNS_4SizeIXT_EEE@Base 5.0.0
 (optional=templinst)_ZN3itklsIPdLj2ENS_21NeighborhoodAllocatorIS1_EEEERSoS4_RKNS_12NeighborhoodIT_XT0_ET1_EE@Base 5.0.0
 (optional=templinst)_ZN3itklsIdEERSoS1_RKNS_20VariableLengthVectorIT_EE@Base 5.0.0
 (optional=templinst)_ZN3itklsIdLj2EEERSoS1_RKNS_5PointIT_XT0_EEE@Base 5.0.0
 (optional=templinst)_ZN3itklsIdLj2EEERSoS1_RKNS_6VectorIT_XT0_EEE@Base 5.0.0
 (optional=templinst)_ZN3itklsIdLj6EEERSoS1_RKNS_5PointIT_XT0_EEE@Base 5.0.0
 (optional=templinst)_ZN3itklsIdLj6EEERSoS1_RKNS_6VectorIT_XT0_EEE@Base 5.0.0
 (optional=templinst)_ZN3otb10ObjectListIN3itk10Statistics10ListSampleINS1_6VectorIdLj1EEEEEE3NewEv@Base 5.0.0
 (optional=templinst)_ZN3otb10ObjectListIN3itk10Statistics10ListSampleINS1_6VectorIdLj1EEEEEE8PushBackEPS6_@Base 5.0.0
 (optional=templinst)_ZN3otb10ObjectListIN3itk10Statistics10ListSampleINS1_6VectorIdLj1EEEEEED0Ev@Base 5.0.0
 (optional=templinst)_ZN3otb10ObjectListIN3itk10Statistics10ListSampleINS1_6VectorIdLj1EEEEEED1Ev@Base 5.0.0
 (optional=templinst)_ZN3otb10ObjectListIN3itk10Statistics10ListSampleINS1_6VectorIdLj1EEEEEED2Ev@Base 5.0.0
 _ZN3otb10TestHelper14DumpOGRFeatureEP8_IO_FILEP10OGRFeaturePPc@Base 5.0.0
 _ZN3otb10TestHelper14ReportErrorsOnEv@Base 5.0.0
 _ZN3otb10TestHelper15DumpOGRGeometryEP8_IO_FILEP11OGRGeometryPKcPPc@Base 5.0.0
 _ZN3otb10TestHelper15ReportErrorsOffEv@Base 5.0.0
 _ZN3otb10TestHelper15SetReportErrorsEb@Base 5.0.0
 _ZN3otb10TestHelper20RegressionTestAllOgrERKSt6vectorINSt7__cxx1112basic_stringIcSt11char_traitsIcESaIcEEESaIS7_EESB_@Base 5.0.0
 _ZN3otb10TestHelper20RegressionTestAllOgrERKSt6vectorISsSaISsEES5_@Base 5.0.0
 _ZN3otb10TestHelper22RegressionTestAllAsciiERKSt6vectorINSt7__cxx1112basic_stringIcSt11char_traitsIcESaIcEEESaIS7_EESB_SB_@Base 5.0.0
 _ZN3otb10TestHelper22RegressionTestAllAsciiERKSt6vectorISsSaISsEES5_S5_@Base 5.0.0
 _ZN3otb10TestHelper23RegressionTestAllBinaryERKSt6vectorINSt7__cxx1112basic_stringIcSt11char_traitsIcESaIcEEESaIS7_EESB_@Base 5.0.0
 _ZN3otb10TestHelper23RegressionTestAllBinaryERKSt6vectorISsSaISsEES5_@Base 5.0.0
 _ZN3otb10TestHelper23RegressionTestAllImagesERKSt6vectorINSt7__cxx1112basic_stringIcSt11char_traitsIcESaIcEEESaIS7_EESB_@Base 5.0.0
 _ZN3otb10TestHelper23RegressionTestAllImagesERKSt6vectorISsSaISsEES5_@Base 5.0.0
 _ZN3otb10TestHelper25RegressionTestAllMetaDataERKSt6vectorINSt7__cxx1112basic_stringIcSt11char_traitsIcESaIcEEESaIS7_EESB_@Base 5.0.0
 _ZN3otb10TestHelper25RegressionTestAllMetaDataERKSt6vectorISsSaISsEES5_@Base 5.0.0
 _ZN3otb11GDALImageIO12SetIsComplexEb@Base 5.0.0
 _ZN3otb11GDALImageIO16SetIsVectorImageEb@Base 5.0.0
 _ZN3otb11GDALImageIO23SetOutputImagePixelTypeEbb@Base 5.0.0
 _ZN3otb11ImageIOBase11SetFileNameEPKc@Base 5.0.0
 _ZN3otb11ImageIOBase11SetIORegionEN3itk13ImageIORegionE@Base 5.0.0
 _ZN3otb11ImageIOBase13CanStreamReadEv@Base 5.0.0
 _ZN3otb11ImageIOBase17SetUseCompressionEb@Base 5.0.0
 _ZN3otb11ImageIOBase21SetNumberOfComponentsEj@Base 5.0.0
 (optional=templinst)_ZN3otb11VectorImageIdLj2EE15CopyInformationEPKN3itk10DataObjectE@Base 5.0.0
 (optional=templinst)_ZN3otb11VectorImageIdLj2EE16SetProjectionRefERKNSt7__cxx1112basic_stringIcSt11char_traitsIcESaIcEEE@Base 5.0.0
 (optional=templinst)_ZN3otb11VectorImageIdLj2EE16SetProjectionRefERKSs@Base 5.0.0
 (optional=templinst)_ZN3otb11VectorImageIdLj2EE19GetImageKeywordlistEv@Base 5.0.0
 (optional=templinst)_ZN3otb11VectorImageIdLj2EE19SetImageKeywordListERKNS_16ImageKeywordlistE@Base 5.0.0
 (optional=templinst)_ZN3otb11VectorImageIdLj2EE3NewEv@Base 5.0.0
 (optional=templinst)_ZN3otb11VectorImageIdLj2EE7GetGCPsEj@Base 5.0.0
 (optional=templinst)_ZN3otb11VectorImageIdLj2EED0Ev@Base 5.0.0
 (optional=templinst)_ZN3otb11VectorImageIdLj2EED1Ev@Base 5.0.0
 (optional=templinst)_ZN3otb11VectorImageIdLj2EED2Ev@Base 5.0.0
 (optional=templinst)_ZN3otb11VectorImageIhLj2EE15CopyInformationEPKN3itk10DataObjectE@Base 5.0.0
 (optional=templinst)_ZN3otb11VectorImageIhLj2EE16SetProjectionRefERKNSt7__cxx1112basic_stringIcSt11char_traitsIcESaIcEEE@Base 5.0.0
 (optional=templinst)_ZN3otb11VectorImageIhLj2EE16SetProjectionRefERKSs@Base 5.0.0
 (optional=templinst)_ZN3otb11VectorImageIhLj2EE19GetImageKeywordlistEv@Base 5.0.0
 (optional=templinst)_ZN3otb11VectorImageIhLj2EE19SetImageKeywordListERKNS_16ImageKeywordlistE@Base 5.0.0
 (optional=templinst)_ZN3otb11VectorImageIhLj2EE3NewEv@Base 5.0.0
 (optional=templinst)_ZN3otb11VectorImageIhLj2EE7GetGCPsEj@Base 5.0.0
 (optional=templinst)_ZN3otb11VectorImageIhLj2EED0Ev@Base 5.0.0
 (optional=templinst)_ZN3otb11VectorImageIhLj2EED1Ev@Base 5.0.0
 (optional=templinst)_ZN3otb11VectorImageIhLj2EED2Ev@Base 5.0.0
 (optional=templinst)_ZN3otb14ExtractROIBaseINS_11VectorImageIdLj2EEES2_E19GetExtractionRegionEv@Base 5.0.0
 (optional=templinst)_ZN3otb14ExtractROIBaseINS_11VectorImageIdLj2EEES2_E20ThreadedGenerateDataERKN3itk11ImageRegionILj2EEEj@Base 5.0.0
 (optional=templinst)_ZN3otb14ExtractROIBaseINS_11VectorImageIdLj2EEES2_E25GenerateOutputInformationEv@Base 5.0.0
 (optional=templinst)_ZN3otb14ExtractROIBaseINS_11VectorImageIdLj2EEES2_E27SetInternalExtractionRegionEN3itk11ImageRegionILj2EEE@Base 5.0.0
 (optional=templinst)_ZN3otb14ExtractROIBaseINS_11VectorImageIdLj2EEES2_E28GenerateInputRequestedRegionEv@Base 5.0.0
 (optional=templinst)_ZN3otb14ExtractROIBaseINS_11VectorImageIdLj2EEES2_E33CallCopyOutputRegionToInputRegionERN3itk11ImageRegionILj2EEERKS6_@Base 5.0.0
 (optional=templinst)_ZN3otb14ExtractROIBaseINS_11VectorImageIdLj2EEES2_E8SetSizeXEm@Base 5.0.0
 (optional=templinst)_ZN3otb14ExtractROIBaseINS_11VectorImageIdLj2EEES2_E8SetSizeYEm@Base 5.0.0
 (optional=templinst)_ZN3otb14ExtractROIBaseINS_11VectorImageIdLj2EEES2_E9SetStartXEm@Base 5.0.0
 (optional=templinst)_ZN3otb14ExtractROIBaseINS_11VectorImageIdLj2EEES2_E9SetStartYEm@Base 5.0.0
 (optional=templinst)_ZN3otb14ExtractROIBaseINS_11VectorImageIdLj2EEES2_ED0Ev@Base 5.0.0
 (optional=templinst)_ZN3otb14ExtractROIBaseINS_11VectorImageIdLj2EEES2_ED1Ev@Base 5.0.0
 (optional=templinst)_ZN3otb14ExtractROIBaseINS_11VectorImageIdLj2EEES2_ED2Ev@Base 5.0.0
 (optional=templinst)_ZN3otb15ImageFileReaderINS_11VectorImageIdLj2EEENS_25DefaultConvertPixelTraitsIdEEE10GetImageIOEv@Base 5.0.0
 (optional=templinst)_ZN3otb15ImageFileReaderINS_11VectorImageIdLj2EEENS_25DefaultConvertPixelTraitsIdEEE11SetFileNameENSt7__cxx1112basic_stringIcSt11char_traitsIcESaIcEEE@Base 5.0.0
 (optional=templinst)_ZN3otb15ImageFileReaderINS_11VectorImageIdLj2EEENS_25DefaultConvertPixelTraitsIdEEE11SetFileNameEPKc@Base 5.0.0
 (optional=templinst)_ZN3otb15ImageFileReaderINS_11VectorImageIdLj2EEENS_25DefaultConvertPixelTraitsIdEEE11SetFileNameESs@Base 5.0.0
 (optional=templinst)_ZN3otb15ImageFileReaderINS_11VectorImageIdLj2EEENS_25DefaultConvertPixelTraitsIdEEE12GenerateDataEv@Base 5.0.0
 (optional=templinst|arch=i386)_ZN3otb15ImageFileReaderINS_11VectorImageIdLj2EEENS_25DefaultConvertPixelTraitsIdEEE15DoConvertBufferEPvj@Base 5.0.0
 (optional=templinst)_ZN3otb15ImageFileReaderINS_11VectorImageIdLj2EEENS_25DefaultConvertPixelTraitsIdEEE15DoConvertBufferEPvm@Base 5.0.0
 (optional=templinst)_ZN3otb15ImageFileReaderINS_11VectorImageIdLj2EEENS_25DefaultConvertPixelTraitsIdEEE24GetGdalReadImageFileNameERKNSt7__cxx1112basic_stringIcSt11char_traitsIcESaIcEEERSB_@Base 5.0.0
 (optional=templinst)_ZN3otb15ImageFileReaderINS_11VectorImageIdLj2EEENS_25DefaultConvertPixelTraitsIdEEE24GetGdalReadImageFileNameERKSsRSs@Base 5.0.0
 (optional=templinst)_ZN3otb15ImageFileReaderINS_11VectorImageIdLj2EEENS_25DefaultConvertPixelTraitsIdEEE25GenerateOutputInformationEv@Base 5.0.0
 (optional=templinst)_ZN3otb15ImageFileReaderINS_11VectorImageIdLj2EEENS_25DefaultConvertPixelTraitsIdEEE28EnlargeOutputRequestedRegionEPN3itk10DataObjectE@Base 5.0.0
 (optional=templinst)_ZN3otb15ImageFileReaderINS_11VectorImageIdLj2EEENS_25DefaultConvertPixelTraitsIdEEE31TestFileExistanceAndReadabilityEv@Base 5.0.0
 (optional=templinst)_ZN3otb15ImageFileReaderINS_11VectorImageIdLj2EEENS_25DefaultConvertPixelTraitsIdEEE3NewEv@Base 5.0.0
 (optional=templinst)_ZN3otb15ImageFileReaderINS_11VectorImageIdLj2EEENS_25DefaultConvertPixelTraitsIdEEEC1Ev@Base 5.0.0
 (optional=templinst)_ZN3otb15ImageFileReaderINS_11VectorImageIdLj2EEENS_25DefaultConvertPixelTraitsIdEEEC2Ev@Base 5.0.0
 (optional=templinst)_ZN3otb15ImageFileReaderINS_11VectorImageIdLj2EEENS_25DefaultConvertPixelTraitsIdEEED0Ev@Base 5.0.0
 (optional=templinst)_ZN3otb15ImageFileReaderINS_11VectorImageIdLj2EEENS_25DefaultConvertPixelTraitsIdEEED1Ev@Base 5.0.0
 (optional=templinst)_ZN3otb15ImageFileReaderINS_11VectorImageIdLj2EEENS_25DefaultConvertPixelTraitsIdEEED2Ev@Base 5.0.0
 (optional=templinst)_ZN3otb15ImageFileReaderINS_5ImageIdLj6EEENS_25DefaultConvertPixelTraitsIdEEE10GetImageIOEv@Base 5.0.0
 (optional=templinst)_ZN3otb15ImageFileReaderINS_5ImageIdLj6EEENS_25DefaultConvertPixelTraitsIdEEE11SetFileNameENSt7__cxx1112basic_stringIcSt11char_traitsIcESaIcEEE@Base 5.0.0
 (optional=templinst)_ZN3otb15ImageFileReaderINS_5ImageIdLj6EEENS_25DefaultConvertPixelTraitsIdEEE11SetFileNameEPKc@Base 5.0.0
 (optional=templinst)_ZN3otb15ImageFileReaderINS_5ImageIdLj6EEENS_25DefaultConvertPixelTraitsIdEEE11SetFileNameESs@Base 5.0.0
 (optional=templinst)_ZN3otb15ImageFileReaderINS_5ImageIdLj6EEENS_25DefaultConvertPixelTraitsIdEEE12GenerateDataEv@Base 5.0.0
 (optional=templinst|arch=i386)_ZN3otb15ImageFileReaderINS_5ImageIdLj6EEENS_25DefaultConvertPixelTraitsIdEEE15DoConvertBufferEPvj@Base 5.0.0
 (optional=templinst)_ZN3otb15ImageFileReaderINS_5ImageIdLj6EEENS_25DefaultConvertPixelTraitsIdEEE15DoConvertBufferEPvm@Base 5.0.0
 (optional=templinst)_ZN3otb15ImageFileReaderINS_5ImageIdLj6EEENS_25DefaultConvertPixelTraitsIdEEE24GetGdalReadImageFileNameERKSsRSs@Base 5.0.0
 (optional=templinst)_ZN3otb15ImageFileReaderINS_5ImageIdLj6EEENS_25DefaultConvertPixelTraitsIdEEE25GenerateOutputInformationEv@Base 5.0.0
 (optional=templinst)_ZN3otb15ImageFileReaderINS_5ImageIdLj6EEENS_25DefaultConvertPixelTraitsIdEEE28EnlargeOutputRequestedRegionEPN3itk10DataObjectE@Base 5.0.0
 (optional=templinst)_ZN3otb15ImageFileReaderINS_5ImageIdLj6EEENS_25DefaultConvertPixelTraitsIdEEE31TestFileExistanceAndReadabilityEv@Base 5.0.0
 (optional=templinst)_ZN3otb15ImageFileReaderINS_5ImageIdLj6EEENS_25DefaultConvertPixelTraitsIdEEE3NewEv@Base 5.0.0
 (optional=templinst)_ZN3otb15ImageFileReaderINS_5ImageIdLj6EEENS_25DefaultConvertPixelTraitsIdEEEC1Ev@Base 5.0.0
 (optional=templinst)_ZN3otb15ImageFileReaderINS_5ImageIdLj6EEENS_25DefaultConvertPixelTraitsIdEEEC2Ev@Base 5.0.0
 (optional=templinst)_ZN3otb15ImageFileReaderINS_5ImageIdLj6EEENS_25DefaultConvertPixelTraitsIdEEED0Ev@Base 5.0.0
 (optional=templinst)_ZN3otb15ImageFileReaderINS_5ImageIdLj6EEENS_25DefaultConvertPixelTraitsIdEEED1Ev@Base 5.0.0
 (optional=templinst)_ZN3otb15ImageFileReaderINS_5ImageIdLj6EEENS_25DefaultConvertPixelTraitsIdEEED2Ev@Base 5.0.0
 (optional=templinst)_ZN3otb15ImageFileWriterINS_11VectorImageIhLj2EEEE10GetImageIOEv@Base 5.0.0
 (optional=templinst)_ZN3otb15ImageFileWriterINS_11VectorImageIhLj2EEEE10SetImageIOEPNS_11ImageIOBaseE@Base 5.0.0
 (optional=templinst)_ZN3otb15ImageFileWriterINS_11VectorImageIhLj2EEEE11SetFileNameENSt7__cxx1112basic_stringIcSt11char_traitsIcESaIcEEE@Base 5.0.0
 (optional=templinst)_ZN3otb15ImageFileWriterINS_11VectorImageIhLj2EEEE11SetFileNameEPKc@Base 5.0.0
 (optional=templinst)_ZN3otb15ImageFileWriterINS_11VectorImageIhLj2EEEE11SetFileNameESs@Base 5.0.0
 (optional=templinst)_ZN3otb15ImageFileWriterINS_11VectorImageIhLj2EEEE12GenerateDataEv@Base 5.0.0
 (optional=templinst)_ZN3otb15ImageFileWriterINS_11VectorImageIhLj2EEEE16UseCompressionOnEv@Base 5.0.0
 (optional=templinst)_ZN3otb15ImageFileWriterINS_11VectorImageIhLj2EEEE17SetUseCompressionEb@Base 5.0.0
 (optional=templinst)_ZN3otb15ImageFileWriterINS_11VectorImageIhLj2EEEE17UseCompressionOffEv@Base 5.0.0
 (optional=templinst)_ZN3otb15ImageFileWriterINS_11VectorImageIhLj2EEEE26SetAutomaticTiledStreamingEjd@Base 5.0.0
 (optional=templinst)_ZN3otb15ImageFileWriterINS_11VectorImageIhLj2EEEE27ObserveSourceFilterProgressEPN3itk6ObjectERKNS4_11EventObjectE@Base 5.0.0
 (optional=templinst)_ZN3otb15ImageFileWriterINS_11VectorImageIhLj2EEEE28UseInputMetaDataDictionaryOnEv@Base 5.0.0
 (optional=templinst)_ZN3otb15ImageFileWriterINS_11VectorImageIhLj2EEEE29SetAutomaticStrippedStreamingEjd@Base 5.0.0
 (optional=templinst)_ZN3otb15ImageFileWriterINS_11VectorImageIhLj2EEEE29SetUseInputMetaDataDictionaryEb@Base 5.0.0
 (optional=templinst)_ZN3otb15ImageFileWriterINS_11VectorImageIhLj2EEEE29UseInputMetaDataDictionaryOffEv@Base 5.0.0
 (optional=templinst)_ZN3otb15ImageFileWriterINS_11VectorImageIhLj2EEEE30SetTileDimensionTiledStreamingEj@Base 5.0.0
 (optional=templinst)_ZN3otb15ImageFileWriterINS_11VectorImageIhLj2EEEE31SetAutomaticAdaptativeStreamingEjd@Base 5.0.0
 (optional=templinst)_ZN3otb15ImageFileWriterINS_11VectorImageIhLj2EEEE33SetNumberOfLinesStrippedStreamingEj@Base 5.0.0
 (optional=templinst)_ZN3otb15ImageFileWriterINS_11VectorImageIhLj2EEEE34SetNumberOfDivisionsTiledStreamingEj@Base 5.0.0
 (optional=templinst)_ZN3otb15ImageFileWriterINS_11VectorImageIhLj2EEEE37SetNumberOfDivisionsStrippedStreamingEj@Base 5.0.0
 (optional=templinst)_ZN3otb15ImageFileWriterINS_11VectorImageIhLj2EEEE3NewEv@Base 5.0.0
 (optional=templinst)_ZN3otb15ImageFileWriterINS_11VectorImageIhLj2EEEE6UpdateEv@Base 5.0.0
 (optional=templinst)_ZN3otb15ImageFileWriterINS_11VectorImageIhLj2EEEE8GetInputEv@Base 5.0.0
 (optional=templinst)_ZN3otb15ImageFileWriterINS_11VectorImageIhLj2EEEE8SetInputEPKS2_@Base 5.0.0
 (optional=templinst)_ZN3otb15ImageFileWriterINS_11VectorImageIhLj2EEEEC1Ev@Base 5.0.0
 (optional=templinst)_ZN3otb15ImageFileWriterINS_11VectorImageIhLj2EEEEC2Ev@Base 5.0.0
 (optional=templinst)_ZN3otb15ImageFileWriterINS_11VectorImageIhLj2EEEED0Ev@Base 5.0.0
 (optional=templinst)_ZN3otb15ImageFileWriterINS_11VectorImageIhLj2EEEED1Ev@Base 5.0.0
 (optional=templinst)_ZN3otb15ImageFileWriterINS_11VectorImageIhLj2EEEED2Ev@Base 5.0.0
 (optional=templinst)_ZN3otb16StreamingManagerINS_11VectorImageIhLj2EEEE17GetNumberOfSplitsEv@Base 5.0.0
 (optional=templinst)_ZN3otb16StreamingManagerINS_11VectorImageIhLj2EEEE32EstimateOptimalNumberOfDivisionsEPN3itk10DataObjectERKNS4_11ImageRegionILj2EEEmd@Base 5.0.0
 (optional=templinst|arch=i386)_ZN3otb16StreamingManagerINS_11VectorImageIhLj2EEEE32EstimateOptimalNumberOfDivisionsEPN3itk10DataObjectERKNS4_11ImageRegionILj2EEEyd@Base 5.0.0
 (optional=templinst)_ZN3otb16StreamingManagerINS_11VectorImageIhLj2EEEE8GetSplitEj@Base 5.0.0
 (optional=templinst|arch=amd64)_ZN3otb18ConvertPixelBufferIddNS_25DefaultConvertPixelTraitsIdEEE45ConvertComplexVectorImageToVectorImageComplexEPSt7complexIdEiPdm@Base 5.0.0
 (optional=templinst|arch=amd64)_ZN3otb18ConvertPixelBufferIfdNS_25DefaultConvertPixelTraitsIdEEE45ConvertComplexVectorImageToVectorImageComplexEPSt7complexIfEiPdm@Base 5.0.0
 (optional=templinst)_ZN3otb20PrintableImageFilterINS_11VectorImageIdLj2EEENS_5ImageIhLj2EEEE10GetUseMaskEv@Base 5.0.0
 (optional=templinst)_ZN3otb20PrintableImageFilterINS_11VectorImageIdLj2EEENS_5ImageIhLj2EEEE10SetUseMaskEb@Base 5.0.0
 (optional=templinst)_ZN3otb20PrintableImageFilterINS_11VectorImageIdLj2EEENS_5ImageIhLj2EEEE12GenerateDataEv@Base 5.0.0
 (optional=templinst)_ZN3otb20PrintableImageFilterINS_11VectorImageIdLj2EEENS_5ImageIhLj2EEEE14GetObjectColorEv@Base 5.0.0
 (optional=templinst)_ZN3otb20PrintableImageFilterINS_11VectorImageIdLj2EEENS_5ImageIhLj2EEEE15GetInputMaximumEv@Base 5.0.0
 (optional=templinst)_ZN3otb20PrintableImageFilterINS_11VectorImageIdLj2EEENS_5ImageIhLj2EEEE15GetInputMinimumEv@Base 5.0.0
 (optional=templinst)_ZN3otb20PrintableImageFilterINS_11VectorImageIdLj2EEENS_5ImageIhLj2EEEE15SetInputMaximumEN3itk20VariableLengthVectorIdEE@Base 5.0.0
 (optional=templinst)_ZN3otb20PrintableImageFilterINS_11VectorImageIdLj2EEENS_5ImageIhLj2EEEE15SetInputMinimumEN3itk20VariableLengthVectorIdEE@Base 5.0.0
 (optional=templinst)_ZN3otb20PrintableImageFilterINS_11VectorImageIdLj2EEENS_5ImageIhLj2EEEE18BeforeGenerateDataEv@Base 5.0.0
 (optional=templinst)_ZN3otb20PrintableImageFilterINS_11VectorImageIdLj2EEENS_5ImageIhLj2EEEE22GetBackgroundMaskValueEv@Base 5.0.0
 (optional=templinst)_ZN3otb20PrintableImageFilterINS_11VectorImageIdLj2EEENS_5ImageIhLj2EEEE25GenerateOutputInformationEv@Base 5.0.0
 (optional=templinst)_ZN3otb20PrintableImageFilterINS_11VectorImageIdLj2EEENS_5ImageIhLj2EEEE34GetAutomaticInputMinMaxComputationEv@Base 5.0.0
 (optional=templinst)_ZN3otb20PrintableImageFilterINS_11VectorImageIdLj2EEENS_5ImageIhLj2EEEE34SetAutomaticInputMinMaxComputationEb@Base 5.0.0
 (optional=templinst)_ZN3otb20PrintableImageFilterINS_11VectorImageIdLj2EEENS_5ImageIhLj2EEEE3NewEv@Base 5.0.0
 (optional=templinst)_ZN3otb20PrintableImageFilterINS_11VectorImageIdLj2EEENS_5ImageIhLj2EEEEC1Ev@Base 5.0.0
 (optional=templinst)_ZN3otb20PrintableImageFilterINS_11VectorImageIdLj2EEENS_5ImageIhLj2EEEEC2Ev@Base 5.0.0
 (optional=templinst)_ZN3otb20PrintableImageFilterINS_11VectorImageIdLj2EEENS_5ImageIhLj2EEEED0Ev@Base 5.0.0
 (optional=templinst)_ZN3otb20PrintableImageFilterINS_11VectorImageIdLj2EEENS_5ImageIhLj2EEEED1Ev@Base 5.0.0
 (optional=templinst)_ZN3otb20PrintableImageFilterINS_11VectorImageIdLj2EEENS_5ImageIhLj2EEEED2Ev@Base 5.0.0
 (optional=templinst)_ZN3otb21DifferenceImageFilterINS_11VectorImageIdLj2EEES2_E12SetTestInputEPKS2_@Base 5.0.0
 (optional=templinst)_ZN3otb21DifferenceImageFilterINS_11VectorImageIdLj2EEES2_E13SetValidInputEPKS2_@Base 5.0.0
 (optional=templinst)_ZN3otb21DifferenceImageFilterINS_11VectorImageIdLj2EEES2_E17GetMeanDifferenceEv@Base 5.0.0
 (optional=templinst)_ZN3otb21DifferenceImageFilterINS_11VectorImageIdLj2EEES2_E18GetToleranceRadiusEv@Base 5.0.0
 (optional=templinst)_ZN3otb21DifferenceImageFilterINS_11VectorImageIdLj2EEES2_E18GetTotalDifferenceEv@Base 5.0.0
 (optional=templinst)_ZN3otb21DifferenceImageFilterINS_11VectorImageIdLj2EEES2_E18SetToleranceRadiusEi@Base 5.0.0
 (optional=templinst)_ZN3otb21DifferenceImageFilterINS_11VectorImageIdLj2EEES2_E20ThreadedGenerateDataERKN3itk11ImageRegionILj2EEEj@Base 5.0.0
 (optional=templinst)_ZN3otb21DifferenceImageFilterINS_11VectorImageIdLj2EEES2_E22GetDifferenceThresholdEv@Base 5.0.0
 (optional=templinst)_ZN3otb21DifferenceImageFilterINS_11VectorImageIdLj2EEES2_E22SetDifferenceThresholdEd@Base 5.0.0
 (optional=templinst)_ZN3otb21DifferenceImageFilterINS_11VectorImageIdLj2EEES2_E25AfterThreadedGenerateDataEv@Base 5.0.0
 (optional=templinst)_ZN3otb21DifferenceImageFilterINS_11VectorImageIdLj2EEES2_E25GenerateOutputInformationEv@Base 5.0.0
 (optional=templinst)_ZN3otb21DifferenceImageFilterINS_11VectorImageIdLj2EEES2_E26BeforeThreadedGenerateDataEv@Base 5.0.0
 (optional=templinst)_ZN3otb21DifferenceImageFilterINS_11VectorImageIdLj2EEES2_E32GetNumberOfPixelsWithDifferencesEv@Base 5.0.0
 (optional=templinst)_ZN3otb21DifferenceImageFilterINS_11VectorImageIdLj2EEES2_E3NewEv@Base 5.0.0
 (optional=templinst)_ZN3otb21DifferenceImageFilterINS_11VectorImageIdLj2EEES2_EC1Ev@Base 5.0.0
 (optional=templinst)_ZN3otb21DifferenceImageFilterINS_11VectorImageIdLj2EEES2_EC2Ev@Base 5.0.0
 (optional=templinst)_ZN3otb21DifferenceImageFilterINS_11VectorImageIdLj2EEES2_ED0Ev@Base 5.0.0
 (optional=templinst)_ZN3otb21DifferenceImageFilterINS_11VectorImageIdLj2EEES2_ED1Ev@Base 5.0.0
 (optional=templinst)_ZN3otb21DifferenceImageFilterINS_11VectorImageIdLj2EEES2_ED2Ev@Base 5.0.0
 (optional=templinst)_ZN3otb22MultiChannelExtractROIIddE10SetChannelEj@Base 5.0.0
 (optional=templinst)_ZN3otb22MultiChannelExtractROIIddE20ThreadedGenerateDataERKN3itk11ImageRegionILj2EEEj@Base 5.0.0
 (optional=templinst)_ZN3otb22MultiChannelExtractROIIddE25GenerateOutputInformationEv@Base 5.0.0
 (optional=templinst)_ZN3otb22MultiChannelExtractROIIddE25SetChannelsWorkWithLimitsEv@Base 5.0.0
 (optional=templinst)_ZN3otb22MultiChannelExtractROIIddE3NewEv@Base 5.0.0
 (optional=templinst)_ZN3otb22MultiChannelExtractROIIddED0Ev@Base 5.0.0
 (optional=templinst)_ZN3otb22MultiChannelExtractROIIddED1Ev@Base 5.0.0
 (optional=templinst)_ZN3otb22MultiChannelExtractROIIddED2Ev@Base 5.0.0
 _ZN3otb24ImageFileReaderExceptionD0Ev@Base 5.0.0
 _ZN3otb24ImageFileReaderExceptionD1Ev@Base 5.0.0
 _ZN3otb24ImageFileReaderExceptionD2Ev@Base 5.0.0
 (optional=templinst)_ZN3otb29ImageRegionAdaptativeSplitterILj2EE11SetTileHintEN3itk4SizeILj2EEE@Base 5.0.0
 (optional=templinst)_ZN3otb29ImageRegionAdaptativeSplitterILj2EE14SetImageRegionEN3itk11ImageRegionILj2EEE@Base 5.0.0
 (optional=templinst)_ZN3otb29ImageRegionAdaptativeSplitterILj2EE16EstimateSplitMapEv@Base 5.0.0
 (optional=templinst)_ZN3otb29ImageRegionAdaptativeSplitterILj2EE17GetNumberOfSplitsERKN3itk11ImageRegionILj2EEEj@Base 5.0.0
 (optional=templinst)_ZN3otb29ImageRegionAdaptativeSplitterILj2EE26SetRequestedNumberOfSplitsEj@Base 5.0.0
 (optional=templinst)_ZN3otb29ImageRegionAdaptativeSplitterILj2EE8GetSplitEjjRKN3itk11ImageRegionILj2EEE@Base 5.0.0
 (optional=templinst)_ZN3otb29ImageRegionAdaptativeSplitterILj2EED0Ev@Base 5.0.0
 (optional=templinst)_ZN3otb29ImageRegionAdaptativeSplitterILj2EED1Ev@Base 5.0.0
 (optional=templinst)_ZN3otb29ImageRegionAdaptativeSplitterILj2EED2Ev@Base 5.0.0
 (optional=templinst)_ZN3otb29ImageRegionSquareTileSplitterILj2EE16GetTileDimensionEv@Base 5.0.0
 (optional=templinst)_ZN3otb29ImageRegionSquareTileSplitterILj2EE17GetNumberOfSplitsERKN3itk11ImageRegionILj2EEEj@Base 5.0.0
 (optional=templinst)_ZN3otb29ImageRegionSquareTileSplitterILj2EE20GetTileSizeAlignmentEv@Base 5.0.0
 (optional=templinst)_ZN3otb29ImageRegionSquareTileSplitterILj2EE20SetTileSizeAlignmentEj@Base 5.0.0
 (optional=templinst)_ZN3otb29ImageRegionSquareTileSplitterILj2EE3NewEv@Base 5.0.0
 (optional=templinst)_ZN3otb29ImageRegionSquareTileSplitterILj2EE8GetSplitEjjRKN3itk11ImageRegionILj2EEE@Base 5.0.0
 (optional=templinst)_ZN3otb29ImageRegionSquareTileSplitterILj2EED0Ev@Base 5.0.0
 (optional=templinst)_ZN3otb29ImageRegionSquareTileSplitterILj2EED1Ev@Base 5.0.0
 (optional=templinst)_ZN3otb29ImageRegionSquareTileSplitterILj2EED2Ev@Base 5.0.0
 _ZN3otb29PipelineMemoryPrintCalculator14GetMemoryPrintEv@Base 5.0.0
 _ZN3otb29PipelineMemoryPrintCalculator14SetDataToWriteEPN3itk10DataObjectE@Base 5.0.0
 _ZN3otb29PipelineMemoryPrintCalculator23SetBiasCorrectionFactorEd@Base 5.0.0
 (optional=templinst)_ZN3otb30RAMDrivenTiledStreamingManagerINS_11VectorImageIhLj2EEEE16PrepareStreamingEPN3itk10DataObjectERKNS4_11ImageRegionILj2EEE@Base 5.0.0
 (optional=templinst)_ZN3otb30RAMDrivenTiledStreamingManagerINS_11VectorImageIhLj2EEEE19SetAvailableRAMInMBEj@Base 5.0.0
 (optional=templinst)_ZN3otb30RAMDrivenTiledStreamingManagerINS_11VectorImageIhLj2EEEE7SetBiasEd@Base 5.0.0
 (optional=templinst)_ZN3otb30RAMDrivenTiledStreamingManagerINS_11VectorImageIhLj2EEEED0Ev@Base 5.0.0
 (optional=templinst)_ZN3otb30RAMDrivenTiledStreamingManagerINS_11VectorImageIhLj2EEEED1Ev@Base 5.0.0
 (optional=templinst)_ZN3otb30RAMDrivenTiledStreamingManagerINS_11VectorImageIhLj2EEEED2Ev@Base 5.0.0
 (optional=templinst)_ZN3otb33RAMDrivenStrippedStreamingManagerINS_11VectorImageIhLj2EEEE16PrepareStreamingEPN3itk10DataObjectERKNS4_11ImageRegionILj2EEE@Base 5.0.0
 (optional=templinst)_ZN3otb33RAMDrivenStrippedStreamingManagerINS_11VectorImageIhLj2EEEE19SetAvailableRAMInMBEj@Base 5.0.0
 (optional=templinst)_ZN3otb33RAMDrivenStrippedStreamingManagerINS_11VectorImageIhLj2EEEE7SetBiasEd@Base 5.0.0
 (optional=templinst)_ZN3otb33RAMDrivenStrippedStreamingManagerINS_11VectorImageIhLj2EEEED0Ev@Base 5.0.0
 (optional=templinst)_ZN3otb33RAMDrivenStrippedStreamingManagerINS_11VectorImageIhLj2EEEED1Ev@Base 5.0.0
 (optional=templinst)_ZN3otb33RAMDrivenStrippedStreamingManagerINS_11VectorImageIhLj2EEEED2Ev@Base 5.0.0
 (optional=templinst)_ZN3otb33VectorRescaleIntensityImageFilterINS_11VectorImageIdLj2EEENS1_IhLj2EEEE15GetInputMaximumEv@Base 5.0.0
 (optional=templinst)_ZN3otb33VectorRescaleIntensityImageFilterINS_11VectorImageIdLj2EEENS1_IhLj2EEEE15GetInputMinimumEv@Base 5.0.0
 (optional=templinst)_ZN3otb33VectorRescaleIntensityImageFilterINS_11VectorImageIdLj2EEENS1_IhLj2EEEE15SetInputMaximumEN3itk20VariableLengthVectorIdEE@Base 5.0.0
 (optional=templinst)_ZN3otb33VectorRescaleIntensityImageFilterINS_11VectorImageIdLj2EEENS1_IhLj2EEEE15SetInputMinimumEN3itk20VariableLengthVectorIdEE@Base 5.0.0
 (optional=templinst)_ZN3otb33VectorRescaleIntensityImageFilterINS_11VectorImageIdLj2EEENS1_IhLj2EEEE16SetOutputMaximumEN3itk20VariableLengthVectorIhEE@Base 5.0.0
 (optional=templinst)_ZN3otb33VectorRescaleIntensityImageFilterINS_11VectorImageIdLj2EEENS1_IhLj2EEEE16SetOutputMinimumEN3itk20VariableLengthVectorIhEE@Base 5.0.0
 (optional=templinst)_ZN3otb33VectorRescaleIntensityImageFilterINS_11VectorImageIdLj2EEENS1_IhLj2EEEE17GetClampThresholdEv@Base 5.0.0
 (optional=templinst)_ZN3otb33VectorRescaleIntensityImageFilterINS_11VectorImageIdLj2EEENS1_IhLj2EEEE17SetClampThresholdEd@Base 5.0.0
 (optional=templinst)_ZN3otb33VectorRescaleIntensityImageFilterINS_11VectorImageIdLj2EEENS1_IhLj2EEEE25GenerateOutputInformationEv@Base 5.0.0
 (optional=templinst)_ZN3otb33VectorRescaleIntensityImageFilterINS_11VectorImageIdLj2EEENS1_IhLj2EEEE26BeforeThreadedGenerateDataEv@Base 5.0.0
 (optional=templinst)_ZN3otb33VectorRescaleIntensityImageFilterINS_11VectorImageIdLj2EEENS1_IhLj2EEEE28GenerateInputRequestedRegionEv@Base 5.0.0
 (optional=templinst)_ZN3otb33VectorRescaleIntensityImageFilterINS_11VectorImageIdLj2EEENS1_IhLj2EEEE33AutomaticInputMinMaxComputationOnEv@Base 5.0.0
 (optional=templinst)_ZN3otb33VectorRescaleIntensityImageFilterINS_11VectorImageIdLj2EEENS1_IhLj2EEEE34AutomaticInputMinMaxComputationOffEv@Base 5.0.0
 (optional=templinst)_ZN3otb33VectorRescaleIntensityImageFilterINS_11VectorImageIdLj2EEENS1_IhLj2EEEE34GetAutomaticInputMinMaxComputationEv@Base 5.0.0
 (optional=templinst)_ZN3otb33VectorRescaleIntensityImageFilterINS_11VectorImageIdLj2EEENS1_IhLj2EEEE34SetAutomaticInputMinMaxComputationEb@Base 5.0.0
 (optional=templinst)_ZN3otb33VectorRescaleIntensityImageFilterINS_11VectorImageIdLj2EEENS1_IhLj2EEEE8SetGammaEd@Base 5.0.0
 (optional=templinst)_ZN3otb33VectorRescaleIntensityImageFilterINS_11VectorImageIdLj2EEENS1_IhLj2EEEEC1Ev@Base 5.0.0
 (optional=templinst)_ZN3otb33VectorRescaleIntensityImageFilterINS_11VectorImageIdLj2EEENS1_IhLj2EEEEC2Ev@Base 5.0.0
 (optional=templinst)_ZN3otb33VectorRescaleIntensityImageFilterINS_11VectorImageIdLj2EEENS1_IhLj2EEEED0Ev@Base 5.0.0
 (optional=templinst)_ZN3otb33VectorRescaleIntensityImageFilterINS_11VectorImageIdLj2EEENS1_IhLj2EEEED1Ev@Base 5.0.0
 (optional=templinst)_ZN3otb33VectorRescaleIntensityImageFilterINS_11VectorImageIdLj2EEENS1_IhLj2EEEED2Ev@Base 5.0.0
 (optional=templinst)_ZN3otb34TileDimensionTiledStreamingManagerINS_11VectorImageIhLj2EEEE16GetTileDimensionEv@Base 5.0.0
 (optional=templinst)_ZN3otb34TileDimensionTiledStreamingManagerINS_11VectorImageIhLj2EEEE16PrepareStreamingEPN3itk10DataObjectERKNS4_11ImageRegionILj2EEE@Base 5.0.0
 (optional=templinst)_ZN3otb34TileDimensionTiledStreamingManagerINS_11VectorImageIhLj2EEEE16SetTileDimensionEj@Base 5.0.0
 (optional=templinst)_ZN3otb34TileDimensionTiledStreamingManagerINS_11VectorImageIhLj2EEEED0Ev@Base 5.0.0
 (optional=templinst)_ZN3otb34TileDimensionTiledStreamingManagerINS_11VectorImageIhLj2EEEED1Ev@Base 5.0.0
 (optional=templinst)_ZN3otb34TileDimensionTiledStreamingManagerINS_11VectorImageIhLj2EEEED2Ev@Base 5.0.0
 (optional=templinst)_ZN3otb35RAMDrivenAdaptativeStreamingManagerINS_11VectorImageIhLj2EEEE16PrepareStreamingEPN3itk10DataObjectERKNS4_11ImageRegionILj2EEE@Base 5.0.0
 (optional=templinst)_ZN3otb35RAMDrivenAdaptativeStreamingManagerINS_11VectorImageIhLj2EEEE19SetAvailableRAMInMBEj@Base 5.0.0
 (optional=templinst)_ZN3otb35RAMDrivenAdaptativeStreamingManagerINS_11VectorImageIhLj2EEEE7SetBiasEd@Base 5.0.0
 (optional=templinst)_ZN3otb35RAMDrivenAdaptativeStreamingManagerINS_11VectorImageIhLj2EEEED0Ev@Base 5.0.0
 (optional=templinst)_ZN3otb35RAMDrivenAdaptativeStreamingManagerINS_11VectorImageIhLj2EEEED1Ev@Base 5.0.0
 (optional=templinst)_ZN3otb35RAMDrivenAdaptativeStreamingManagerINS_11VectorImageIhLj2EEEED2Ev@Base 5.0.0
 (optional=templinst)_ZN3otb37NumberOfLinesStrippedStreamingManagerINS_11VectorImageIhLj2EEEE16PrepareStreamingEPN3itk10DataObjectERKNS4_11ImageRegionILj2EEE@Base 5.0.0
 (optional=templinst)_ZN3otb37NumberOfLinesStrippedStreamingManagerINS_11VectorImageIhLj2EEEE24GetNumberOfLinesPerStripEv@Base 5.0.0
 (optional=templinst)_ZN3otb37NumberOfLinesStrippedStreamingManagerINS_11VectorImageIhLj2EEEE24SetNumberOfLinesPerStripEj@Base 5.0.0
 (optional=templinst)_ZN3otb37NumberOfLinesStrippedStreamingManagerINS_11VectorImageIhLj2EEEED0Ev@Base 5.0.0
 (optional=templinst)_ZN3otb37NumberOfLinesStrippedStreamingManagerINS_11VectorImageIhLj2EEEED1Ev@Base 5.0.0
 (optional=templinst)_ZN3otb37NumberOfLinesStrippedStreamingManagerINS_11VectorImageIhLj2EEEED2Ev@Base 5.0.0
 (optional=templinst)_ZN3otb38NumberOfDivisionsTiledStreamingManagerINS_11VectorImageIhLj2EEEE16PrepareStreamingEPN3itk10DataObjectERKNS4_11ImageRegionILj2EEE@Base 5.0.0
 (optional=templinst)_ZN3otb38NumberOfDivisionsTiledStreamingManagerINS_11VectorImageIhLj2EEEE20GetNumberOfDivisionsEv@Base 5.0.0
 (optional=templinst)_ZN3otb38NumberOfDivisionsTiledStreamingManagerINS_11VectorImageIhLj2EEEE20SetNumberOfDivisionsEj@Base 5.0.0
 (optional=templinst)_ZN3otb38NumberOfDivisionsTiledStreamingManagerINS_11VectorImageIhLj2EEEED0Ev@Base 5.0.0
 (optional=templinst)_ZN3otb38NumberOfDivisionsTiledStreamingManagerINS_11VectorImageIhLj2EEEED1Ev@Base 5.0.0
 (optional=templinst)_ZN3otb38NumberOfDivisionsTiledStreamingManagerINS_11VectorImageIhLj2EEEED2Ev@Base 5.0.0
 (optional=templinst)_ZN3otb41NumberOfDivisionsStrippedStreamingManagerINS_11VectorImageIhLj2EEEE16PrepareStreamingEPN3itk10DataObjectERKNS4_11ImageRegionILj2EEE@Base 5.0.0
 (optional=templinst)_ZN3otb41NumberOfDivisionsStrippedStreamingManagerINS_11VectorImageIhLj2EEEE20GetNumberOfDivisionsEv@Base 5.0.0
 (optional=templinst)_ZN3otb41NumberOfDivisionsStrippedStreamingManagerINS_11VectorImageIhLj2EEEE20SetNumberOfDivisionsEj@Base 5.0.0
 (optional=templinst)_ZN3otb41NumberOfDivisionsStrippedStreamingManagerINS_11VectorImageIhLj2EEEED0Ev@Base 5.0.0
 (optional=templinst)_ZN3otb41NumberOfDivisionsStrippedStreamingManagerINS_11VectorImageIhLj2EEEED1Ev@Base 5.0.0
 (optional=templinst)_ZN3otb41NumberOfDivisionsStrippedStreamingManagerINS_11VectorImageIhLj2EEEED2Ev@Base 5.0.0
 (optional=templinst)_ZN3otb5ImageIdLj6EE15CopyInformationEPKN3itk10DataObjectE@Base 5.0.0
 (optional=templinst)_ZN3otb5ImageIdLj6EE16SetProjectionRefERKNSt7__cxx1112basic_stringIcSt11char_traitsIcESaIcEEE@Base 5.0.0
 (optional=templinst)_ZN3otb5ImageIdLj6EE16SetProjectionRefERKSs@Base 5.0.0
 (optional=templinst)_ZN3otb5ImageIdLj6EE19GetImageKeywordlistEv@Base 5.0.0
 (optional=templinst)_ZN3otb5ImageIdLj6EE19SetImageKeywordListERKNS_16ImageKeywordlistE@Base 5.0.0
 (optional=templinst)_ZN3otb5ImageIdLj6EE3NewEv@Base 5.0.0
 (optional=templinst)_ZN3otb5ImageIdLj6EE7GetGCPsEj@Base 5.0.0
 (optional=templinst)_ZN3otb5ImageIdLj6EED0Ev@Base 5.0.0
 (optional=templinst)_ZN3otb5ImageIdLj6EED1Ev@Base 5.0.0
 (optional=templinst)_ZN3otb5ImageIdLj6EED2Ev@Base 5.0.0
 (optional=templinst)_ZN3otb7Functor21VectorAffineTransformIN3itk20VariableLengthVectorIdEENS3_IhEEED0Ev@Base 5.0.0
 (optional=templinst)_ZN3otb7Functor21VectorAffineTransformIN3itk20VariableLengthVectorIdEENS3_IhEEED1Ev@Base 5.0.0
 (optional=templinst)_ZN3otb7Functor21VectorAffineTransformIN3itk20VariableLengthVectorIdEENS3_IhEEED2Ev@Base 5.0.0
 (optional=templinst)_ZN5boost14char_separatorIcSt11char_traitsIcEEC1ERKS3_@Base 5.0.0
 (optional=templinst)_ZN5boost14char_separatorIcSt11char_traitsIcEEC2ERKS3_@Base 5.0.0
 (optional=templinst)_ZN5boost14char_separatorIcSt11char_traitsIcEED1Ev@Base 5.0.0
 (optional=templinst)_ZN5boost14char_separatorIcSt11char_traitsIcEED2Ev@Base 5.0.0
 (optional=templinst)_ZN5boost14char_separatorIcSt11char_traitsIcEEclIN9__gnu_cxx17__normal_iteratorIPKcNSt7__cxx1112basic_stringIcS2_SaIcEEEEESC_EEbRT_SE_RT0_@Base 5.0.0
 (optional=templinst)_ZN5boost14char_separatorIcSt11char_traitsIcEEclIN9__gnu_cxx17__normal_iteratorIPKcSsEESsEEbRT_SA_RT0_@Base 5.0.0
 (optional=templinst)_ZN5boost14token_iteratorINS_14char_separatorIcSt11char_traitsIcEEEN9__gnu_cxx17__normal_iteratorIPKcSsEESsED1Ev@Base 5.0.0
 (optional=templinst)_ZN5boost14token_iteratorINS_14char_separatorIcSt11char_traitsIcEEEN9__gnu_cxx17__normal_iteratorIPKcSsEESsED2Ev@Base 5.0.0
 (optional=templinst)_ZN7vnl_svdIdED0Ev@Base 5.0.0
 (optional=templinst)_ZN7vnl_svdIdED1Ev@Base 5.0.0
 (optional=templinst)_ZN7vnl_svdIdED2Ev@Base 5.0.0
 _ZN8OGRLayer13GetSpatialRefEv@Base 5.0.0
 (optional=templinst)_ZNK16vnl_matrix_fixedIdLj2ELj2EE5printERSo@Base 5.0.0
 (optional=templinst)_ZNK16vnl_matrix_fixedIdLj6ELj6EE5printERSo@Base 5.0.0
 _ZNK3itk10DataObject16GetPipelineMTimeEv@Base 5.0.0
 _ZNK3itk10DataObject16GetRealTimeStampEv@Base 5.0.0
 _ZNK3itk10DataObject18GetReleaseDataFlagEv@Base 5.0.0
 _ZNK3itk10StartEvent10CheckEventEPKNS_11EventObjectE@Base 5.0.0
 _ZNK3itk10StartEvent10MakeObjectEv@Base 5.0.0
 _ZNK3itk10StartEvent12GetEventNameEv@Base 5.0.0
 (optional=templinst)_ZNK3itk10Statistics10ListSampleINS_6VectorIdLj1EEEE12GetFrequencyEm@Base 5.0.0
 (optional=templinst)_ZNK3itk10Statistics10ListSampleINS_6VectorIdLj1EEEE13CreateAnotherEv@Base 5.0.0
 (optional=templinst)_ZNK3itk10Statistics10ListSampleINS_6VectorIdLj1EEEE14GetNameOfClassEv@Base 5.0.0
 (optional=templinst)_ZNK3itk10Statistics10ListSampleINS_6VectorIdLj1EEEE17GetTotalFrequencyEv@Base 5.0.0
 (optional=templinst)_ZNK3itk10Statistics10ListSampleINS_6VectorIdLj1EEEE20GetMeasurementVectorEm@Base 5.0.0
 (optional=templinst)_ZNK3itk10Statistics10ListSampleINS_6VectorIdLj1EEEE4SizeEv@Base 5.0.0
 (optional=templinst)_ZNK3itk10Statistics10ListSampleINS_6VectorIdLj1EEEE9PrintSelfERSoNS_6IndentE@Base 5.0.0
 (optional=templinst)_ZNK3itk10Statistics23SampleToHistogramFilterINS0_10ListSampleINS_6VectorIdLj1EEEEENS0_9HistogramIfNS0_24DenseFrequencyContainer2EEEE13CreateAnotherEv@Base 5.0.0
 (optional=templinst)_ZNK3itk10Statistics23SampleToHistogramFilterINS0_10ListSampleINS_6VectorIdLj1EEEEENS0_9HistogramIfNS0_24DenseFrequencyContainer2EEEE14GetNameOfClassEv@Base 5.0.0
 (optional=templinst)_ZNK3itk10Statistics23SampleToHistogramFilterINS0_10ListSampleINS_6VectorIdLj1EEEEENS0_9HistogramIfNS0_24DenseFrequencyContainer2EEEE16GetHistogramSizeEv@Base 5.0.0
 (optional=templinst)_ZNK3itk10Statistics23SampleToHistogramFilterINS0_10ListSampleINS_6VectorIdLj1EEEEENS0_9HistogramIfNS0_24DenseFrequencyContainer2EEEE16GetMarginalScaleEv@Base 5.0.0
 (optional=templinst)_ZNK3itk10Statistics23SampleToHistogramFilterINS0_10ListSampleINS_6VectorIdLj1EEEEENS0_9HistogramIfNS0_24DenseFrequencyContainer2EEEE21GetAutoMinimumMaximumEv@Base 5.0.0
 (optional=templinst)_ZNK3itk10Statistics23SampleToHistogramFilterINS0_10ListSampleINS_6VectorIdLj1EEEEENS0_9HistogramIfNS0_24DenseFrequencyContainer2EEEE21GetHistogramSizeInputEv@Base 5.0.0
 (optional=templinst)_ZNK3itk10Statistics23SampleToHistogramFilterINS0_10ListSampleINS_6VectorIdLj1EEEEENS0_9HistogramIfNS0_24DenseFrequencyContainer2EEEE21GetMarginalScaleInputEv@Base 5.0.0
 (optional=templinst)_ZNK3itk10Statistics23SampleToHistogramFilterINS0_10ListSampleINS_6VectorIdLj1EEEEENS0_9HistogramIfNS0_24DenseFrequencyContainer2EEEE22GetHistogramBinMaximumEv@Base 5.0.0
 (optional=templinst)_ZNK3itk10Statistics23SampleToHistogramFilterINS0_10ListSampleINS_6VectorIdLj1EEEEENS0_9HistogramIfNS0_24DenseFrequencyContainer2EEEE22GetHistogramBinMinimumEv@Base 5.0.0
 (optional=templinst)_ZNK3itk10Statistics23SampleToHistogramFilterINS0_10ListSampleINS_6VectorIdLj1EEEEENS0_9HistogramIfNS0_24DenseFrequencyContainer2EEEE26GetAutoMinimumMaximumInputEv@Base 5.0.0
 (optional=templinst)_ZNK3itk10Statistics23SampleToHistogramFilterINS0_10ListSampleINS_6VectorIdLj1EEEEENS0_9HistogramIfNS0_24DenseFrequencyContainer2EEEE27GetHistogramBinMaximumInputEv@Base 5.0.0
 (optional=templinst)_ZNK3itk10Statistics23SampleToHistogramFilterINS0_10ListSampleINS_6VectorIdLj1EEEEENS0_9HistogramIfNS0_24DenseFrequencyContainer2EEEE27GetHistogramBinMinimumInputEv@Base 5.0.0
 (optional=templinst)_ZNK3itk10Statistics23SampleToHistogramFilterINS0_10ListSampleINS_6VectorIdLj1EEEEENS0_9HistogramIfNS0_24DenseFrequencyContainer2EEEE8GetInputEv@Base 5.0.0
 (optional=templinst)_ZNK3itk10Statistics23SampleToHistogramFilterINS0_10ListSampleINS_6VectorIdLj1EEEEENS0_9HistogramIfNS0_24DenseFrequencyContainer2EEEE9PrintSelfERSoNS_6IndentE@Base 5.0.0
 (optional=templinst)_ZNK3itk10Statistics6SampleINS_5ArrayIfEEE14GetNameOfClassEv@Base 5.0.0
 (optional=templinst)_ZNK3itk10Statistics6SampleINS_5ArrayIfEEE24GetMeasurementVectorSizeEv@Base 5.0.0
 (optional=templinst)_ZNK3itk10Statistics6SampleINS_5ArrayIfEEE9PrintSelfERSoNS_6IndentE@Base 5.0.0
 (optional=templinst)_ZNK3itk10Statistics6SampleINS_6VectorIdLj1EEEE14GetNameOfClassEv@Base 5.0.0
 (optional=templinst)_ZNK3itk10Statistics6SampleINS_6VectorIdLj1EEEE24GetMeasurementVectorSizeEv@Base 5.0.0
 (optional=templinst)_ZNK3itk10Statistics6SampleINS_6VectorIdLj1EEEE9PrintSelfERSoNS_6IndentE@Base 5.0.0
 (optional=templinst)_ZNK3itk10Statistics9HistogramIfNS0_24DenseFrequencyContainer2EE12GetFrequencyEm@Base 5.0.0
 (optional=templinst)_ZNK3itk10Statistics9HistogramIfNS0_24DenseFrequencyContainer2EE13CreateAnotherEv@Base 5.0.0
 (optional=templinst)_ZNK3itk10Statistics9HistogramIfNS0_24DenseFrequencyContainer2EE14GetNameOfClassEv@Base 5.0.0
 (optional=templinst)_ZNK3itk10Statistics9HistogramIfNS0_24DenseFrequencyContainer2EE17GetClipBinsAtEndsEv@Base 5.0.0
 (optional=templinst)_ZNK3itk10Statistics9HistogramIfNS0_24DenseFrequencyContainer2EE17GetTotalFrequencyEv@Base 5.0.0
 (optional=templinst)_ZNK3itk10Statistics9HistogramIfNS0_24DenseFrequencyContainer2EE20GetMeasurementVectorEm@Base 5.0.0
 (optional=templinst)_ZNK3itk10Statistics9HistogramIfNS0_24DenseFrequencyContainer2EE4SizeEv@Base 5.0.0
 (optional=templinst)_ZNK3itk10Statistics9HistogramIfNS0_24DenseFrequencyContainer2EE8GetIndexERKNS_5ArrayIfEERNS4_IlEE@Base 5.0.0
 (optional=templinst)_ZNK3itk10Statistics9HistogramIfNS0_24DenseFrequencyContainer2EE9PrintSelfERSoNS_6IndentE@Base 5.0.0
 (optional=templinst)_ZNK3itk11ImageRegionILj2EE13GetRegionTypeEv@Base 5.0.0
 (optional=templinst)_ZNK3itk11ImageRegionILj2EE14GetNameOfClassEv@Base 5.0.0
 (optional=templinst)_ZNK3itk11ImageRegionILj2EE9PrintSelfERSoNS_6IndentE@Base 5.0.0
 (optional=templinst)_ZNK3itk11ImageRegionILj6EE13GetRegionTypeEv@Base 5.0.0
 (optional=templinst)_ZNK3itk11ImageRegionILj6EE14GetNameOfClassEv@Base 5.0.0
 (optional=templinst)_ZNK3itk11ImageRegionILj6EE9PrintSelfERSoNS_6IndentE@Base 5.0.0
 (optional=templinst)_ZNK3itk11ImageSourceIN3otb11VectorImageIdLj2EEEE14GetNameOfClassEv@Base 5.0.0
 (optional=templinst)_ZNK3itk11ImageSourceIN3otb11VectorImageIdLj2EEEE22GetImageRegionSplitterEv@Base 5.0.0
 (optional=templinst)_ZNK3itk11ImageSourceIN3otb11VectorImageIhLj2EEEE14GetNameOfClassEv@Base 5.0.0
 (optional=templinst)_ZNK3itk11ImageSourceIN3otb11VectorImageIhLj2EEEE22GetImageRegionSplitterEv@Base 5.0.0
 (optional=templinst)_ZNK3itk11ImageSourceIN3otb5ImageIdLj6EEEE14GetNameOfClassEv@Base 5.0.0
 (optional=templinst)_ZNK3itk11ImageSourceIN3otb5ImageIdLj6EEEE22GetImageRegionSplitterEv@Base 5.0.0
 _ZNK3itk11LightObject17GetReferenceCountEv@Base 5.0.0
 (optional=templinst)_ZNK3itk11VectorImageIdLj2EE13CreateAnotherEv@Base 5.0.0
 (optional=templinst)_ZNK3itk11VectorImageIdLj2EE14GetNameOfClassEv@Base 5.0.0
 (optional=templinst)_ZNK3itk11VectorImageIdLj2EE15GetVectorLengthEv@Base 5.0.0
 (optional=templinst)_ZNK3itk11VectorImageIdLj2EE29GetNumberOfComponentsPerPixelEv@Base 5.0.0
 (optional=templinst)_ZNK3itk11VectorImageIdLj2EE9PrintSelfERSoNS_6IndentE@Base 5.0.0
 (optional=templinst)_ZNK3itk11VectorImageIhLj2EE13CreateAnotherEv@Base 5.0.0
 (optional=templinst)_ZNK3itk11VectorImageIhLj2EE14GetNameOfClassEv@Base 5.0.0
 (optional=templinst)_ZNK3itk11VectorImageIhLj2EE15GetVectorLengthEv@Base 5.0.0
 (optional=templinst)_ZNK3itk11VectorImageIhLj2EE29GetNumberOfComponentsPerPixelEv@Base 5.0.0
 (optional=templinst)_ZNK3itk11VectorImageIhLj2EE9PrintSelfERSoNS_6IndentE@Base 5.0.0
 (optional=templinst)_ZNK3itk12NeighborhoodINS_20VariableLengthVectorIdEELj2ENS_21NeighborhoodAllocatorIS2_EEE14GetNameOfClassEv@Base 5.0.0
 (optional=templinst)_ZNK3itk12NeighborhoodINS_20VariableLengthVectorIdEELj2ENS_21NeighborhoodAllocatorIS2_EEE20GetNeighborhoodIndexERKNS_6OffsetILj2EEE@Base 5.0.0
 (optional=templinst)_ZNK3itk12NeighborhoodINS_20VariableLengthVectorIdEELj2ENS_21NeighborhoodAllocatorIS2_EEE9PrintSelfERSoNS_6IndentE@Base 5.0.0
 (optional=templinst)_ZNK3itk12NeighborhoodIPdLj2ENS_21NeighborhoodAllocatorIS1_EEE14GetNameOfClassEv@Base 5.0.0
 (optional=templinst)_ZNK3itk12NeighborhoodIPdLj2ENS_21NeighborhoodAllocatorIS1_EEE20GetNeighborhoodIndexERKNS_6OffsetILj2EEE@Base 5.0.0
 (optional=templinst)_ZNK3itk12NeighborhoodIPdLj2ENS_21NeighborhoodAllocatorIS1_EEE9PrintSelfERSoNS_6IndentE@Base 5.0.0
 (optional=templinst)_ZNK3itk13MemberCommandIN3otb15ImageFileWriterINS1_11VectorImageIhLj2EEEEEE13CreateAnotherEv@Base 5.0.0
 (optional=templinst)_ZNK3itk13MemberCommandIN3otb15ImageFileWriterINS1_11VectorImageIhLj2EEEEEE14GetNameOfClassEv@Base 5.0.0
 _ZNK3itk13ProcessObject11GetProgressEv@Base 5.0.0
 _ZNK3itk13ProcessObject18GetNumberOfThreadsEv@Base 5.0.0
 _ZNK3itk13ProcessObject19GetPrimaryInputNameEv@Base 5.0.0
 _ZNK3itk13ProcessObject20GetAbortGenerateDataEv@Base 5.0.0
 _ZNK3itk13ProcessObject20GetPrimaryOutputNameEv@Base 5.0.0
 _ZNK3itk13ProcessObject25GetNumberOfRequiredInputsEv@Base 5.0.0
 _ZNK3itk13ProcessObject26GetNumberOfRequiredOutputsEv@Base 5.0.0
 _ZNK3itk13ProcessObject30GetReleaseDataBeforeUpdateFlagEv@Base 5.0.0
 (arch=i386)_ZNK3itk13ProcessObject8GetInputEj@Base 5.0.0
 (arch=amd64)_ZNK3itk13ProcessObject8GetInputEm@Base 5.0.0
 _ZNK3itk13ProgressEvent10CheckEventEPKNS_11EventObjectE@Base 5.0.0
 _ZNK3itk13ProgressEvent10MakeObjectEv@Base 5.0.0
 _ZNK3itk13ProgressEvent12GetEventNameEv@Base 5.0.0
 (optional=templinst)_ZNK3itk14MetaDataObjectIN3otb16ImageKeywordlistEE13CreateAnotherEv@Base 5.0.0
 (optional=templinst)_ZNK3itk14MetaDataObjectIN3otb16ImageKeywordlistEE14GetNameOfClassEv@Base 5.0.0
 (optional=templinst)_ZNK3itk14MetaDataObjectIN3otb16ImageKeywordlistEE25GetMetaDataObjectTypeInfoEv@Base 5.0.0
 (optional=templinst)_ZNK3itk14MetaDataObjectIN3otb16ImageKeywordlistEE25GetMetaDataObjectTypeNameEv@Base 5.0.0
 (optional=templinst)_ZNK3itk14MetaDataObjectIN3otb16ImageKeywordlistEE5PrintERSo@Base 5.0.0
 (optional=templinst)_ZNK3itk18ExtractImageFilterIN3otb11VectorImageIhLj2EEES3_E13CreateAnotherEv@Base 5.0.0
 (optional=templinst)_ZNK3itk18ExtractImageFilterIN3otb11VectorImageIhLj2EEES3_E14GetNameOfClassEv@Base 5.0.0
 (optional=templinst)_ZNK3itk18ExtractImageFilterIN3otb11VectorImageIhLj2EEES3_E19GetExtractionRegionEv@Base 5.0.0
 (optional=templinst)_ZNK3itk18ExtractImageFilterIN3otb11VectorImageIhLj2EEES3_E9PrintSelfERSoNS_6IndentE@Base 5.0.0
 (optional=templinst)_ZNK3itk18ImageConstIteratorIN3otb11VectorImageIdLj2EEEE14GetNameOfClassEv@Base 5.0.0
 (optional=templinst)_ZNK3itk18ImageConstIteratorIN3otb11VectorImageIhLj2EEEE14GetNameOfClassEv@Base 5.0.0
 (optional=templinst)_ZNK3itk18ImageConstIteratorIN3otb5ImageIhLj2EEEE14GetNameOfClassEv@Base 5.0.0
 (optional=templinst)_ZNK3itk18ImageToImageFilterIN3otb11VectorImageIdLj2EEENS2_IhLj2EEEE14GetNameOfClassEv@Base 5.0.0
 (optional=templinst)_ZNK3itk18ImageToImageFilterIN3otb11VectorImageIdLj2EEENS2_IhLj2EEEE21GetDirectionToleranceEv@Base 5.0.0
 (optional=templinst)_ZNK3itk18ImageToImageFilterIN3otb11VectorImageIdLj2EEENS2_IhLj2EEEE22GetCoordinateToleranceEv@Base 5.0.0
 (optional=templinst)_ZNK3itk18ImageToImageFilterIN3otb11VectorImageIdLj2EEENS2_IhLj2EEEE9PrintSelfERSoNS_6IndentE@Base 5.0.0
 (optional=templinst)_ZNK3itk18ImageToImageFilterIN3otb11VectorImageIdLj2EEES3_E14GetNameOfClassEv@Base 5.0.0
 (optional=templinst)_ZNK3itk18ImageToImageFilterIN3otb11VectorImageIdLj2EEES3_E21GetDirectionToleranceEv@Base 5.0.0
 (optional=templinst)_ZNK3itk18ImageToImageFilterIN3otb11VectorImageIdLj2EEES3_E22GetCoordinateToleranceEv@Base 5.0.0
 (optional=templinst)_ZNK3itk18ImageToImageFilterIN3otb11VectorImageIdLj2EEES3_E8GetInputEj@Base 5.0.0
 (optional=templinst)_ZNK3itk18ImageToImageFilterIN3otb11VectorImageIdLj2EEES3_E9PrintSelfERSoNS_6IndentE@Base 5.0.0
 (optional=templinst)_ZNK3itk18ImageToImageFilterIN3otb11VectorImageIhLj2EEES3_E14GetNameOfClassEv@Base 5.0.0
 (optional=templinst)_ZNK3itk18ImageToImageFilterIN3otb11VectorImageIhLj2EEES3_E21GetDirectionToleranceEv@Base 5.0.0
 (optional=templinst)_ZNK3itk18ImageToImageFilterIN3otb11VectorImageIhLj2EEES3_E22GetCoordinateToleranceEv@Base 5.0.0
 (optional=templinst)_ZNK3itk18ImageToImageFilterIN3otb11VectorImageIhLj2EEES3_E9PrintSelfERSoNS_6IndentE@Base 5.0.0
 (optional=templinst)_ZNK3itk18InPlaceImageFilterIN3otb11VectorImageIdLj2EEENS2_IhLj2EEEE10GetInPlaceEv@Base 5.0.0
 (optional=templinst)_ZNK3itk18InPlaceImageFilterIN3otb11VectorImageIdLj2EEENS2_IhLj2EEEE13CanRunInPlaceEv@Base 5.0.0
 (optional=templinst)_ZNK3itk18InPlaceImageFilterIN3otb11VectorImageIdLj2EEENS2_IhLj2EEEE14GetNameOfClassEv@Base 5.0.0
 (optional=templinst)_ZNK3itk18InPlaceImageFilterIN3otb11VectorImageIdLj2EEENS2_IhLj2EEEE17GetRunningInPlaceEv@Base 5.0.0
 (optional=templinst)_ZNK3itk18InPlaceImageFilterIN3otb11VectorImageIdLj2EEENS2_IhLj2EEEE9PrintSelfERSoNS_6IndentE@Base 5.0.0
 (optional=templinst)_ZNK3itk18InPlaceImageFilterIN3otb11VectorImageIhLj2EEES3_E10GetInPlaceEv@Base 5.0.0
 (optional=templinst)_ZNK3itk18InPlaceImageFilterIN3otb11VectorImageIhLj2EEES3_E13CanRunInPlaceEv@Base 5.0.0
 (optional=templinst)_ZNK3itk18InPlaceImageFilterIN3otb11VectorImageIhLj2EEES3_E14GetNameOfClassEv@Base 5.0.0
 (optional=templinst)_ZNK3itk18InPlaceImageFilterIN3otb11VectorImageIhLj2EEES3_E17GetRunningInPlaceEv@Base 5.0.0
 (optional=templinst)_ZNK3itk18InPlaceImageFilterIN3otb11VectorImageIhLj2EEES3_E9PrintSelfERSoNS_6IndentE@Base 5.0.0
 (optional=templinst)_ZNK3itk19ImageRegionSplitterILj2EE13CreateAnotherEv@Base 5.0.0
 (optional=templinst)_ZNK3itk19ImageRegionSplitterILj2EE14GetNameOfClassEv@Base 5.0.0
 (optional=templinst)_ZNK3itk19ImageRegionSplitterILj2EE16GetSplitInternalEjjjPlPm@Base 5.0.0
 (optional=templinst)_ZNK3itk19ImageRegionSplitterILj2EE25GetNumberOfSplitsInternalEjPKlPKmj@Base 5.0.0
 (optional=templinst)_ZNK3itk19ImageRegionSplitterILj2EE9PrintSelfERSoNS_6IndentE@Base 5.0.0
 (optional=templinst)_ZNK3itk20ImportImageContainerImdE13CreateAnotherEv@Base 5.0.0
 (optional=templinst)_ZNK3itk20ImportImageContainerImdE14GetNameOfClassEv@Base 5.0.0
 (optional=templinst)_ZNK3itk20ImportImageContainerImdE16AllocateElementsEmb@Base 5.0.0
 (optional=templinst)_ZNK3itk20ImportImageContainerImdE24GetContainerManageMemoryEv@Base 5.0.0
 (optional=templinst)_ZNK3itk20ImportImageContainerImdE9PrintSelfERSoNS_6IndentE@Base 5.0.0
 (optional=templinst)_ZNK3itk20ImportImageContainerImhE13CreateAnotherEv@Base 5.0.0
 (optional=templinst)_ZNK3itk20ImportImageContainerImhE14GetNameOfClassEv@Base 5.0.0
 (optional=templinst)_ZNK3itk20ImportImageContainerImhE16AllocateElementsEmb@Base 5.0.0
 (optional=templinst)_ZNK3itk20ImportImageContainerImhE24GetContainerManageMemoryEv@Base 5.0.0
 (optional=templinst)_ZNK3itk20ImportImageContainerImhE9PrintSelfERSoNS_6IndentE@Base 5.0.0
 (optional=templinst)_ZNK3itk20VariableLengthVectorIdE16AllocateElementsEj@Base 5.0.0
 (optional=templinst)_ZNK3itk20VariableLengthVectorIhE16AllocateElementsEj@Base 5.0.0
 (optional=templinst)_ZNK3itk22ImageBoundaryConditionIN3otb11VectorImageIdLj2EEES3_E14GetNameOfClassEv@Base 5.0.0
 (optional=templinst)_ZNK3itk22ImageBoundaryConditionIN3otb11VectorImageIdLj2EEES3_E23GetInputRequestedRegionERKNS_11ImageRegionILj2EEES8_@Base 5.0.0
 (optional=templinst)_ZNK3itk22ImageBoundaryConditionIN3otb11VectorImageIdLj2EEES3_E5PrintERSoNS_6IndentE@Base 5.0.0
 (optional=templinst)_ZNK3itk23UnaryFunctorImageFilterIN3otb11VectorImageIdLj2EEENS2_IhLj2EEENS1_7Functor21VectorAffineTransformINS_20VariableLengthVectorIdEENS7_IhEEEEE13CreateAnotherEv@Base 5.0.0
 (optional=templinst)_ZNK3itk23UnaryFunctorImageFilterIN3otb11VectorImageIdLj2EEENS2_IhLj2EEENS1_7Functor21VectorAffineTransformINS_20VariableLengthVectorIdEENS7_IhEEEEE14GetNameOfClassEv@Base 5.0.0
 (optional=templinst)_ZNK3itk24BinaryFunctorImageFilterIN3otb11VectorImageIhLj2EEENS1_5ImageIhLj2EEES3_NS1_7Functor11MaskFunctorINS_20VariableLengthVectorIdEEhNS8_IhEEEEE12GetConstant1Ev@Base 5.0.0
 (optional=templinst)_ZNK3itk24BinaryFunctorImageFilterIN3otb11VectorImageIhLj2EEENS1_5ImageIhLj2EEES3_NS1_7Functor11MaskFunctorINS_20VariableLengthVectorIdEEhNS8_IhEEEEE12GetConstant2Ev@Base 5.0.0
 (optional=templinst)_ZNK3itk24BinaryFunctorImageFilterIN3otb11VectorImageIhLj2EEENS1_5ImageIhLj2EEES3_NS1_7Functor11MaskFunctorINS_20VariableLengthVectorIdEEhNS8_IhEEEEE13CreateAnotherEv@Base 5.0.0
 (optional=templinst)_ZNK3itk24BinaryFunctorImageFilterIN3otb11VectorImageIhLj2EEENS1_5ImageIhLj2EEES3_NS1_7Functor11MaskFunctorINS_20VariableLengthVectorIdEEhNS8_IhEEEEE14GetNameOfClassEv@Base 5.0.0
 _ZNK3itk24ImageFileWriterException14GetNameOfClassEv@Base 5.0.0
 (optional=templinst)_ZNK3itk24ImageRegionConstIteratorIN3otb11VectorImageIdLj2EEEE14GetNameOfClassEv@Base 5.0.0
 (optional=templinst)_ZNK3itk24ImageRegionConstIteratorIN3otb11VectorImageIhLj2EEEE14GetNameOfClassEv@Base 5.0.0
 (optional=templinst)_ZNK3itk25ConstNeighborhoodIteratorIN3otb11VectorImageIdLj2EEENS_32ZeroFluxNeumannBoundaryConditionIS3_S3_EEE11GetPreviousEj@Base 5.0.0
 (optional=templinst)_ZNK3itk25ConstNeighborhoodIteratorIN3otb11VectorImageIdLj2EEENS_32ZeroFluxNeumannBoundaryConditionIS3_S3_EEE11GetPreviousEjm@Base 5.0.0
 (optional=templinst)_ZNK3itk25ConstNeighborhoodIteratorIN3otb11VectorImageIdLj2EEENS_32ZeroFluxNeumannBoundaryConditionIS3_S3_EEE15GetNeighborhoodEv@Base 5.0.0
 (optional=templinst)_ZNK3itk25ConstNeighborhoodIteratorIN3otb11VectorImageIdLj2EEENS_32ZeroFluxNeumannBoundaryConditionIS3_S3_EEE7GetNextEj@Base 5.0.0
 (optional=templinst)_ZNK3itk25ConstNeighborhoodIteratorIN3otb11VectorImageIdLj2EEENS_32ZeroFluxNeumannBoundaryConditionIS3_S3_EEE7GetNextEjm@Base 5.0.0
 (optional=templinst)_ZNK3itk25ConstNeighborhoodIteratorIN3otb11VectorImageIdLj2EEENS_32ZeroFluxNeumannBoundaryConditionIS3_S3_EEE7IsAtEndEv@Base 5.0.0
 (optional=templinst)_ZNK3itk25ConstNeighborhoodIteratorIN3otb11VectorImageIdLj2EEENS_32ZeroFluxNeumannBoundaryConditionIS3_S3_EEE8GetIndexERKNS_6OffsetILj2EEE@Base 5.0.0
 (optional=templinst)_ZNK3itk25ConstNeighborhoodIteratorIN3otb11VectorImageIdLj2EEENS_32ZeroFluxNeumannBoundaryConditionIS3_S3_EEE8GetIndexEm@Base 5.0.0
 (optional=templinst)_ZNK3itk25ConstNeighborhoodIteratorIN3otb11VectorImageIdLj2EEENS_32ZeroFluxNeumannBoundaryConditionIS3_S3_EEE8GetIndexEv@Base 5.0.0
 (optional=templinst)_ZNK3itk25ConstNeighborhoodIteratorIN3otb11VectorImageIdLj2EEENS_32ZeroFluxNeumannBoundaryConditionIS3_S3_EEE8GetPixelERKNS_6OffsetILj2EEE@Base 5.0.0
 (optional=templinst)_ZNK3itk25ConstNeighborhoodIteratorIN3otb11VectorImageIdLj2EEENS_32ZeroFluxNeumannBoundaryConditionIS3_S3_EEE8GetPixelERKNS_6OffsetILj2EEERb@Base 5.0.0
 (optional=templinst)_ZNK3itk25ConstNeighborhoodIteratorIN3otb11VectorImageIdLj2EEENS_32ZeroFluxNeumannBoundaryConditionIS3_S3_EEE8GetPixelEm@Base 5.0.0
 (optional=templinst)_ZNK3itk25ConstNeighborhoodIteratorIN3otb11VectorImageIdLj2EEENS_32ZeroFluxNeumannBoundaryConditionIS3_S3_EEE8GetPixelEmRb@Base 5.0.0
 (optional=templinst)_ZNK3itk25ConstNeighborhoodIteratorIN3otb11VectorImageIdLj2EEENS_32ZeroFluxNeumannBoundaryConditionIS3_S3_EEE9IsAtBeginEv@Base 5.0.0
 (optional=templinst)_ZNK3itk25ConstNeighborhoodIteratorIN3otb11VectorImageIdLj2EEENS_32ZeroFluxNeumannBoundaryConditionIS3_S3_EEE9PrintSelfERSoNS_6IndentE@Base 5.0.0
 _ZNK3itk25MissingHistogramSizeInput14GetNameOfClassEv@Base 5.0.0
 (optional=templinst)_ZNK3itk25SimpleDataObjectDecoratorINS_20VariableLengthVectorIhEEE13CreateAnotherEv@Base 5.0.0
 (optional=templinst)_ZNK3itk25SimpleDataObjectDecoratorINS_20VariableLengthVectorIhEEE14GetNameOfClassEv@Base 5.0.0
 (optional=templinst)_ZNK3itk25SimpleDataObjectDecoratorINS_20VariableLengthVectorIhEEE3GetEv@Base 5.0.0
 (optional=templinst)_ZNK3itk25SimpleDataObjectDecoratorINS_20VariableLengthVectorIhEEE9PrintSelfERSoNS_6IndentE@Base 5.0.0
 (optional=templinst)_ZNK3itk25SimpleDataObjectDecoratorINS_5ArrayIfEEE13CreateAnotherEv@Base 5.0.0
 (optional=templinst)_ZNK3itk25SimpleDataObjectDecoratorINS_5ArrayIfEEE14GetNameOfClassEv@Base 5.0.0
 (optional=templinst)_ZNK3itk25SimpleDataObjectDecoratorINS_5ArrayIfEEE3GetEv@Base 5.0.0
 (optional=templinst)_ZNK3itk25SimpleDataObjectDecoratorINS_5ArrayIfEEE9PrintSelfERSoNS_6IndentE@Base 5.0.0
 (optional=templinst)_ZNK3itk25SimpleDataObjectDecoratorINS_5ArrayImEEE13CreateAnotherEv@Base 5.0.0
 (optional=templinst)_ZNK3itk25SimpleDataObjectDecoratorINS_5ArrayImEEE14GetNameOfClassEv@Base 5.0.0
 (optional=templinst)_ZNK3itk25SimpleDataObjectDecoratorINS_5ArrayImEEE3GetEv@Base 5.0.0
 (optional=templinst)_ZNK3itk25SimpleDataObjectDecoratorINS_5ArrayImEEE9PrintSelfERSoNS_6IndentE@Base 5.0.0
 (optional=templinst)_ZNK3itk25SimpleDataObjectDecoratorIbE13CreateAnotherEv@Base 5.0.0
 (optional=templinst)_ZNK3itk25SimpleDataObjectDecoratorIbE14GetNameOfClassEv@Base 5.0.0
 (optional=templinst)_ZNK3itk25SimpleDataObjectDecoratorIbE3GetEv@Base 5.0.0
 (optional=templinst)_ZNK3itk25SimpleDataObjectDecoratorIbE9PrintSelfERSoNS_6IndentE@Base 5.0.0
 (optional=templinst)_ZNK3itk25SimpleDataObjectDecoratorIfE13CreateAnotherEv@Base 5.0.0
 (optional=templinst)_ZNK3itk25SimpleDataObjectDecoratorIfE14GetNameOfClassEv@Base 5.0.0
 (optional=templinst)_ZNK3itk25SimpleDataObjectDecoratorIfE3GetEv@Base 5.0.0
 (optional=templinst)_ZNK3itk25SimpleDataObjectDecoratorIfE9PrintSelfERSoNS_6IndentE@Base 5.0.0
 (optional=templinst)_ZNK3itk25SimpleDataObjectDecoratorIhE13CreateAnotherEv@Base 5.0.0
 (optional=templinst)_ZNK3itk25SimpleDataObjectDecoratorIhE14GetNameOfClassEv@Base 5.0.0
 (optional=templinst)_ZNK3itk25SimpleDataObjectDecoratorIhE3GetEv@Base 5.0.0
 (optional=templinst)_ZNK3itk25SimpleDataObjectDecoratorIhE9PrintSelfERSoNS_6IndentE@Base 5.0.0
 (optional=templinst)_ZNK3itk26ImageScanlineConstIteratorIN3otb11VectorImageIdLj2EEEE14GetNameOfClassEv@Base 5.0.0
 (optional=templinst)_ZNK3itk26ImageScanlineConstIteratorIN3otb11VectorImageIhLj2EEEE14GetNameOfClassEv@Base 5.0.0
 (optional=templinst)_ZNK3itk26ImageScanlineConstIteratorIN3otb5ImageIhLj2EEEE14GetNameOfClassEv@Base 5.0.0
 _ZNK3itk31MissingHistogramBinMaximumInput14GetNameOfClassEv@Base 5.0.0
 _ZNK3itk31MissingHistogramBinMinimumInput14GetNameOfClassEv@Base 5.0.0
 _ZNK3itk32HistogramWrongNumberOfComponents14GetNameOfClassEv@Base 5.0.0
 _ZNK3itk32SampleToHistogramFilterException14GetNameOfClassEv@Base 5.0.0
 (optional=templinst)_ZNK3itk32ZeroFluxNeumannBoundaryConditionIN3otb11VectorImageIdLj2EEES3_E14GetNameOfClassEv@Base 5.0.0
 (optional=templinst)_ZNK3itk32ZeroFluxNeumannBoundaryConditionIN3otb11VectorImageIdLj2EEES3_E23GetInputRequestedRegionERKNS_11ImageRegionILj2EEES8_@Base 5.0.0
 (optional=templinst)_ZNK3itk32ZeroFluxNeumannBoundaryConditionIN3otb11VectorImageIdLj2EEES3_E8GetPixelERKNS_5IndexILj2EEEPKS3_@Base 5.0.0
 (optional=templinst)_ZNK3itk32ZeroFluxNeumannBoundaryConditionIN3otb11VectorImageIdLj2EEES3_EclERKNS_6OffsetILj2EEES8_PKNS_12NeighborhoodIPdLj2ENS_21NeighborhoodAllocatorISA_EEEE@Base 5.0.0
 (optional=templinst)_ZNK3itk32ZeroFluxNeumannBoundaryConditionIN3otb11VectorImageIdLj2EEES3_EclERKNS_6OffsetILj2EEES8_PKNS_12NeighborhoodIPdLj2ENS_21NeighborhoodAllocatorISA_EEEERKNS_38VectorImageNeighborhoodAccessorFunctorIS3_EE@Base 5.0.0
 _ZNK3itk34MissingHistogramMarginalScaleInput14GetNameOfClassEv@Base 5.0.0
 _ZNK3itk43NullSizeHistogramInputMeasurementVectorSize14GetNameOfClassEv@Base 5.0.0
 (optional=templinst)_ZNK3itk5ImageIdLj6EE13CreateAnotherEv@Base 5.0.0
 (optional=templinst)_ZNK3itk5ImageIdLj6EE14GetNameOfClassEv@Base 5.0.0
 (optional=templinst)_ZNK3itk5ImageIdLj6EE16GetBufferPointerEv@Base 5.0.0
 (optional=templinst)_ZNK3itk5ImageIdLj6EE29GetNumberOfComponentsPerPixelEv@Base 5.0.0
 (optional=templinst)_ZNK3itk5ImageIdLj6EE9PrintSelfERSoNS_6IndentE@Base 5.0.0
 (optional=templinst)_ZNK3itk5ImageIhLj2EE16GetBufferPointerEv@Base 5.0.0
 (optional=templinst)_ZNK3itk5PointIdLj2EE12GetVnlVectorEv@Base 5.0.0
 (optional=templinst)_ZNK3itk6MatrixIdLj2ELj2EE10GetInverseEv@Base 5.0.0
 (optional=templinst)_ZNK3itk6MatrixIdLj6ELj6EE10GetInverseEv@Base 5.0.0
 _ZNK3itk6Object13GetObjectNameB5cxx11Ev@Base 5.0.0
 _ZNK3itk6Object13GetObjectNameEv@Base 5.0.0
 (optional=templinst)_ZNK3itk6VectorIdLj2EE12GetVnlVectorEv@Base 5.0.0
 _ZNK3itk8AnyEvent10CheckEventEPKNS_11EventObjectE@Base 5.0.0
 _ZNK3itk8AnyEvent10MakeObjectEv@Base 5.0.0
 _ZNK3itk8AnyEvent12GetEventNameEv@Base 5.0.0
 _ZNK3itk8EndEvent10CheckEventEPKNS_11EventObjectE@Base 5.0.0
 _ZNK3itk8EndEvent10MakeObjectEv@Base 5.0.0
 _ZNK3itk8EndEvent12GetEventNameEv@Base 5.0.0
 (optional=templinst)_ZNK3itk9ImageBaseILj2EE10GetSpacingEv@Base 5.0.0
 (optional=templinst)_ZNK3itk9ImageBaseILj2EE12GetDirectionEv@Base 5.0.0
 (optional=templinst)_ZNK3itk9ImageBaseILj2EE13CreateAnotherEv@Base 5.0.0
 (optional=templinst)_ZNK3itk9ImageBaseILj2EE14GetNameOfClassEv@Base 5.0.0
 (optional=templinst)_ZNK3itk9ImageBaseILj2EE17GetBufferedRegionEv@Base 5.0.0
 (optional=templinst)_ZNK3itk9ImageBaseILj2EE18GetRequestedRegionEv@Base 5.0.0
 (optional=templinst)_ZNK3itk9ImageBaseILj2EE19GetInverseDirectionEv@Base 5.0.0
 (optional=templinst)_ZNK3itk9ImageBaseILj2EE24GetLargestPossibleRegionEv@Base 5.0.0
 (optional=templinst)_ZNK3itk9ImageBaseILj2EE29GetNumberOfComponentsPerPixelEv@Base 5.0.0
 (optional=templinst)_ZNK3itk9ImageBaseILj2EE9GetOriginEv@Base 5.0.0
 (optional=templinst)_ZNK3itk9ImageBaseILj2EE9PrintSelfERSoNS_6IndentE@Base 5.0.0
 (optional=templinst)_ZNK3itk9ImageBaseILj6EE10GetSpacingEv@Base 5.0.0
 (optional=templinst)_ZNK3itk9ImageBaseILj6EE12GetDirectionEv@Base 5.0.0
 (optional=templinst)_ZNK3itk9ImageBaseILj6EE13CreateAnotherEv@Base 5.0.0
 (optional=templinst)_ZNK3itk9ImageBaseILj6EE14GetNameOfClassEv@Base 5.0.0
 (optional=templinst)_ZNK3itk9ImageBaseILj6EE17GetBufferedRegionEv@Base 5.0.0
 (optional=templinst)_ZNK3itk9ImageBaseILj6EE18GetRequestedRegionEv@Base 5.0.0
 (optional=templinst)_ZNK3itk9ImageBaseILj6EE19GetInverseDirectionEv@Base 5.0.0
 (optional=templinst)_ZNK3itk9ImageBaseILj6EE24GetLargestPossibleRegionEv@Base 5.0.0
 (optional=templinst)_ZNK3itk9ImageBaseILj6EE29GetNumberOfComponentsPerPixelEv@Base 5.0.0
 (optional=templinst)_ZNK3itk9ImageBaseILj6EE9GetOriginEv@Base 5.0.0
 (optional=templinst)_ZNK3itk9ImageBaseILj6EE9PrintSelfERSoNS_6IndentE@Base 5.0.0
 (optional=templinst)_ZNK3otb10ObjectListIN3itk10Statistics10ListSampleINS1_6VectorIdLj1EEEEEE13CreateAnotherEv@Base 5.0.0
 (optional=templinst)_ZNK3otb10ObjectListIN3itk10Statistics10ListSampleINS1_6VectorIdLj1EEEEEE13GetNthElementEj@Base 5.0.0
 (optional=templinst)_ZNK3otb10ObjectListIN3itk10Statistics10ListSampleINS1_6VectorIdLj1EEEEEE14GetNameOfClassEv@Base 5.0.0
 (optional=templinst)_ZNK3otb10ObjectListIN3itk10Statistics10ListSampleINS1_6VectorIdLj1EEEEEE9PrintSelfERSoNS1_6IndentE@Base 5.0.0
 _ZNK3otb10TestHelper11isMinusSignEi@Base 5.0.0
 _ZNK3otb10TestHelper12CompareLinesERKNSt7__cxx1112basic_stringIcSt11char_traitsIcESaIcEEES8_RiRSt14basic_ofstreamIcS4_ES9_RSt6vectorIS6_SaIS6_EESG_d@Base 5.0.0
 _ZNK3otb10TestHelper12CompareLinesERKSsS2_RiRSt14basic_ofstreamIcSt11char_traitsIcEES3_RSt6vectorISsSaISsEESC_d@Base 5.0.0
 _ZNK3otb10TestHelper12isHexaNumberEi@Base 5.0.0
 _ZNK3otb10TestHelper13AddWhiteSpaceERKNSt7__cxx1112basic_stringIcSt11char_traitsIcESaIcEEERS6_@Base 5.0.0
 _ZNK3otb10TestHelper13AddWhiteSpaceERKSsRSs@Base 5.0.0
 _ZNK3otb10TestHelper14VectorToStringB5cxx11ERKSt6vectorIdSaIdEE@Base 5.0.0
 _ZNK3otb10TestHelper14VectorToStringERKSt6vectorIdSaIdEE@Base 5.0.0
 _ZNK3otb10TestHelper16ogrReportOnLayerEP8OGRLayerPKcP11OGRGeometryS2_S4_S6_Ri@Base 5.0.0
 _ZNK3otb10TestHelper19RegressionTestImageEiPKcS2_d@Base 5.0.0
 _ZNK3otb10TestHelper19isScientificNumericERKNSt7__cxx1112basic_stringIcSt11char_traitsIcESaIcEEE@Base 5.0.0
 _ZNK3otb10TestHelper19isScientificNumericERKSs@Base 5.0.0
 _ZNK3otb10TestHelper20isHexaPointerAddressERKNSt7__cxx1112basic_stringIcSt11char_traitsIcESaIcEEE@Base 5.0.0
 _ZNK3otb10TestHelper20isHexaPointerAddressERKSs@Base 5.0.0
 _ZNK3otb10TestHelper21RegressionTestOgrFileEPKcS2_d@Base 5.0.0
 _ZNK3otb10TestHelper22RegressionTestMetaDataEPKcS2_d@Base 5.0.0
 _ZNK3otb10TestHelper23RegressionTestAsciiFileEPKcS2_dSt6vectorINSt7__cxx1112basic_stringIcSt11char_traitsIcESaIcEEESaIS9_EE@Base 5.0.0
 _ZNK3otb10TestHelper23RegressionTestAsciiFileEPKcS2_dSt6vectorISsSaISsEE@Base 5.0.0
 _ZNK3otb10TestHelper23RegressionTestBaselinesB5cxx11EPc@Base 5.0.0
 _ZNK3otb10TestHelper23RegressionTestBaselinesEPc@Base 5.0.0
 _ZNK3otb10TestHelper24RegressionTestBinaryFileEPKcS2_@Base 5.0.0
 _ZNK3otb10TestHelper29isToBeIgnoredForAnyComparisonERKNSt7__cxx1112basic_stringIcSt11char_traitsIcESaIcEEE@Base 5.0.0
 _ZNK3otb10TestHelper29isToBeIgnoredForAnyComparisonERKSs@Base 5.0.0
 _ZNK3otb10TestHelper7isPointEi@Base 5.0.0
 _ZNK3otb10TestHelper8isNumberEi@Base 5.0.0
 _ZNK3otb10TestHelper9isNumericERKNSt7__cxx1112basic_stringIcSt11char_traitsIcESaIcEEE@Base 5.0.0
 _ZNK3otb10TestHelper9isNumericERKSs@Base 5.0.0
 _ZNK3otb11ImageIOBase10GetSpacingEj@Base 5.0.0
 _ZNK3otb11ImageIOBase11GetIORegionEv@Base 5.0.0
 _ZNK3otb11ImageIOBase12GetDirectionEj@Base 5.0.0
 _ZNK3otb11ImageIOBase13GetDimensionsEj@Base 5.0.0
 _ZNK3otb11ImageIOBase14GetNameOfClassEv@Base 5.0.0
 _ZNK3otb11ImageIOBase21GetNumberOfComponentsEv@Base 5.0.0
 _ZNK3otb11ImageIOBase21GetNumberOfDimensionsEv@Base 5.0.0
 _ZNK3otb11ImageIOBase9GetOriginEj@Base 5.0.0
 (optional=templinst)_ZNK3otb11VectorImageIdLj2EE10GetGCPInfoEj@Base 5.0.0
 (optional=templinst)_ZNK3otb11VectorImageIdLj2EE11GetGCPCountEv@Base 5.0.0
 (optional=templinst)_ZNK3otb11VectorImageIdLj2EE13CreateAnotherEv@Base 5.0.0
 (optional=templinst)_ZNK3otb11VectorImageIdLj2EE14GetNameOfClassEv@Base 5.0.0
 (optional=templinst)_ZNK3otb11VectorImageIdLj2EE15GetGeoTransformEv@Base 5.0.0
 (optional=templinst)_ZNK3otb11VectorImageIdLj2EE16GetGCPProjectionEv@Base 5.0.0
 (optional=templinst)_ZNK3otb11VectorImageIdLj2EE16GetProjectionRefEv@Base 5.0.0
 (optional=templinst)_ZNK3otb11VectorImageIdLj2EE18GetLowerLeftCornerEv@Base 5.0.0
 (optional=templinst)_ZNK3otb11VectorImageIdLj2EE18GetUpperLeftCornerEv@Base 5.0.0
 (optional=templinst)_ZNK3otb11VectorImageIdLj2EE19GetImageKeywordlistEv@Base 5.0.0
 (optional=templinst)_ZNK3otb11VectorImageIdLj2EE19GetLowerRightCornerEv@Base 5.0.0
 (optional=templinst)_ZNK3otb11VectorImageIdLj2EE19GetUpperRightCornerEv@Base 5.0.0
 (optional=templinst)_ZNK3otb11VectorImageIdLj2EE20GetMetaDataInterfaceEv@Base 5.0.0
 (optional=templinst)_ZNK3otb11VectorImageIdLj2EE7GetGCPXEj@Base 5.0.0
 (optional=templinst)_ZNK3otb11VectorImageIdLj2EE7GetGCPYEj@Base 5.0.0
 (optional=templinst)_ZNK3otb11VectorImageIdLj2EE7GetGCPZEj@Base 5.0.0
 (optional=templinst)_ZNK3otb11VectorImageIdLj2EE7GetGCPsEj@Base 5.0.0
 (optional=templinst)_ZNK3otb11VectorImageIdLj2EE8GetGCPIdEj@Base 5.0.0
 (optional=templinst)_ZNK3otb11VectorImageIdLj2EE9GetGCPColEj@Base 5.0.0
 (optional=templinst)_ZNK3otb11VectorImageIdLj2EE9GetGCPRowEj@Base 5.0.0
 (optional=templinst)_ZNK3otb11VectorImageIdLj2EE9PrintSelfERSoN3itk6IndentE@Base 5.0.0
 (optional=templinst)_ZNK3otb11VectorImageIhLj2EE10GetGCPInfoEj@Base 5.0.0
 (optional=templinst)_ZNK3otb11VectorImageIhLj2EE11GetGCPCountEv@Base 5.0.0
 (optional=templinst)_ZNK3otb11VectorImageIhLj2EE13CreateAnotherEv@Base 5.0.0
 (optional=templinst)_ZNK3otb11VectorImageIhLj2EE14GetNameOfClassEv@Base 5.0.0
 (optional=templinst)_ZNK3otb11VectorImageIhLj2EE15GetGeoTransformEv@Base 5.0.0
 (optional=templinst)_ZNK3otb11VectorImageIhLj2EE16GetGCPProjectionEv@Base 5.0.0
 (optional=templinst)_ZNK3otb11VectorImageIhLj2EE16GetProjectionRefEv@Base 5.0.0
 (optional=templinst)_ZNK3otb11VectorImageIhLj2EE18GetLowerLeftCornerEv@Base 5.0.0
 (optional=templinst)_ZNK3otb11VectorImageIhLj2EE18GetUpperLeftCornerEv@Base 5.0.0
 (optional=templinst)_ZNK3otb11VectorImageIhLj2EE19GetImageKeywordlistEv@Base 5.0.0
 (optional=templinst)_ZNK3otb11VectorImageIhLj2EE19GetLowerRightCornerEv@Base 5.0.0
 (optional=templinst)_ZNK3otb11VectorImageIhLj2EE19GetUpperRightCornerEv@Base 5.0.0
 (optional=templinst)_ZNK3otb11VectorImageIhLj2EE20GetMetaDataInterfaceEv@Base 5.0.0
 (optional=templinst)_ZNK3otb11VectorImageIhLj2EE7GetGCPXEj@Base 5.0.0
 (optional=templinst)_ZNK3otb11VectorImageIhLj2EE7GetGCPYEj@Base 5.0.0
 (optional=templinst)_ZNK3otb11VectorImageIhLj2EE7GetGCPZEj@Base 5.0.0
 (optional=templinst)_ZNK3otb11VectorImageIhLj2EE7GetGCPsEj@Base 5.0.0
 (optional=templinst)_ZNK3otb11VectorImageIhLj2EE8GetGCPIdEj@Base 5.0.0
 (optional=templinst)_ZNK3otb11VectorImageIhLj2EE9GetGCPColEj@Base 5.0.0
 (optional=templinst)_ZNK3otb11VectorImageIhLj2EE9GetGCPRowEj@Base 5.0.0
 (optional=templinst)_ZNK3otb11VectorImageIhLj2EE9PrintSelfERSoN3itk6IndentE@Base 5.0.0
 (optional=templinst)_ZNK3otb14ExtractROIBaseINS_11VectorImageIdLj2EEES2_E13CreateAnotherEv@Base 5.0.0
 (optional=templinst)_ZNK3otb14ExtractROIBaseINS_11VectorImageIdLj2EEES2_E14GetNameOfClassEv@Base 5.0.0
 (optional=templinst)_ZNK3otb14ExtractROIBaseINS_11VectorImageIdLj2EEES2_E8GetSizeXEv@Base 5.0.0
 (optional=templinst)_ZNK3otb14ExtractROIBaseINS_11VectorImageIdLj2EEES2_E8GetSizeYEv@Base 5.0.0
 (optional=templinst)_ZNK3otb14ExtractROIBaseINS_11VectorImageIdLj2EEES2_E9GetStartXEv@Base 5.0.0
 (optional=templinst)_ZNK3otb14ExtractROIBaseINS_11VectorImageIdLj2EEES2_E9GetStartYEv@Base 5.0.0
 (optional=templinst)_ZNK3otb14ExtractROIBaseINS_11VectorImageIdLj2EEES2_E9PrintSelfERSoN3itk6IndentE@Base 5.0.0
 (optional=templinst)_ZNK3otb15ImageFileReaderINS_11VectorImageIdLj2EEENS_25DefaultConvertPixelTraitsIdEEE11GetFileNameEv@Base 5.0.0
 (optional=templinst)_ZNK3otb15ImageFileReaderINS_11VectorImageIdLj2EEENS_25DefaultConvertPixelTraitsIdEEE13CreateAnotherEv@Base 5.0.0
 (optional=templinst)_ZNK3otb15ImageFileReaderINS_11VectorImageIdLj2EEENS_25DefaultConvertPixelTraitsIdEEE14GetNameOfClassEv@Base 5.0.0
 (optional=templinst)_ZNK3otb15ImageFileReaderINS_11VectorImageIdLj2EEENS_25DefaultConvertPixelTraitsIdEEE9PrintSelfERSoN3itk6IndentE@Base 5.0.0
 (optional=templinst)_ZNK3otb15ImageFileReaderINS_5ImageIdLj6EEENS_25DefaultConvertPixelTraitsIdEEE11GetFileNameEv@Base 5.0.0
 (optional=templinst)_ZNK3otb15ImageFileReaderINS_5ImageIdLj6EEENS_25DefaultConvertPixelTraitsIdEEE13CreateAnotherEv@Base 5.0.0
 (optional=templinst)_ZNK3otb15ImageFileReaderINS_5ImageIdLj6EEENS_25DefaultConvertPixelTraitsIdEEE14GetNameOfClassEv@Base 5.0.0
 (optional=templinst)_ZNK3otb15ImageFileReaderINS_5ImageIdLj6EEENS_25DefaultConvertPixelTraitsIdEEE9PrintSelfERSoN3itk6IndentE@Base 5.0.0
 (optional=templinst)_ZNK3otb15ImageFileWriterINS_11VectorImageIhLj2EEEE10GetImageIOEv@Base 5.0.0
 (optional=templinst)_ZNK3otb15ImageFileWriterINS_11VectorImageIhLj2EEEE11GetFileNameEv@Base 5.0.0
 (optional=templinst)_ZNK3otb15ImageFileWriterINS_11VectorImageIhLj2EEEE11GetIORegionEv@Base 5.0.0
 (optional=templinst)_ZNK3otb15ImageFileWriterINS_11VectorImageIhLj2EEEE13CreateAnotherEv@Base 5.0.0
 (optional=templinst)_ZNK3otb15ImageFileWriterINS_11VectorImageIhLj2EEEE14GetNameOfClassEv@Base 5.0.0
 (optional=templinst)_ZNK3otb15ImageFileWriterINS_11VectorImageIhLj2EEEE17GetUseCompressionEv@Base 5.0.0
 (optional=templinst)_ZNK3otb15ImageFileWriterINS_11VectorImageIhLj2EEEE29GetUseInputMetaDataDictionaryEv@Base 5.0.0
 (optional=templinst)_ZNK3otb15ImageFileWriterINS_11VectorImageIhLj2EEEE9PrintSelfERSoN3itk6IndentE@Base 5.0.0
 (optional=templinst)_ZNK3otb16StreamingManagerINS_11VectorImageIhLj2EEEE14GetNameOfClassEv@Base 5.0.0
 (optional=templinst)_ZNK3otb20PrintableImageFilterINS_11VectorImageIdLj2EEENS_5ImageIhLj2EEEE13CreateAnotherEv@Base 5.0.0
 (optional=templinst)_ZNK3otb20PrintableImageFilterINS_11VectorImageIdLj2EEENS_5ImageIhLj2EEEE14GetNameOfClassEv@Base 5.0.0
 (optional=templinst)_ZNK3otb20PrintableImageFilterINS_11VectorImageIdLj2EEENS_5ImageIhLj2EEEE9PrintSelfERSoN3itk6IndentE@Base 5.0.0
 (optional=templinst)_ZNK3otb21DifferenceImageFilterINS_11VectorImageIdLj2EEES2_E13CreateAnotherEv@Base 5.0.0
 (optional=templinst)_ZNK3otb21DifferenceImageFilterINS_11VectorImageIdLj2EEES2_E14GetNameOfClassEv@Base 5.0.0
 (optional=templinst)_ZNK3otb21DifferenceImageFilterINS_11VectorImageIdLj2EEES2_E9PrintSelfERSoN3itk6IndentE@Base 5.0.0
 (optional=templinst)_ZNK3otb22MultiChannelExtractROIIddE13CreateAnotherEv@Base 5.0.0
 (optional=templinst)_ZNK3otb22MultiChannelExtractROIIddE14GetLastChannelEv@Base 5.0.0
 (optional=templinst)_ZNK3otb22MultiChannelExtractROIIddE14GetNameOfClassEv@Base 5.0.0
 (optional=templinst)_ZNK3otb22MultiChannelExtractROIIddE15GetFirstChannelEv@Base 5.0.0
 (optional=templinst)_ZNK3otb22MultiChannelExtractROIIddE9PrintSelfERSoN3itk6IndentE@Base 5.0.0
 _ZNK3otb24ImageFileReaderException14GetNameOfClassEv@Base 5.0.0
 (optional=templinst)_ZNK3otb29ImageRegionAdaptativeSplitterILj2EE11GetTileHintEv@Base 5.0.0
 (optional=templinst)_ZNK3otb29ImageRegionAdaptativeSplitterILj2EE13CreateAnotherEv@Base 5.0.0
 (optional=templinst)_ZNK3otb29ImageRegionAdaptativeSplitterILj2EE14GetImageRegionEv@Base 5.0.0
 (optional=templinst)_ZNK3otb29ImageRegionAdaptativeSplitterILj2EE14GetNameOfClassEv@Base 5.0.0
 (optional=templinst)_ZNK3otb29ImageRegionAdaptativeSplitterILj2EE26GetRequestedNumberOfSplitsEv@Base 5.0.0
 (optional=templinst)_ZNK3otb29ImageRegionAdaptativeSplitterILj2EE8ModifiedEv@Base 5.0.0
 (optional=templinst)_ZNK3otb29ImageRegionAdaptativeSplitterILj2EE9PrintSelfERSoN3itk6IndentE@Base 5.0.0
 (optional=templinst)_ZNK3otb29ImageRegionSquareTileSplitterILj2EE13CreateAnotherEv@Base 5.0.0
 (optional=templinst)_ZNK3otb29ImageRegionSquareTileSplitterILj2EE14GetNameOfClassEv@Base 5.0.0
 (optional=templinst)_ZNK3otb29ImageRegionSquareTileSplitterILj2EE9PrintSelfERSoN3itk6IndentE@Base 5.0.0
 (optional=templinst)_ZNK3otb30RAMDrivenTiledStreamingManagerINS_11VectorImageIhLj2EEEE13CreateAnotherEv@Base 5.0.0
 (optional=templinst)_ZNK3otb30RAMDrivenTiledStreamingManagerINS_11VectorImageIhLj2EEEE14GetNameOfClassEv@Base 5.0.0
 (optional=templinst)_ZNK3otb30RAMDrivenTiledStreamingManagerINS_11VectorImageIhLj2EEEE19GetAvailableRAMInMBEv@Base 5.0.0
 (optional=templinst)_ZNK3otb30RAMDrivenTiledStreamingManagerINS_11VectorImageIhLj2EEEE7GetBiasEv@Base 5.0.0
 (optional=templinst)_ZNK3otb33RAMDrivenStrippedStreamingManagerINS_11VectorImageIhLj2EEEE13CreateAnotherEv@Base 5.0.0
 (optional=templinst)_ZNK3otb33RAMDrivenStrippedStreamingManagerINS_11VectorImageIhLj2EEEE14GetNameOfClassEv@Base 5.0.0
 (optional=templinst)_ZNK3otb33RAMDrivenStrippedStreamingManagerINS_11VectorImageIhLj2EEEE19GetAvailableRAMInMBEv@Base 5.0.0
 (optional=templinst)_ZNK3otb33RAMDrivenStrippedStreamingManagerINS_11VectorImageIhLj2EEEE7GetBiasEv@Base 5.0.0
 (optional=templinst)_ZNK3otb33VectorRescaleIntensityImageFilterINS_11VectorImageIdLj2EEENS1_IhLj2EEEE13CreateAnotherEv@Base 5.0.0
 (optional=templinst)_ZNK3otb33VectorRescaleIntensityImageFilterINS_11VectorImageIdLj2EEENS1_IhLj2EEEE16GetOutputMaximumEv@Base 5.0.0
 (optional=templinst)_ZNK3otb33VectorRescaleIntensityImageFilterINS_11VectorImageIdLj2EEENS1_IhLj2EEEE16GetOutputMinimumEv@Base 5.0.0
 (optional=templinst)_ZNK3otb33VectorRescaleIntensityImageFilterINS_11VectorImageIdLj2EEENS1_IhLj2EEEE8GetGammaEv@Base 5.0.0
 (optional=templinst)_ZNK3otb33VectorRescaleIntensityImageFilterINS_11VectorImageIdLj2EEENS1_IhLj2EEEE9PrintSelfERSoN3itk6IndentE@Base 5.0.0
 (optional=templinst)_ZNK3otb34TileDimensionTiledStreamingManagerINS_11VectorImageIhLj2EEEE13CreateAnotherEv@Base 5.0.0
 (optional=templinst)_ZNK3otb34TileDimensionTiledStreamingManagerINS_11VectorImageIhLj2EEEE14GetNameOfClassEv@Base 5.0.0
 (optional=templinst)_ZNK3otb35RAMDrivenAdaptativeStreamingManagerINS_11VectorImageIhLj2EEEE13CreateAnotherEv@Base 5.0.0
 (optional=templinst)_ZNK3otb35RAMDrivenAdaptativeStreamingManagerINS_11VectorImageIhLj2EEEE14GetNameOfClassEv@Base 5.0.0
 (optional=templinst)_ZNK3otb35RAMDrivenAdaptativeStreamingManagerINS_11VectorImageIhLj2EEEE19GetAvailableRAMInMBEv@Base 5.0.0
 (optional=templinst)_ZNK3otb35RAMDrivenAdaptativeStreamingManagerINS_11VectorImageIhLj2EEEE7GetBiasEv@Base 5.0.0
 (optional=templinst)_ZNK3otb37NumberOfLinesStrippedStreamingManagerINS_11VectorImageIhLj2EEEE13CreateAnotherEv@Base 5.0.0
 (optional=templinst)_ZNK3otb37NumberOfLinesStrippedStreamingManagerINS_11VectorImageIhLj2EEEE14GetNameOfClassEv@Base 5.0.0
 (optional=templinst)_ZNK3otb38NumberOfDivisionsTiledStreamingManagerINS_11VectorImageIhLj2EEEE13CreateAnotherEv@Base 5.0.0
 (optional=templinst)_ZNK3otb38NumberOfDivisionsTiledStreamingManagerINS_11VectorImageIhLj2EEEE14GetNameOfClassEv@Base 5.0.0
 (optional=templinst)_ZNK3otb41NumberOfDivisionsStrippedStreamingManagerINS_11VectorImageIhLj2EEEE13CreateAnotherEv@Base 5.0.0
 (optional=templinst)_ZNK3otb41NumberOfDivisionsStrippedStreamingManagerINS_11VectorImageIhLj2EEEE14GetNameOfClassEv@Base 5.0.0
 (optional=templinst)_ZNK3otb5ImageIdLj6EE10GetGCPInfoEj@Base 5.0.0
 (optional=templinst)_ZNK3otb5ImageIdLj6EE11GetGCPCountEv@Base 5.0.0
 (optional=templinst)_ZNK3otb5ImageIdLj6EE13CreateAnotherEv@Base 5.0.0
 (optional=templinst)_ZNK3otb5ImageIdLj6EE14GetNameOfClassEv@Base 5.0.0
 (optional=templinst)_ZNK3otb5ImageIdLj6EE15GetGeoTransformEv@Base 5.0.0
 (optional=templinst)_ZNK3otb5ImageIdLj6EE16GetGCPProjectionEv@Base 5.0.0
 (optional=templinst)_ZNK3otb5ImageIdLj6EE16GetProjectionRefEv@Base 5.0.0
 (optional=templinst)_ZNK3otb5ImageIdLj6EE18GetLowerLeftCornerEv@Base 5.0.0
 (optional=templinst)_ZNK3otb5ImageIdLj6EE18GetUpperLeftCornerEv@Base 5.0.0
 (optional=templinst)_ZNK3otb5ImageIdLj6EE19GetImageKeywordlistEv@Base 5.0.0
 (optional=templinst)_ZNK3otb5ImageIdLj6EE19GetLowerRightCornerEv@Base 5.0.0
 (optional=templinst)_ZNK3otb5ImageIdLj6EE19GetUpperRightCornerEv@Base 5.0.0
 (optional=templinst)_ZNK3otb5ImageIdLj6EE20GetMetaDataInterfaceEv@Base 5.0.0
 (optional=templinst)_ZNK3otb5ImageIdLj6EE7GetGCPXEj@Base 5.0.0
 (optional=templinst)_ZNK3otb5ImageIdLj6EE7GetGCPYEj@Base 5.0.0
 (optional=templinst)_ZNK3otb5ImageIdLj6EE7GetGCPZEj@Base 5.0.0
 (optional=templinst)_ZNK3otb5ImageIdLj6EE7GetGCPsEj@Base 5.0.0
 (optional=templinst)_ZNK3otb5ImageIdLj6EE8GetGCPIdEj@Base 5.0.0
 (optional=templinst)_ZNK3otb5ImageIdLj6EE9GetGCPColEj@Base 5.0.0
 (optional=templinst)_ZNK3otb5ImageIdLj6EE9GetGCPRowEj@Base 5.0.0
 (optional=templinst)_ZNK3otb5ImageIdLj6EE9PrintSelfERSoN3itk6IndentE@Base 5.0.0
 (optional=templinst)_ZNKSt5ctypeIcE8do_widenEc@Base 5.0.0
 (optional=templinst)_ZNSt10_List_baseIN3itk11ImageRegionILj2EEESaIS2_EE8_M_clearEv@Base 5.0.0
 (optional=templinst)_ZNSt10_List_baseIN3itk12SmartPointerINS0_11LightObjectEEESaIS3_EE8_M_clearEv@Base 5.0.0
 (optional=templinst)_ZNSt12_Destroy_auxILb0EE9__destroyIPN3itk20VariableLengthVectorIdEEEEvT_S6_@Base 5.0.0
 (optional=templinst)_ZNSt12_Destroy_auxILb0EE9__destroyIPSsEEvT_S3_@Base 5.0.0
 (optional=templinst)_ZNSt15basic_stringbufIcSt11char_traitsIcESaIcEED0Ev@Base 5.0.0
 (optional=templinst)_ZNSt15basic_stringbufIcSt11char_traitsIcESaIcEED1Ev@Base 5.0.0
 (optional=templinst)_ZNSt15basic_stringbufIcSt11char_traitsIcESaIcEED2Ev@Base 5.0.0
 (optional=templinst)_ZNSt20__uninitialized_copyILb0EE13__uninit_copyIPN3itk12SmartPointerINS2_10Statistics10ListSampleINS2_6VectorIdLj1EEEEEEESA_EET0_T_SC_SB_@Base 5.0.0
 (optional=templinst)_ZNSt20__uninitialized_copyILb0EE13__uninit_copyIPN3itk20VariableLengthVectorIdEES5_EET0_T_S7_S6_@Base 5.0.0
 (optional=templinst)_ZNSt20__uninitialized_copyILb0EE13__uninit_copyIPNSt7__cxx1112basic_stringIcSt11char_traitsIcESaIcEEES8_EET0_T_SA_S9_@Base 5.0.0
 (optional=templinst)_ZNSt20__uninitialized_copyILb0EE13__uninit_copyIPSt6vectorIfSaIfEES5_EET0_T_S7_S6_@Base 5.0.0
 (optional=templinst)_ZNSt3mapISsiSt4lessISsESaISt4pairIKSsiEEEixERS3_@Base 5.0.0
 (optional=templinst)_ZNSt6vectorIN3itk11ImageRegionILj2EEESaIS2_EE13_M_insert_auxEN9__gnu_cxx17__normal_iteratorIPS2_S4_EERKS2_@Base 5.0.0
 (optional=templinst)_ZNSt6vectorIN3itk11ImageRegionILj2EEESaIS2_EED1Ev@Base 5.0.0
 (optional=templinst)_ZNSt6vectorIN3itk11ImageRegionILj2EEESaIS2_EED2Ev@Base 5.0.0
 (optional=templinst)_ZNSt6vectorIN3itk12SmartPointerINS0_10Statistics10ListSampleINS0_6VectorIdLj1EEEEEEESaIS7_EE13_M_insert_auxEN9__gnu_cxx17__normal_iteratorIPS7_S9_EERKS7_@Base 5.0.0
 (optional=templinst|arch=i386)_ZNSt6vectorIN3itk12SmartPointerINS0_10Statistics10ListSampleINS0_6VectorIdLj1EEEEEEESaIS7_EE7reserveEj@Base 5.0.0
 (optional=templinst)_ZNSt6vectorIN3itk12SmartPointerINS0_10Statistics10ListSampleINS0_6VectorIdLj1EEEEEEESaIS7_EE7reserveEm@Base 5.0.0
 (optional=templinst)_ZNSt6vectorIN3itk20VariableLengthVectorIdEESaIS2_EE13_M_insert_auxEN9__gnu_cxx17__normal_iteratorIPS2_S4_EERKS2_@Base 5.0.0
 (optional=templinst|arch=i386)_ZNSt6vectorIN3itk20VariableLengthVectorIdEESaIS2_EE7reserveEj@Base 5.0.0
 (optional=templinst)_ZNSt6vectorIN3itk20VariableLengthVectorIdEESaIS2_EE7reserveEm@Base 5.0.0
 (optional=templinst)_ZNSt6vectorIN3itk20VariableLengthVectorIdEESaIS2_EED1Ev@Base 5.0.0
 (optional=templinst)_ZNSt6vectorIN3itk20VariableLengthVectorIdEESaIS2_EED2Ev@Base 5.0.0
 (optional=templinst)_ZNSt6vectorIN3itk6OffsetILj2EEESaIS2_EE13_M_insert_auxEN9__gnu_cxx17__normal_iteratorIPS2_S4_EERKS2_@Base 5.0.0
 (optional=templinst)_ZNSt6vectorIN3itk6VectorIdLj1EEESaIS2_EE13_M_insert_auxEN9__gnu_cxx17__normal_iteratorIPS2_S4_EERKS2_@Base 5.0.0
 (optional=templinst)_ZNSt6vectorIN3itk6VectorIdLj1EEESaIS2_EEaSERKS4_@Base 5.0.0
 (optional=templinst)_ZNSt6vectorINSt7__cxx1112basic_stringIcSt11char_traitsIcESaIcEEESaIS5_EE13_M_insert_auxEN9__gnu_cxx17__normal_iteratorIPS5_S7_EERKS5_@Base 5.0.0
 (optional=templinst)_ZNSt6vectorINSt7__cxx1112basic_stringIcSt11char_traitsIcESaIcEEESaIS5_EE9push_backERKS5_@Base 5.0.0
 (optional=templinst)_ZNSt6vectorINSt7__cxx1112basic_stringIcSt11char_traitsIcESaIcEEESaIS5_EED1Ev@Base 5.0.0
 (optional=templinst)_ZNSt6vectorINSt7__cxx1112basic_stringIcSt11char_traitsIcESaIcEEESaIS5_EED2Ev@Base 5.0.0
 (optional=templinst)_ZNSt6vectorINSt7__cxx1112basic_stringIcSt11char_traitsIcESaIcEEESaIS5_EEaSERKS7_@Base 5.0.0
 (optional=templinst|arch=i386)_ZNSt6vectorIS_IfSaIfEESaIS1_EE14_M_fill_insertEN9__gnu_cxx17__normal_iteratorIPS1_S3_EEjRKS1_@Base 5.0.0
 (optional=templinst)_ZNSt6vectorIS_IfSaIfEESaIS1_EE14_M_fill_insertEN9__gnu_cxx17__normal_iteratorIPS1_S3_EEmRKS1_@Base 5.0.0
 (optional=templinst)_ZNSt6vectorIS_IfSaIfEESaIS1_EED1Ev@Base 5.0.0
 (optional=templinst)_ZNSt6vectorIS_IfSaIfEESaIS1_EED2Ev@Base 5.0.0
 (optional=templinst)_ZNSt6vectorIS_IfSaIfEESaIS1_EEaSERKS3_@Base 5.0.0
 (optional=templinst)_ZNSt6vectorISsSaISsEE13_M_insert_auxEN9__gnu_cxx17__normal_iteratorIPSsS1_EERKSs@Base 5.0.0
 (optional=templinst)_ZNSt6vectorISsSaISsEE9push_backERKSs@Base 5.0.0
 (optional=templinst)_ZNSt6vectorISsSaISsEED1Ev@Base 5.0.0
 (optional=templinst)_ZNSt6vectorISsSaISsEED2Ev@Base 5.0.0
 (optional=templinst)_ZNSt6vectorISsSaISsEEaSERKS1_@Base 5.0.0
 (optional=templinst)_ZNSt6vectorIdSaIdEEaSERKS1_@Base 5.0.0
 (optional=templinst|arch=i386)_ZNSt6vectorIfSaIfEE14_M_fill_insertEN9__gnu_cxx17__normal_iteratorIPfS1_EEjRKf@Base 5.0.0
 (optional=templinst)_ZNSt6vectorIfSaIfEE14_M_fill_insertEN9__gnu_cxx17__normal_iteratorIPfS1_EEmRKf@Base 5.0.0
 (optional=templinst)_ZNSt6vectorIfSaIfEEaSERKS1_@Base 5.0.0
 (optional=templinst)_ZNSt6vectorIjSaIjEE13_M_insert_auxEN9__gnu_cxx17__normal_iteratorIPjS1_EERKj@Base 5.0.0
 (optional=templinst)_ZNSt6vectorIjSaIjEEaSERKS1_@Base 5.0.0
 (optional=templinst|arch=i386)_ZNSt6vectorImSaImEE14_M_fill_insertEN9__gnu_cxx17__normal_iteratorIPmS1_EEjRKm@Base 5.0.0
 (optional=templinst)_ZNSt6vectorImSaImEE14_M_fill_insertEN9__gnu_cxx17__normal_iteratorIPmS1_EEmRKm@Base 5.0.0
 (optional=templinst)_ZNSt6vectorImSaImEEaSERKS1_@Base 5.0.0
 (optional=templinst)_ZNSt7__cxx1110_List_baseIN3itk12SmartPointerINS1_11LightObjectEEESaIS4_EE8_M_clearEv@Base 5.0.0
 (optional=templinst)_ZNSt7__cxx1115basic_stringbufIcSt11char_traitsIcESaIcEED0Ev@Base 5.0.0
 (optional=templinst)_ZNSt7__cxx1115basic_stringbufIcSt11char_traitsIcESaIcEED1Ev@Base 5.0.0
 (optional=templinst)_ZNSt7__cxx1115basic_stringbufIcSt11char_traitsIcESaIcEED2Ev@Base 5.0.0
 (optional=templinst)_ZNSt8_Rb_treeINSt7__cxx1112basic_stringIcSt11char_traitsIcESaIcEEESt4pairIKS5_iESt10_Select1stIS8_ESt4lessIS5_ESaIS8_EE24_M_get_insert_unique_posERS7_@Base 5.0.0
 (optional=templinst)_ZNSt8_Rb_treeINSt7__cxx1112basic_stringIcSt11char_traitsIcESaIcEEESt4pairIKS5_iESt10_Select1stIS8_ESt4lessIS5_ESaIS8_EE8_M_eraseEPSt13_Rb_tree_nodeIS8_E@Base 5.0.0
 (optional=templinst)_ZNSt8_Rb_treeISsSt4pairIKSsiESt10_Select1stIS2_ESt4lessISsESaIS2_EE17_M_insert_unique_ESt23_Rb_tree_const_iteratorIS2_ERKS2_@Base 5.0.0
 (optional=templinst)_ZNSt8_Rb_treeISsSt4pairIKSsiESt10_Select1stIS2_ESt4lessISsESaIS2_EE24_M_get_insert_unique_posERS1_@Base 5.0.0
 (optional=templinst)_ZNSt8_Rb_treeISsSt4pairIKSsiESt10_Select1stIS2_ESt4lessISsESaIS2_EE8_M_eraseEPSt13_Rb_tree_nodeIS2_E@Base 5.0.0
 (optional=templinst)_ZSt11__make_heapIN9__gnu_cxx17__normal_iteratorIPNSt7__cxx1112basic_stringIcSt11char_traitsIcESaIcEEESt6vectorIS7_SaIS7_EEEENS0_5__ops15_Iter_less_iterEEvT_SF_T0_@Base 5.0.0
 (optional=templinst)_ZSt11__make_heapIN9__gnu_cxx17__normal_iteratorIPSsSt6vectorISsSaISsEEEENS0_5__ops15_Iter_less_iterEEvT_S9_T0_@Base 5.0.0
 (optional=templinst|arch=i386)_ZSt13__adjust_heapIN9__gnu_cxx17__normal_iteratorIPNSt7__cxx1112basic_stringIcSt11char_traitsIcESaIcEEESt6vectorIS7_SaIS7_EEEEiS7_NS0_5__ops15_Iter_less_iterEEvT_T0_SG_T1_T2_@Base 5.0.0
 (optional=templinst|arch=amd64)_ZSt13__adjust_heapIN9__gnu_cxx17__normal_iteratorIPNSt7__cxx1112basic_stringIcSt11char_traitsIcESaIcEEESt6vectorIS7_SaIS7_EEEElS7_NS0_5__ops15_Iter_less_iterEEvT_T0_SG_T1_T2_@Base 5.0.0
 (optional=templinst)_ZSt13__adjust_heapIN9__gnu_cxx17__normal_iteratorIPSsSt6vectorISsSaISsEEEElSsNS0_5__ops15_Iter_less_iterEEvT_T0_SA_T1_T2_@Base 5.0.0
 (optional=templinst)_ZSt16__insertion_sortIN9__gnu_cxx17__normal_iteratorIPNSt7__cxx1112basic_stringIcSt11char_traitsIcESaIcEEESt6vectorIS7_SaIS7_EEEENS0_5__ops15_Iter_less_iterEEvT_SF_T0_@Base 5.0.0
 (optional=templinst)_ZSt16__insertion_sortIN9__gnu_cxx17__normal_iteratorIPSsSt6vectorISsSaISsEEEENS0_5__ops15_Iter_less_iterEEvT_S9_T0_@Base 5.0.0
 (optional=templinst)_ZSt25__unguarded_linear_insertIN9__gnu_cxx17__normal_iteratorIPNSt7__cxx1112basic_stringIcSt11char_traitsIcESaIcEEESt6vectorIS7_SaIS7_EEEENS0_5__ops14_Val_less_iterEEvT_T0_@Base 5.0.0
 (optional=templinst)_ZSt25__unguarded_linear_insertIN9__gnu_cxx17__normal_iteratorIPSsSt6vectorISsSaISsEEEENS0_5__ops14_Val_less_iterEEvT_T0_@Base 5.0.0
 (optional=templinst)_ZSteqIcEN9__gnu_cxx11__enable_ifIXsrSt9__is_charIT_E7__valueEbE6__typeERKNSt7__cxx1112basic_stringIS3_St11char_traitsIS3_ESaIS3_EEESE_@Base 5.0.0
 (optional=templinst)_ZSteqIcEN9__gnu_cxx11__enable_ifIXsrSt9__is_charIT_E7__valueEbE6__typeERKSbIS3_St11char_traitsIS3_ESaIS3_EESC_@Base 5.0.0
 (optional=templinst|arch=i386)_ZSteqIdSaIdEEbRKSt6vectorIT_T0_ES6_@Base 5.0.0
 (optional=templinst|arch=amd64)_ZStneIdSaIdEEbRKSt6vectorIT_T0_ES6_@Base 5.0.0
 (optional=templinst)_ZStplIcSt11char_traitsIcESaIcEENSt7__cxx1112basic_stringIT_T0_T1_EEPKS5_RKS8_@Base 5.0.0
 (optional=templinst)_ZStplIcSt11char_traitsIcESaIcEESbIT_T0_T1_EPKS3_RKS6_@Base 5.0.0
 (optional=templinst)_ZStplIcSt11char_traitsIcESaIcEESbIT_T0_T1_ERKS6_PKS3_@Base 5.0.0
 _ZTI18vnl_matrix_inverseIdE@Base 5.0.0
 _ZTI7vnl_svdIdE@Base 5.0.0
 _ZTIN3itk10StartEventE@Base 5.0.0
 _ZTIN3itk10Statistics10ListSampleINS_6VectorIdLj1EEEEE@Base 5.0.0
 _ZTIN3itk10Statistics23SampleToHistogramFilterINS0_10ListSampleINS_6VectorIdLj1EEEEENS0_9HistogramIfNS0_24DenseFrequencyContainer2EEEEE@Base 5.0.0
 _ZTIN3itk10Statistics6SampleINS_5ArrayIfEEEE@Base 5.0.0
 _ZTIN3itk10Statistics6SampleINS_6VectorIdLj1EEEEE@Base 5.0.0
 _ZTIN3itk10Statistics9HistogramIfNS0_24DenseFrequencyContainer2EEE@Base 5.0.0
 _ZTIN3itk11ImageRegionILj2EEE@Base 5.0.0
 _ZTIN3itk11ImageRegionILj6EEE@Base 5.0.0
 _ZTIN3itk11ImageSourceIN3otb11VectorImageIdLj2EEEEE@Base 5.0.0
 _ZTIN3itk11ImageSourceIN3otb11VectorImageIhLj2EEEEE@Base 5.0.0
 _ZTIN3itk11ImageSourceIN3otb5ImageIdLj6EEEEE@Base 5.0.0
 _ZTIN3itk11VectorImageIdLj2EEE@Base 5.0.0
 _ZTIN3itk11VectorImageIhLj2EEE@Base 5.0.0
 _ZTIN3itk12NeighborhoodINS_20VariableLengthVectorIdEELj2ENS_21NeighborhoodAllocatorIS2_EEEE@Base 5.0.0
 _ZTIN3itk12NeighborhoodIPdLj2ENS_21NeighborhoodAllocatorIS1_EEEE@Base 5.0.0
 _ZTIN3itk13MemberCommandIN3otb15ImageFileWriterINS1_11VectorImageIhLj2EEEEEEE@Base 5.0.0
 _ZTIN3itk13ProgressEventE@Base 5.0.0
 _ZTIN3itk14MetaDataObjectIN3otb16ImageKeywordlistEEE@Base 5.0.0
 _ZTIN3itk17ImageSourceCommonE@Base 5.0.0
 _ZTIN3itk18ExtractImageFilterIN3otb11VectorImageIhLj2EEES3_EE@Base 5.0.0
 _ZTIN3itk18ImageConstIteratorIN3otb11VectorImageIdLj2EEEEE@Base 5.0.0
 _ZTIN3itk18ImageConstIteratorIN3otb11VectorImageIhLj2EEEEE@Base 5.0.0
 _ZTIN3itk18ImageConstIteratorIN3otb5ImageIhLj2EEEEE@Base 5.0.0
 _ZTIN3itk18ImageToImageFilterIN3otb11VectorImageIdLj2EEENS2_IhLj2EEEEE@Base 5.0.0
 _ZTIN3itk18ImageToImageFilterIN3otb11VectorImageIdLj2EEES3_EE@Base 5.0.0
 _ZTIN3itk18ImageToImageFilterIN3otb11VectorImageIhLj2EEES3_EE@Base 5.0.0
 _ZTIN3itk18InPlaceImageFilterIN3otb11VectorImageIdLj2EEENS2_IhLj2EEEEE@Base 5.0.0
 _ZTIN3itk18InPlaceImageFilterIN3otb11VectorImageIhLj2EEES3_EE@Base 5.0.0
 _ZTIN3itk19ImageRegionIteratorIN3otb11VectorImageIdLj2EEEEE@Base 5.0.0
 _ZTIN3itk19ImageRegionIteratorIN3otb11VectorImageIhLj2EEEEE@Base 5.0.0
 _ZTIN3itk19ImageRegionSplitterILj2EEE@Base 5.0.0
 _ZTIN3itk20DefaultPixelAccessorIhEE@Base 5.0.0
 _ZTIN3itk20ImportImageContainerImdEE@Base 5.0.0
 _ZTIN3itk20ImportImageContainerImhEE@Base 5.0.0
 _ZTIN3itk20VariableLengthVectorIhEE@Base 5.0.0
 _ZTIN3itk21ImageScanlineIteratorIN3otb11VectorImageIhLj2EEEEE@Base 5.0.0
 _ZTIN3itk22ImageBoundaryConditionIN3otb11VectorImageIdLj2EEES3_EE@Base 5.0.0
 _ZTIN3itk23UnaryFunctorImageFilterIN3otb11VectorImageIdLj2EEENS2_IhLj2EEENS1_7Functor21VectorAffineTransformINS_20VariableLengthVectorIdEENS7_IhEEEEEE@Base 5.0.0
 _ZTIN3itk24BinaryFunctorImageFilterIN3otb11VectorImageIhLj2EEENS1_5ImageIhLj2EEES3_NS1_7Functor11MaskFunctorINS_20VariableLengthVectorIdEEhNS8_IhEEEEEE@Base 5.0.0
 _ZTIN3itk24ImageFileWriterExceptionE@Base 5.0.0
 _ZTIN3itk24ImageRegionConstIteratorIN3otb11VectorImageIdLj2EEEEE@Base 5.0.0
 _ZTIN3itk24ImageRegionConstIteratorIN3otb11VectorImageIhLj2EEEEE@Base 5.0.0
 _ZTIN3itk24ImageToImageFilterCommonE@Base 5.0.0
 _ZTIN3itk25ConstNeighborhoodIteratorIN3otb11VectorImageIdLj2EEENS_32ZeroFluxNeumannBoundaryConditionIS3_S3_EEEE@Base 5.0.0
 _ZTIN3itk25MissingHistogramSizeInputE@Base 5.0.0
 _ZTIN3itk25SimpleDataObjectDecoratorINS_20VariableLengthVectorIhEEEE@Base 5.0.0
 _ZTIN3itk25SimpleDataObjectDecoratorINS_5ArrayIfEEEE@Base 5.0.0
 _ZTIN3itk25SimpleDataObjectDecoratorINS_5ArrayImEEEE@Base 5.0.0
 _ZTIN3itk25SimpleDataObjectDecoratorIbEE@Base 5.0.0
 _ZTIN3itk25SimpleDataObjectDecoratorIfEE@Base 5.0.0
 _ZTIN3itk25SimpleDataObjectDecoratorIhEE@Base 5.0.0
 _ZTIN3itk26DefaultVectorPixelAccessorIdEE@Base 5.0.0
 _ZTIN3itk26DefaultVectorPixelAccessorIhEE@Base 5.0.0
 _ZTIN3itk26ImageScanlineConstIteratorIN3otb11VectorImageIdLj2EEEEE@Base 5.0.0
 _ZTIN3itk26ImageScanlineConstIteratorIN3otb11VectorImageIhLj2EEEEE@Base 5.0.0
 _ZTIN3itk26ImageScanlineConstIteratorIN3otb5ImageIhLj2EEEEE@Base 5.0.0
 _ZTIN3itk31MissingHistogramBinMaximumInputE@Base 5.0.0
 _ZTIN3itk31MissingHistogramBinMinimumInputE@Base 5.0.0
 _ZTIN3itk32HistogramWrongNumberOfComponentsE@Base 5.0.0
 _ZTIN3itk32SampleToHistogramFilterExceptionE@Base 5.0.0
 _ZTIN3itk32ZeroFluxNeumannBoundaryConditionIN3otb11VectorImageIdLj2EEES3_EE@Base 5.0.0
 _ZTIN3itk34MissingHistogramMarginalScaleInputE@Base 5.0.0
 _ZTIN3itk43NullSizeHistogramInputMeasurementVectorSizeE@Base 5.0.0
 _ZTIN3itk5ImageIdLj6EEE@Base 5.0.0
 _ZTIN3itk5ImageIhLj2EEE@Base 5.0.0
 _ZTIN3itk8AnyEventE@Base 5.0.0
 _ZTIN3itk8EndEventE@Base 5.0.0
 _ZTIN3itk9ImageBaseILj2EEE@Base 5.0.0
 _ZTIN3itk9ImageBaseILj6EEE@Base 5.0.0
 _ZTIN3otb10ObjectListIN3itk10Statistics10ListSampleINS1_6VectorIdLj1EEEEEEE@Base 5.0.0
 _ZTIN3otb11VectorImageIdLj2EEE@Base 5.0.0
 _ZTIN3otb11VectorImageIhLj2EEE@Base 5.0.0
 _ZTIN3otb14ExtractROIBaseINS_11VectorImageIdLj2EEES2_EE@Base 5.0.0
 _ZTIN3otb15ImageFileReaderINS_11VectorImageIdLj2EEENS_25DefaultConvertPixelTraitsIdEEEE@Base 5.0.0
 _ZTIN3otb15ImageFileReaderINS_5ImageIdLj6EEENS_25DefaultConvertPixelTraitsIdEEEE@Base 5.0.0
 _ZTIN3otb15ImageFileWriterINS_11VectorImageIhLj2EEEEE@Base 5.0.0
 _ZTIN3otb16StreamingManagerINS_11VectorImageIhLj2EEEEE@Base 5.0.0
 _ZTIN3otb20PrintableImageFilterINS_11VectorImageIdLj2EEENS_5ImageIhLj2EEEEE@Base 5.0.0
 _ZTIN3otb21DifferenceImageFilterINS_11VectorImageIdLj2EEES2_EE@Base 5.0.0
 _ZTIN3otb22MultiChannelExtractROIIddEE@Base 5.0.0
 _ZTIN3otb24ImageFileReaderExceptionE@Base 5.0.0
 _ZTIN3otb29ImageRegionAdaptativeSplitterILj2EEE@Base 5.0.0
 _ZTIN3otb29ImageRegionSquareTileSplitterILj2EEE@Base 5.0.0
 _ZTIN3otb30RAMDrivenTiledStreamingManagerINS_11VectorImageIhLj2EEEEE@Base 5.0.0
 _ZTIN3otb31ExtendedFilenameToReaderOptionsE@Base 5.0.0
 _ZTIN3otb31ExtendedFilenameToWriterOptionsE@Base 5.0.0
 _ZTIN3otb33RAMDrivenStrippedStreamingManagerINS_11VectorImageIhLj2EEEEE@Base 5.0.0
 _ZTIN3otb33VectorRescaleIntensityImageFilterINS_11VectorImageIdLj2EEENS1_IhLj2EEEEE@Base 5.0.0
 _ZTIN3otb34TileDimensionTiledStreamingManagerINS_11VectorImageIhLj2EEEEE@Base 5.0.0
 _ZTIN3otb35RAMDrivenAdaptativeStreamingManagerINS_11VectorImageIhLj2EEEEE@Base 5.0.0
 _ZTIN3otb37NumberOfLinesStrippedStreamingManagerINS_11VectorImageIhLj2EEEEE@Base 5.0.0
 _ZTIN3otb38NumberOfDivisionsTiledStreamingManagerINS_11VectorImageIhLj2EEEEE@Base 5.0.0
 _ZTIN3otb41NumberOfDivisionsStrippedStreamingManagerINS_11VectorImageIhLj2EEEEE@Base 5.0.0
 _ZTIN3otb5ImageIdLj6EEE@Base 5.0.0
 _ZTIN3otb5ImageIhLj2EEE@Base 5.0.0
 _ZTIN3otb7Functor21VectorAffineTransformIN3itk20VariableLengthVectorIdEENS3_IhEEEE@Base 5.0.0
 _ZTS18vnl_matrix_inverseIdE@Base 5.0.0
 _ZTS7vnl_svdIdE@Base 5.0.0
 _ZTSN3itk10StartEventE@Base 5.0.0
 _ZTSN3itk10Statistics10ListSampleINS_6VectorIdLj1EEEEE@Base 5.0.0
 _ZTSN3itk10Statistics23SampleToHistogramFilterINS0_10ListSampleINS_6VectorIdLj1EEEEENS0_9HistogramIfNS0_24DenseFrequencyContainer2EEEEE@Base 5.0.0
 _ZTSN3itk10Statistics6SampleINS_5ArrayIfEEEE@Base 5.0.0
 _ZTSN3itk10Statistics6SampleINS_6VectorIdLj1EEEEE@Base 5.0.0
 _ZTSN3itk10Statistics9HistogramIfNS0_24DenseFrequencyContainer2EEE@Base 5.0.0
 _ZTSN3itk11ImageRegionILj2EEE@Base 5.0.0
 _ZTSN3itk11ImageRegionILj6EEE@Base 5.0.0
 _ZTSN3itk11ImageSourceIN3otb11VectorImageIdLj2EEEEE@Base 5.0.0
 _ZTSN3itk11ImageSourceIN3otb11VectorImageIhLj2EEEEE@Base 5.0.0
 _ZTSN3itk11ImageSourceIN3otb5ImageIdLj6EEEEE@Base 5.0.0
 _ZTSN3itk11VectorImageIdLj2EEE@Base 5.0.0
 _ZTSN3itk11VectorImageIhLj2EEE@Base 5.0.0
 _ZTSN3itk12NeighborhoodINS_20VariableLengthVectorIdEELj2ENS_21NeighborhoodAllocatorIS2_EEEE@Base 5.0.0
 _ZTSN3itk12NeighborhoodIPdLj2ENS_21NeighborhoodAllocatorIS1_EEEE@Base 5.0.0
 _ZTSN3itk13MemberCommandIN3otb15ImageFileWriterINS1_11VectorImageIhLj2EEEEEEE@Base 5.0.0
 _ZTSN3itk13ProgressEventE@Base 5.0.0
 _ZTSN3itk14MetaDataObjectIN3otb16ImageKeywordlistEEE@Base 5.0.0
 _ZTSN3itk17ImageSourceCommonE@Base 5.0.0
 _ZTSN3itk18ExtractImageFilterIN3otb11VectorImageIhLj2EEES3_EE@Base 5.0.0
 _ZTSN3itk18ImageConstIteratorIN3otb11VectorImageIdLj2EEEEE@Base 5.0.0
 _ZTSN3itk18ImageConstIteratorIN3otb11VectorImageIhLj2EEEEE@Base 5.0.0
 _ZTSN3itk18ImageConstIteratorIN3otb5ImageIhLj2EEEEE@Base 5.0.0
 _ZTSN3itk18ImageToImageFilterIN3otb11VectorImageIdLj2EEENS2_IhLj2EEEEE@Base 5.0.0
 _ZTSN3itk18ImageToImageFilterIN3otb11VectorImageIdLj2EEES3_EE@Base 5.0.0
 _ZTSN3itk18ImageToImageFilterIN3otb11VectorImageIhLj2EEES3_EE@Base 5.0.0
 _ZTSN3itk18InPlaceImageFilterIN3otb11VectorImageIdLj2EEENS2_IhLj2EEEEE@Base 5.0.0
 _ZTSN3itk18InPlaceImageFilterIN3otb11VectorImageIhLj2EEES3_EE@Base 5.0.0
 _ZTSN3itk19ImageRegionIteratorIN3otb11VectorImageIdLj2EEEEE@Base 5.0.0
 _ZTSN3itk19ImageRegionIteratorIN3otb11VectorImageIhLj2EEEEE@Base 5.0.0
 _ZTSN3itk19ImageRegionSplitterILj2EEE@Base 5.0.0
 _ZTSN3itk20DefaultPixelAccessorIhEE@Base 5.0.0
 _ZTSN3itk20ImportImageContainerImdEE@Base 5.0.0
 _ZTSN3itk20ImportImageContainerImhEE@Base 5.0.0
 _ZTSN3itk20VariableLengthVectorIhEE@Base 5.0.0
 _ZTSN3itk21ImageScanlineIteratorIN3otb11VectorImageIhLj2EEEEE@Base 5.0.0
 _ZTSN3itk22ImageBoundaryConditionIN3otb11VectorImageIdLj2EEES3_EE@Base 5.0.0
 _ZTSN3itk23UnaryFunctorImageFilterIN3otb11VectorImageIdLj2EEENS2_IhLj2EEENS1_7Functor21VectorAffineTransformINS_20VariableLengthVectorIdEENS7_IhEEEEEE@Base 5.0.0
 _ZTSN3itk24BinaryFunctorImageFilterIN3otb11VectorImageIhLj2EEENS1_5ImageIhLj2EEES3_NS1_7Functor11MaskFunctorINS_20VariableLengthVectorIdEEhNS8_IhEEEEEE@Base 5.0.0
 _ZTSN3itk24ImageFileWriterExceptionE@Base 5.0.0
 _ZTSN3itk24ImageRegionConstIteratorIN3otb11VectorImageIdLj2EEEEE@Base 5.0.0
 _ZTSN3itk24ImageRegionConstIteratorIN3otb11VectorImageIhLj2EEEEE@Base 5.0.0
 _ZTSN3itk24ImageToImageFilterCommonE@Base 5.0.0
 _ZTSN3itk25ConstNeighborhoodIteratorIN3otb11VectorImageIdLj2EEENS_32ZeroFluxNeumannBoundaryConditionIS3_S3_EEEE@Base 5.0.0
 _ZTSN3itk25MissingHistogramSizeInputE@Base 5.0.0
 _ZTSN3itk25SimpleDataObjectDecoratorINS_20VariableLengthVectorIhEEEE@Base 5.0.0
 _ZTSN3itk25SimpleDataObjectDecoratorINS_5ArrayIfEEEE@Base 5.0.0
 _ZTSN3itk25SimpleDataObjectDecoratorINS_5ArrayImEEEE@Base 5.0.0
 _ZTSN3itk25SimpleDataObjectDecoratorIbEE@Base 5.0.0
 _ZTSN3itk25SimpleDataObjectDecoratorIfEE@Base 5.0.0
 _ZTSN3itk25SimpleDataObjectDecoratorIhEE@Base 5.0.0
 _ZTSN3itk26DefaultVectorPixelAccessorIdEE@Base 5.0.0
 _ZTSN3itk26DefaultVectorPixelAccessorIhEE@Base 5.0.0
 _ZTSN3itk26ImageScanlineConstIteratorIN3otb11VectorImageIdLj2EEEEE@Base 5.0.0
 _ZTSN3itk26ImageScanlineConstIteratorIN3otb11VectorImageIhLj2EEEEE@Base 5.0.0
 _ZTSN3itk26ImageScanlineConstIteratorIN3otb5ImageIhLj2EEEEE@Base 5.0.0
 _ZTSN3itk31MissingHistogramBinMaximumInputE@Base 5.0.0
 _ZTSN3itk31MissingHistogramBinMinimumInputE@Base 5.0.0
 _ZTSN3itk32HistogramWrongNumberOfComponentsE@Base 5.0.0
 _ZTSN3itk32SampleToHistogramFilterExceptionE@Base 5.0.0
 _ZTSN3itk32ZeroFluxNeumannBoundaryConditionIN3otb11VectorImageIdLj2EEES3_EE@Base 5.0.0
 _ZTSN3itk34MissingHistogramMarginalScaleInputE@Base 5.0.0
 _ZTSN3itk43NullSizeHistogramInputMeasurementVectorSizeE@Base 5.0.0
 _ZTSN3itk5ArrayIfEE@Base 5.0.0
 _ZTSN3itk5ArrayImEE@Base 5.0.0
 _ZTSN3itk5ImageIdLj6EEE@Base 5.0.0
 _ZTSN3itk5ImageIhLj2EEE@Base 5.0.0
 _ZTSN3itk8AnyEventE@Base 5.0.0
 _ZTSN3itk8EndEventE@Base 5.0.0
 _ZTSN3itk9ImageBaseILj2EEE@Base 5.0.0
 _ZTSN3itk9ImageBaseILj6EEE@Base 5.0.0
 _ZTSN3otb10ObjectListIN3itk10Statistics10ListSampleINS1_6VectorIdLj1EEEEEEE@Base 5.0.0
 _ZTSN3otb11VectorImageIdLj2EEE@Base 5.0.0
 _ZTSN3otb11VectorImageIhLj2EEE@Base 5.0.0
 _ZTSN3otb14ExtractROIBaseINS_11VectorImageIdLj2EEES2_EE@Base 5.0.0
 _ZTSN3otb15ImageFileReaderINS_11VectorImageIdLj2EEENS_25DefaultConvertPixelTraitsIdEEEE@Base 5.0.0
 _ZTSN3otb15ImageFileReaderINS_5ImageIdLj6EEENS_25DefaultConvertPixelTraitsIdEEEE@Base 5.0.0
 _ZTSN3otb15ImageFileWriterINS_11VectorImageIhLj2EEEEE@Base 5.0.0
 _ZTSN3otb16StreamingManagerINS_11VectorImageIhLj2EEEEE@Base 5.0.0
 _ZTSN3otb20PrintableImageFilterINS_11VectorImageIdLj2EEENS_5ImageIhLj2EEEEE@Base 5.0.0
 _ZTSN3otb21DifferenceImageFilterINS_11VectorImageIdLj2EEES2_EE@Base 5.0.0
 _ZTSN3otb22MultiChannelExtractROIIddEE@Base 5.0.0
 _ZTSN3otb24ImageFileReaderExceptionE@Base 5.0.0
 _ZTSN3otb29ImageRegionAdaptativeSplitterILj2EEE@Base 5.0.0
 _ZTSN3otb29ImageRegionSquareTileSplitterILj2EEE@Base 5.0.0
 _ZTSN3otb30RAMDrivenTiledStreamingManagerINS_11VectorImageIhLj2EEEEE@Base 5.0.0
 _ZTSN3otb31ExtendedFilenameToReaderOptionsE@Base 5.0.0
 _ZTSN3otb31ExtendedFilenameToWriterOptionsE@Base 5.0.0
 _ZTSN3otb33RAMDrivenStrippedStreamingManagerINS_11VectorImageIhLj2EEEEE@Base 5.0.0
 _ZTSN3otb33VectorRescaleIntensityImageFilterINS_11VectorImageIdLj2EEENS1_IhLj2EEEEE@Base 5.0.0
 _ZTSN3otb34TileDimensionTiledStreamingManagerINS_11VectorImageIhLj2EEEEE@Base 5.0.0
 _ZTSN3otb35RAMDrivenAdaptativeStreamingManagerINS_11VectorImageIhLj2EEEEE@Base 5.0.0
 _ZTSN3otb37NumberOfLinesStrippedStreamingManagerINS_11VectorImageIhLj2EEEEE@Base 5.0.0
 _ZTSN3otb38NumberOfDivisionsTiledStreamingManagerINS_11VectorImageIhLj2EEEEE@Base 5.0.0
 _ZTSN3otb41NumberOfDivisionsStrippedStreamingManagerINS_11VectorImageIhLj2EEEEE@Base 5.0.0
 _ZTSN3otb5ImageIdLj6EEE@Base 5.0.0
 _ZTSN3otb5ImageIhLj2EEE@Base 5.0.0
 _ZTSN3otb7Functor21VectorAffineTransformIN3itk20VariableLengthVectorIdEENS3_IhEEEE@Base 5.0.0
 _ZTSPKN3itk10DataObjectE@Base 5.0.0
 _ZTSPKN3itk11VectorImageIdLj2EEE@Base 5.0.0
 _ZTSPKN3itk11VectorImageIhLj2EEE@Base 5.0.0
 _ZTSPKN3itk5ImageIdLj6EEE@Base 5.0.0
 _ZTSPKN3itk9ImageBaseILj2EEE@Base 5.0.0
 _ZTSPKN3itk9ImageBaseILj6EEE@Base 5.0.0
 _ZTSPN3itk9ImageBaseILj2EEE@Base 5.0.0
 _ZTSSt7complexIdE@Base 5.0.0
 _ZTSSt7complexIfE@Base 5.0.0
 _ZTSSt7complexIiE@Base 5.0.0
 _ZTSSt7complexIsE@Base 5.0.0
 _ZTV18vnl_matrix_inverseIdE@Base 5.0.0
 _ZTV7vnl_svdIdE@Base 5.0.0
 _ZTVN3itk10StartEventE@Base 5.0.0
 _ZTVN3itk10Statistics10ListSampleINS_6VectorIdLj1EEEEE@Base 5.0.0
 _ZTVN3itk10Statistics23SampleToHistogramFilterINS0_10ListSampleINS_6VectorIdLj1EEEEENS0_9HistogramIfNS0_24DenseFrequencyContainer2EEEEE@Base 5.0.0
 _ZTVN3itk10Statistics6SampleINS_5ArrayIfEEEE@Base 5.0.0
 _ZTVN3itk10Statistics6SampleINS_6VectorIdLj1EEEEE@Base 5.0.0
 _ZTVN3itk10Statistics9HistogramIfNS0_24DenseFrequencyContainer2EEE@Base 5.0.0
 _ZTVN3itk11ImageRegionILj2EEE@Base 5.0.0
 _ZTVN3itk11ImageRegionILj6EEE@Base 5.0.0
 _ZTVN3itk11ImageSourceIN3otb11VectorImageIdLj2EEEEE@Base 5.0.0
 _ZTVN3itk11ImageSourceIN3otb11VectorImageIhLj2EEEEE@Base 5.0.0
 _ZTVN3itk11ImageSourceIN3otb5ImageIdLj6EEEEE@Base 5.0.0
 _ZTVN3itk11VectorImageIdLj2EEE@Base 5.0.0
 _ZTVN3itk11VectorImageIhLj2EEE@Base 5.0.0
 _ZTVN3itk12NeighborhoodINS_20VariableLengthVectorIdEELj2ENS_21NeighborhoodAllocatorIS2_EEEE@Base 5.0.0
 _ZTVN3itk12NeighborhoodIPdLj2ENS_21NeighborhoodAllocatorIS1_EEEE@Base 5.0.0
 _ZTVN3itk13MemberCommandIN3otb15ImageFileWriterINS1_11VectorImageIhLj2EEEEEEE@Base 5.0.0
 _ZTVN3itk13ProgressEventE@Base 5.0.0
 _ZTVN3itk14MetaDataObjectIN3otb16ImageKeywordlistEEE@Base 5.0.0
 _ZTVN3itk18ExtractImageFilterIN3otb11VectorImageIhLj2EEES3_EE@Base 5.0.0
 _ZTVN3itk18ImageConstIteratorIN3otb11VectorImageIdLj2EEEEE@Base 5.0.0
 _ZTVN3itk18ImageConstIteratorIN3otb11VectorImageIhLj2EEEEE@Base 5.0.0
 _ZTVN3itk18ImageConstIteratorIN3otb5ImageIhLj2EEEEE@Base 5.0.0
 _ZTVN3itk18ImageToImageFilterIN3otb11VectorImageIdLj2EEENS2_IhLj2EEEEE@Base 5.0.0
 _ZTVN3itk18ImageToImageFilterIN3otb11VectorImageIdLj2EEES3_EE@Base 5.0.0
 _ZTVN3itk18ImageToImageFilterIN3otb11VectorImageIhLj2EEES3_EE@Base 5.0.0
 _ZTVN3itk18InPlaceImageFilterIN3otb11VectorImageIdLj2EEENS2_IhLj2EEEEE@Base 5.0.0
 _ZTVN3itk18InPlaceImageFilterIN3otb11VectorImageIhLj2EEES3_EE@Base 5.0.0
 _ZTVN3itk19ImageRegionIteratorIN3otb11VectorImageIdLj2EEEEE@Base 5.0.0
 _ZTVN3itk19ImageRegionIteratorIN3otb11VectorImageIhLj2EEEEE@Base 5.0.0
 _ZTVN3itk19ImageRegionSplitterILj2EEE@Base 5.0.0
 _ZTVN3itk20DefaultPixelAccessorIhEE@Base 5.0.0
 _ZTVN3itk20ImportImageContainerImdEE@Base 5.0.0
 _ZTVN3itk20ImportImageContainerImhEE@Base 5.0.0
 _ZTVN3itk21ImageScanlineIteratorIN3otb11VectorImageIhLj2EEEEE@Base 5.0.0
 _ZTVN3itk22ImageBoundaryConditionIN3otb11VectorImageIdLj2EEES3_EE@Base 5.0.0
 _ZTVN3itk23UnaryFunctorImageFilterIN3otb11VectorImageIdLj2EEENS2_IhLj2EEENS1_7Functor21VectorAffineTransformINS_20VariableLengthVectorIdEENS7_IhEEEEEE@Base 5.0.0
 _ZTVN3itk24BinaryFunctorImageFilterIN3otb11VectorImageIhLj2EEENS1_5ImageIhLj2EEES3_NS1_7Functor11MaskFunctorINS_20VariableLengthVectorIdEEhNS8_IhEEEEEE@Base 5.0.0
 _ZTVN3itk24ImageFileWriterExceptionE@Base 5.0.0
 _ZTVN3itk24ImageRegionConstIteratorIN3otb11VectorImageIdLj2EEEEE@Base 5.0.0
 _ZTVN3itk24ImageRegionConstIteratorIN3otb11VectorImageIhLj2EEEEE@Base 5.0.0
 _ZTVN3itk25ConstNeighborhoodIteratorIN3otb11VectorImageIdLj2EEENS_32ZeroFluxNeumannBoundaryConditionIS3_S3_EEEE@Base 5.0.0
 _ZTVN3itk25MissingHistogramSizeInputE@Base 5.0.0
 _ZTVN3itk25SimpleDataObjectDecoratorINS_20VariableLengthVectorIhEEEE@Base 5.0.0
 _ZTVN3itk25SimpleDataObjectDecoratorINS_5ArrayIfEEEE@Base 5.0.0
 _ZTVN3itk25SimpleDataObjectDecoratorINS_5ArrayImEEEE@Base 5.0.0
 _ZTVN3itk25SimpleDataObjectDecoratorIbEE@Base 5.0.0
 _ZTVN3itk25SimpleDataObjectDecoratorIfEE@Base 5.0.0
 _ZTVN3itk25SimpleDataObjectDecoratorIhEE@Base 5.0.0
 _ZTVN3itk26DefaultVectorPixelAccessorIdEE@Base 5.0.0
 _ZTVN3itk26DefaultVectorPixelAccessorIhEE@Base 5.0.0
 _ZTVN3itk26ImageScanlineConstIteratorIN3otb11VectorImageIdLj2EEEEE@Base 5.0.0
 _ZTVN3itk26ImageScanlineConstIteratorIN3otb11VectorImageIhLj2EEEEE@Base 5.0.0
 _ZTVN3itk26ImageScanlineConstIteratorIN3otb5ImageIhLj2EEEEE@Base 5.0.0
 _ZTVN3itk31MissingHistogramBinMaximumInputE@Base 5.0.0
 _ZTVN3itk31MissingHistogramBinMinimumInputE@Base 5.0.0
 _ZTVN3itk32HistogramWrongNumberOfComponentsE@Base 5.0.0
 _ZTVN3itk32SampleToHistogramFilterExceptionE@Base 5.0.0
 _ZTVN3itk32ZeroFluxNeumannBoundaryConditionIN3otb11VectorImageIdLj2EEES3_EE@Base 5.0.0
 _ZTVN3itk34MissingHistogramMarginalScaleInputE@Base 5.0.0
 _ZTVN3itk43NullSizeHistogramInputMeasurementVectorSizeE@Base 5.0.0
 _ZTVN3itk5ImageIdLj6EEE@Base 5.0.0
 _ZTVN3itk8AnyEventE@Base 5.0.0
 _ZTVN3itk8EndEventE@Base 5.0.0
 _ZTVN3itk9ImageBaseILj2EEE@Base 5.0.0
 _ZTVN3itk9ImageBaseILj6EEE@Base 5.0.0
 _ZTVN3otb10ObjectListIN3itk10Statistics10ListSampleINS1_6VectorIdLj1EEEEEEE@Base 5.0.0
 _ZTVN3otb11VectorImageIdLj2EEE@Base 5.0.0
 _ZTVN3otb11VectorImageIhLj2EEE@Base 5.0.0
 _ZTVN3otb14ExtractROIBaseINS_11VectorImageIdLj2EEES2_EE@Base 5.0.0
 _ZTVN3otb15ImageFileReaderINS_11VectorImageIdLj2EEENS_25DefaultConvertPixelTraitsIdEEEE@Base 5.0.0
 _ZTVN3otb15ImageFileReaderINS_5ImageIdLj6EEENS_25DefaultConvertPixelTraitsIdEEEE@Base 5.0.0
 _ZTVN3otb15ImageFileWriterINS_11VectorImageIhLj2EEEEE@Base 5.0.0
 _ZTVN3otb16StreamingManagerINS_11VectorImageIhLj2EEEEE@Base 5.0.0
 _ZTVN3otb20PrintableImageFilterINS_11VectorImageIdLj2EEENS_5ImageIhLj2EEEEE@Base 5.0.0
 _ZTVN3otb21DifferenceImageFilterINS_11VectorImageIdLj2EEES2_EE@Base 5.0.0
 _ZTVN3otb22MultiChannelExtractROIIddEE@Base 5.0.0
 _ZTVN3otb24ImageFileReaderExceptionE@Base 5.0.0
 _ZTVN3otb29ImageRegionAdaptativeSplitterILj2EEE@Base 5.0.0
 _ZTVN3otb29ImageRegionSquareTileSplitterILj2EEE@Base 5.0.0
 _ZTVN3otb30RAMDrivenTiledStreamingManagerINS_11VectorImageIhLj2EEEEE@Base 5.0.0
 _ZTVN3otb33RAMDrivenStrippedStreamingManagerINS_11VectorImageIhLj2EEEEE@Base 5.0.0
 _ZTVN3otb33VectorRescaleIntensityImageFilterINS_11VectorImageIdLj2EEENS1_IhLj2EEEEE@Base 5.0.0
 _ZTVN3otb34TileDimensionTiledStreamingManagerINS_11VectorImageIhLj2EEEEE@Base 5.0.0
 _ZTVN3otb35RAMDrivenAdaptativeStreamingManagerINS_11VectorImageIhLj2EEEEE@Base 5.0.0
 _ZTVN3otb37NumberOfLinesStrippedStreamingManagerINS_11VectorImageIhLj2EEEEE@Base 5.0.0
 _ZTVN3otb38NumberOfDivisionsTiledStreamingManagerINS_11VectorImageIhLj2EEEEE@Base 5.0.0
 _ZTVN3otb41NumberOfDivisionsStrippedStreamingManagerINS_11VectorImageIhLj2EEEEE@Base 5.0.0
 _ZTVN3otb5ImageIdLj6EEE@Base 5.0.0
 _ZTVN3otb7Functor21VectorAffineTransformIN3itk20VariableLengthVectorIdEENS3_IhEEEE@Base 5.0.0
