# SymbolsHelper-Confirmed: 5.0.0 amd64 i386
libOTBQtWidget-5.0.so.1 libotbqtwidget-5.0-1 #MINVER#
 _ZN10QByteArrayD1Ev@Base 5.0.0
 _ZN10QByteArrayD2Ev@Base 5.0.0
 _ZN3itk10LoggerBase18SetTimeStampFormatENS0_19TimeStampFormatTypeE@Base 5.0.0
 _ZN3itk10Statistics37MersenneTwisterRandomVariateGenerator10GetVariateEv@Base 5.0.0
 _ZN3itk10Statistics37MersenneTwisterRandomVariateGeneratorD0Ev@Base 5.0.0
 _ZN3itk10Statistics37MersenneTwisterRandomVariateGeneratorD1Ev@Base 5.0.0
 _ZN3itk10Statistics37MersenneTwisterRandomVariateGeneratorD2Ev@Base 5.0.0
 (optional=templinst)_ZN3itk13MemberCommandIN3otb7Wrapper22QtWidgetProgressReportEE7ExecuteEPKNS_6ObjectERKNS_11EventObjectE@Base 5.0.0
 (optional=templinst)_ZN3itk13MemberCommandIN3otb7Wrapper22QtWidgetProgressReportEE7ExecuteEPNS_6ObjectERKNS_11EventObjectE@Base 5.0.0
 (optional=templinst)_ZN3itk13MemberCommandIN3otb7Wrapper22QtWidgetProgressReportEED0Ev@Base 5.0.0
 (optional=templinst)_ZN3itk13MemberCommandIN3otb7Wrapper22QtWidgetProgressReportEED1Ev@Base 5.0.0
 (optional=templinst)_ZN3itk13MemberCommandIN3otb7Wrapper22QtWidgetProgressReportEED2Ev@Base 5.0.0
 (optional=templinst)_ZN3itk13MemberCommandIN3otb7Wrapper28QtWidgetSimpleProgressReportEE7ExecuteEPKNS_6ObjectERKNS_11EventObjectE@Base 5.0.0
 (optional=templinst)_ZN3itk13MemberCommandIN3otb7Wrapper28QtWidgetSimpleProgressReportEE7ExecuteEPNS_6ObjectERKNS_11EventObjectE@Base 5.0.0
 (optional=templinst)_ZN3itk13MemberCommandIN3otb7Wrapper28QtWidgetSimpleProgressReportEED0Ev@Base 5.0.0
 (optional=templinst)_ZN3itk13MemberCommandIN3otb7Wrapper28QtWidgetSimpleProgressReportEED1Ev@Base 5.0.0
 (optional=templinst)_ZN3itk13MemberCommandIN3otb7Wrapper28QtWidgetSimpleProgressReportEED2Ev@Base 5.0.0
 (optional=templinst)_ZN3itk13MemberCommandINS_13QtProgressBarEE7ExecuteEPKNS_6ObjectERKNS_11EventObjectE@Base 5.0.0
 (optional=templinst)_ZN3itk13MemberCommandINS_13QtProgressBarEE7ExecuteEPNS_6ObjectERKNS_11EventObjectE@Base 5.0.0
 (optional=templinst)_ZN3itk13MemberCommandINS_13QtProgressBarEED0Ev@Base 5.0.0
 (optional=templinst)_ZN3itk13MemberCommandINS_13QtProgressBarEED1Ev@Base 5.0.0
 (optional=templinst)_ZN3itk13MemberCommandINS_13QtProgressBarEED2Ev@Base 5.0.0
 _ZN3itk13ProgressEventD0Ev@Base 5.0.0
 _ZN3itk13ProgressEventD1Ev@Base 5.0.0
 _ZN3itk13ProgressEventD2Ev@Base 5.0.0
 _ZN3itk13QtProgressBar11qt_metacallEN11QMetaObject4CallEiPPv@Base 5.0.0
 _ZN3itk13QtProgressBar11qt_metacastEPKc@Base 5.0.0
 _ZN3itk13QtProgressBar12ProcessEventEPNS_6ObjectERKNS_11EventObjectE@Base 5.0.0
 _ZN3itk13QtProgressBar15SetValueChangedEi@Base 5.0.0
 _ZN3itk13QtProgressBar16staticMetaObjectE@Base 5.0.0
 _ZN3itk13QtProgressBar17ConstProcessEventEPKNS_6ObjectERKNS_11EventObjectE@Base 5.0.0
 _ZN3itk13QtProgressBar7ObserveEPNS_6ObjectE@Base 5.0.0
 _ZN3itk13QtProgressBarC1EP7QWidget@Base 5.0.0
 _ZN3itk13QtProgressBarC2EP7QWidget@Base 5.0.0
 _ZN3itk13QtProgressBarD0Ev@Base 5.0.0
 _ZN3itk13QtProgressBarD1Ev@Base 5.0.0
 _ZN3itk13QtProgressBarD2Ev@Base 5.0.0
 _ZN3itk6Object13SetObjectNameENSt7__cxx1112basic_stringIcSt11char_traitsIcESaIcEEE@Base 5.0.0
 _ZN3itk6Object13SetObjectNameESs@Base 5.0.0
 _ZN3itk8AnyEventD0Ev@Base 5.0.0
 _ZN3itk8AnyEventD1Ev@Base 5.0.0
 _ZN3itk8AnyEventD2Ev@Base 5.0.0
 _ZN3otb11QtLogOutput11qt_metacallEN11QMetaObject4CallEiPPv@Base 5.0.0
 _ZN3otb11QtLogOutput11qt_metacastEPKc@Base 5.0.0
 _ZN3otb11QtLogOutput13NewContentLogE7QString@Base 5.0.0
 _ZN3otb11QtLogOutput16staticMetaObjectE@Base 5.0.0
 _ZN3otb11QtLogOutput5FlushEv@Base 5.0.0
 _ZN3otb11QtLogOutput5WriteERKNSt7__cxx1112basic_stringIcSt11char_traitsIcESaIcEEE@Base 5.0.0
 _ZN3otb11QtLogOutput5WriteERKNSt7__cxx1112basic_stringIcSt11char_traitsIcESaIcEEEd@Base 5.0.0
 _ZN3otb11QtLogOutput5WriteERKSs@Base 5.0.0
 _ZN3otb11QtLogOutput5WriteERKSsd@Base 5.0.0
 _ZN3otb11QtLogOutput5WriteEd@Base 5.0.0
 _ZN3otb11QtLogOutputC1Ev@Base 5.0.0
 _ZN3otb11QtLogOutputC2Ev@Base 5.0.0
 _ZN3otb11QtLogOutputD0Ev@Base 5.0.0
 _ZN3otb11QtLogOutputD1Ev@Base 5.0.0
 _ZN3otb11QtLogOutputD2Ev@Base 5.0.0
 _ZN3otb7Wrapper11AppliThread11qt_metacallEN11QMetaObject4CallEiPPv@Base 5.0.0
 _ZN3otb7Wrapper11AppliThread11qt_metacastEPKc@Base 5.0.0
 _ZN3otb7Wrapper11AppliThread15ExceptionRaisedE7QString@Base 5.0.0
 _ZN3otb7Wrapper11AppliThread16staticMetaObjectE@Base 5.0.0
 _ZN3otb7Wrapper11AppliThread24ApplicationExecutionDoneEi@Base 5.0.0
 _ZN3otb7Wrapper11AppliThread3runEv@Base 5.0.0
 _ZN3otb7Wrapper11AppliThreadD0Ev@Base 5.0.0
 _ZN3otb7Wrapper11AppliThreadD1Ev@Base 5.0.0
 _ZN3otb7Wrapper11AppliThreadD2Ev@Base 5.0.0
 _ZN3otb7Wrapper12QtWidgetView10QuitSignalEv@Base 5.0.0
 _ZN3otb7Wrapper12QtWidgetView11qt_metacallEN11QMetaObject4CallEiPPv@Base 5.0.0
 _ZN3otb7Wrapper12QtWidgetView11qt_metacastEPKc@Base 5.0.0
 _ZN3otb7Wrapper12QtWidgetView12CreateFooterEv@Base 5.0.0
 _ZN3otb7Wrapper12QtWidgetView16staticMetaObjectE@Base 5.0.0
 _ZN3otb7Wrapper12QtWidgetView18CreateInputWidgetsEv@Base 5.0.0
 _ZN3otb7Wrapper12QtWidgetView18UnhandledExceptionE7QString@Base 5.0.0
 _ZN3otb7Wrapper12QtWidgetView31UpdateMessageAfterExcuteClickedEv@Base 5.0.0
 _ZN3otb7Wrapper12QtWidgetView34UpdateMessageAfterApplicationReadyEb@Base 5.0.0
 _ZN3otb7Wrapper12QtWidgetView9CloseSlotEv@Base 5.0.0
 _ZN3otb7Wrapper12QtWidgetView9CreateDocEv@Base 5.0.0
 _ZN3otb7Wrapper12QtWidgetView9CreateGuiEv@Base 5.0.0
 _ZN3otb7Wrapper12QtWidgetViewC1EPNS0_11ApplicationE@Base 5.0.0
 _ZN3otb7Wrapper12QtWidgetViewC2EPNS0_11ApplicationE@Base 5.0.0
 _ZN3otb7Wrapper12QtWidgetViewD0Ev@Base 5.0.0
 _ZN3otb7Wrapper12QtWidgetViewD1Ev@Base 5.0.0
 _ZN3otb7Wrapper12QtWidgetViewD2Ev@Base 5.0.0
 _ZN3otb7Wrapper12RAMParameter8GetValueEv@Base 5.0.0
 _ZN3otb7Wrapper12RAMParameter8SetValueEj@Base 5.0.0
 _ZN3otb7Wrapper13QtApplication11qt_metacallEN11QMetaObject4CallEiPPv@Base 5.0.0
 _ZN3otb7Wrapper13QtApplication11qt_metacastEPKc@Base 5.0.0
 _ZN3otb7Wrapper13QtApplication16staticMetaObjectE@Base 5.0.0
 _ZN3otb7Wrapper13QtApplication18UnhandledExceptionE7QString@Base 5.0.0
 _ZN3otb7Wrapper13QtApplication6notifyEP7QObjectP6QEvent@Base 5.0.0
 _ZN3otb7Wrapper13QtApplicationC1ERiPPc@Base 5.0.0
 _ZN3otb7Wrapper13QtApplicationC2ERiPPc@Base 5.0.0
 _ZN3otb7Wrapper13QtApplicationD0Ev@Base 5.0.0
 _ZN3otb7Wrapper13QtApplicationD1Ev@Base 5.0.0
 _ZN3otb7Wrapper13QtApplicationD2Ev@Base 5.0.0
 _ZN3otb7Wrapper13QtWidgetModel11SendLogINFOERKNSt7__cxx1112basic_stringIcSt11char_traitsIcESaIcEEE@Base 5.0.0
 _ZN3otb7Wrapper13QtWidgetModel11SendLogINFOERKSs@Base 5.0.0
 _ZN3otb7Wrapper13QtWidgetModel11qt_metacallEN11QMetaObject4CallEiPPv@Base 5.0.0
 _ZN3otb7Wrapper13QtWidgetModel11qt_metacastEPKc@Base 5.0.0
 _ZN3otb7Wrapper13QtWidgetModel12NotifyUpdateEv@Base 5.0.0
 _ZN3otb7Wrapper13QtWidgetModel12SendLogDEBUGERKNSt7__cxx1112basic_stringIcSt11char_traitsIcESaIcEEE@Base 5.0.0
 _ZN3otb7Wrapper13QtWidgetModel12SendLogDEBUGERKSs@Base 5.0.0
 _ZN3otb7Wrapper13QtWidgetModel14SendLogWARNINGERKNSt7__cxx1112basic_stringIcSt11char_traitsIcESaIcEEE@Base 5.0.0
 _ZN3otb7Wrapper13QtWidgetModel14SendLogWARNINGERKSs@Base 5.0.0
 _ZN3otb7Wrapper13QtWidgetModel15ExceptionRaisedE7QString@Base 5.0.0
 _ZN3otb7Wrapper13QtWidgetModel16staticMetaObjectE@Base 5.0.0
 _ZN3otb7Wrapper13QtWidgetModel19SetApplicationReadyEb@Base 5.0.0
 _ZN3otb7Wrapper13QtWidgetModel21SetProgressReportDoneEi@Base 5.0.0
 _ZN3otb7Wrapper13QtWidgetModel22SetProgressReportBeginEv@Base 5.0.0
 _ZN3otb7Wrapper13QtWidgetModel25ExecuteAndWriteOutputSlotEv@Base 5.0.0
 _ZN3otb7Wrapper13QtWidgetModel26OnApplicationExecutionDoneEi@Base 5.0.0
 _ZN3otb7Wrapper13QtWidgetModel9UpdateGuiEv@Base 5.0.0
 _ZN3otb7Wrapper13QtWidgetModelC1EPNS0_11ApplicationE@Base 5.0.0
 _ZN3otb7Wrapper13QtWidgetModelC2EPNS0_11ApplicationE@Base 5.0.0
 _ZN3otb7Wrapper13QtWidgetModelD0Ev@Base 5.0.0
 _ZN3otb7Wrapper13QtWidgetModelD1Ev@Base 5.0.0
 _ZN3otb7Wrapper13QtWidgetModelD2Ev@Base 5.0.0
 _ZN3otb7Wrapper18DirectoryParameter8GetValueB5cxx11Ev@Base 5.0.0
 _ZN3otb7Wrapper18DirectoryParameter8GetValueEv@Base 5.0.0
 _ZN3otb7Wrapper18DirectoryParameter8SetValueENSt7__cxx1112basic_stringIcSt11char_traitsIcESaIcEEE@Base 5.0.0
 _ZN3otb7Wrapper18DirectoryParameter8SetValueESs@Base 5.0.0
 (optional=templinst)_ZN3otb7Wrapper18NumericalParameterIfE15GetMaximumValueEv@Base 5.0.0
 (optional=templinst)_ZN3otb7Wrapper18NumericalParameterIfE15GetMinimumValueEv@Base 5.0.0
 (optional=templinst)_ZN3otb7Wrapper18NumericalParameterIiE15GetMaximumValueEv@Base 5.0.0
 (optional=templinst)_ZN3otb7Wrapper18NumericalParameterIiE15GetMinimumValueEv@Base 5.0.0
 _ZN3otb7Wrapper20OutputImageParameter12GetPixelTypeEv@Base 5.0.0
 _ZN3otb7Wrapper20OutputImageParameter12SetPixelTypeENS0_14ImagePixelTypeE@Base 5.0.0
 _ZN3otb7Wrapper20QtWidgetIntParameter11DoUpdateGUIEv@Base 5.0.0
 _ZN3otb7Wrapper20QtWidgetIntParameter11qt_metacallEN11QMetaObject4CallEiPPv@Base 5.0.0
 _ZN3otb7Wrapper20QtWidgetIntParameter11qt_metacastEPKc@Base 5.0.0
 _ZN3otb7Wrapper20QtWidgetIntParameter14DoCreateWidgetEv@Base 5.0.0
 _ZN3otb7Wrapper20QtWidgetIntParameter16staticMetaObjectE@Base 5.0.0
 _ZN3otb7Wrapper20QtWidgetIntParameter8SetValueEi@Base 5.0.0
 _ZN3otb7Wrapper20QtWidgetIntParameterC1EPNS0_18NumericalParameterIiEEPNS0_13QtWidgetModelE@Base 5.0.0
 _ZN3otb7Wrapper20QtWidgetIntParameterC2EPNS0_18NumericalParameterIiEEPNS0_13QtWidgetModelE@Base 5.0.0
 _ZN3otb7Wrapper20QtWidgetIntParameterD0Ev@Base 5.0.0
 _ZN3otb7Wrapper20QtWidgetIntParameterD1Ev@Base 5.0.0
 _ZN3otb7Wrapper20QtWidgetIntParameterD2Ev@Base 5.0.0
 _ZN3otb7Wrapper20QtWidgetRAMParameter11DoUpdateGUIEv@Base 5.0.0
 _ZN3otb7Wrapper20QtWidgetRAMParameter11qt_metacallEN11QMetaObject4CallEiPPv@Base 5.0.0
 _ZN3otb7Wrapper20QtWidgetRAMParameter11qt_metacastEPKc@Base 5.0.0
 _ZN3otb7Wrapper20QtWidgetRAMParameter14DoCreateWidgetEv@Base 5.0.0
 _ZN3otb7Wrapper20QtWidgetRAMParameter16staticMetaObjectE@Base 5.0.0
 _ZN3otb7Wrapper20QtWidgetRAMParameter8SetValueEi@Base 5.0.0
 _ZN3otb7Wrapper20QtWidgetRAMParameterC1EPNS0_12RAMParameterEPNS0_13QtWidgetModelE@Base 5.0.0
 _ZN3otb7Wrapper20QtWidgetRAMParameterC2EPNS0_12RAMParameterEPNS0_13QtWidgetModelE@Base 5.0.0
 _ZN3otb7Wrapper20QtWidgetRAMParameterD0Ev@Base 5.0.0
 _ZN3otb7Wrapper20QtWidgetRAMParameterD1Ev@Base 5.0.0
 _ZN3otb7Wrapper20QtWidgetRAMParameterD2Ev@Base 5.0.0
 _ZN3otb7Wrapper21QtFileSelectionWidget10SelectFileEv@Base 5.0.0
 _ZN3otb7Wrapper21QtFileSelectionWidget11DoUpdateGUIEv@Base 5.0.0
 _ZN3otb7Wrapper21QtFileSelectionWidget11qt_metacallEN11QMetaObject4CallEiPPv@Base 5.0.0
 _ZN3otb7Wrapper21QtFileSelectionWidget11qt_metacastEPKc@Base 5.0.0
 _ZN3otb7Wrapper21QtFileSelectionWidget14DoCreateWidgetEv@Base 5.0.0
 _ZN3otb7Wrapper21QtFileSelectionWidget16staticMetaObjectE@Base 5.0.0
 _ZN3otb7Wrapper21QtFileSelectionWidgetC1Ev@Base 5.0.0
 _ZN3otb7Wrapper21QtFileSelectionWidgetC2Ev@Base 5.0.0
 _ZN3otb7Wrapper21QtFileSelectionWidgetD0Ev@Base 5.0.0
 _ZN3otb7Wrapper21QtFileSelectionWidgetD1Ev@Base 5.0.0
 _ZN3otb7Wrapper21QtFileSelectionWidgetD2Ev@Base 5.0.0
 _ZN3otb7Wrapper21QtWidgetParameterBase11qt_metacallEN11QMetaObject4CallEiPPv@Base 5.0.0
 _ZN3otb7Wrapper21QtWidgetParameterBase11qt_metacastEPKc@Base 5.0.0
 _ZN3otb7Wrapper21QtWidgetParameterBase12CreateWidgetEv@Base 5.0.0
 _ZN3otb7Wrapper21QtWidgetParameterBase16ParameterChangedERK7QString@Base 5.0.0
 _ZN3otb7Wrapper21QtWidgetParameterBase16staticMetaObjectE@Base 5.0.0
 _ZN3otb7Wrapper21QtWidgetParameterBase18SetActivationStateEb@Base 5.0.0
 _ZN3otb7Wrapper21QtWidgetParameterBase21ParameterActiveStatusEb@Base 5.0.0
 _ZN3otb7Wrapper21QtWidgetParameterBase5ResetEv@Base 5.0.0
 _ZN3otb7Wrapper21QtWidgetParameterBase8GetModelEv@Base 5.0.0
 _ZN3otb7Wrapper21QtWidgetParameterBase9UpdateGUIEv@Base 5.0.0
 _ZN3otb7Wrapper21QtWidgetParameterBaseC1EPNS0_9ParameterEPNS0_13QtWidgetModelE@Base 5.0.0
 _ZN3otb7Wrapper21QtWidgetParameterBaseC2EPNS0_9ParameterEPNS0_13QtWidgetModelE@Base 5.0.0
 _ZN3otb7Wrapper21QtWidgetParameterBaseD0Ev@Base 5.0.0
 _ZN3otb7Wrapper21QtWidgetParameterBaseD1Ev@Base 5.0.0
 _ZN3otb7Wrapper21QtWidgetParameterBaseD2Ev@Base 5.0.0
 _ZN3otb7Wrapper22AddProcessToWatchEvent10SetProcessEPN3itk13ProcessObjectE@Base 5.0.0
 _ZN3otb7Wrapper22AddProcessToWatchEvent21SetProcessDescriptionENSt7__cxx1112basic_stringIcSt11char_traitsIcESaIcEEE@Base 5.0.0
 _ZN3otb7Wrapper22AddProcessToWatchEvent21SetProcessDescriptionESs@Base 5.0.0
 _ZN3otb7Wrapper22AddProcessToWatchEventD0Ev@Base 5.0.0
 _ZN3otb7Wrapper22AddProcessToWatchEventD1Ev@Base 5.0.0
 _ZN3otb7Wrapper22AddProcessToWatchEventD2Ev@Base 5.0.0
 _ZN3otb7Wrapper22InputFilenameParameter8GetValueB5cxx11Ev@Base 5.0.0
 _ZN3otb7Wrapper22InputFilenameParameter8GetValueEv@Base 5.0.0
 _ZN3otb7Wrapper22InputFilenameParameter8SetValueENSt7__cxx1112basic_stringIcSt11char_traitsIcESaIcEEE@Base 5.0.0
 _ZN3otb7Wrapper22InputFilenameParameter8SetValueESs@Base 5.0.0
 _ZN3otb7Wrapper22QtWidgetEmptyParameter11DoUpdateGUIEv@Base 5.0.0
 _ZN3otb7Wrapper22QtWidgetEmptyParameter11qt_metacallEN11QMetaObject4CallEiPPv@Base 5.0.0
 _ZN3otb7Wrapper22QtWidgetEmptyParameter11qt_metacastEPKc@Base 5.0.0
 _ZN3otb7Wrapper22QtWidgetEmptyParameter14DoCreateWidgetEv@Base 5.0.0
 _ZN3otb7Wrapper22QtWidgetEmptyParameter16staticMetaObjectE@Base 5.0.0
 _ZN3otb7Wrapper22QtWidgetEmptyParameterC1EPNS0_14EmptyParameterEPNS0_13QtWidgetModelE@Base 5.0.0
 _ZN3otb7Wrapper22QtWidgetEmptyParameterC2EPNS0_14EmptyParameterEPNS0_13QtWidgetModelE@Base 5.0.0
 _ZN3otb7Wrapper22QtWidgetEmptyParameterD0Ev@Base 5.0.0
 _ZN3otb7Wrapper22QtWidgetEmptyParameterD1Ev@Base 5.0.0
 _ZN3otb7Wrapper22QtWidgetEmptyParameterD2Ev@Base 5.0.0
 _ZN3otb7Wrapper22QtWidgetFloatParameter11DoUpdateGUIEv@Base 5.0.0
 _ZN3otb7Wrapper22QtWidgetFloatParameter11qt_metacallEN11QMetaObject4CallEiPPv@Base 5.0.0
 _ZN3otb7Wrapper22QtWidgetFloatParameter11qt_metacastEPKc@Base 5.0.0
 _ZN3otb7Wrapper22QtWidgetFloatParameter14DoCreateWidgetEv@Base 5.0.0
 _ZN3otb7Wrapper22QtWidgetFloatParameter16staticMetaObjectE@Base 5.0.0
 _ZN3otb7Wrapper22QtWidgetFloatParameter8SetValueEd@Base 5.0.0
 _ZN3otb7Wrapper22QtWidgetFloatParameterC1EPNS0_18NumericalParameterIfEEPNS0_13QtWidgetModelE@Base 5.0.0
 _ZN3otb7Wrapper22QtWidgetFloatParameterC2EPNS0_18NumericalParameterIfEEPNS0_13QtWidgetModelE@Base 5.0.0
 _ZN3otb7Wrapper22QtWidgetFloatParameterD0Ev@Base 5.0.0
 _ZN3otb7Wrapper22QtWidgetFloatParameterD1Ev@Base 5.0.0
 _ZN3otb7Wrapper22QtWidgetFloatParameterD2Ev@Base 5.0.0
 _ZN3otb7Wrapper22QtWidgetParameterGroup11DoUpdateGUIEv@Base 5.0.0
 _ZN3otb7Wrapper22QtWidgetParameterGroup11qt_metacallEN11QMetaObject4CallEiPPv@Base 5.0.0
 _ZN3otb7Wrapper22QtWidgetParameterGroup11qt_metacastEPKc@Base 5.0.0
 _ZN3otb7Wrapper22QtWidgetParameterGroup12ProcessChildEPNS0_9ParameterEb@Base 5.0.0
 _ZN3otb7Wrapper22QtWidgetParameterGroup14DoCreateWidgetEv@Base 5.0.0
 _ZN3otb7Wrapper22QtWidgetParameterGroup16staticMetaObjectE@Base 5.0.0
 _ZN3otb7Wrapper22QtWidgetParameterGroup18SetActivationStateEb@Base 5.0.0
 _ZN3otb7Wrapper22QtWidgetParameterGroupC1EN3itk12SmartPointerINS0_14ParameterGroupEEEPNS0_13QtWidgetModelE@Base 5.0.0
 _ZN3otb7Wrapper22QtWidgetParameterGroupC2EN3itk12SmartPointerINS0_14ParameterGroupEEEPNS0_13QtWidgetModelE@Base 5.0.0
 _ZN3otb7Wrapper22QtWidgetParameterGroupD0Ev@Base 5.0.0
 _ZN3otb7Wrapper22QtWidgetParameterGroupD1Ev@Base 5.0.0
 _ZN3otb7Wrapper22QtWidgetParameterGroupD2Ev@Base 5.0.0
 _ZN3otb7Wrapper22QtWidgetParameterLabel11qt_metacallEN11QMetaObject4CallEiPPv@Base 5.0.0
 _ZN3otb7Wrapper22QtWidgetParameterLabel11qt_metacastEPKc@Base 5.0.0
 _ZN3otb7Wrapper22QtWidgetParameterLabel16staticMetaObjectE@Base 5.0.0
 _ZN3otb7Wrapper22QtWidgetParameterLabelC1EPNS0_9ParameterE@Base 5.0.0
 _ZN3otb7Wrapper22QtWidgetParameterLabelC2EPNS0_9ParameterE@Base 5.0.0
 _ZN3otb7Wrapper22QtWidgetParameterLabelD0Ev@Base 5.0.0
 _ZN3otb7Wrapper22QtWidgetParameterLabelD1Ev@Base 5.0.0
 _ZN3otb7Wrapper22QtWidgetParameterLabelD2Ev@Base 5.0.0
 _ZN3otb7Wrapper22QtWidgetProgressReport11qt_metacallEN11QMetaObject4CallEiPPv@Base 5.0.0
 _ZN3otb7Wrapper22QtWidgetProgressReport11qt_metacastEPKc@Base 5.0.0
 _ZN3otb7Wrapper22QtWidgetProgressReport12ProcessEventEPN3itk6ObjectERKNS2_11EventObjectE@Base 5.0.0
 _ZN3otb7Wrapper22QtWidgetProgressReport12RemoveLayoutEv@Base 5.0.0
 _ZN3otb7Wrapper22QtWidgetProgressReport13ReportProcessEv@Base 5.0.0
 _ZN3otb7Wrapper22QtWidgetProgressReport14SetApplicationEN3itk12SmartPointerINS0_11ApplicationEEE@Base 5.0.0
 _ZN3otb7Wrapper22QtWidgetProgressReport16staticMetaObjectE@Base 5.0.0
 _ZN3otb7Wrapper22QtWidgetProgressReport21AddNewProcessToReportEv@Base 5.0.0
 _ZN3otb7Wrapper22QtWidgetProgressReportC1EPNS0_13QtWidgetModelE@Base 5.0.0
 _ZN3otb7Wrapper22QtWidgetProgressReportC2EPNS0_13QtWidgetModelE@Base 5.0.0
 _ZN3otb7Wrapper22QtWidgetProgressReportD0Ev@Base 5.0.0
 _ZN3otb7Wrapper22QtWidgetProgressReportD1Ev@Base 5.0.0
 _ZN3otb7Wrapper22QtWidgetProgressReportD2Ev@Base 5.0.0
 _ZN3otb7Wrapper23OutputFilenameParameter8GetValueB5cxx11Ev@Base 5.0.0
 _ZN3otb7Wrapper23OutputFilenameParameter8GetValueEv@Base 5.0.0
 _ZN3otb7Wrapper23OutputFilenameParameter8SetValueENSt7__cxx1112basic_stringIcSt11char_traitsIcESaIcEEE@Base 5.0.0
 _ZN3otb7Wrapper23OutputFilenameParameter8SetValueESs@Base 5.0.0
 _ZN3otb7Wrapper23QtStringSelectionWidget11DoUpdateGUIEv@Base 5.0.0
 _ZN3otb7Wrapper23QtStringSelectionWidget11qt_metacallEN11QMetaObject4CallEiPPv@Base 5.0.0
 _ZN3otb7Wrapper23QtStringSelectionWidget11qt_metacastEPKc@Base 5.0.0
 _ZN3otb7Wrapper23QtStringSelectionWidget14DoCreateWidgetEv@Base 5.0.0
 _ZN3otb7Wrapper23QtStringSelectionWidget16staticMetaObjectE@Base 5.0.0
 _ZN3otb7Wrapper23QtStringSelectionWidget17OnEditionFinishedEv@Base 5.0.0
 _ZN3otb7Wrapper23QtStringSelectionWidget32InternalQLineEditEditionFinishedEv@Base 5.0.0
 _ZN3otb7Wrapper23QtStringSelectionWidgetC1Ev@Base 5.0.0
 _ZN3otb7Wrapper23QtStringSelectionWidgetC2Ev@Base 5.0.0
 _ZN3otb7Wrapper23QtStringSelectionWidgetD0Ev@Base 5.0.0
 _ZN3otb7Wrapper23QtStringSelectionWidgetD1Ev@Base 5.0.0
 _ZN3otb7Wrapper23QtStringSelectionWidgetD2Ev@Base 5.0.0
 _ZN3otb7Wrapper23QtWidgetChoiceParameter11DoUpdateGUIEv@Base 5.0.0
 _ZN3otb7Wrapper23QtWidgetChoiceParameter11qt_metacallEN11QMetaObject4CallEiPPv@Base 5.0.0
 _ZN3otb7Wrapper23QtWidgetChoiceParameter11qt_metacastEPKc@Base 5.0.0
 _ZN3otb7Wrapper23QtWidgetChoiceParameter14DoCreateWidgetEv@Base 5.0.0
 _ZN3otb7Wrapper23QtWidgetChoiceParameter16staticMetaObjectE@Base 5.0.0
 _ZN3otb7Wrapper23QtWidgetChoiceParameter8SetValueEi@Base 5.0.0
 _ZN3otb7Wrapper23QtWidgetChoiceParameterC1EPNS0_15ChoiceParameterEPNS0_13QtWidgetModelE@Base 5.0.0
 _ZN3otb7Wrapper23QtWidgetChoiceParameterC2EPNS0_15ChoiceParameterEPNS0_13QtWidgetModelE@Base 5.0.0
 _ZN3otb7Wrapper23QtWidgetChoiceParameterD0Ev@Base 5.0.0
 _ZN3otb7Wrapper23QtWidgetChoiceParameterD1Ev@Base 5.0.0
 _ZN3otb7Wrapper23QtWidgetChoiceParameterD2Ev@Base 5.0.0
 _ZN3otb7Wrapper23QtWidgetStringParameter11DoUpdateGUIEv@Base 5.0.0
 _ZN3otb7Wrapper23QtWidgetStringParameter11qt_metacallEN11QMetaObject4CallEiPPv@Base 5.0.0
 _ZN3otb7Wrapper23QtWidgetStringParameter11qt_metacastEPKc@Base 5.0.0
 _ZN3otb7Wrapper23QtWidgetStringParameter14DoCreateWidgetEv@Base 5.0.0
 _ZN3otb7Wrapper23QtWidgetStringParameter16staticMetaObjectE@Base 5.0.0
 _ZN3otb7Wrapper23QtWidgetStringParameter8SetValueERK7QString@Base 5.0.0
 _ZN3otb7Wrapper23QtWidgetStringParameterC1EPNS0_15StringParameterEPNS0_13QtWidgetModelE@Base 5.0.0
 _ZN3otb7Wrapper23QtWidgetStringParameterC2EPNS0_15StringParameterEPNS0_13QtWidgetModelE@Base 5.0.0
 _ZN3otb7Wrapper23QtWidgetStringParameterD0Ev@Base 5.0.0
 _ZN3otb7Wrapper23QtWidgetStringParameterD1Ev@Base 5.0.0
 _ZN3otb7Wrapper23QtWidgetStringParameterD2Ev@Base 5.0.0
 _ZN3otb7Wrapper24InputProcessXMLParameter8SetValueENSt7__cxx1112basic_stringIcSt11char_traitsIcESaIcEEE@Base 5.0.0
 _ZN3otb7Wrapper24InputProcessXMLParameter8SetValueESs@Base 5.0.0
 _ZN3otb7Wrapper24QtWidgetParameterFactory14CreateQtWidgetEPNS0_9ParameterEPNS0_13QtWidgetModelE@Base 5.0.0
 _ZN3otb7Wrapper24QtWidgetParameterFactoryC1Ev@Base 5.0.0
 _ZN3otb7Wrapper24QtWidgetParameterFactoryC2Ev@Base 5.0.0
 _ZN3otb7Wrapper24QtWidgetParameterFactoryD0Ev@Base 5.0.0
 _ZN3otb7Wrapper24QtWidgetParameterFactoryD1Ev@Base 5.0.0
 _ZN3otb7Wrapper24QtWidgetParameterFactoryD2Ev@Base 5.0.0
 _ZN3otb7Wrapper25OutputProcessXMLParameter8SetValueENSt7__cxx1112basic_stringIcSt11char_traitsIcESaIcEEE@Base 5.0.0
 _ZN3otb7Wrapper25OutputProcessXMLParameter8SetValueESs@Base 5.0.0
 _ZN3otb7Wrapper25QtWidgetListViewParameter11DoUpdateGUIEv@Base 5.0.0
 _ZN3otb7Wrapper25QtWidgetListViewParameter11qt_metacallEN11QMetaObject4CallEiPPv@Base 5.0.0
 _ZN3otb7Wrapper25QtWidgetListViewParameter11qt_metacastEPKc@Base 5.0.0
 _ZN3otb7Wrapper25QtWidgetListViewParameter13SelectedItemsEv@Base 5.0.0
 _ZN3otb7Wrapper25QtWidgetListViewParameter14DoCreateWidgetEv@Base 5.0.0
 _ZN3otb7Wrapper25QtWidgetListViewParameter16staticMetaObjectE@Base 5.0.0
 _ZN3otb7Wrapper25QtWidgetListViewParameterC1EPNS0_17ListViewParameterEPNS0_13QtWidgetModelE@Base 5.0.0
 _ZN3otb7Wrapper25QtWidgetListViewParameterC2EPNS0_17ListViewParameterEPNS0_13QtWidgetModelE@Base 5.0.0
 _ZN3otb7Wrapper25QtWidgetListViewParameterD0Ev@Base 5.0.0
 _ZN3otb7Wrapper25QtWidgetListViewParameterD1Ev@Base 5.0.0
 _ZN3otb7Wrapper25QtWidgetListViewParameterD2Ev@Base 5.0.0
 _ZN3otb7Wrapper26QtWidgetDirectoryParameter10SelectFileEv@Base 5.0.0
 _ZN3otb7Wrapper26QtWidgetDirectoryParameter11DoUpdateGUIEv@Base 5.0.0
 _ZN3otb7Wrapper26QtWidgetDirectoryParameter11SetFileNameERK7QString@Base 5.0.0
 _ZN3otb7Wrapper26QtWidgetDirectoryParameter11qt_metacallEN11QMetaObject4CallEiPPv@Base 5.0.0
 _ZN3otb7Wrapper26QtWidgetDirectoryParameter11qt_metacastEPKc@Base 5.0.0
 _ZN3otb7Wrapper26QtWidgetDirectoryParameter14DoCreateWidgetEv@Base 5.0.0
 _ZN3otb7Wrapper26QtWidgetDirectoryParameter16staticMetaObjectE@Base 5.0.0
 _ZN3otb7Wrapper26QtWidgetDirectoryParameterC1EPNS0_18DirectoryParameterEPNS0_13QtWidgetModelE@Base 5.0.0
 _ZN3otb7Wrapper26QtWidgetDirectoryParameterC2EPNS0_18DirectoryParameterEPNS0_13QtWidgetModelE@Base 5.0.0
 _ZN3otb7Wrapper26QtWidgetDirectoryParameterD0Ev@Base 5.0.0
 _ZN3otb7Wrapper26QtWidgetDirectoryParameterD1Ev@Base 5.0.0
 _ZN3otb7Wrapper26QtWidgetDirectoryParameterD2Ev@Base 5.0.0
 _ZN3otb7Wrapper27ComplexOutputImageParameter19GetComplexPixelTypeEv@Base 5.0.0
 _ZN3otb7Wrapper27ComplexOutputImageParameter19SetComplexPixelTypeENS0_21ComplexImagePixelTypeE@Base 5.0.0
 _ZN3otb7Wrapper27QtWidgetInputImageParameter10SelectFileEv@Base 5.0.0
 _ZN3otb7Wrapper27QtWidgetInputImageParameter11DoUpdateGUIEv@Base 5.0.0
 _ZN3otb7Wrapper27QtWidgetInputImageParameter11SetFileNameERK7QString@Base 5.0.0
 _ZN3otb7Wrapper27QtWidgetInputImageParameter11qt_metacallEN11QMetaObject4CallEiPPv@Base 5.0.0
 _ZN3otb7Wrapper27QtWidgetInputImageParameter11qt_metacastEPKc@Base 5.0.0
 _ZN3otb7Wrapper27QtWidgetInputImageParameter14DoCreateWidgetEv@Base 5.0.0
 _ZN3otb7Wrapper27QtWidgetInputImageParameter16staticMetaObjectE@Base 5.0.0
 _ZN3otb7Wrapper27QtWidgetInputImageParameterC1EPNS0_19InputImageParameterEPNS0_13QtWidgetModelE@Base 5.0.0
 _ZN3otb7Wrapper27QtWidgetInputImageParameterC2EPNS0_19InputImageParameterEPNS0_13QtWidgetModelE@Base 5.0.0
 _ZN3otb7Wrapper27QtWidgetInputImageParameterD0Ev@Base 5.0.0
 _ZN3otb7Wrapper27QtWidgetInputImageParameterD1Ev@Base 5.0.0
 _ZN3otb7Wrapper27QtWidgetInputImageParameterD2Ev@Base 5.0.0
 _ZN3otb7Wrapper27QtWidgetStringListParameter11DoUpdateGUIEv@Base 5.0.0
 _ZN3otb7Wrapper27QtWidgetStringListParameter11qt_metacallEN11QMetaObject4CallEiPPv@Base 5.0.0
 _ZN3otb7Wrapper27QtWidgetStringListParameter11qt_metacastEPKc@Base 5.0.0
 _ZN3otb7Wrapper27QtWidgetStringListParameter14DoCreateWidgetEv@Base 5.0.0
 _ZN3otb7Wrapper27QtWidgetStringListParameter14SuppressStringEv@Base 5.0.0
 _ZN3otb7Wrapper27QtWidgetStringListParameter16UpdateStringListEv@Base 5.0.0
 _ZN3otb7Wrapper27QtWidgetStringListParameter16staticMetaObjectE@Base 5.0.0
 _ZN3otb7Wrapper27QtWidgetStringListParameter6ChangeEv@Base 5.0.0
 _ZN3otb7Wrapper27QtWidgetStringListParameter9AddStringEv@Base 5.0.0
 _ZN3otb7Wrapper27QtWidgetStringListParameter9SetStringERK7QString@Base 5.0.0
 _ZN3otb7Wrapper27QtWidgetStringListParameterC1EPNS0_19StringListParameterEPNS0_13QtWidgetModelE@Base 5.0.0
 _ZN3otb7Wrapper27QtWidgetStringListParameterC2EPNS0_19StringListParameterEPNS0_13QtWidgetModelE@Base 5.0.0
 _ZN3otb7Wrapper27QtWidgetStringListParameterD0Ev@Base 5.0.0
 _ZN3otb7Wrapper27QtWidgetStringListParameterD1Ev@Base 5.0.0
 _ZN3otb7Wrapper27QtWidgetStringListParameterD2Ev@Base 5.0.0
 _ZN3otb7Wrapper28QtWidgetOutputImageParameter10SelectFileEv@Base 5.0.0
 _ZN3otb7Wrapper28QtWidgetOutputImageParameter11DoUpdateGUIEv@Base 5.0.0
 _ZN3otb7Wrapper28QtWidgetOutputImageParameter11SetFileNameERK7QString@Base 5.0.0
 _ZN3otb7Wrapper28QtWidgetOutputImageParameter11qt_metacallEN11QMetaObject4CallEiPPv@Base 5.0.0
 _ZN3otb7Wrapper28QtWidgetOutputImageParameter11qt_metacastEPKc@Base 5.0.0
 _ZN3otb7Wrapper28QtWidgetOutputImageParameter12SetPixelTypeEi@Base 5.0.0
 _ZN3otb7Wrapper28QtWidgetOutputImageParameter14DoCreateWidgetEv@Base 5.0.0
 _ZN3otb7Wrapper28QtWidgetOutputImageParameter16staticMetaObjectE@Base 5.0.0
 _ZN3otb7Wrapper28QtWidgetOutputImageParameterC1EPNS0_20OutputImageParameterEPNS0_13QtWidgetModelE@Base 5.0.0
 _ZN3otb7Wrapper28QtWidgetOutputImageParameterC2EPNS0_20OutputImageParameterEPNS0_13QtWidgetModelE@Base 5.0.0
 _ZN3otb7Wrapper28QtWidgetOutputImageParameterD0Ev@Base 5.0.0
 _ZN3otb7Wrapper28QtWidgetOutputImageParameterD1Ev@Base 5.0.0
 _ZN3otb7Wrapper28QtWidgetOutputImageParameterD2Ev@Base 5.0.0
 _ZN3otb7Wrapper28QtWidgetSimpleProgressReport11qt_metacallEN11QMetaObject4CallEiPPv@Base 5.0.0
 _ZN3otb7Wrapper28QtWidgetSimpleProgressReport11qt_metacastEPKc@Base 5.0.0
 _ZN3otb7Wrapper28QtWidgetSimpleProgressReport12ProcessEventEPN3itk6ObjectERKNS2_11EventObjectE@Base 5.0.0
 _ZN3otb7Wrapper28QtWidgetSimpleProgressReport13ReportProcessEv@Base 5.0.0
 _ZN3otb7Wrapper28QtWidgetSimpleProgressReport14SetApplicationEN3itk12SmartPointerINS0_11ApplicationEEE@Base 5.0.0
 _ZN3otb7Wrapper28QtWidgetSimpleProgressReport16staticMetaObjectE@Base 5.0.0
 _ZN3otb7Wrapper28QtWidgetSimpleProgressReport21AddNewProcessToReportEv@Base 5.0.0
 _ZN3otb7Wrapper28QtWidgetSimpleProgressReport4InitEv@Base 5.0.0
 _ZN3otb7Wrapper28QtWidgetSimpleProgressReportC1EPNS0_13QtWidgetModelE@Base 5.0.0
 _ZN3otb7Wrapper28QtWidgetSimpleProgressReportC2EPNS0_13QtWidgetModelE@Base 5.0.0
 _ZN3otb7Wrapper28QtWidgetSimpleProgressReportD0Ev@Base 5.0.0
 _ZN3otb7Wrapper28QtWidgetSimpleProgressReportD1Ev@Base 5.0.0
 _ZN3otb7Wrapper28QtWidgetSimpleProgressReportD2Ev@Base 5.0.0
 _ZN3otb7Wrapper30QtWidgetInputFilenameParameter10SelectFileEv@Base 5.0.0
 _ZN3otb7Wrapper30QtWidgetInputFilenameParameter11DoUpdateGUIEv@Base 5.0.0
 _ZN3otb7Wrapper30QtWidgetInputFilenameParameter11SetFileNameERK7QString@Base 5.0.0
 _ZN3otb7Wrapper30QtWidgetInputFilenameParameter11qt_metacallEN11QMetaObject4CallEiPPv@Base 5.0.0
 _ZN3otb7Wrapper30QtWidgetInputFilenameParameter11qt_metacastEPKc@Base 5.0.0
 _ZN3otb7Wrapper30QtWidgetInputFilenameParameter14DoCreateWidgetEv@Base 5.0.0
 _ZN3otb7Wrapper30QtWidgetInputFilenameParameter16staticMetaObjectE@Base 5.0.0
 _ZN3otb7Wrapper30QtWidgetInputFilenameParameterC1EPNS0_22InputFilenameParameterEPNS0_13QtWidgetModelE@Base 5.0.0
 _ZN3otb7Wrapper30QtWidgetInputFilenameParameterC2EPNS0_22InputFilenameParameterEPNS0_13QtWidgetModelE@Base 5.0.0
 _ZN3otb7Wrapper30QtWidgetInputFilenameParameterD0Ev@Base 5.0.0
 _ZN3otb7Wrapper30QtWidgetInputFilenameParameterD1Ev@Base 5.0.0
 _ZN3otb7Wrapper30QtWidgetInputFilenameParameterD2Ev@Base 5.0.0
 _ZN3otb7Wrapper31QtWidgetInputImageListParameter11DoUpdateGUIEv@Base 5.0.0
 _ZN3otb7Wrapper31QtWidgetInputImageListParameter11qt_metacallEN11QMetaObject4CallEiPPv@Base 5.0.0
 _ZN3otb7Wrapper31QtWidgetInputImageListParameter11qt_metacastEPKc@Base 5.0.0
 _ZN3otb7Wrapper31QtWidgetInputImageListParameter12SuppressFileEv@Base 5.0.0
 _ZN3otb7Wrapper31QtWidgetInputImageListParameter14DoCreateWidgetEv@Base 5.0.0
 _ZN3otb7Wrapper31QtWidgetInputImageListParameter14UpdateFileListESt3mapIjjSt4lessIjESaISt4pairIKjjEEE@Base 5.0.0
 _ZN3otb7Wrapper31QtWidgetInputImageListParameter15UpdateImageListEv@Base 5.0.0
 _ZN3otb7Wrapper31QtWidgetInputImageListParameter16staticMetaObjectE@Base 5.0.0
 _ZN3otb7Wrapper31QtWidgetInputImageListParameter17RecreateImageListEv@Base 5.0.0
 _ZN3otb7Wrapper31QtWidgetInputImageListParameter24FileSelectionWidgetAddedEP7QWidget@Base 5.0.0
 _ZN3otb7Wrapper31QtWidgetInputImageListParameter6ChangeEv@Base 5.0.0
 _ZN3otb7Wrapper31QtWidgetInputImageListParameter6UpFileEv@Base 5.0.0
 _ZN3otb7Wrapper31QtWidgetInputImageListParameter7AddFileEv@Base 5.0.0
 _ZN3otb7Wrapper31QtWidgetInputImageListParameter8DownFileEv@Base 5.0.0
 _ZN3otb7Wrapper31QtWidgetInputImageListParameter9EraseFileEv@Base 5.0.0
 _ZN3otb7Wrapper31QtWidgetInputImageListParameterC1EPNS0_23InputImageListParameterEPNS0_13QtWidgetModelE@Base 5.0.0
 _ZN3otb7Wrapper31QtWidgetInputImageListParameterC2EPNS0_23InputImageListParameterEPNS0_13QtWidgetModelE@Base 5.0.0
 _ZN3otb7Wrapper31QtWidgetInputImageListParameterD0Ev@Base 5.0.0
 _ZN3otb7Wrapper31QtWidgetInputImageListParameterD1Ev@Base 5.0.0
 _ZN3otb7Wrapper31QtWidgetInputImageListParameterD2Ev@Base 5.0.0
 _ZN3otb7Wrapper31QtWidgetOutputFilenameParameter10SelectFileEv@Base 5.0.0
 _ZN3otb7Wrapper31QtWidgetOutputFilenameParameter11DoUpdateGUIEv@Base 5.0.0
 _ZN3otb7Wrapper31QtWidgetOutputFilenameParameter11SetFileNameERK7QString@Base 5.0.0
 _ZN3otb7Wrapper31QtWidgetOutputFilenameParameter11qt_metacallEN11QMetaObject4CallEiPPv@Base 5.0.0
 _ZN3otb7Wrapper31QtWidgetOutputFilenameParameter11qt_metacastEPKc@Base 5.0.0
 _ZN3otb7Wrapper31QtWidgetOutputFilenameParameter14DoCreateWidgetEv@Base 5.0.0
 _ZN3otb7Wrapper31QtWidgetOutputFilenameParameter16staticMetaObjectE@Base 5.0.0
 _ZN3otb7Wrapper31QtWidgetOutputFilenameParameterC1EPNS0_23OutputFilenameParameterEPNS0_13QtWidgetModelE@Base 5.0.0
 _ZN3otb7Wrapper31QtWidgetOutputFilenameParameterC2EPNS0_23OutputFilenameParameterEPNS0_13QtWidgetModelE@Base 5.0.0
 _ZN3otb7Wrapper31QtWidgetOutputFilenameParameterD0Ev@Base 5.0.0
 _ZN3otb7Wrapper31QtWidgetOutputFilenameParameterD1Ev@Base 5.0.0
 _ZN3otb7Wrapper31QtWidgetOutputFilenameParameterD2Ev@Base 5.0.0
 (optional=templinst)_ZN3otb7Wrapper31QtWidgetParameterGenericFactoryINS0_14ParameterGroupENS0_22QtWidgetParameterGroupEE6CreateEPNS0_9ParameterEPNS0_13QtWidgetModelE@Base 5.0.0
 _ZN3otb7Wrapper32QtWidgetInputProcessXMLParameter10SelectFileEv@Base 5.0.0
 _ZN3otb7Wrapper32QtWidgetInputProcessXMLParameter11DoUpdateGUIEv@Base 5.0.0
 _ZN3otb7Wrapper32QtWidgetInputProcessXMLParameter11SetFileNameERK7QString@Base 5.0.0
 _ZN3otb7Wrapper32QtWidgetInputProcessXMLParameter11qt_metacallEN11QMetaObject4CallEiPPv@Base 5.0.0
 _ZN3otb7Wrapper32QtWidgetInputProcessXMLParameter11qt_metacastEPKc@Base 5.0.0
 _ZN3otb7Wrapper32QtWidgetInputProcessXMLParameter14DoCreateWidgetEv@Base 5.0.0
 _ZN3otb7Wrapper32QtWidgetInputProcessXMLParameter16staticMetaObjectE@Base 5.0.0
 _ZN3otb7Wrapper32QtWidgetInputProcessXMLParameterC1EPNS0_24InputProcessXMLParameterEPNS0_13QtWidgetModelE@Base 5.0.0
 _ZN3otb7Wrapper32QtWidgetInputProcessXMLParameterC2EPNS0_24InputProcessXMLParameterEPNS0_13QtWidgetModelE@Base 5.0.0
 _ZN3otb7Wrapper32QtWidgetInputProcessXMLParameterD0Ev@Base 5.0.0
 _ZN3otb7Wrapper32QtWidgetInputProcessXMLParameterD1Ev@Base 5.0.0
 _ZN3otb7Wrapper32QtWidgetInputProcessXMLParameterD2Ev@Base 5.0.0
 _ZN3otb7Wrapper32QtWidgetInputVectorDataParameter10SelectFileEv@Base 5.0.0
 _ZN3otb7Wrapper32QtWidgetInputVectorDataParameter11DoUpdateGUIEv@Base 5.0.0
 _ZN3otb7Wrapper32QtWidgetInputVectorDataParameter11SetFileNameERK7QString@Base 5.0.0
 _ZN3otb7Wrapper32QtWidgetInputVectorDataParameter11qt_metacallEN11QMetaObject4CallEiPPv@Base 5.0.0
 _ZN3otb7Wrapper32QtWidgetInputVectorDataParameter11qt_metacastEPKc@Base 5.0.0
 _ZN3otb7Wrapper32QtWidgetInputVectorDataParameter14DoCreateWidgetEv@Base 5.0.0
 _ZN3otb7Wrapper32QtWidgetInputVectorDataParameter16staticMetaObjectE@Base 5.0.0
 _ZN3otb7Wrapper32QtWidgetInputVectorDataParameterC1EPNS0_24InputVectorDataParameterEPNS0_13QtWidgetModelE@Base 5.0.0
 _ZN3otb7Wrapper32QtWidgetInputVectorDataParameterC2EPNS0_24InputVectorDataParameterEPNS0_13QtWidgetModelE@Base 5.0.0
 _ZN3otb7Wrapper32QtWidgetInputVectorDataParameterD0Ev@Base 5.0.0
 _ZN3otb7Wrapper32QtWidgetInputVectorDataParameterD1Ev@Base 5.0.0
 _ZN3otb7Wrapper32QtWidgetInputVectorDataParameterD2Ev@Base 5.0.0
 _ZN3otb7Wrapper33QtWidgetOutputProcessXMLParameter10SelectFileEv@Base 5.0.0
 _ZN3otb7Wrapper33QtWidgetOutputProcessXMLParameter11DoUpdateGUIEv@Base 5.0.0
 _ZN3otb7Wrapper33QtWidgetOutputProcessXMLParameter11SetFileNameERK7QString@Base 5.0.0
 _ZN3otb7Wrapper33QtWidgetOutputProcessXMLParameter11qt_metacallEN11QMetaObject4CallEiPPv@Base 5.0.0
 _ZN3otb7Wrapper33QtWidgetOutputProcessXMLParameter11qt_metacastEPKc@Base 5.0.0
 _ZN3otb7Wrapper33QtWidgetOutputProcessXMLParameter14DoCreateWidgetEv@Base 5.0.0
 _ZN3otb7Wrapper33QtWidgetOutputProcessXMLParameter16staticMetaObjectE@Base 5.0.0
 _ZN3otb7Wrapper33QtWidgetOutputProcessXMLParameterC1EPNS0_25OutputProcessXMLParameterEPNS0_13QtWidgetModelE@Base 5.0.0
 _ZN3otb7Wrapper33QtWidgetOutputProcessXMLParameterC2EPNS0_25OutputProcessXMLParameterEPNS0_13QtWidgetModelE@Base 5.0.0
 _ZN3otb7Wrapper33QtWidgetOutputProcessXMLParameterD0Ev@Base 5.0.0
 _ZN3otb7Wrapper33QtWidgetOutputProcessXMLParameterD1Ev@Base 5.0.0
 _ZN3otb7Wrapper33QtWidgetOutputProcessXMLParameterD2Ev@Base 5.0.0
 _ZN3otb7Wrapper33QtWidgetOutputVectorDataParameter10SelectFileEv@Base 5.0.0
 _ZN3otb7Wrapper33QtWidgetOutputVectorDataParameter11DoUpdateGUIEv@Base 5.0.0
 _ZN3otb7Wrapper33QtWidgetOutputVectorDataParameter11SetFileNameERK7QString@Base 5.0.0
 _ZN3otb7Wrapper33QtWidgetOutputVectorDataParameter11qt_metacallEN11QMetaObject4CallEiPPv@Base 5.0.0
 _ZN3otb7Wrapper33QtWidgetOutputVectorDataParameter11qt_metacastEPKc@Base 5.0.0
 _ZN3otb7Wrapper33QtWidgetOutputVectorDataParameter14DoCreateWidgetEv@Base 5.0.0
 _ZN3otb7Wrapper33QtWidgetOutputVectorDataParameter16staticMetaObjectE@Base 5.0.0
 _ZN3otb7Wrapper33QtWidgetOutputVectorDataParameterC1EPNS0_25OutputVectorDataParameterEPNS0_13QtWidgetModelE@Base 5.0.0
 _ZN3otb7Wrapper33QtWidgetOutputVectorDataParameterC2EPNS0_25OutputVectorDataParameterEPNS0_13QtWidgetModelE@Base 5.0.0
 _ZN3otb7Wrapper33QtWidgetOutputVectorDataParameterD0Ev@Base 5.0.0
 _ZN3otb7Wrapper33QtWidgetOutputVectorDataParameterD1Ev@Base 5.0.0
 _ZN3otb7Wrapper33QtWidgetOutputVectorDataParameterD2Ev@Base 5.0.0
 _ZN3otb7Wrapper34QtWidgetComplexInputImageParameter10SelectFileEv@Base 5.0.0
 _ZN3otb7Wrapper34QtWidgetComplexInputImageParameter11DoUpdateGUIEv@Base 5.0.0
 _ZN3otb7Wrapper34QtWidgetComplexInputImageParameter11SetFileNameERK7QString@Base 5.0.0
 _ZN3otb7Wrapper34QtWidgetComplexInputImageParameter11qt_metacallEN11QMetaObject4CallEiPPv@Base 5.0.0
 _ZN3otb7Wrapper34QtWidgetComplexInputImageParameter11qt_metacastEPKc@Base 5.0.0
 _ZN3otb7Wrapper34QtWidgetComplexInputImageParameter14DoCreateWidgetEv@Base 5.0.0
 _ZN3otb7Wrapper34QtWidgetComplexInputImageParameter16staticMetaObjectE@Base 5.0.0
 _ZN3otb7Wrapper34QtWidgetComplexInputImageParameterC1EPNS0_26ComplexInputImageParameterEPNS0_13QtWidgetModelE@Base 5.0.0
 _ZN3otb7Wrapper34QtWidgetComplexInputImageParameterC2EPNS0_26ComplexInputImageParameterEPNS0_13QtWidgetModelE@Base 5.0.0
 _ZN3otb7Wrapper34QtWidgetComplexInputImageParameterD0Ev@Base 5.0.0
 _ZN3otb7Wrapper34QtWidgetComplexInputImageParameterD1Ev@Base 5.0.0
 _ZN3otb7Wrapper34QtWidgetComplexInputImageParameterD2Ev@Base 5.0.0
 _ZN3otb7Wrapper34QtWidgetInputFilenameListParameter11DoUpdateGUIEv@Base 5.0.0
 _ZN3otb7Wrapper34QtWidgetInputFilenameListParameter11qt_metacallEN11QMetaObject4CallEiPPv@Base 5.0.0
 _ZN3otb7Wrapper34QtWidgetInputFilenameListParameter11qt_metacastEPKc@Base 5.0.0
 _ZN3otb7Wrapper34QtWidgetInputFilenameListParameter12SuppressFileEv@Base 5.0.0
 _ZN3otb7Wrapper34QtWidgetInputFilenameListParameter14DoCreateWidgetEv@Base 5.0.0
 _ZN3otb7Wrapper34QtWidgetInputFilenameListParameter14UpdateFileListESt3mapIjjSt4lessIjESaISt4pairIKjjEEE@Base 5.0.0
 _ZN3otb7Wrapper34QtWidgetInputFilenameListParameter16staticMetaObjectE@Base 5.0.0
 _ZN3otb7Wrapper34QtWidgetInputFilenameListParameter18UpdateFilenameListEv@Base 5.0.0
 _ZN3otb7Wrapper34QtWidgetInputFilenameListParameter20RecreateFilenameListEv@Base 5.0.0
 _ZN3otb7Wrapper34QtWidgetInputFilenameListParameter24FileSelectionWidgetAddedEP7QWidget@Base 5.0.0
 _ZN3otb7Wrapper34QtWidgetInputFilenameListParameter6ChangeEv@Base 5.0.0
 _ZN3otb7Wrapper34QtWidgetInputFilenameListParameter6UpFileEv@Base 5.0.0
 _ZN3otb7Wrapper34QtWidgetInputFilenameListParameter7AddFileEv@Base 5.0.0
 _ZN3otb7Wrapper34QtWidgetInputFilenameListParameter8DownFileEv@Base 5.0.0
 _ZN3otb7Wrapper34QtWidgetInputFilenameListParameter9EraseFileEv@Base 5.0.0
 _ZN3otb7Wrapper34QtWidgetInputFilenameListParameterC1EPNS0_26InputFilenameListParameterEPNS0_13QtWidgetModelE@Base 5.0.0
 _ZN3otb7Wrapper34QtWidgetInputFilenameListParameterC2EPNS0_26InputFilenameListParameterEPNS0_13QtWidgetModelE@Base 5.0.0
 _ZN3otb7Wrapper34QtWidgetInputFilenameListParameterD0Ev@Base 5.0.0
 _ZN3otb7Wrapper34QtWidgetInputFilenameListParameterD1Ev@Base 5.0.0
 _ZN3otb7Wrapper34QtWidgetInputFilenameListParameterD2Ev@Base 5.0.0
 _ZN3otb7Wrapper35QtWidgetComplexOutputImageParameter10SelectFileEv@Base 5.0.0
 _ZN3otb7Wrapper35QtWidgetComplexOutputImageParameter11DoUpdateGUIEv@Base 5.0.0
 _ZN3otb7Wrapper35QtWidgetComplexOutputImageParameter11SetFileNameERK7QString@Base 5.0.0
 _ZN3otb7Wrapper35QtWidgetComplexOutputImageParameter11qt_metacallEN11QMetaObject4CallEiPPv@Base 5.0.0
 _ZN3otb7Wrapper35QtWidgetComplexOutputImageParameter11qt_metacastEPKc@Base 5.0.0
 _ZN3otb7Wrapper35QtWidgetComplexOutputImageParameter12SetPixelTypeEi@Base 5.0.0
 _ZN3otb7Wrapper35QtWidgetComplexOutputImageParameter14DoCreateWidgetEv@Base 5.0.0
 _ZN3otb7Wrapper35QtWidgetComplexOutputImageParameter16staticMetaObjectE@Base 5.0.0
 _ZN3otb7Wrapper35QtWidgetComplexOutputImageParameterC1EPNS0_27ComplexOutputImageParameterEPNS0_13QtWidgetModelE@Base 5.0.0
 _ZN3otb7Wrapper35QtWidgetComplexOutputImageParameterC2EPNS0_27ComplexOutputImageParameterEPNS0_13QtWidgetModelE@Base 5.0.0
 _ZN3otb7Wrapper35QtWidgetComplexOutputImageParameterD0Ev@Base 5.0.0
 _ZN3otb7Wrapper35QtWidgetComplexOutputImageParameterD1Ev@Base 5.0.0
 _ZN3otb7Wrapper35QtWidgetComplexOutputImageParameterD2Ev@Base 5.0.0
 _ZN3otb7Wrapper36QtWidgetInputVectorDataListParameter11DoUpdateGUIEv@Base 5.0.0
 _ZN3otb7Wrapper36QtWidgetInputVectorDataListParameter11qt_metacallEN11QMetaObject4CallEiPPv@Base 5.0.0
 _ZN3otb7Wrapper36QtWidgetInputVectorDataListParameter11qt_metacastEPKc@Base 5.0.0
 _ZN3otb7Wrapper36QtWidgetInputVectorDataListParameter12SuppressFileEv@Base 5.0.0
 _ZN3otb7Wrapper36QtWidgetInputVectorDataListParameter14DoCreateWidgetEv@Base 5.0.0
 _ZN3otb7Wrapper36QtWidgetInputVectorDataListParameter14UpdateFileListESt3mapIjjSt4lessIjESaISt4pairIKjjEEE@Base 5.0.0
 _ZN3otb7Wrapper36QtWidgetInputVectorDataListParameter16staticMetaObjectE@Base 5.0.0
 _ZN3otb7Wrapper36QtWidgetInputVectorDataListParameter20UpdateVectorDataListEv@Base 5.0.0
 _ZN3otb7Wrapper36QtWidgetInputVectorDataListParameter22RecreateVectorDataListEv@Base 5.0.0
 _ZN3otb7Wrapper36QtWidgetInputVectorDataListParameter24FileSelectionWidgetAddedEP7QWidget@Base 5.0.0
 _ZN3otb7Wrapper36QtWidgetInputVectorDataListParameter6ChangeEv@Base 5.0.0
 _ZN3otb7Wrapper36QtWidgetInputVectorDataListParameter6UpFileEv@Base 5.0.0
 _ZN3otb7Wrapper36QtWidgetInputVectorDataListParameter7AddFileEv@Base 5.0.0
 _ZN3otb7Wrapper36QtWidgetInputVectorDataListParameter8DownFileEv@Base 5.0.0
 _ZN3otb7Wrapper36QtWidgetInputVectorDataListParameter9EraseFileEv@Base 5.0.0
 _ZN3otb7Wrapper36QtWidgetInputVectorDataListParameterC1EPNS0_28InputVectorDataListParameterEPNS0_13QtWidgetModelE@Base 5.0.0
 _ZN3otb7Wrapper36QtWidgetInputVectorDataListParameterC2EPNS0_28InputVectorDataListParameterEPNS0_13QtWidgetModelE@Base 5.0.0
 _ZN3otb7Wrapper36QtWidgetInputVectorDataListParameterD0Ev@Base 5.0.0
 _ZN3otb7Wrapper36QtWidgetInputVectorDataListParameterD1Ev@Base 5.0.0
 _ZN3otb7Wrapper36QtWidgetInputVectorDataListParameterD2Ev@Base 5.0.0
 _ZN3otb7Wrapper9Parameter10SetCheckedEb@Base 5.0.0
 _ZN3otb7Wrapper9Parameter12SetUserValueEb@Base 5.0.0
 _ZN3otb7Wrapper9Parameter15GetChildrenListEv@Base 5.0.0
 _ZN3otb7Wrapper9Parameter17SetAutomaticValueEb@Base 5.0.0
 _ZN3otb7Wrapper9Parameter5ResetEv@Base 5.0.0
 _ZN3otb7Wrapper9Parameter9IsCheckedEv@Base 5.0.0
 _ZN3otb7Wrapper9Parameter9SetActiveEb@Base 5.0.0
 (optional=templinst)_ZN5QListI7QStringED1Ev@Base 5.0.0
 (optional=templinst)_ZN5QListI7QStringED2Ev@Base 5.0.0
 _ZN5boost12bad_any_castD0Ev@Base 5.0.0
 _ZN5boost12bad_any_castD1Ev@Base 5.0.0
 _ZN5boost12bad_any_castD2Ev@Base 5.0.0
 (optional=templinst)_ZN5boost15throw_exceptionINS_12bad_any_castEEEvRKT_@Base 5.0.0
 (optional=templinst)_ZN5boost16exception_detail10clone_implINS0_19error_info_injectorINS_12bad_any_castEEEED0Ev@Base 5.0.0
 (optional=templinst)_ZN5boost16exception_detail10clone_implINS0_19error_info_injectorINS_12bad_any_castEEEED1Ev@Base 5.0.0
 (optional=templinst)_ZN5boost16exception_detail12refcount_ptrINS0_20error_info_containerEE7releaseEv@Base 5.0.0
 (optional=templinst)_ZN5boost16exception_detail19error_info_injectorINS_12bad_any_castEEC1ERKS3_@Base 5.0.0
 (optional=templinst)_ZN5boost16exception_detail19error_info_injectorINS_12bad_any_castEEC2ERKS3_@Base 5.0.0
 (optional=templinst)_ZN5boost16exception_detail19error_info_injectorINS_12bad_any_castEED0Ev@Base 5.0.0
 (optional=templinst)_ZN5boost16exception_detail19error_info_injectorINS_12bad_any_castEED1Ev@Base 5.0.0
 (optional=templinst)_ZN5boost16exception_detail19error_info_injectorINS_12bad_any_castEED2Ev@Base 5.0.0
 (optional=templinst)_ZN5boost3any6holderIKfED0Ev@Base 5.0.0
 (optional=templinst)_ZN5boost3any6holderIKfED1Ev@Base 5.0.0
 (optional=templinst)_ZN5boost3any6holderIKfED2Ev@Base 5.0.0
 (optional=templinst)_ZN5boost3any6holderIKiED0Ev@Base 5.0.0
 (optional=templinst)_ZN5boost3any6holderIKiED1Ev@Base 5.0.0
 (optional=templinst)_ZN5boost3any6holderIKiED2Ev@Base 5.0.0
 (optional=templinst)_ZN5boost3any6holderIKjED0Ev@Base 5.0.0
 (optional=templinst)_ZN5boost3any6holderIKjED1Ev@Base 5.0.0
 (optional=templinst)_ZN5boost3any6holderIKjED2Ev@Base 5.0.0
 (optional=templinst)_ZN5boost3any6holderIfED0Ev@Base 5.0.0
 (optional=templinst)_ZN5boost3any6holderIfED1Ev@Base 5.0.0
 (optional=templinst)_ZN5boost3any6holderIfED2Ev@Base 5.0.0
 (optional=templinst)_ZN5boost3any6holderIiED0Ev@Base 5.0.0
 (optional=templinst)_ZN5boost3any6holderIiED1Ev@Base 5.0.0
 (optional=templinst)_ZN5boost3any6holderIiED2Ev@Base 5.0.0
 (optional=templinst)_ZN5boost3any6holderIjED0Ev@Base 5.0.0
 (optional=templinst)_ZN5boost3any6holderIjED1Ev@Base 5.0.0
 (optional=templinst)_ZN5boost3any6holderIjED2Ev@Base 5.0.0
 _ZN5boost9exceptionD0Ev@Base 5.0.0
 _ZN5boost9exceptionD1Ev@Base 5.0.0
 _ZN5boost9exceptionD2Ev@Base 5.0.0
 _ZN7QString6appendEPKc@Base 5.0.0
 _ZN7QStringD1Ev@Base 5.0.0
 _ZN7QStringD2Ev@Base 5.0.0
 _ZNK3itk10Statistics26RandomVariateGeneratorBase14GetNameOfClassEv@Base 5.0.0
 _ZNK3itk10Statistics37MersenneTwisterRandomVariateGenerator14GetNameOfClassEv@Base 5.0.0
 _ZNK3itk11LightObject17GetReferenceCountEv@Base 5.0.0
 (optional=templinst)_ZNK3itk13MemberCommandIN3otb7Wrapper22QtWidgetProgressReportEE13CreateAnotherEv@Base 5.0.0
 (optional=templinst)_ZNK3itk13MemberCommandIN3otb7Wrapper22QtWidgetProgressReportEE14GetNameOfClassEv@Base 5.0.0
 (optional=templinst)_ZNK3itk13MemberCommandIN3otb7Wrapper28QtWidgetSimpleProgressReportEE13CreateAnotherEv@Base 5.0.0
 (optional=templinst)_ZNK3itk13MemberCommandIN3otb7Wrapper28QtWidgetSimpleProgressReportEE14GetNameOfClassEv@Base 5.0.0
 (optional=templinst)_ZNK3itk13MemberCommandINS_13QtProgressBarEE13CreateAnotherEv@Base 5.0.0
 (optional=templinst)_ZNK3itk13MemberCommandINS_13QtProgressBarEE14GetNameOfClassEv@Base 5.0.0
 _ZNK3itk13ProcessObject11GetProgressEv@Base 5.0.0
 _ZNK3itk13ProgressEvent10CheckEventEPKNS_11EventObjectE@Base 5.0.0
 _ZNK3itk13ProgressEvent10MakeObjectEv@Base 5.0.0
 _ZNK3itk13ProgressEvent12GetEventNameEv@Base 5.0.0
 _ZNK3itk13QtProgressBar10metaObjectEv@Base 5.0.0
 _ZNK3itk13QtProgressBar16GetRedrawCommandEv@Base 5.0.0
 _ZNK3itk6Object13GetObjectNameB5cxx11Ev@Base 5.0.0
 _ZNK3itk6Object13GetObjectNameEv@Base 5.0.0
 _ZNK3itk6Object14GetNameOfClassEv@Base 5.0.0
 _ZNK3itk8AnyEvent10CheckEventEPKNS_11EventObjectE@Base 5.0.0
 _ZNK3itk8AnyEvent10MakeObjectEv@Base 5.0.0
 _ZNK3itk8AnyEvent12GetEventNameEv@Base 5.0.0
 _ZNK3otb11QtLogOutput10metaObjectEv@Base 5.0.0
 _ZNK3otb11QtLogOutput13CreateAnotherEv@Base 5.0.0
 _ZNK3otb11QtLogOutput14GetNameOfClassEv@Base 5.0.0
 _ZNK3otb11QtLogOutput9PrintSelfERSoN3itk6IndentE@Base 5.0.0
 _ZNK3otb7Wrapper11AppliThread10metaObjectEv@Base 5.0.0
 _ZNK3otb7Wrapper12QtWidgetView10metaObjectEv@Base 5.0.0
 _ZNK3otb7Wrapper12RAMParameter8HasValueEv@Base 5.0.0
 _ZNK3otb7Wrapper13QtApplication10metaObjectEv@Base 5.0.0
 _ZNK3otb7Wrapper13QtWidgetModel10metaObjectEv@Base 5.0.0
 (optional=templinst)_ZNK3otb7Wrapper18NumericalParameterIfE8GetValueEv@Base 5.0.0
 (optional=templinst)_ZNK3otb7Wrapper18NumericalParameterIfE8HasValueEv@Base 5.0.0
 (optional=templinst)_ZNK3otb7Wrapper18NumericalParameterIiE8GetValueEv@Base 5.0.0
 (optional=templinst)_ZNK3otb7Wrapper18NumericalParameterIiE8HasValueEv@Base 5.0.0
 (optional=templinst)_ZNK3otb7Wrapper18NumericalParameterIjE8GetValueEv@Base 5.0.0
 (optional=templinst)_ZNK3otb7Wrapper18NumericalParameterIjE8HasValueEv@Base 5.0.0
 _ZNK3otb7Wrapper19InputImageParameter11GetFileNameB5cxx11Ev@Base 5.0.0
 _ZNK3otb7Wrapper19InputImageParameter11GetFileNameEv@Base 5.0.0
 _ZNK3otb7Wrapper20OutputImageParameter11GetFileNameEv@Base 5.0.0
 _ZNK3otb7Wrapper20QtWidgetIntParameter10metaObjectEv@Base 5.0.0
 _ZNK3otb7Wrapper20QtWidgetRAMParameter10metaObjectEv@Base 5.0.0
 _ZNK3otb7Wrapper21QtFileSelectionWidget10metaObjectEv@Base 5.0.0
 _ZNK3otb7Wrapper21QtWidgetParameterBase10metaObjectEv@Base 5.0.0
 _ZNK3otb7Wrapper22AddProcessToWatchEvent10CheckEventEPKN3itk11EventObjectE@Base 5.0.0
 _ZNK3otb7Wrapper22AddProcessToWatchEvent10GetProcessEv@Base 5.0.0
 _ZNK3otb7Wrapper22AddProcessToWatchEvent10MakeObjectEv@Base 5.0.0
 _ZNK3otb7Wrapper22AddProcessToWatchEvent12GetEventNameEv@Base 5.0.0
 _ZNK3otb7Wrapper22AddProcessToWatchEvent21GetProcessDescriptionB5cxx11Ev@Base 5.0.0
 _ZNK3otb7Wrapper22AddProcessToWatchEvent21GetProcessDescriptionEv@Base 5.0.0
 _ZNK3otb7Wrapper22QtWidgetEmptyParameter10metaObjectEv@Base 5.0.0
 _ZNK3otb7Wrapper22QtWidgetFloatParameter10metaObjectEv@Base 5.0.0
 _ZNK3otb7Wrapper22QtWidgetParameterGroup10metaObjectEv@Base 5.0.0
 _ZNK3otb7Wrapper22QtWidgetParameterLabel10metaObjectEv@Base 5.0.0
 _ZNK3otb7Wrapper22QtWidgetProgressReport10metaObjectEv@Base 5.0.0
 _ZNK3otb7Wrapper23QtStringSelectionWidget10metaObjectEv@Base 5.0.0
 _ZNK3otb7Wrapper23QtWidgetChoiceParameter10metaObjectEv@Base 5.0.0
 _ZNK3otb7Wrapper23QtWidgetStringParameter10metaObjectEv@Base 5.0.0
 _ZNK3otb7Wrapper24InputProcessXMLParameter11GetFileNameEv@Base 5.0.0
 _ZNK3otb7Wrapper24InputVectorDataParameter11GetFileNameB5cxx11Ev@Base 5.0.0
 _ZNK3otb7Wrapper24InputVectorDataParameter11GetFileNameEv@Base 5.0.0
 _ZNK3otb7Wrapper24QtWidgetParameterFactory13CreateAnotherEv@Base 5.0.0
 _ZNK3otb7Wrapper24QtWidgetParameterFactory14GetNameOfClassEv@Base 5.0.0
 _ZNK3otb7Wrapper25OutputProcessXMLParameter11GetFileNameEv@Base 5.0.0
 _ZNK3otb7Wrapper25OutputVectorDataParameter11GetFileNameEv@Base 5.0.0
 _ZNK3otb7Wrapper25QtWidgetListViewParameter10metaObjectEv@Base 5.0.0
 _ZNK3otb7Wrapper26ComplexInputImageParameter11GetFileNameB5cxx11Ev@Base 5.0.0
 _ZNK3otb7Wrapper26ComplexInputImageParameter11GetFileNameEv@Base 5.0.0
 _ZNK3otb7Wrapper26QtWidgetDirectoryParameter10metaObjectEv@Base 5.0.0
 _ZNK3otb7Wrapper27ComplexOutputImageParameter11GetFileNameEv@Base 5.0.0
 _ZNK3otb7Wrapper27QtWidgetInputImageParameter10metaObjectEv@Base 5.0.0
 _ZNK3otb7Wrapper27QtWidgetStringListParameter10metaObjectEv@Base 5.0.0
 _ZNK3otb7Wrapper28QtWidgetOutputImageParameter10metaObjectEv@Base 5.0.0
 _ZNK3otb7Wrapper28QtWidgetSimpleProgressReport10metaObjectEv@Base 5.0.0
 _ZNK3otb7Wrapper30QtWidgetInputFilenameParameter10metaObjectEv@Base 5.0.0
 _ZNK3otb7Wrapper31QtWidgetInputImageListParameter10metaObjectEv@Base 5.0.0
 _ZNK3otb7Wrapper31QtWidgetOutputFilenameParameter10metaObjectEv@Base 5.0.0
 _ZNK3otb7Wrapper32QtWidgetInputProcessXMLParameter10metaObjectEv@Base 5.0.0
 _ZNK3otb7Wrapper32QtWidgetInputVectorDataParameter10metaObjectEv@Base 5.0.0
 _ZNK3otb7Wrapper33QtWidgetOutputProcessXMLParameter10metaObjectEv@Base 5.0.0
 _ZNK3otb7Wrapper33QtWidgetOutputVectorDataParameter10metaObjectEv@Base 5.0.0
 _ZNK3otb7Wrapper34QtWidgetComplexInputImageParameter10metaObjectEv@Base 5.0.0
 _ZNK3otb7Wrapper34QtWidgetInputFilenameListParameter10metaObjectEv@Base 5.0.0
 _ZNK3otb7Wrapper35QtWidgetComplexOutputImageParameter10metaObjectEv@Base 5.0.0
 _ZNK3otb7Wrapper36QtWidgetInputVectorDataListParameter10metaObjectEv@Base 5.0.0
 _ZNK3otb7Wrapper9Parameter12GetMandatoryEv@Base 5.0.0
 _ZNK3otb7Wrapper9Parameter12HasUserValueEv@Base 5.0.0
 _ZNK3otb7Wrapper9Parameter14GetDescriptionEv@Base 5.0.0
 _ZNK3otb7Wrapper9Parameter14GetNameOfClassEv@Base 5.0.0
 _ZNK3otb7Wrapper9Parameter17GetAutomaticValueEv@Base 5.0.0
 _ZNK3otb7Wrapper9Parameter6GetKeyEv@Base 5.0.0
 _ZNK3otb7Wrapper9Parameter6IsRootEv@Base 5.0.0
 _ZNK3otb7Wrapper9Parameter7GetNameEv@Base 5.0.0
 _ZNK3otb7Wrapper9Parameter7GetRoleEv@Base 5.0.0
 _ZNK3otb7Wrapper9Parameter7GetRootEv@Base 5.0.0
 _ZNK3otb7Wrapper9Parameter9GetActiveEb@Base 5.0.0
 _ZNK5boost12bad_any_cast4whatEv@Base 5.0.0
 (optional=templinst)_ZNK5boost16exception_detail10clone_implINS0_19error_info_injectorINS_12bad_any_castEEEE5cloneEv@Base 5.0.0
 (optional=templinst)_ZNK5boost16exception_detail10clone_implINS0_19error_info_injectorINS_12bad_any_castEEEE7rethrowEv@Base 5.0.0
 (optional=templinst)_ZNK5boost3any6holderIKfE4typeEv@Base 5.0.0
 (optional=templinst)_ZNK5boost3any6holderIKfE5cloneEv@Base 5.0.0
 (optional=templinst)_ZNK5boost3any6holderIKiE4typeEv@Base 5.0.0
 (optional=templinst)_ZNK5boost3any6holderIKiE5cloneEv@Base 5.0.0
 (optional=templinst)_ZNK5boost3any6holderIKjE4typeEv@Base 5.0.0
 (optional=templinst)_ZNK5boost3any6holderIKjE5cloneEv@Base 5.0.0
 (optional=templinst)_ZNK5boost3any6holderIfE4typeEv@Base 5.0.0
 (optional=templinst)_ZNK5boost3any6holderIfE5cloneEv@Base 5.0.0
 (optional=templinst)_ZNK5boost3any6holderIiE4typeEv@Base 5.0.0
 (optional=templinst)_ZNK5boost3any6holderIiE5cloneEv@Base 5.0.0
 (optional=templinst)_ZNK5boost3any6holderIjE4typeEv@Base 5.0.0
 (optional=templinst)_ZNK5boost3any6holderIjE5cloneEv@Base 5.0.0
 (optional=templinst)_ZNSt12_Destroy_auxILb0EE9__destroyIPSsEEvT_S3_@Base 5.0.0
 (optional=templinst)_ZNSt15basic_stringbufIcSt11char_traitsIcESaIcEED0Ev@Base 5.0.0
 (optional=templinst)_ZNSt15basic_stringbufIcSt11char_traitsIcESaIcEED1Ev@Base 5.0.0
 (optional=templinst)_ZNSt15basic_stringbufIcSt11char_traitsIcESaIcEED2Ev@Base 5.0.0
 (optional=templinst)_ZNSt6vectorIN3itk12SmartPointerIN3otb7Wrapper9ParameterEEESaIS5_EED1Ev@Base 5.0.0
 (optional=templinst)_ZNSt6vectorIN3itk12SmartPointerIN3otb7Wrapper9ParameterEEESaIS5_EED2Ev@Base 5.0.0
 (optional=templinst)_ZNSt6vectorINSt7__cxx1112basic_stringIcSt11char_traitsIcESaIcEEESaIS5_EE13_M_insert_auxEN9__gnu_cxx17__normal_iteratorIPS5_S7_EERKS5_@Base 5.0.0
 (optional=templinst)_ZNSt6vectorINSt7__cxx1112basic_stringIcSt11char_traitsIcESaIcEEESaIS5_EED1Ev@Base 5.0.0
 (optional=templinst)_ZNSt6vectorINSt7__cxx1112basic_stringIcSt11char_traitsIcESaIcEEESaIS5_EED2Ev@Base 5.0.0
 (optional=templinst)_ZNSt6vectorIPN3otb7Wrapper21QtFileSelectionWidgetESaIS3_EE13_M_insert_auxEN9__gnu_cxx17__normal_iteratorIPS3_S5_EERKS3_@Base 5.0.0
 (optional=templinst)_ZNSt6vectorIPN3otb7Wrapper21QtFileSelectionWidgetESaIS3_EEaSERKS5_@Base 5.0.0
 (optional=templinst)_ZNSt6vectorIPN3otb7Wrapper21QtWidgetParameterBaseESaIS3_EE13_M_insert_auxEN9__gnu_cxx17__normal_iteratorIPS3_S5_EERKS3_@Base 5.0.0
 (optional=templinst)_ZNSt6vectorIPN3otb7Wrapper23QtStringSelectionWidgetESaIS3_EE13_M_insert_auxEN9__gnu_cxx17__normal_iteratorIPS3_S5_EERKS3_@Base 5.0.0
 (optional=templinst)_ZNSt6vectorIPN3otb7Wrapper23QtStringSelectionWidgetESaIS3_EEaSERKS5_@Base 5.0.0
 (optional=templinst)_ZNSt6vectorISsSaISsEE13_M_insert_auxEN9__gnu_cxx17__normal_iteratorIPSsS1_EERKSs@Base 5.0.0
 (optional=templinst)_ZNSt6vectorISsSaISsEED1Ev@Base 5.0.0
 (optional=templinst)_ZNSt6vectorISsSaISsEED2Ev@Base 5.0.0
 (optional=templinst)_ZNSt6vectorIiSaIiEE13_M_insert_auxEN9__gnu_cxx17__normal_iteratorIPiS1_EERKi@Base 5.0.0
 (optional=templinst)_ZNSt6vectorIiSaIiEEaSERKS1_@Base 5.0.0
 (optional=templinst)_ZNSt7__cxx1115basic_stringbufIcSt11char_traitsIcESaIcEED0Ev@Base 5.0.0
 (optional=templinst)_ZNSt7__cxx1115basic_stringbufIcSt11char_traitsIcESaIcEED1Ev@Base 5.0.0
 (optional=templinst)_ZNSt7__cxx1115basic_stringbufIcSt11char_traitsIcESaIcEED2Ev@Base 5.0.0
 (optional=templinst)_ZNSt8_Rb_treeIjSt4pairIKjjESt10_Select1stIS2_ESt4lessIjESaIS2_EE29_M_get_insert_hint_unique_posESt23_Rb_tree_const_iteratorIS2_ERS1_@Base 5.0.0
 (optional=templinst)_ZNSt8_Rb_treeIjSt4pairIKjjESt10_Select1stIS2_ESt4lessIjESaIS2_EE7_M_copyEPKSt13_Rb_tree_nodeIS2_EPSA_@Base 5.0.0
 (optional=templinst)_ZNSt8_Rb_treeIjSt4pairIKjjESt10_Select1stIS2_ESt4lessIjESaIS2_EE7_M_copyINS8_11_Alloc_nodeEEEPSt13_Rb_tree_nodeIS2_EPKSC_SD_RT_@Base 5.0.0
 (optional=templinst)_ZNSt8_Rb_treeIjSt4pairIKjjESt10_Select1stIS2_ESt4lessIjESaIS2_EE8_M_eraseEPSt13_Rb_tree_nodeIS2_E@Base 5.0.0
 _ZTIN3itk10Statistics26RandomVariateGeneratorBaseE@Base 5.0.0
 _ZTIN3itk10Statistics37MersenneTwisterRandomVariateGeneratorE@Base 5.0.0
 _ZTIN3itk13MemberCommandIN3otb7Wrapper22QtWidgetProgressReportEEE@Base 5.0.0
 _ZTIN3itk13MemberCommandIN3otb7Wrapper28QtWidgetSimpleProgressReportEEE@Base 5.0.0
 _ZTIN3itk13MemberCommandINS_13QtProgressBarEEE@Base 5.0.0
 _ZTIN3itk13ProgressEventE@Base 5.0.0
 _ZTIN3itk13QtProgressBarE@Base 5.0.0
 _ZTIN3itk8AnyEventE@Base 5.0.0
 _ZTIN3itk9LogOutputE@Base 5.0.0
 _ZTIN3otb11QtLogOutputE@Base 5.0.0
 _ZTIN3otb7Wrapper11AppliThreadE@Base 5.0.0
 _ZTIN3otb7Wrapper12QtWidgetViewE@Base 5.0.0
 _ZTIN3otb7Wrapper12RAMParameterE@Base 5.0.0
 _ZTIN3otb7Wrapper13QtApplicationE@Base 5.0.0
 _ZTIN3otb7Wrapper13QtWidgetModelE@Base 5.0.0
 _ZTIN3otb7Wrapper14EmptyParameterE@Base 5.0.0
 _ZTIN3otb7Wrapper15RadiusParameterE@Base 5.0.0
 _ZTIN3otb7Wrapper15StringParameterE@Base 5.0.0
 _ZTIN3otb7Wrapper18DirectoryParameterE@Base 5.0.0
 _ZTIN3otb7Wrapper18NumericalParameterIfEE@Base 5.0.0
 _ZTIN3otb7Wrapper18NumericalParameterIiEE@Base 5.0.0
 _ZTIN3otb7Wrapper19StringListParameterE@Base 5.0.0
 _ZTIN3otb7Wrapper20QtWidgetIntParameterE@Base 5.0.0
 _ZTIN3otb7Wrapper20QtWidgetRAMParameterE@Base 5.0.0
 _ZTIN3otb7Wrapper21QtFileSelectionWidgetE@Base 5.0.0
 _ZTIN3otb7Wrapper21QtWidgetParameterBaseE@Base 5.0.0
 _ZTIN3otb7Wrapper22AddProcessToWatchEventE@Base 5.0.0
 _ZTIN3otb7Wrapper22InputFilenameParameterE@Base 5.0.0
 _ZTIN3otb7Wrapper22QtWidgetEmptyParameterE@Base 5.0.0
 _ZTIN3otb7Wrapper22QtWidgetFloatParameterE@Base 5.0.0
 _ZTIN3otb7Wrapper22QtWidgetParameterGroupE@Base 5.0.0
 _ZTIN3otb7Wrapper22QtWidgetParameterLabelE@Base 5.0.0
 _ZTIN3otb7Wrapper22QtWidgetProgressReportE@Base 5.0.0
 _ZTIN3otb7Wrapper23OutputFilenameParameterE@Base 5.0.0
 _ZTIN3otb7Wrapper23QtStringSelectionWidgetE@Base 5.0.0
 _ZTIN3otb7Wrapper23QtWidgetChoiceParameterE@Base 5.0.0
 _ZTIN3otb7Wrapper23QtWidgetStringParameterE@Base 5.0.0
 _ZTIN3otb7Wrapper24QtWidgetParameterFactoryE@Base 5.0.0
 _ZTIN3otb7Wrapper25OutputVectorDataParameterE@Base 5.0.0
 _ZTIN3otb7Wrapper25QtWidgetListViewParameterE@Base 5.0.0
 _ZTIN3otb7Wrapper26QtWidgetDirectoryParameterE@Base 5.0.0
 _ZTIN3otb7Wrapper27QtWidgetInputImageParameterE@Base 5.0.0
 _ZTIN3otb7Wrapper27QtWidgetStringListParameterE@Base 5.0.0
 _ZTIN3otb7Wrapper28QtWidgetOutputImageParameterE@Base 5.0.0
 _ZTIN3otb7Wrapper28QtWidgetSimpleProgressReportE@Base 5.0.0
 _ZTIN3otb7Wrapper30QtWidgetInputFilenameParameterE@Base 5.0.0
 _ZTIN3otb7Wrapper31QtWidgetInputImageListParameterE@Base 5.0.0
 _ZTIN3otb7Wrapper31QtWidgetOutputFilenameParameterE@Base 5.0.0
 _ZTIN3otb7Wrapper32QtWidgetInputProcessXMLParameterE@Base 5.0.0
 _ZTIN3otb7Wrapper32QtWidgetInputVectorDataParameterE@Base 5.0.0
 _ZTIN3otb7Wrapper33QtWidgetOutputProcessXMLParameterE@Base 5.0.0
 _ZTIN3otb7Wrapper33QtWidgetOutputVectorDataParameterE@Base 5.0.0
 _ZTIN3otb7Wrapper34QtWidgetComplexInputImageParameterE@Base 5.0.0
 _ZTIN3otb7Wrapper34QtWidgetInputFilenameListParameterE@Base 5.0.0
 _ZTIN3otb7Wrapper35QtWidgetComplexOutputImageParameterE@Base 5.0.0
 _ZTIN3otb7Wrapper36QtWidgetInputVectorDataListParameterE@Base 5.0.0
 _ZTIN3otb7Wrapper9ParameterE@Base 5.0.0
 _ZTIN5boost12bad_any_castE@Base 5.0.0
 _ZTIN5boost16exception_detail10clone_baseE@Base 5.0.0
 _ZTIN5boost16exception_detail10clone_implINS0_19error_info_injectorINS_12bad_any_castEEEEE@Base 5.0.0
 _ZTIN5boost16exception_detail19error_info_injectorINS_12bad_any_castEEE@Base 5.0.0
 _ZTIN5boost3any11placeholderE@Base 5.0.0
 _ZTIN5boost3any6holderIKfEE@Base 5.0.0
 _ZTIN5boost3any6holderIKiEE@Base 5.0.0
 _ZTIN5boost3any6holderIKjEE@Base 5.0.0
 _ZTIN5boost3any6holderIfEE@Base 5.0.0
 _ZTIN5boost3any6holderIiEE@Base 5.0.0
 _ZTIN5boost3any6holderIjEE@Base 5.0.0
 _ZTIN5boost9exceptionE@Base 5.0.0
 _ZTSN3itk10Statistics26RandomVariateGeneratorBaseE@Base 5.0.0
 _ZTSN3itk10Statistics37MersenneTwisterRandomVariateGeneratorE@Base 5.0.0
 _ZTSN3itk13MemberCommandIN3otb7Wrapper22QtWidgetProgressReportEEE@Base 5.0.0
 _ZTSN3itk13MemberCommandIN3otb7Wrapper28QtWidgetSimpleProgressReportEEE@Base 5.0.0
 _ZTSN3itk13MemberCommandINS_13QtProgressBarEEE@Base 5.0.0
 _ZTSN3itk13ProgressEventE@Base 5.0.0
 _ZTSN3itk13QtProgressBarE@Base 5.0.0
 _ZTSN3itk8AnyEventE@Base 5.0.0
 _ZTSN3itk9LogOutputE@Base 5.0.0
 _ZTSN3otb11QtLogOutputE@Base 5.0.0
 _ZTSN3otb7Wrapper11AppliThreadE@Base 5.0.0
 _ZTSN3otb7Wrapper12QtWidgetViewE@Base 5.0.0
 _ZTSN3otb7Wrapper12RAMParameterE@Base 5.0.0
 _ZTSN3otb7Wrapper13QtApplicationE@Base 5.0.0
 _ZTSN3otb7Wrapper13QtWidgetModelE@Base 5.0.0
 _ZTSN3otb7Wrapper14EmptyParameterE@Base 5.0.0
 _ZTSN3otb7Wrapper15RadiusParameterE@Base 5.0.0
 _ZTSN3otb7Wrapper15StringParameterE@Base 5.0.0
 _ZTSN3otb7Wrapper18DirectoryParameterE@Base 5.0.0
 _ZTSN3otb7Wrapper18NumericalParameterIfEE@Base 5.0.0
 _ZTSN3otb7Wrapper18NumericalParameterIiEE@Base 5.0.0
 _ZTSN3otb7Wrapper19StringListParameterE@Base 5.0.0
 _ZTSN3otb7Wrapper20QtWidgetIntParameterE@Base 5.0.0
 _ZTSN3otb7Wrapper20QtWidgetRAMParameterE@Base 5.0.0
 _ZTSN3otb7Wrapper21QtFileSelectionWidgetE@Base 5.0.0
 _ZTSN3otb7Wrapper21QtWidgetParameterBaseE@Base 5.0.0
 _ZTSN3otb7Wrapper22AddProcessToWatchEventE@Base 5.0.0
 _ZTSN3otb7Wrapper22InputFilenameParameterE@Base 5.0.0
 _ZTSN3otb7Wrapper22QtWidgetEmptyParameterE@Base 5.0.0
 _ZTSN3otb7Wrapper22QtWidgetFloatParameterE@Base 5.0.0
 _ZTSN3otb7Wrapper22QtWidgetParameterGroupE@Base 5.0.0
 _ZTSN3otb7Wrapper22QtWidgetParameterLabelE@Base 5.0.0
 _ZTSN3otb7Wrapper22QtWidgetProgressReportE@Base 5.0.0
 _ZTSN3otb7Wrapper23OutputFilenameParameterE@Base 5.0.0
 _ZTSN3otb7Wrapper23QtStringSelectionWidgetE@Base 5.0.0
 _ZTSN3otb7Wrapper23QtWidgetChoiceParameterE@Base 5.0.0
 _ZTSN3otb7Wrapper23QtWidgetStringParameterE@Base 5.0.0
 _ZTSN3otb7Wrapper24QtWidgetParameterFactoryE@Base 5.0.0
 _ZTSN3otb7Wrapper25OutputVectorDataParameterE@Base 5.0.0
 _ZTSN3otb7Wrapper25QtWidgetListViewParameterE@Base 5.0.0
 _ZTSN3otb7Wrapper26QtWidgetDirectoryParameterE@Base 5.0.0
 _ZTSN3otb7Wrapper27QtWidgetInputImageParameterE@Base 5.0.0
 _ZTSN3otb7Wrapper27QtWidgetStringListParameterE@Base 5.0.0
 _ZTSN3otb7Wrapper28QtWidgetOutputImageParameterE@Base 5.0.0
 _ZTSN3otb7Wrapper28QtWidgetSimpleProgressReportE@Base 5.0.0
 _ZTSN3otb7Wrapper30QtWidgetInputFilenameParameterE@Base 5.0.0
 _ZTSN3otb7Wrapper31QtWidgetInputImageListParameterE@Base 5.0.0
 _ZTSN3otb7Wrapper31QtWidgetOutputFilenameParameterE@Base 5.0.0
 _ZTSN3otb7Wrapper32QtWidgetInputProcessXMLParameterE@Base 5.0.0
 _ZTSN3otb7Wrapper32QtWidgetInputVectorDataParameterE@Base 5.0.0
 _ZTSN3otb7Wrapper33QtWidgetOutputProcessXMLParameterE@Base 5.0.0
 _ZTSN3otb7Wrapper33QtWidgetOutputVectorDataParameterE@Base 5.0.0
 _ZTSN3otb7Wrapper34QtWidgetComplexInputImageParameterE@Base 5.0.0
 _ZTSN3otb7Wrapper34QtWidgetInputFilenameListParameterE@Base 5.0.0
 _ZTSN3otb7Wrapper35QtWidgetComplexOutputImageParameterE@Base 5.0.0
 _ZTSN3otb7Wrapper36QtWidgetInputVectorDataListParameterE@Base 5.0.0
 _ZTSN3otb7Wrapper9ParameterE@Base 5.0.0
 _ZTSN5boost12bad_any_castE@Base 5.0.0
 _ZTSN5boost16exception_detail10clone_baseE@Base 5.0.0
 _ZTSN5boost16exception_detail10clone_implINS0_19error_info_injectorINS_12bad_any_castEEEEE@Base 5.0.0
 _ZTSN5boost16exception_detail19error_info_injectorINS_12bad_any_castEEE@Base 5.0.0
 _ZTSN5boost3any11placeholderE@Base 5.0.0
 _ZTSN5boost3any6holderIKfEE@Base 5.0.0
 _ZTSN5boost3any6holderIKiEE@Base 5.0.0
 _ZTSN5boost3any6holderIKjEE@Base 5.0.0
 _ZTSN5boost3any6holderIfEE@Base 5.0.0
 _ZTSN5boost3any6holderIiEE@Base 5.0.0
 _ZTSN5boost3any6holderIjEE@Base 5.0.0
 _ZTSN5boost9exceptionE@Base 5.0.0
 _ZTTN5boost16exception_detail10clone_implINS0_19error_info_injectorINS_12bad_any_castEEEEE@Base 5.0.0
 _ZTVN3itk10Statistics26RandomVariateGeneratorBaseE@Base 5.0.0
 _ZTVN3itk10Statistics37MersenneTwisterRandomVariateGeneratorE@Base 5.0.0
 _ZTVN3itk13MemberCommandIN3otb7Wrapper22QtWidgetProgressReportEEE@Base 5.0.0
 _ZTVN3itk13MemberCommandIN3otb7Wrapper28QtWidgetSimpleProgressReportEEE@Base 5.0.0
 _ZTVN3itk13MemberCommandINS_13QtProgressBarEEE@Base 5.0.0
 _ZTVN3itk13ProgressEventE@Base 5.0.0
 _ZTVN3itk13QtProgressBarE@Base 5.0.0
 _ZTVN3itk8AnyEventE@Base 5.0.0
 _ZTVN3itk9LogOutputE@Base 5.0.0
 _ZTVN3otb11QtLogOutputE@Base 5.0.0
 _ZTVN3otb7Wrapper11AppliThreadE@Base 5.0.0
 _ZTVN3otb7Wrapper12QtWidgetViewE@Base 5.0.0
 _ZTVN3otb7Wrapper13QtApplicationE@Base 5.0.0
 _ZTVN3otb7Wrapper13QtWidgetModelE@Base 5.0.0
 _ZTVN3otb7Wrapper20QtWidgetIntParameterE@Base 5.0.0
 _ZTVN3otb7Wrapper20QtWidgetRAMParameterE@Base 5.0.0
 _ZTVN3otb7Wrapper21QtFileSelectionWidgetE@Base 5.0.0
 _ZTVN3otb7Wrapper21QtWidgetParameterBaseE@Base 5.0.0
 _ZTVN3otb7Wrapper22AddProcessToWatchEventE@Base 5.0.0
 _ZTVN3otb7Wrapper22QtWidgetEmptyParameterE@Base 5.0.0
 _ZTVN3otb7Wrapper22QtWidgetFloatParameterE@Base 5.0.0
 _ZTVN3otb7Wrapper22QtWidgetParameterGroupE@Base 5.0.0
 _ZTVN3otb7Wrapper22QtWidgetParameterLabelE@Base 5.0.0
 _ZTVN3otb7Wrapper22QtWidgetProgressReportE@Base 5.0.0
 _ZTVN3otb7Wrapper23QtStringSelectionWidgetE@Base 5.0.0
 _ZTVN3otb7Wrapper23QtWidgetChoiceParameterE@Base 5.0.0
 _ZTVN3otb7Wrapper23QtWidgetStringParameterE@Base 5.0.0
 _ZTVN3otb7Wrapper24QtWidgetParameterFactoryE@Base 5.0.0
 _ZTVN3otb7Wrapper25QtWidgetListViewParameterE@Base 5.0.0
 _ZTVN3otb7Wrapper26QtWidgetDirectoryParameterE@Base 5.0.0
 _ZTVN3otb7Wrapper27QtWidgetInputImageParameterE@Base 5.0.0
 _ZTVN3otb7Wrapper27QtWidgetStringListParameterE@Base 5.0.0
 _ZTVN3otb7Wrapper28QtWidgetOutputImageParameterE@Base 5.0.0
 _ZTVN3otb7Wrapper28QtWidgetSimpleProgressReportE@Base 5.0.0
 _ZTVN3otb7Wrapper30QtWidgetInputFilenameParameterE@Base 5.0.0
 _ZTVN3otb7Wrapper31QtWidgetInputImageListParameterE@Base 5.0.0
 _ZTVN3otb7Wrapper31QtWidgetOutputFilenameParameterE@Base 5.0.0
 _ZTVN3otb7Wrapper32QtWidgetInputProcessXMLParameterE@Base 5.0.0
 _ZTVN3otb7Wrapper32QtWidgetInputVectorDataParameterE@Base 5.0.0
 _ZTVN3otb7Wrapper33QtWidgetOutputProcessXMLParameterE@Base 5.0.0
 _ZTVN3otb7Wrapper33QtWidgetOutputVectorDataParameterE@Base 5.0.0
 _ZTVN3otb7Wrapper34QtWidgetComplexInputImageParameterE@Base 5.0.0
 _ZTVN3otb7Wrapper34QtWidgetInputFilenameListParameterE@Base 5.0.0
 _ZTVN3otb7Wrapper35QtWidgetComplexOutputImageParameterE@Base 5.0.0
 _ZTVN3otb7Wrapper36QtWidgetInputVectorDataListParameterE@Base 5.0.0
 _ZTVN5boost12bad_any_castE@Base 5.0.0
 _ZTVN5boost16exception_detail10clone_baseE@Base 5.0.0
 _ZTVN5boost16exception_detail10clone_implINS0_19error_info_injectorINS_12bad_any_castEEEEE@Base 5.0.0
 _ZTVN5boost16exception_detail19error_info_injectorINS_12bad_any_castEEE@Base 5.0.0
 _ZTVN5boost3any11placeholderE@Base 5.0.0
 _ZTVN5boost3any6holderIKfEE@Base 5.0.0
 _ZTVN5boost3any6holderIKiEE@Base 5.0.0
 _ZTVN5boost3any6holderIKjEE@Base 5.0.0
 _ZTVN5boost3any6holderIfEE@Base 5.0.0
 _ZTVN5boost3any6holderIiEE@Base 5.0.0
 _ZTVN5boost3any6holderIjEE@Base 5.0.0
 _ZTVN5boost9exceptionE@Base 5.0.0
 (c++)"non-virtual thunk to boost::exception_detail::clone_impl<boost::exception_detail::error_info_injector<boost::bad_any_cast> >::~clone_impl()@Base" 5.0.0
 (c++)"non-virtual thunk to boost::exception_detail::error_info_injector<boost::bad_any_cast>::~error_info_injector()@Base" 5.0.0
 (c++)"non-virtual thunk to itk::QtProgressBar::~QtProgressBar()@Base" 5.0.0
 (c++)"non-virtual thunk to otb::QtLogOutput::CreateAnother() const@Base" 5.0.0
 (c++)"non-virtual thunk to otb::QtLogOutput::Flush()@Base" 5.0.0
 (c++)"non-virtual thunk to otb::QtLogOutput::GetNameOfClass() const@Base" 5.0.0
 (c++)"non-virtual thunk to otb::QtLogOutput::PrintSelf(std::basic_ostream<char, std::char_traits<char> >&, itk::Indent) const@Base" 5.0.0
 (c++)"non-virtual thunk to otb::QtLogOutput::Write(double)@Base" 5.0.0
 (c++)"non-virtual thunk to otb::QtLogOutput::Write(std::__cxx11::basic_string<char, std::char_traits<char>, std::allocator<char> > const&)@Base" 5.0.0
 (c++)"non-virtual thunk to otb::QtLogOutput::Write(std::__cxx11::basic_string<char, std::char_traits<char>, std::allocator<char> > const&, double)@Base" 5.0.0
 (c++)"non-virtual thunk to otb::QtLogOutput::Write(std::basic_string<char, std::char_traits<char>, std::allocator<char> > const&)@Base" 5.0.0
 (c++)"non-virtual thunk to otb::QtLogOutput::Write(std::basic_string<char, std::char_traits<char>, std::allocator<char> > const&, double)@Base" 5.0.0
 (c++)"non-virtual thunk to otb::QtLogOutput::~QtLogOutput()@Base" 5.0.0
 (c++)"non-virtual thunk to otb::Wrapper::QtFileSelectionWidget::~QtFileSelectionWidget()@Base" 5.0.0
 (c++)"non-virtual thunk to otb::Wrapper::QtStringSelectionWidget::~QtStringSelectionWidget()@Base" 5.0.0
 (c++)"non-virtual thunk to otb::Wrapper::QtWidgetChoiceParameter::~QtWidgetChoiceParameter()@Base" 5.0.0
 (c++)"non-virtual thunk to otb::Wrapper::QtWidgetComplexInputImageParameter::~QtWidgetComplexInputImageParameter()@Base" 5.0.0
 (c++)"non-virtual thunk to otb::Wrapper::QtWidgetComplexOutputImageParameter::~QtWidgetComplexOutputImageParameter()@Base" 5.0.0
 (c++)"non-virtual thunk to otb::Wrapper::QtWidgetDirectoryParameter::~QtWidgetDirectoryParameter()@Base" 5.0.0
 (c++)"non-virtual thunk to otb::Wrapper::QtWidgetEmptyParameter::~QtWidgetEmptyParameter()@Base" 5.0.0
 (c++)"non-virtual thunk to otb::Wrapper::QtWidgetFloatParameter::~QtWidgetFloatParameter()@Base" 5.0.0
 (c++)"non-virtual thunk to otb::Wrapper::QtWidgetInputFilenameListParameter::~QtWidgetInputFilenameListParameter()@Base" 5.0.0
 (c++)"non-virtual thunk to otb::Wrapper::QtWidgetInputFilenameParameter::~QtWidgetInputFilenameParameter()@Base" 5.0.0
 (c++)"non-virtual thunk to otb::Wrapper::QtWidgetInputImageListParameter::~QtWidgetInputImageListParameter()@Base" 5.0.0
 (c++)"non-virtual thunk to otb::Wrapper::QtWidgetInputImageParameter::~QtWidgetInputImageParameter()@Base" 5.0.0
 (c++)"non-virtual thunk to otb::Wrapper::QtWidgetInputProcessXMLParameter::~QtWidgetInputProcessXMLParameter()@Base" 5.0.0
 (c++)"non-virtual thunk to otb::Wrapper::QtWidgetInputVectorDataListParameter::~QtWidgetInputVectorDataListParameter()@Base" 5.0.0
 (c++)"non-virtual thunk to otb::Wrapper::QtWidgetInputVectorDataParameter::~QtWidgetInputVectorDataParameter()@Base" 5.0.0
 (c++)"non-virtual thunk to otb::Wrapper::QtWidgetIntParameter::~QtWidgetIntParameter()@Base" 5.0.0
 (c++)"non-virtual thunk to otb::Wrapper::QtWidgetListViewParameter::~QtWidgetListViewParameter()@Base" 5.0.0
 (c++)"non-virtual thunk to otb::Wrapper::QtWidgetOutputFilenameParameter::~QtWidgetOutputFilenameParameter()@Base" 5.0.0
 (c++)"non-virtual thunk to otb::Wrapper::QtWidgetOutputImageParameter::~QtWidgetOutputImageParameter()@Base" 5.0.0
 (c++)"non-virtual thunk to otb::Wrapper::QtWidgetOutputProcessXMLParameter::~QtWidgetOutputProcessXMLParameter()@Base" 5.0.0
 (c++)"non-virtual thunk to otb::Wrapper::QtWidgetOutputVectorDataParameter::~QtWidgetOutputVectorDataParameter()@Base" 5.0.0
 (c++)"non-virtual thunk to otb::Wrapper::QtWidgetParameterBase::~QtWidgetParameterBase()@Base" 5.0.0
 (c++)"non-virtual thunk to otb::Wrapper::QtWidgetParameterGroup::~QtWidgetParameterGroup()@Base" 5.0.0
 (c++)"non-virtual thunk to otb::Wrapper::QtWidgetParameterLabel::~QtWidgetParameterLabel()@Base" 5.0.0
 (c++)"non-virtual thunk to otb::Wrapper::QtWidgetProgressReport::~QtWidgetProgressReport()@Base" 5.0.0
 (c++)"non-virtual thunk to otb::Wrapper::QtWidgetRAMParameter::~QtWidgetRAMParameter()@Base" 5.0.0
 (c++)"non-virtual thunk to otb::Wrapper::QtWidgetSimpleProgressReport::~QtWidgetSimpleProgressReport()@Base" 5.0.0
 (c++)"non-virtual thunk to otb::Wrapper::QtWidgetStringListParameter::~QtWidgetStringListParameter()@Base" 5.0.0
 (c++)"non-virtual thunk to otb::Wrapper::QtWidgetStringParameter::~QtWidgetStringParameter()@Base" 5.0.0
 (c++)"non-virtual thunk to otb::Wrapper::QtWidgetView::~QtWidgetView()@Base" 5.0.0
 (c++)"virtual thunk to boost::exception_detail::clone_impl<boost::exception_detail::error_info_injector<boost::bad_any_cast> >::clone() const@Base" 5.0.0
 (c++)"virtual thunk to boost::exception_detail::clone_impl<boost::exception_detail::error_info_injector<boost::bad_any_cast> >::rethrow() const@Base" 5.0.0
 (c++)"virtual thunk to boost::exception_detail::clone_impl<boost::exception_detail::error_info_injector<boost::bad_any_cast> >::~clone_impl()@Base" 5.0.0
