# SymbolsHelper-Confirmed: 5.2.0 amd64 i386
libOTBWavelet-5.2.so.1 libotbwavelet-5.2-1 #MINVER#
 (optional=templinst)_ZN3otb16WaveletGeneratorILNS_7Wavelet7WaveletE0EE3NewEv@Base 5.2.0
 (optional=templinst)_ZN3otb16WaveletGeneratorILNS_7Wavelet7WaveletE0EEC1Ev@Base 5.2.0
 (optional=templinst)_ZN3otb16WaveletGeneratorILNS_7Wavelet7WaveletE0EEC2Ev@Base 5.2.0
 (optional=templinst)_ZN3otb16WaveletGeneratorILNS_7Wavelet7WaveletE0EED0Ev@Base 5.2.0
 (optional=templinst)_ZN3otb16WaveletGeneratorILNS_7Wavelet7WaveletE0EED1Ev@Base 5.2.0
 (optional=templinst)_ZN3otb16WaveletGeneratorILNS_7Wavelet7WaveletE0EED2Ev@Base 5.2.0
 (optional=templinst)_ZN3otb16WaveletGeneratorILNS_7Wavelet7WaveletE1EE3NewEv@Base 5.2.0
 (optional=templinst)_ZN3otb16WaveletGeneratorILNS_7Wavelet7WaveletE1EEC1Ev@Base 5.2.0
 (optional=templinst)_ZN3otb16WaveletGeneratorILNS_7Wavelet7WaveletE1EEC2Ev@Base 5.2.0
 (optional=templinst)_ZN3otb16WaveletGeneratorILNS_7Wavelet7WaveletE1EED0Ev@Base 5.2.0
 (optional=templinst)_ZN3otb16WaveletGeneratorILNS_7Wavelet7WaveletE1EED1Ev@Base 5.2.0
 (optional=templinst)_ZN3otb16WaveletGeneratorILNS_7Wavelet7WaveletE1EED2Ev@Base 5.2.0
 (optional=templinst)_ZN3otb16WaveletGeneratorILNS_7Wavelet7WaveletE2EE3NewEv@Base 5.2.0
 (optional=templinst)_ZN3otb16WaveletGeneratorILNS_7Wavelet7WaveletE2EEC1Ev@Base 5.2.0
 (optional=templinst)_ZN3otb16WaveletGeneratorILNS_7Wavelet7WaveletE2EEC2Ev@Base 5.2.0
 (optional=templinst)_ZN3otb16WaveletGeneratorILNS_7Wavelet7WaveletE2EED0Ev@Base 5.2.0
 (optional=templinst)_ZN3otb16WaveletGeneratorILNS_7Wavelet7WaveletE2EED1Ev@Base 5.2.0
 (optional=templinst)_ZN3otb16WaveletGeneratorILNS_7Wavelet7WaveletE2EED2Ev@Base 5.2.0
 (optional=templinst)_ZN3otb16WaveletGeneratorILNS_7Wavelet7WaveletE3EE3NewEv@Base 5.2.0
 (optional=templinst)_ZN3otb16WaveletGeneratorILNS_7Wavelet7WaveletE3EEC1Ev@Base 5.2.0
 (optional=templinst)_ZN3otb16WaveletGeneratorILNS_7Wavelet7WaveletE3EEC2Ev@Base 5.2.0
 (optional=templinst)_ZN3otb16WaveletGeneratorILNS_7Wavelet7WaveletE3EED0Ev@Base 5.2.0
 (optional=templinst)_ZN3otb16WaveletGeneratorILNS_7Wavelet7WaveletE3EED1Ev@Base 5.2.0
 (optional=templinst)_ZN3otb16WaveletGeneratorILNS_7Wavelet7WaveletE3EED2Ev@Base 5.2.0
 (optional=templinst)_ZN3otb16WaveletGeneratorILNS_7Wavelet7WaveletE4EE3NewEv@Base 5.2.0
 (optional=templinst)_ZN3otb16WaveletGeneratorILNS_7Wavelet7WaveletE4EEC1Ev@Base 5.2.0
 (optional=templinst)_ZN3otb16WaveletGeneratorILNS_7Wavelet7WaveletE4EEC2Ev@Base 5.2.0
 (optional=templinst)_ZN3otb16WaveletGeneratorILNS_7Wavelet7WaveletE4EED0Ev@Base 5.2.0
 (optional=templinst)_ZN3otb16WaveletGeneratorILNS_7Wavelet7WaveletE4EED1Ev@Base 5.2.0
 (optional=templinst)_ZN3otb16WaveletGeneratorILNS_7Wavelet7WaveletE4EED2Ev@Base 5.2.0
 (optional=templinst)_ZN3otb16WaveletGeneratorILNS_7Wavelet7WaveletE5EE3NewEv@Base 5.2.0
 (optional=templinst)_ZN3otb16WaveletGeneratorILNS_7Wavelet7WaveletE5EEC1Ev@Base 5.2.0
 (optional=templinst)_ZN3otb16WaveletGeneratorILNS_7Wavelet7WaveletE5EEC2Ev@Base 5.2.0
 (optional=templinst)_ZN3otb16WaveletGeneratorILNS_7Wavelet7WaveletE5EED0Ev@Base 5.2.0
 (optional=templinst)_ZN3otb16WaveletGeneratorILNS_7Wavelet7WaveletE5EED1Ev@Base 5.2.0
 (optional=templinst)_ZN3otb16WaveletGeneratorILNS_7Wavelet7WaveletE5EED2Ev@Base 5.2.0
 (optional=templinst)_ZN3otb16WaveletGeneratorILNS_7Wavelet7WaveletE6EE3NewEv@Base 5.2.0
 (optional=templinst)_ZN3otb16WaveletGeneratorILNS_7Wavelet7WaveletE6EEC1Ev@Base 5.2.0
 (optional=templinst)_ZN3otb16WaveletGeneratorILNS_7Wavelet7WaveletE6EEC2Ev@Base 5.2.0
 (optional=templinst)_ZN3otb16WaveletGeneratorILNS_7Wavelet7WaveletE6EED0Ev@Base 5.2.0
 (optional=templinst)_ZN3otb16WaveletGeneratorILNS_7Wavelet7WaveletE6EED1Ev@Base 5.2.0
 (optional=templinst)_ZN3otb16WaveletGeneratorILNS_7Wavelet7WaveletE6EED2Ev@Base 5.2.0
 (optional=templinst)_ZN3otb16WaveletGeneratorILNS_7Wavelet7WaveletE7EE3NewEv@Base 5.2.0
 (optional=templinst)_ZN3otb16WaveletGeneratorILNS_7Wavelet7WaveletE7EEC1Ev@Base 5.2.0
 (optional=templinst)_ZN3otb16WaveletGeneratorILNS_7Wavelet7WaveletE7EEC2Ev@Base 5.2.0
 (optional=templinst)_ZN3otb16WaveletGeneratorILNS_7Wavelet7WaveletE7EED0Ev@Base 5.2.0
 (optional=templinst)_ZN3otb16WaveletGeneratorILNS_7Wavelet7WaveletE7EED1Ev@Base 5.2.0
 (optional=templinst)_ZN3otb16WaveletGeneratorILNS_7Wavelet7WaveletE7EED2Ev@Base 5.2.0
 (optional=templinst)_ZN3otb16WaveletGeneratorILNS_7Wavelet7WaveletE8EE3NewEv@Base 5.2.0
 (optional=templinst)_ZN3otb16WaveletGeneratorILNS_7Wavelet7WaveletE8EEC1Ev@Base 5.2.0
 (optional=templinst)_ZN3otb16WaveletGeneratorILNS_7Wavelet7WaveletE8EEC2Ev@Base 5.2.0
 (optional=templinst)_ZN3otb16WaveletGeneratorILNS_7Wavelet7WaveletE8EED0Ev@Base 5.2.0
 (optional=templinst)_ZN3otb16WaveletGeneratorILNS_7Wavelet7WaveletE8EED1Ev@Base 5.2.0
 (optional=templinst)_ZN3otb16WaveletGeneratorILNS_7Wavelet7WaveletE8EED2Ev@Base 5.2.0
 _ZNK3itk11LightObject17GetReferenceCountEv@Base 5.2.0
 (optional=templinst)_ZNK3otb16WaveletGeneratorILNS_7Wavelet7WaveletE0EE13CreateAnotherEv@Base 5.2.0
 (optional=templinst)_ZNK3otb16WaveletGeneratorILNS_7Wavelet7WaveletE0EE14GetNameOfClassEv@Base 5.2.0
 (optional=templinst)_ZNK3otb16WaveletGeneratorILNS_7Wavelet7WaveletE0EE14GetWaveletNameEv@Base 5.2.0
 (optional=templinst)_ZNK3otb16WaveletGeneratorILNS_7Wavelet7WaveletE0EE27GetLowPassCoefficientVectorERSt6vectorIdSaIdEE@Base 5.2.0
 (optional=templinst)_ZNK3otb16WaveletGeneratorILNS_7Wavelet7WaveletE0EE28GetHighPassCoefficientVectorERSt6vectorIdSaIdEE@Base 5.2.0
 (optional=templinst)_ZNK3otb16WaveletGeneratorILNS_7Wavelet7WaveletE0EE5CloneEv@Base 5.2.0
 (optional=templinst)_ZNK3otb16WaveletGeneratorILNS_7Wavelet7WaveletE1EE13CreateAnotherEv@Base 5.2.0
 (optional=templinst)_ZNK3otb16WaveletGeneratorILNS_7Wavelet7WaveletE1EE14GetNameOfClassEv@Base 5.2.0
 (optional=templinst)_ZNK3otb16WaveletGeneratorILNS_7Wavelet7WaveletE1EE14GetWaveletNameEv@Base 5.2.0
 (optional=templinst)_ZNK3otb16WaveletGeneratorILNS_7Wavelet7WaveletE1EE27GetLowPassCoefficientVectorERSt6vectorIdSaIdEE@Base 5.2.0
 (optional=templinst)_ZNK3otb16WaveletGeneratorILNS_7Wavelet7WaveletE1EE28GetHighPassCoefficientVectorERSt6vectorIdSaIdEE@Base 5.2.0
 (optional=templinst)_ZNK3otb16WaveletGeneratorILNS_7Wavelet7WaveletE1EE5CloneEv@Base 5.2.0
 (optional=templinst)_ZNK3otb16WaveletGeneratorILNS_7Wavelet7WaveletE2EE13CreateAnotherEv@Base 5.2.0
 (optional=templinst)_ZNK3otb16WaveletGeneratorILNS_7Wavelet7WaveletE2EE14GetNameOfClassEv@Base 5.2.0
 (optional=templinst)_ZNK3otb16WaveletGeneratorILNS_7Wavelet7WaveletE2EE14GetWaveletNameEv@Base 5.2.0
 (optional=templinst)_ZNK3otb16WaveletGeneratorILNS_7Wavelet7WaveletE2EE27GetLowPassCoefficientVectorERSt6vectorIdSaIdEE@Base 5.2.0
 (optional=templinst)_ZNK3otb16WaveletGeneratorILNS_7Wavelet7WaveletE2EE28GetHighPassCoefficientVectorERSt6vectorIdSaIdEE@Base 5.2.0
 (optional=templinst)_ZNK3otb16WaveletGeneratorILNS_7Wavelet7WaveletE2EE5CloneEv@Base 5.2.0
 (optional=templinst)_ZNK3otb16WaveletGeneratorILNS_7Wavelet7WaveletE3EE13CreateAnotherEv@Base 5.2.0
 (optional=templinst)_ZNK3otb16WaveletGeneratorILNS_7Wavelet7WaveletE3EE14GetNameOfClassEv@Base 5.2.0
 (optional=templinst)_ZNK3otb16WaveletGeneratorILNS_7Wavelet7WaveletE3EE14GetWaveletNameEv@Base 5.2.0
 (optional=templinst)_ZNK3otb16WaveletGeneratorILNS_7Wavelet7WaveletE3EE27GetLowPassCoefficientVectorERSt6vectorIdSaIdEE@Base 5.2.0
 (optional=templinst)_ZNK3otb16WaveletGeneratorILNS_7Wavelet7WaveletE3EE28GetHighPassCoefficientVectorERSt6vectorIdSaIdEE@Base 5.2.0
 (optional=templinst)_ZNK3otb16WaveletGeneratorILNS_7Wavelet7WaveletE3EE5CloneEv@Base 5.2.0
 (optional=templinst)_ZNK3otb16WaveletGeneratorILNS_7Wavelet7WaveletE4EE13CreateAnotherEv@Base 5.2.0
 (optional=templinst)_ZNK3otb16WaveletGeneratorILNS_7Wavelet7WaveletE4EE14GetNameOfClassEv@Base 5.2.0
 (optional=templinst)_ZNK3otb16WaveletGeneratorILNS_7Wavelet7WaveletE4EE14GetWaveletNameEv@Base 5.2.0
 (optional=templinst)_ZNK3otb16WaveletGeneratorILNS_7Wavelet7WaveletE4EE27GetLowPassCoefficientVectorERSt6vectorIdSaIdEE@Base 5.2.0
 (optional=templinst)_ZNK3otb16WaveletGeneratorILNS_7Wavelet7WaveletE4EE28GetHighPassCoefficientVectorERSt6vectorIdSaIdEE@Base 5.2.0
 (optional=templinst)_ZNK3otb16WaveletGeneratorILNS_7Wavelet7WaveletE4EE5CloneEv@Base 5.2.0
 (optional=templinst)_ZNK3otb16WaveletGeneratorILNS_7Wavelet7WaveletE5EE13CreateAnotherEv@Base 5.2.0
 (optional=templinst)_ZNK3otb16WaveletGeneratorILNS_7Wavelet7WaveletE5EE14GetNameOfClassEv@Base 5.2.0
 (optional=templinst)_ZNK3otb16WaveletGeneratorILNS_7Wavelet7WaveletE5EE14GetWaveletNameEv@Base 5.2.0
 (optional=templinst)_ZNK3otb16WaveletGeneratorILNS_7Wavelet7WaveletE5EE27GetLowPassCoefficientVectorERSt6vectorIdSaIdEE@Base 5.2.0
 (optional=templinst)_ZNK3otb16WaveletGeneratorILNS_7Wavelet7WaveletE5EE28GetHighPassCoefficientVectorERSt6vectorIdSaIdEE@Base 5.2.0
 (optional=templinst)_ZNK3otb16WaveletGeneratorILNS_7Wavelet7WaveletE5EE5CloneEv@Base 5.2.0
 (optional=templinst)_ZNK3otb16WaveletGeneratorILNS_7Wavelet7WaveletE6EE13CreateAnotherEv@Base 5.2.0
 (optional=templinst)_ZNK3otb16WaveletGeneratorILNS_7Wavelet7WaveletE6EE14GetNameOfClassEv@Base 5.2.0
 (optional=templinst)_ZNK3otb16WaveletGeneratorILNS_7Wavelet7WaveletE6EE14GetWaveletNameEv@Base 5.2.0
 (optional=templinst)_ZNK3otb16WaveletGeneratorILNS_7Wavelet7WaveletE6EE27GetLowPassCoefficientVectorERSt6vectorIdSaIdEE@Base 5.2.0
 (optional=templinst)_ZNK3otb16WaveletGeneratorILNS_7Wavelet7WaveletE6EE28GetHighPassCoefficientVectorERSt6vectorIdSaIdEE@Base 5.2.0
 (optional=templinst)_ZNK3otb16WaveletGeneratorILNS_7Wavelet7WaveletE6EE5CloneEv@Base 5.2.0
 (optional=templinst)_ZNK3otb16WaveletGeneratorILNS_7Wavelet7WaveletE7EE13CreateAnotherEv@Base 5.2.0
 (optional=templinst)_ZNK3otb16WaveletGeneratorILNS_7Wavelet7WaveletE7EE14GetNameOfClassEv@Base 5.2.0
 (optional=templinst)_ZNK3otb16WaveletGeneratorILNS_7Wavelet7WaveletE7EE14GetWaveletNameEv@Base 5.2.0
 (optional=templinst)_ZNK3otb16WaveletGeneratorILNS_7Wavelet7WaveletE7EE27GetLowPassCoefficientVectorERSt6vectorIdSaIdEE@Base 5.2.0
 (optional=templinst)_ZNK3otb16WaveletGeneratorILNS_7Wavelet7WaveletE7EE28GetHighPassCoefficientVectorERSt6vectorIdSaIdEE@Base 5.2.0
 (optional=templinst)_ZNK3otb16WaveletGeneratorILNS_7Wavelet7WaveletE7EE5CloneEv@Base 5.2.0
 (optional=templinst)_ZNK3otb16WaveletGeneratorILNS_7Wavelet7WaveletE8EE13CreateAnotherEv@Base 5.2.0
 (optional=templinst)_ZNK3otb16WaveletGeneratorILNS_7Wavelet7WaveletE8EE14GetNameOfClassEv@Base 5.2.0
 (optional=templinst)_ZNK3otb16WaveletGeneratorILNS_7Wavelet7WaveletE8EE14GetWaveletNameEv@Base 5.2.0
 (optional=templinst)_ZNK3otb16WaveletGeneratorILNS_7Wavelet7WaveletE8EE27GetLowPassCoefficientVectorERSt6vectorIdSaIdEE@Base 5.2.0
 (optional=templinst)_ZNK3otb16WaveletGeneratorILNS_7Wavelet7WaveletE8EE28GetHighPassCoefficientVectorERSt6vectorIdSaIdEE@Base 5.2.0
 (optional=templinst)_ZNK3otb16WaveletGeneratorILNS_7Wavelet7WaveletE8EE5CloneEv@Base 5.2.0
 (optional=templinst|arch=i386)_ZNSt6vectorIdSaIdEE14_M_fill_insertEN9__gnu_cxx17__normal_iteratorIPdS1_EEjRKd@Base 5.2.0
 (optional=templinst)_ZNSt6vectorIdSaIdEE14_M_fill_insertEN9__gnu_cxx17__normal_iteratorIPdS1_EEmRKd@Base 5.2.0
 _ZTIN3otb16WaveletGeneratorILNS_7Wavelet7WaveletE0EEE@Base 5.2.0
 _ZTIN3otb16WaveletGeneratorILNS_7Wavelet7WaveletE1EEE@Base 5.2.0
 _ZTIN3otb16WaveletGeneratorILNS_7Wavelet7WaveletE2EEE@Base 5.2.0
 _ZTIN3otb16WaveletGeneratorILNS_7Wavelet7WaveletE3EEE@Base 5.2.0
 _ZTIN3otb16WaveletGeneratorILNS_7Wavelet7WaveletE4EEE@Base 5.2.0
 _ZTIN3otb16WaveletGeneratorILNS_7Wavelet7WaveletE5EEE@Base 5.2.0
 _ZTIN3otb16WaveletGeneratorILNS_7Wavelet7WaveletE6EEE@Base 5.2.0
 _ZTIN3otb16WaveletGeneratorILNS_7Wavelet7WaveletE7EEE@Base 5.2.0
 _ZTIN3otb16WaveletGeneratorILNS_7Wavelet7WaveletE8EEE@Base 5.2.0
 _ZTSN3otb16WaveletGeneratorILNS_7Wavelet7WaveletE0EEE@Base 5.2.0
 _ZTSN3otb16WaveletGeneratorILNS_7Wavelet7WaveletE1EEE@Base 5.2.0
 _ZTSN3otb16WaveletGeneratorILNS_7Wavelet7WaveletE2EEE@Base 5.2.0
 _ZTSN3otb16WaveletGeneratorILNS_7Wavelet7WaveletE3EEE@Base 5.2.0
 _ZTSN3otb16WaveletGeneratorILNS_7Wavelet7WaveletE4EEE@Base 5.2.0
 _ZTSN3otb16WaveletGeneratorILNS_7Wavelet7WaveletE5EEE@Base 5.2.0
 _ZTSN3otb16WaveletGeneratorILNS_7Wavelet7WaveletE6EEE@Base 5.2.0
 _ZTSN3otb16WaveletGeneratorILNS_7Wavelet7WaveletE7EEE@Base 5.2.0
 _ZTSN3otb16WaveletGeneratorILNS_7Wavelet7WaveletE8EEE@Base 5.2.0
 _ZTVN3otb16WaveletGeneratorILNS_7Wavelet7WaveletE0EEE@Base 5.2.0
 _ZTVN3otb16WaveletGeneratorILNS_7Wavelet7WaveletE1EEE@Base 5.2.0
 _ZTVN3otb16WaveletGeneratorILNS_7Wavelet7WaveletE2EEE@Base 5.2.0
 _ZTVN3otb16WaveletGeneratorILNS_7Wavelet7WaveletE3EEE@Base 5.2.0
 _ZTVN3otb16WaveletGeneratorILNS_7Wavelet7WaveletE4EEE@Base 5.2.0
 _ZTVN3otb16WaveletGeneratorILNS_7Wavelet7WaveletE5EEE@Base 5.2.0
 _ZTVN3otb16WaveletGeneratorILNS_7Wavelet7WaveletE6EEE@Base 5.2.0
 _ZTVN3otb16WaveletGeneratorILNS_7Wavelet7WaveletE7EEE@Base 5.2.0
 _ZTVN3otb16WaveletGeneratorILNS_7Wavelet7WaveletE8EEE@Base 5.2.0
