# SymbolsHelper-Confirmed: 5.2.0 amd64
libOTBImageBase-5.2.so.1 libotbimagebase-5.2-1 #MINVER#
 _ZN3itk18LightProcessObject11SetProgressEf@Base 5.2.0
 _ZN3itk18LightProcessObject12GenerateDataEv@Base 5.2.0
 _ZN3itk18LightProcessObject19AbortGenerateDataOnEv@Base 5.2.0
 _ZN3itk18LightProcessObject20AbortGenerateDataOffEv@Base 5.2.0
 _ZN3itk18LightProcessObject20SetAbortGenerateDataEb@Base 5.2.0
 _ZN3itk6Object13SetObjectNameESs@Base 5.2.0
 _ZN3otb11ImageIOBase10SetSpacingEjd@Base 5.2.0
 _ZN3otb11ImageIOBase11SetFileNameEPKc@Base 5.2.0
 _ZN3otb11ImageIOBase11SetFileNameERKSs@Base 5.2.0
 _ZN3otb11ImageIOBase11SetFileTypeENS0_8FileTypeE@Base 5.2.0
 _ZN3otb11ImageIOBase11SetIORegionEN3itk13ImageIORegionE@Base 5.2.0
 _ZN3otb11ImageIOBase12SetByteOrderENS0_9ByteOrderE@Base 5.2.0
 _ZN3otb11ImageIOBase12SetDirectionEjR10vnl_vectorIdE@Base 5.2.0
 _ZN3otb11ImageIOBase12SetDirectionEjRSt6vectorIdSaIdEE@Base 5.2.0
 _ZN3otb11ImageIOBase12SetPixelTypeENS0_11IOPixelTypeE@Base 5.2.0
 _ZN3otb11ImageIOBase13CanStreamReadEv@Base 5.2.0
 _ZN3otb11ImageIOBase13SetDimensionsEjj@Base 5.2.0
 _ZN3otb11ImageIOBase14CanStreamWriteEv@Base 5.2.0
 _ZN3otb11ImageIOBase14ComputeStridesEv@Base 5.2.0
 _ZN3otb11ImageIOBase16SetComponentTypeENS0_15IOComponentTypeE@Base 5.2.0
 _ZN3otb11ImageIOBase16SetPixelTypeInfoERKSt9type_info@Base 5.2.0
 _ZN3otb11ImageIOBase16UseCompressionOnEv@Base 5.2.0
 _ZN3otb11ImageIOBase17ReadBufferAsASCIIERSiPvNS0_15IOComponentTypeEl@Base 5.2.0
 _ZN3otb11ImageIOBase17SetUseCompressionEb@Base 5.2.0
 _ZN3otb11ImageIOBase17SupportsDimensionEm@Base 5.2.0
 _ZN3otb11ImageIOBase17UseCompressionOffEv@Base 5.2.0
 _ZN3otb11ImageIOBase18ReadBufferAsBinaryERSiPvl@Base 5.2.0
 _ZN3otb11ImageIOBase18WriteBufferAsASCIIERSoPKvNS0_15IOComponentTypeEl@Base 5.2.0
 _ZN3otb11ImageIOBase20UseStreamedReadingOnEv@Base 5.2.0
 _ZN3otb11ImageIOBase20UseStreamedWritingOnEv@Base 5.2.0
 _ZN3otb11ImageIOBase21SetNumberOfComponentsEj@Base 5.2.0
 _ZN3otb11ImageIOBase21SetNumberOfDimensionsEj@Base 5.2.0
 _ZN3otb11ImageIOBase21SetUseStreamedReadingEb@Base 5.2.0
 _ZN3otb11ImageIOBase21SetUseStreamedWritingEb@Base 5.2.0
 _ZN3otb11ImageIOBase21UseStreamedReadingOffEv@Base 5.2.0
 _ZN3otb11ImageIOBase21UseStreamedWritingOffEv@Base 5.2.0
 _ZN3otb11ImageIOBase24GetSplitRegionForWritingEjjRKN3itk13ImageIORegionES4_@Base 5.2.0
 _ZN3otb11ImageIOBase25AddSupportedReadExtensionEPKc@Base 5.2.0
 _ZN3otb11ImageIOBase26AddSupportedWriteExtensionEPKc@Base 5.2.0
 _ZN3otb11ImageIOBase33GetActualNumberOfSplitsForWritingEjRKN3itk13ImageIORegionES4_@Base 5.2.0
 _ZN3otb11ImageIOBase5ResetEb@Base 5.2.0
 _ZN3otb11ImageIOBase6ResizeEjPKj@Base 5.2.0
 _ZN3otb11ImageIOBase9SetOriginEjd@Base 5.2.0
 _ZN3otb11ImageIOBaseC1Ev@Base 5.2.0
 _ZN3otb11ImageIOBaseC2Ev@Base 5.2.0
 _ZN3otb11ImageIOBaseD0Ev@Base 5.2.0
 _ZN3otb11ImageIOBaseD1Ev@Base 5.2.0
 _ZN3otb11ImageIOBaseD2Ev@Base 5.2.0
 (optional=templinst)_ZN3otb15itkSetPixelTypeIcEEbPNS_11ImageIOBaseERKSt9type_infoNS1_15IOComponentTypeET_@Base 5.2.0
 (optional=templinst)_ZN3otb15itkSetPixelTypeIdEEbPNS_11ImageIOBaseERKSt9type_infoNS1_15IOComponentTypeESt7complexIT_E@Base 5.2.0
 (optional=templinst)_ZN3otb15itkSetPixelTypeIdEEbPNS_11ImageIOBaseERKSt9type_infoNS1_15IOComponentTypeET_@Base 5.2.0
 (optional=templinst)_ZN3otb15itkSetPixelTypeIfEEbPNS_11ImageIOBaseERKSt9type_infoNS1_15IOComponentTypeESt7complexIT_E@Base 5.2.0
 (optional=templinst)_ZN3otb15itkSetPixelTypeIfEEbPNS_11ImageIOBaseERKSt9type_infoNS1_15IOComponentTypeET_@Base 5.2.0
 (optional=templinst)_ZN3otb15itkSetPixelTypeIhEEbPNS_11ImageIOBaseERKSt9type_infoNS1_15IOComponentTypeET_@Base 5.2.0
 (optional=templinst)_ZN3otb15itkSetPixelTypeIiEEbPNS_11ImageIOBaseERKSt9type_infoNS1_15IOComponentTypeESt7complexIT_E@Base 5.2.0
 (optional=templinst)_ZN3otb15itkSetPixelTypeIiEEbPNS_11ImageIOBaseERKSt9type_infoNS1_15IOComponentTypeET_@Base 5.2.0
 (optional=templinst)_ZN3otb15itkSetPixelTypeIjEEbPNS_11ImageIOBaseERKSt9type_infoNS1_15IOComponentTypeET_@Base 5.2.0
 (optional=templinst)_ZN3otb15itkSetPixelTypeIlEEbPNS_11ImageIOBaseERKSt9type_infoNS1_15IOComponentTypeET_@Base 5.2.0
 (optional=templinst)_ZN3otb15itkSetPixelTypeImEEbPNS_11ImageIOBaseERKSt9type_infoNS1_15IOComponentTypeET_@Base 5.2.0
 (optional=templinst)_ZN3otb15itkSetPixelTypeIsEEbPNS_11ImageIOBaseERKSt9type_infoNS1_15IOComponentTypeESt7complexIT_E@Base 5.2.0
 (optional=templinst)_ZN3otb15itkSetPixelTypeIsEEbPNS_11ImageIOBaseERKSt9type_infoNS1_15IOComponentTypeET_@Base 5.2.0
 (optional=templinst)_ZN3otb15itkSetPixelTypeItEEbPNS_11ImageIOBaseERKSt9type_infoNS1_15IOComponentTypeET_@Base 5.2.0
 _ZNK3itk11LightObject17GetReferenceCountEv@Base 5.2.0
 _ZNK3itk18LightProcessObject11GetProgressEv@Base 5.2.0
 _ZNK3itk18LightProcessObject13CreateAnotherEv@Base 5.2.0
 _ZNK3itk18LightProcessObject20GetAbortGenerateDataEv@Base 5.2.0
 _ZNK3itk6Object13GetObjectNameEv@Base 5.2.0
 _ZNK3otb11ImageIOBase10GetSpacingEj@Base 5.2.0
 _ZNK3otb11ImageIOBase11GetFileNameEv@Base 5.2.0
 _ZNK3otb11ImageIOBase11GetFileTypeEv@Base 5.2.0
 _ZNK3otb11ImageIOBase11GetIORegionEv@Base 5.2.0
 _ZNK3otb11ImageIOBase12GetByteOrderEv@Base 5.2.0
 _ZNK3otb11ImageIOBase12GetDirectionEj@Base 5.2.0
 _ZNK3otb11ImageIOBase12GetPixelSizeEv@Base 5.2.0
 _ZNK3otb11ImageIOBase12GetPixelTypeEv@Base 5.2.0
 _ZNK3otb11ImageIOBase12GetRowStrideEv@Base 5.2.0
 _ZNK3otb11ImageIOBase13GetDimensionsEj@Base 5.2.0
 _ZNK3otb11ImageIOBase14GetNameOfClassEv@Base 5.2.0
 _ZNK3otb11ImageIOBase14GetPixelStrideEv@Base 5.2.0
 _ZNK3otb11ImageIOBase14GetSliceStrideEv@Base 5.2.0
 _ZNK3otb11ImageIOBase16GetComponentSizeEv@Base 5.2.0
 _ZNK3otb11ImageIOBase16GetComponentTypeEv@Base 5.2.0
 _ZNK3otb11ImageIOBase17GetUseCompressionEv@Base 5.2.0
 _ZNK3otb11ImageIOBase18GetComponentStrideEv@Base 5.2.0
 _ZNK3otb11ImageIOBase19GetDefaultDirectionEj@Base 5.2.0
 _ZNK3otb11ImageIOBase19GetFileTypeAsStringENS0_8FileTypeE@Base 5.2.0
 _ZNK3otb11ImageIOBase19GetImageSizeInBytesEv@Base 5.2.0
 _ZNK3otb11ImageIOBase20GetByteOrderAsStringENS0_9ByteOrderE@Base 5.2.0
 _ZNK3otb11ImageIOBase20GetComponentTypeInfoEv@Base 5.2.0
 _ZNK3otb11ImageIOBase20GetImageSizeInPixelsEv@Base 5.2.0
 _ZNK3otb11ImageIOBase20GetPixelTypeAsStringENS0_11IOPixelTypeE@Base 5.2.0
 _ZNK3otb11ImageIOBase21GetNumberOfComponentsEv@Base 5.2.0
 _ZNK3otb11ImageIOBase21GetNumberOfDimensionsEv@Base 5.2.0
 _ZNK3otb11ImageIOBase21GetUseStreamedReadingEv@Base 5.2.0
 _ZNK3otb11ImageIOBase21GetUseStreamedWritingEv@Base 5.2.0
 _ZNK3otb11ImageIOBase24GetComponentTypeAsStringENS0_15IOComponentTypeE@Base 5.2.0
 _ZNK3otb11ImageIOBase24GetImageSizeInComponentsEv@Base 5.2.0
 _ZNK3otb11ImageIOBase26GetSupportedReadExtensionsEv@Base 5.2.0
 _ZNK3otb11ImageIOBase27GetSupportedWriteExtensionsEv@Base 5.2.0
 _ZNK3otb11ImageIOBase38GetSplitRegionForWritingCanStreamWriteEjjRKN3itk13ImageIORegionE@Base 5.2.0
 _ZNK3otb11ImageIOBase47GenerateStreamableReadRegionFromRequestedRegionERKN3itk13ImageIORegionE@Base 5.2.0
 _ZNK3otb11ImageIOBase47GetActualNumberOfSplitsForWritingCanStreamWriteEjRKN3itk13ImageIORegionE@Base 5.2.0
 _ZNK3otb11ImageIOBase9GetOriginEj@Base 5.2.0
 _ZNK3otb11ImageIOBase9PrintSelfERSoN3itk6IndentE@Base 5.2.0
 (optional=templinst)_ZNKSt5ctypeIcE8do_widenEc@Base 5.2.0
 (optional=templinst)_ZNSt12_Destroy_auxILb0EE9__destroyIPSsEEvT_S3_@Base 5.2.0
 (optional=templinst)_ZNSt15basic_stringbufIcSt11char_traitsIcESaIcEED0Ev@Base 5.2.0
 (optional=templinst)_ZNSt15basic_stringbufIcSt11char_traitsIcESaIcEED1Ev@Base 5.2.0
 (optional=templinst)_ZNSt15basic_stringbufIcSt11char_traitsIcESaIcEED2Ev@Base 5.2.0
 (optional=templinst)_ZNSt6vectorIS_IdSaIdEESaIS1_EE14_M_fill_insertEN9__gnu_cxx17__normal_iteratorIPS1_S3_EEmRKS1_@Base 5.2.0
 (optional=templinst)_ZNSt6vectorISsSaISsEE13_M_insert_auxEN9__gnu_cxx17__normal_iteratorIPSsS1_EERKSs@Base 5.2.0
 (optional=templinst)_ZNSt6vectorISsSaISsEED1Ev@Base 5.2.0
 (optional=templinst)_ZNSt6vectorISsSaISsEED2Ev@Base 5.2.0
 (optional=templinst)_ZNSt6vectorIdSaIdEE14_M_fill_insertEN9__gnu_cxx17__normal_iteratorIPdS1_EEmRKd@Base 5.2.0
 (optional=templinst)_ZNSt6vectorIdSaIdEEaSERKS1_@Base 5.2.0
 (optional=templinst)_ZNSt6vectorIlSaIlEE14_M_fill_insertEN9__gnu_cxx17__normal_iteratorIPlS1_EEmRKl@Base 5.2.0
 (optional=templinst)_ZNSt6vectorIlSaIlEEaSERKS1_@Base 5.2.0
 (optional=templinst)_ZNSt6vectorImSaImEE14_M_fill_insertEN9__gnu_cxx17__normal_iteratorIPmS1_EEmRKm@Base 5.2.0
 (optional=templinst)_ZNSt6vectorImSaImEEaSERKS1_@Base 5.2.0
 (optional=templinst)_ZStlsIicSt11char_traitsIcEERSt13basic_ostreamIT0_T1_ES6_RKSt7complexIT_E@Base 5.2.0
 (optional=templinst)_ZStlsIscSt11char_traitsIcEERSt13basic_ostreamIT0_T1_ES6_RKSt7complexIT_E@Base 5.2.0
 (optional=templinst)_ZStrsIicSt11char_traitsIcEERSt13basic_istreamIT0_T1_ES6_RSt7complexIT_E@Base 5.2.0
 (optional=templinst)_ZStrsIscSt11char_traitsIcEERSt13basic_istreamIT0_T1_ES6_RSt7complexIT_E@Base 5.2.0
 _ZTIN3otb11ImageIOBaseE@Base 5.2.0
 _ZTISt7complexIdE@Base 5.2.0
 _ZTISt7complexIfE@Base 5.2.0
 _ZTISt7complexIiE@Base 5.2.0
 _ZTISt7complexIsE@Base 5.2.0
 _ZTSN3itk10FixedArrayIcLj2EEE@Base 5.2.0
 _ZTSN3itk10FixedArrayIcLj3EEE@Base 5.2.0
 _ZTSN3itk10FixedArrayIcLj4EEE@Base 5.2.0
 _ZTSN3itk10FixedArrayIdLj2EEE@Base 5.2.0
 _ZTSN3itk10FixedArrayIdLj3EEE@Base 5.2.0
 _ZTSN3itk10FixedArrayIdLj4EEE@Base 5.2.0
 _ZTSN3itk10FixedArrayIfLj2EEE@Base 5.2.0
 _ZTSN3itk10FixedArrayIfLj3EEE@Base 5.2.0
 _ZTSN3itk10FixedArrayIfLj4EEE@Base 5.2.0
 _ZTSN3itk10FixedArrayIhLj2EEE@Base 5.2.0
 _ZTSN3itk10FixedArrayIhLj3EEE@Base 5.2.0
 _ZTSN3itk10FixedArrayIhLj4EEE@Base 5.2.0
 _ZTSN3itk10FixedArrayIiLj2EEE@Base 5.2.0
 _ZTSN3itk10FixedArrayIiLj3EEE@Base 5.2.0
 _ZTSN3itk10FixedArrayIiLj4EEE@Base 5.2.0
 _ZTSN3itk10FixedArrayIjLj2EEE@Base 5.2.0
 _ZTSN3itk10FixedArrayIjLj3EEE@Base 5.2.0
 _ZTSN3itk10FixedArrayIjLj4EEE@Base 5.2.0
 _ZTSN3itk10FixedArrayIlLj2EEE@Base 5.2.0
 _ZTSN3itk10FixedArrayIlLj3EEE@Base 5.2.0
 _ZTSN3itk10FixedArrayIlLj4EEE@Base 5.2.0
 _ZTSN3itk10FixedArrayImLj2EEE@Base 5.2.0
 _ZTSN3itk10FixedArrayImLj3EEE@Base 5.2.0
 _ZTSN3itk10FixedArrayImLj4EEE@Base 5.2.0
 _ZTSN3itk10FixedArrayIsLj2EEE@Base 5.2.0
 _ZTSN3itk10FixedArrayIsLj3EEE@Base 5.2.0
 _ZTSN3itk10FixedArrayIsLj4EEE@Base 5.2.0
 _ZTSN3itk10FixedArrayItLj2EEE@Base 5.2.0
 _ZTSN3itk10FixedArrayItLj3EEE@Base 5.2.0
 _ZTSN3itk10FixedArrayItLj4EEE@Base 5.2.0
 _ZTSN3itk15CovariantVectorIcLj2EEE@Base 5.2.0
 _ZTSN3itk15CovariantVectorIcLj3EEE@Base 5.2.0
 _ZTSN3itk15CovariantVectorIcLj4EEE@Base 5.2.0
 _ZTSN3itk15CovariantVectorIcLj5EEE@Base 5.2.0
 _ZTSN3itk15CovariantVectorIcLj6EEE@Base 5.2.0
 _ZTSN3itk15CovariantVectorIcLj7EEE@Base 5.2.0
 _ZTSN3itk15CovariantVectorIdLj2EEE@Base 5.2.0
 _ZTSN3itk15CovariantVectorIdLj3EEE@Base 5.2.0
 _ZTSN3itk15CovariantVectorIdLj4EEE@Base 5.2.0
 _ZTSN3itk15CovariantVectorIdLj5EEE@Base 5.2.0
 _ZTSN3itk15CovariantVectorIdLj6EEE@Base 5.2.0
 _ZTSN3itk15CovariantVectorIdLj7EEE@Base 5.2.0
 _ZTSN3itk15CovariantVectorIfLj2EEE@Base 5.2.0
 _ZTSN3itk15CovariantVectorIfLj3EEE@Base 5.2.0
 _ZTSN3itk15CovariantVectorIfLj4EEE@Base 5.2.0
 _ZTSN3itk15CovariantVectorIfLj5EEE@Base 5.2.0
 _ZTSN3itk15CovariantVectorIfLj6EEE@Base 5.2.0
 _ZTSN3itk15CovariantVectorIfLj7EEE@Base 5.2.0
 _ZTSN3itk15CovariantVectorIhLj2EEE@Base 5.2.0
 _ZTSN3itk15CovariantVectorIhLj3EEE@Base 5.2.0
 _ZTSN3itk15CovariantVectorIhLj4EEE@Base 5.2.0
 _ZTSN3itk15CovariantVectorIhLj5EEE@Base 5.2.0
 _ZTSN3itk15CovariantVectorIhLj6EEE@Base 5.2.0
 _ZTSN3itk15CovariantVectorIhLj7EEE@Base 5.2.0
 _ZTSN3itk15CovariantVectorIiLj2EEE@Base 5.2.0
 _ZTSN3itk15CovariantVectorIiLj3EEE@Base 5.2.0
 _ZTSN3itk15CovariantVectorIiLj4EEE@Base 5.2.0
 _ZTSN3itk15CovariantVectorIiLj5EEE@Base 5.2.0
 _ZTSN3itk15CovariantVectorIiLj6EEE@Base 5.2.0
 _ZTSN3itk15CovariantVectorIiLj7EEE@Base 5.2.0
 _ZTSN3itk15CovariantVectorIjLj2EEE@Base 5.2.0
 _ZTSN3itk15CovariantVectorIjLj3EEE@Base 5.2.0
 _ZTSN3itk15CovariantVectorIjLj4EEE@Base 5.2.0
 _ZTSN3itk15CovariantVectorIjLj5EEE@Base 5.2.0
 _ZTSN3itk15CovariantVectorIjLj6EEE@Base 5.2.0
 _ZTSN3itk15CovariantVectorIjLj7EEE@Base 5.2.0
 _ZTSN3itk15CovariantVectorIlLj2EEE@Base 5.2.0
 _ZTSN3itk15CovariantVectorIlLj3EEE@Base 5.2.0
 _ZTSN3itk15CovariantVectorIlLj4EEE@Base 5.2.0
 _ZTSN3itk15CovariantVectorIlLj5EEE@Base 5.2.0
 _ZTSN3itk15CovariantVectorIlLj6EEE@Base 5.2.0
 _ZTSN3itk15CovariantVectorIlLj7EEE@Base 5.2.0
 _ZTSN3itk15CovariantVectorImLj2EEE@Base 5.2.0
 _ZTSN3itk15CovariantVectorImLj3EEE@Base 5.2.0
 _ZTSN3itk15CovariantVectorImLj4EEE@Base 5.2.0
 _ZTSN3itk15CovariantVectorImLj5EEE@Base 5.2.0
 _ZTSN3itk15CovariantVectorImLj6EEE@Base 5.2.0
 _ZTSN3itk15CovariantVectorImLj7EEE@Base 5.2.0
 _ZTSN3itk15CovariantVectorIsLj2EEE@Base 5.2.0
 _ZTSN3itk15CovariantVectorIsLj3EEE@Base 5.2.0
 _ZTSN3itk15CovariantVectorIsLj4EEE@Base 5.2.0
 _ZTSN3itk15CovariantVectorIsLj5EEE@Base 5.2.0
 _ZTSN3itk15CovariantVectorIsLj6EEE@Base 5.2.0
 _ZTSN3itk15CovariantVectorIsLj7EEE@Base 5.2.0
 _ZTSN3itk15CovariantVectorItLj2EEE@Base 5.2.0
 _ZTSN3itk15CovariantVectorItLj3EEE@Base 5.2.0
 _ZTSN3itk15CovariantVectorItLj4EEE@Base 5.2.0
 _ZTSN3itk15CovariantVectorItLj5EEE@Base 5.2.0
 _ZTSN3itk15CovariantVectorItLj6EEE@Base 5.2.0
 _ZTSN3itk15CovariantVectorItLj7EEE@Base 5.2.0
 _ZTSN3itk17DiffusionTensor3DIcEE@Base 5.2.0
 _ZTSN3itk17DiffusionTensor3DIdEE@Base 5.2.0
 _ZTSN3itk17DiffusionTensor3DIfEE@Base 5.2.0
 _ZTSN3itk17DiffusionTensor3DIhEE@Base 5.2.0
 _ZTSN3itk17DiffusionTensor3DIiEE@Base 5.2.0
 _ZTSN3itk17DiffusionTensor3DIjEE@Base 5.2.0
 _ZTSN3itk17DiffusionTensor3DIlEE@Base 5.2.0
 _ZTSN3itk17DiffusionTensor3DImEE@Base 5.2.0
 _ZTSN3itk17DiffusionTensor3DIsEE@Base 5.2.0
 _ZTSN3itk17DiffusionTensor3DItEE@Base 5.2.0
 _ZTSN3itk25SymmetricSecondRankTensorIcLj2EEE@Base 5.2.0
 _ZTSN3itk25SymmetricSecondRankTensorIcLj3EEE@Base 5.2.0
 _ZTSN3itk25SymmetricSecondRankTensorIcLj4EEE@Base 5.2.0
 _ZTSN3itk25SymmetricSecondRankTensorIcLj5EEE@Base 5.2.0
 _ZTSN3itk25SymmetricSecondRankTensorIcLj6EEE@Base 5.2.0
 _ZTSN3itk25SymmetricSecondRankTensorIdLj2EEE@Base 5.2.0
 _ZTSN3itk25SymmetricSecondRankTensorIdLj3EEE@Base 5.2.0
 _ZTSN3itk25SymmetricSecondRankTensorIdLj4EEE@Base 5.2.0
 _ZTSN3itk25SymmetricSecondRankTensorIdLj5EEE@Base 5.2.0
 _ZTSN3itk25SymmetricSecondRankTensorIdLj6EEE@Base 5.2.0
 _ZTSN3itk25SymmetricSecondRankTensorIfLj2EEE@Base 5.2.0
 _ZTSN3itk25SymmetricSecondRankTensorIfLj3EEE@Base 5.2.0
 _ZTSN3itk25SymmetricSecondRankTensorIfLj4EEE@Base 5.2.0
 _ZTSN3itk25SymmetricSecondRankTensorIfLj5EEE@Base 5.2.0
 _ZTSN3itk25SymmetricSecondRankTensorIfLj6EEE@Base 5.2.0
 _ZTSN3itk25SymmetricSecondRankTensorIhLj2EEE@Base 5.2.0
 _ZTSN3itk25SymmetricSecondRankTensorIhLj3EEE@Base 5.2.0
 _ZTSN3itk25SymmetricSecondRankTensorIhLj4EEE@Base 5.2.0
 _ZTSN3itk25SymmetricSecondRankTensorIhLj5EEE@Base 5.2.0
 _ZTSN3itk25SymmetricSecondRankTensorIhLj6EEE@Base 5.2.0
 _ZTSN3itk25SymmetricSecondRankTensorIiLj2EEE@Base 5.2.0
 _ZTSN3itk25SymmetricSecondRankTensorIiLj3EEE@Base 5.2.0
 _ZTSN3itk25SymmetricSecondRankTensorIiLj4EEE@Base 5.2.0
 _ZTSN3itk25SymmetricSecondRankTensorIiLj5EEE@Base 5.2.0
 _ZTSN3itk25SymmetricSecondRankTensorIiLj6EEE@Base 5.2.0
 _ZTSN3itk25SymmetricSecondRankTensorIjLj2EEE@Base 5.2.0
 _ZTSN3itk25SymmetricSecondRankTensorIjLj3EEE@Base 5.2.0
 _ZTSN3itk25SymmetricSecondRankTensorIjLj4EEE@Base 5.2.0
 _ZTSN3itk25SymmetricSecondRankTensorIjLj5EEE@Base 5.2.0
 _ZTSN3itk25SymmetricSecondRankTensorIjLj6EEE@Base 5.2.0
 _ZTSN3itk25SymmetricSecondRankTensorIlLj2EEE@Base 5.2.0
 _ZTSN3itk25SymmetricSecondRankTensorIlLj3EEE@Base 5.2.0
 _ZTSN3itk25SymmetricSecondRankTensorIlLj4EEE@Base 5.2.0
 _ZTSN3itk25SymmetricSecondRankTensorIlLj5EEE@Base 5.2.0
 _ZTSN3itk25SymmetricSecondRankTensorIlLj6EEE@Base 5.2.0
 _ZTSN3itk25SymmetricSecondRankTensorImLj2EEE@Base 5.2.0
 _ZTSN3itk25SymmetricSecondRankTensorImLj3EEE@Base 5.2.0
 _ZTSN3itk25SymmetricSecondRankTensorImLj4EEE@Base 5.2.0
 _ZTSN3itk25SymmetricSecondRankTensorImLj5EEE@Base 5.2.0
 _ZTSN3itk25SymmetricSecondRankTensorImLj6EEE@Base 5.2.0
 _ZTSN3itk25SymmetricSecondRankTensorIsLj2EEE@Base 5.2.0
 _ZTSN3itk25SymmetricSecondRankTensorIsLj3EEE@Base 5.2.0
 _ZTSN3itk25SymmetricSecondRankTensorIsLj4EEE@Base 5.2.0
 _ZTSN3itk25SymmetricSecondRankTensorIsLj5EEE@Base 5.2.0
 _ZTSN3itk25SymmetricSecondRankTensorIsLj6EEE@Base 5.2.0
 _ZTSN3itk25SymmetricSecondRankTensorItLj2EEE@Base 5.2.0
 _ZTSN3itk25SymmetricSecondRankTensorItLj3EEE@Base 5.2.0
 _ZTSN3itk25SymmetricSecondRankTensorItLj4EEE@Base 5.2.0
 _ZTSN3itk25SymmetricSecondRankTensorItLj5EEE@Base 5.2.0
 _ZTSN3itk25SymmetricSecondRankTensorItLj6EEE@Base 5.2.0
 _ZTSN3itk6MatrixIcLj2ELj2EEE@Base 5.2.0
 _ZTSN3itk6MatrixIcLj3ELj3EEE@Base 5.2.0
 _ZTSN3itk6MatrixIcLj4ELj4EEE@Base 5.2.0
 _ZTSN3itk6MatrixIdLj2ELj2EEE@Base 5.2.0
 _ZTSN3itk6MatrixIdLj3ELj3EEE@Base 5.2.0
 _ZTSN3itk6MatrixIdLj4ELj4EEE@Base 5.2.0
 _ZTSN3itk6MatrixIfLj2ELj2EEE@Base 5.2.0
 _ZTSN3itk6MatrixIfLj3ELj3EEE@Base 5.2.0
 _ZTSN3itk6MatrixIfLj4ELj4EEE@Base 5.2.0
 _ZTSN3itk6MatrixIhLj2ELj2EEE@Base 5.2.0
 _ZTSN3itk6MatrixIhLj3ELj3EEE@Base 5.2.0
 _ZTSN3itk6MatrixIhLj4ELj4EEE@Base 5.2.0
 _ZTSN3itk6MatrixIiLj2ELj2EEE@Base 5.2.0
 _ZTSN3itk6MatrixIiLj3ELj3EEE@Base 5.2.0
 _ZTSN3itk6MatrixIiLj4ELj4EEE@Base 5.2.0
 _ZTSN3itk6MatrixIjLj2ELj2EEE@Base 5.2.0
 _ZTSN3itk6MatrixIjLj3ELj3EEE@Base 5.2.0
 _ZTSN3itk6MatrixIjLj4ELj4EEE@Base 5.2.0
 _ZTSN3itk6MatrixIlLj2ELj2EEE@Base 5.2.0
 _ZTSN3itk6MatrixIlLj3ELj3EEE@Base 5.2.0
 _ZTSN3itk6MatrixIlLj4ELj4EEE@Base 5.2.0
 _ZTSN3itk6MatrixImLj2ELj2EEE@Base 5.2.0
 _ZTSN3itk6MatrixImLj3ELj3EEE@Base 5.2.0
 _ZTSN3itk6MatrixImLj4ELj4EEE@Base 5.2.0
 _ZTSN3itk6MatrixIsLj2ELj2EEE@Base 5.2.0
 _ZTSN3itk6MatrixIsLj3ELj3EEE@Base 5.2.0
 _ZTSN3itk6MatrixIsLj4ELj4EEE@Base 5.2.0
 _ZTSN3itk6MatrixItLj2ELj2EEE@Base 5.2.0
 _ZTSN3itk6MatrixItLj3ELj3EEE@Base 5.2.0
 _ZTSN3itk6MatrixItLj4ELj4EEE@Base 5.2.0
 _ZTSN3itk6OffsetILj2EEE@Base 5.2.0
 _ZTSN3itk6OffsetILj3EEE@Base 5.2.0
 _ZTSN3itk6OffsetILj4EEE@Base 5.2.0
 _ZTSN3itk6VectorIcLj2EEE@Base 5.2.0
 _ZTSN3itk6VectorIcLj3EEE@Base 5.2.0
 _ZTSN3itk6VectorIcLj4EEE@Base 5.2.0
 _ZTSN3itk6VectorIcLj5EEE@Base 5.2.0
 _ZTSN3itk6VectorIcLj6EEE@Base 5.2.0
 _ZTSN3itk6VectorIcLj7EEE@Base 5.2.0
 _ZTSN3itk6VectorIdLj2EEE@Base 5.2.0
 _ZTSN3itk6VectorIdLj3EEE@Base 5.2.0
 _ZTSN3itk6VectorIdLj4EEE@Base 5.2.0
 _ZTSN3itk6VectorIdLj5EEE@Base 5.2.0
 _ZTSN3itk6VectorIdLj6EEE@Base 5.2.0
 _ZTSN3itk6VectorIdLj7EEE@Base 5.2.0
 _ZTSN3itk6VectorIfLj2EEE@Base 5.2.0
 _ZTSN3itk6VectorIfLj3EEE@Base 5.2.0
 _ZTSN3itk6VectorIfLj4EEE@Base 5.2.0
 _ZTSN3itk6VectorIfLj5EEE@Base 5.2.0
 _ZTSN3itk6VectorIfLj6EEE@Base 5.2.0
 _ZTSN3itk6VectorIfLj7EEE@Base 5.2.0
 _ZTSN3itk6VectorIhLj2EEE@Base 5.2.0
 _ZTSN3itk6VectorIhLj3EEE@Base 5.2.0
 _ZTSN3itk6VectorIhLj4EEE@Base 5.2.0
 _ZTSN3itk6VectorIhLj5EEE@Base 5.2.0
 _ZTSN3itk6VectorIhLj6EEE@Base 5.2.0
 _ZTSN3itk6VectorIhLj7EEE@Base 5.2.0
 _ZTSN3itk6VectorIiLj2EEE@Base 5.2.0
 _ZTSN3itk6VectorIiLj3EEE@Base 5.2.0
 _ZTSN3itk6VectorIiLj4EEE@Base 5.2.0
 _ZTSN3itk6VectorIiLj5EEE@Base 5.2.0
 _ZTSN3itk6VectorIiLj6EEE@Base 5.2.0
 _ZTSN3itk6VectorIiLj7EEE@Base 5.2.0
 _ZTSN3itk6VectorIjLj2EEE@Base 5.2.0
 _ZTSN3itk6VectorIjLj3EEE@Base 5.2.0
 _ZTSN3itk6VectorIjLj4EEE@Base 5.2.0
 _ZTSN3itk6VectorIjLj5EEE@Base 5.2.0
 _ZTSN3itk6VectorIjLj6EEE@Base 5.2.0
 _ZTSN3itk6VectorIjLj7EEE@Base 5.2.0
 _ZTSN3itk6VectorIlLj2EEE@Base 5.2.0
 _ZTSN3itk6VectorIlLj3EEE@Base 5.2.0
 _ZTSN3itk6VectorIlLj4EEE@Base 5.2.0
 _ZTSN3itk6VectorIlLj5EEE@Base 5.2.0
 _ZTSN3itk6VectorIlLj6EEE@Base 5.2.0
 _ZTSN3itk6VectorIlLj7EEE@Base 5.2.0
 _ZTSN3itk6VectorImLj2EEE@Base 5.2.0
 _ZTSN3itk6VectorImLj3EEE@Base 5.2.0
 _ZTSN3itk6VectorImLj4EEE@Base 5.2.0
 _ZTSN3itk6VectorImLj5EEE@Base 5.2.0
 _ZTSN3itk6VectorImLj6EEE@Base 5.2.0
 _ZTSN3itk6VectorImLj7EEE@Base 5.2.0
 _ZTSN3itk6VectorIsLj2EEE@Base 5.2.0
 _ZTSN3itk6VectorIsLj3EEE@Base 5.2.0
 _ZTSN3itk6VectorIsLj4EEE@Base 5.2.0
 _ZTSN3itk6VectorIsLj5EEE@Base 5.2.0
 _ZTSN3itk6VectorIsLj6EEE@Base 5.2.0
 _ZTSN3itk6VectorIsLj7EEE@Base 5.2.0
 _ZTSN3itk6VectorItLj2EEE@Base 5.2.0
 _ZTSN3itk6VectorItLj3EEE@Base 5.2.0
 _ZTSN3itk6VectorItLj4EEE@Base 5.2.0
 _ZTSN3itk6VectorItLj5EEE@Base 5.2.0
 _ZTSN3itk6VectorItLj6EEE@Base 5.2.0
 _ZTSN3itk6VectorItLj7EEE@Base 5.2.0
 _ZTSN3itk8RGBPixelIcEE@Base 5.2.0
 _ZTSN3itk8RGBPixelIdEE@Base 5.2.0
 _ZTSN3itk8RGBPixelIfEE@Base 5.2.0
 _ZTSN3itk8RGBPixelIhEE@Base 5.2.0
 _ZTSN3itk8RGBPixelIiEE@Base 5.2.0
 _ZTSN3itk8RGBPixelIjEE@Base 5.2.0
 _ZTSN3itk8RGBPixelIlEE@Base 5.2.0
 _ZTSN3itk8RGBPixelImEE@Base 5.2.0
 _ZTSN3itk8RGBPixelIsEE@Base 5.2.0
 _ZTSN3itk8RGBPixelItEE@Base 5.2.0
 _ZTSN3itk9RGBAPixelIcEE@Base 5.2.0
 _ZTSN3itk9RGBAPixelIdEE@Base 5.2.0
 _ZTSN3itk9RGBAPixelIfEE@Base 5.2.0
 _ZTSN3itk9RGBAPixelIhEE@Base 5.2.0
 _ZTSN3itk9RGBAPixelIiEE@Base 5.2.0
 _ZTSN3itk9RGBAPixelIjEE@Base 5.2.0
 _ZTSN3itk9RGBAPixelIlEE@Base 5.2.0
 _ZTSN3itk9RGBAPixelImEE@Base 5.2.0
 _ZTSN3itk9RGBAPixelIsEE@Base 5.2.0
 _ZTSN3itk9RGBAPixelItEE@Base 5.2.0
 _ZTSN3otb11ImageIOBaseE@Base 5.2.0
 _ZTSSt7complexIdE@Base 5.2.0
 _ZTSSt7complexIfE@Base 5.2.0
 _ZTSSt7complexIiE@Base 5.2.0
 _ZTSSt7complexIsE@Base 5.2.0
 _ZTVN3otb11ImageIOBaseE@Base 5.2.0
