# SymbolsHelper-Confirmed: 5.2.0 amd64
libOTBEdge-5.2.so.1 libotbedge-5.2-1 #MINVER#
 (optional=templinst)_ZN18vnl_matrix_inverseIdED0Ev@Base 5.2.0
 (optional=templinst)_ZN18vnl_matrix_inverseIdED1Ev@Base 5.2.0
 (optional=templinst)_ZN18vnl_matrix_inverseIdED2Ev@Base 5.2.0
 _ZN3itk10DataObject15CopyInformationEPKS0_@Base 5.2.0
 _ZN3itk10DataObject16SetRealTimeStampENS_13RealTimeStampE@Base 5.2.0
 _ZN3itk10DataObject17PrepareForNewDataEv@Base 5.2.0
 _ZN3itk10DataObject17ReleaseDataFlagOnEv@Base 5.2.0
 _ZN3itk10DataObject18ReleaseDataFlagOffEv@Base 5.2.0
 _ZN3itk10DataObject18SetRequestedRegionEPKS0_@Base 5.2.0
 _ZN3itk10DataObject21VerifyRequestedRegionEv@Base 5.2.0
 _ZN3itk10DataObject41SetRequestedRegionToLargestPossibleRegionEv@Base 5.2.0
 _ZN3itk10DataObject43RequestedRegionIsOutsideOfTheBufferedRegionEv@Base 5.2.0
 _ZN3itk10DataObject5GraftEPKS0_@Base 5.2.0
 (optional=templinst)_ZN3itk11BoundingBoxImLi2EdNS_15VectorContainerImNS_5PointIdLj2EEEEEE3NewEv@Base 5.2.0
 (optional=templinst)_ZN3itk11BoundingBoxImLi2EdNS_15VectorContainerImNS_5PointIdLj2EEEEEEC1Ev@Base 5.2.0
 (optional=templinst)_ZN3itk11BoundingBoxImLi2EdNS_15VectorContainerImNS_5PointIdLj2EEEEEEC2Ev@Base 5.2.0
 (optional=templinst)_ZN3itk11BoundingBoxImLi2EdNS_15VectorContainerImNS_5PointIdLj2EEEEEED0Ev@Base 5.2.0
 (optional=templinst)_ZN3itk11BoundingBoxImLi2EdNS_15VectorContainerImNS_5PointIdLj2EEEEEED1Ev@Base 5.2.0
 (optional=templinst)_ZN3itk11BoundingBoxImLi2EdNS_15VectorContainerImNS_5PointIdLj2EEEEEED2Ev@Base 5.2.0
 (optional=templinst)_ZN3itk11ImageRegionILj2EED0Ev@Base 5.2.0
 (optional=templinst)_ZN3itk11ImageRegionILj2EED1Ev@Base 5.2.0
 (optional=templinst)_ZN3itk11ImageRegionILj2EED2Ev@Base 5.2.0
 _ZN3itk13ProcessObject18SetNumberOfThreadsEj@Base 5.2.0
 _ZN3itk13ProcessObject19AbortGenerateDataOnEv@Base 5.2.0
 _ZN3itk13ProcessObject20AbortGenerateDataOffEv@Base 5.2.0
 _ZN3itk13ProcessObject20SetAbortGenerateDataEb@Base 5.2.0
 _ZN3itk13ProcessObject26SetNumberOfRequiredOutputsEm@Base 5.2.0
 _ZN3itk13ProcessObject28EnlargeOutputRequestedRegionEPNS_10DataObjectE@Base 5.2.0
 _ZN3itk13ProcessObject29ReleaseDataBeforeUpdateFlagOnEv@Base 5.2.0
 _ZN3itk13ProcessObject30ReleaseDataBeforeUpdateFlagOffEv@Base 5.2.0
 _ZN3itk13ProcessObject30SetReleaseDataBeforeUpdateFlagEb@Base 5.2.0
 (optional=templinst)_ZN3itk13SpatialObjectILj2EE11GetTreeNodeEv@Base 5.2.0
 (optional=templinst)_ZN3itk13SpatialObjectILj2EE11SetParentIdEi@Base 5.2.0
 (optional=templinst)_ZN3itk13SpatialObjectILj2EE11SetTreeNodeEPNS_21SpatialObjectTreeNodeILj2EEE@Base 5.2.0
 (optional=templinst)_ZN3itk13SpatialObjectILj2EE11SetTypeNameESs@Base 5.2.0
 (optional=templinst)_ZN3itk13SpatialObjectILj2EE12DerivativeAtERKNS_5PointIdLj2EEEtRNS_15CovariantVectorIdLj2EEEjPc@Base 5.2.0
 (optional=templinst)_ZN3itk13SpatialObjectILj2EE12SetDimensionEj@Base 5.2.0
 (optional=templinst)_ZN3itk13SpatialObjectILj2EE15CopyInformationEPKNS_10DataObjectE@Base 5.2.0
 (optional=templinst)_ZN3itk13SpatialObjectILj2EE17SetBufferedRegionERKNS_11ImageRegionILj2EEE@Base 5.2.0
 (optional=templinst)_ZN3itk13SpatialObjectILj2EE18SetRequestedRegionEPKNS_10DataObjectE@Base 5.2.0
 (optional=templinst)_ZN3itk13SpatialObjectILj2EE18SetRequestedRegionERKNS_11ImageRegionILj2EEE@Base 5.2.0
 (optional=templinst)_ZN3itk13SpatialObjectILj2EE19GetModifiableBoundsEv@Base 5.2.0
 (optional=templinst)_ZN3itk13SpatialObjectILj2EE21GetModifiableTreeNodeEv@Base 5.2.0
 (optional=templinst)_ZN3itk13SpatialObjectILj2EE21SetDefaultInsideValueEd@Base 5.2.0
 (optional=templinst)_ZN3itk13SpatialObjectILj2EE21VerifyRequestedRegionEv@Base 5.2.0
 (optional=templinst)_ZN3itk13SpatialObjectILj2EE22GetAffineGeometryFrameEv@Base 5.2.0
 (optional=templinst)_ZN3itk13SpatialObjectILj2EE22SetAffineGeometryFrameEPNS_19AffineGeometryFrameIdLj2EEE@Base 5.2.0
 (optional=templinst)_ZN3itk13SpatialObjectILj2EE22SetDefaultOutsideValueEd@Base 5.2.0
 (optional=templinst)_ZN3itk13SpatialObjectILj2EE23UpdateOutputInformationEv@Base 5.2.0
 (optional=templinst)_ZN3itk13SpatialObjectILj2EE24GetIndexToWorldTransformEv@Base 5.2.0
 (optional=templinst)_ZN3itk13SpatialObjectILj2EE24SetLargestPossibleRegionERKNS_11ImageRegionILj2EEE@Base 5.2.0
 (optional=templinst)_ZN3itk13SpatialObjectILj2EE25GetObjectToWorldTransformEv@Base 5.2.0
 (optional=templinst)_ZN3itk13SpatialObjectILj2EE26SetBoundingBoxChildrenNameESs@Base 5.2.0
 (optional=templinst)_ZN3itk13SpatialObjectILj2EE27GetInternalInverseTransformEv@Base 5.2.0
 (optional=templinst)_ZN3itk13SpatialObjectILj2EE27SetBoundingBoxChildrenDepthEj@Base 5.2.0
 (optional=templinst)_ZN3itk13SpatialObjectILj2EE32GetModifiableAffineGeometryFrameEv@Base 5.2.0
 (optional=templinst)_ZN3itk13SpatialObjectILj2EE34GetModifiableIndexToWorldTransformEv@Base 5.2.0
 (optional=templinst)_ZN3itk13SpatialObjectILj2EE35GetModifiableObjectToWorldTransformEv@Base 5.2.0
 (optional=templinst)_ZN3itk13SpatialObjectILj2EE37GetModifiableInternalInverseTransformEv@Base 5.2.0
 (optional=templinst)_ZN3itk13SpatialObjectILj2EE41SetRequestedRegionToLargestPossibleRegionEv@Base 5.2.0
 (optional=templinst)_ZN3itk13SpatialObjectILj2EE43RequestedRegionIsOutsideOfTheBufferedRegionEv@Base 5.2.0
 (optional=templinst)_ZN3itk13SpatialObjectILj2EE5ClearEv@Base 5.2.0
 (optional=templinst)_ZN3itk13SpatialObjectILj2EE5SetIdEi@Base 5.2.0
 (optional=templinst)_ZN3itk13SpatialObjectILj2EE6UpdateEv@Base 5.2.0
 (optional=templinst)_ZN3itk13SpatialObjectILj2EE9GetBoundsEv@Base 5.2.0
 (optional=templinst)_ZN3itk13SpatialObjectILj2EE9GetParentEv@Base 5.2.0
 (optional=templinst)_ZN3itk13SpatialObjectILj2EEC1Ev@Base 5.2.0
 (optional=templinst)_ZN3itk13SpatialObjectILj2EEC2Ev@Base 5.2.0
 (optional=templinst)_ZN3itk13SpatialObjectILj2EED0Ev@Base 5.2.0
 (optional=templinst)_ZN3itk13SpatialObjectILj2EED1Ev@Base 5.2.0
 (optional=templinst)_ZN3itk13SpatialObjectILj2EED2Ev@Base 5.2.0
 (optional=templinst)_ZN3itk15AffineTransformIdLj2EED0Ev@Base 5.2.0
 (optional=templinst)_ZN3itk15AffineTransformIdLj2EED1Ev@Base 5.2.0
 (optional=templinst)_ZN3itk15AffineTransformIdLj2EED2Ev@Base 5.2.0
 (optional=templinst)_ZN3itk15VectorContainerImNS_5PointIdLj2EEEED0Ev@Base 5.2.0
 (optional=templinst)_ZN3itk15VectorContainerImNS_5PointIdLj2EEEED1Ev@Base 5.2.0
 (optional=templinst)_ZN3itk15VectorContainerImNS_5PointIdLj2EEEED2Ev@Base 5.2.0
 (optional=templinst)_ZN3itk17LineSpatialObjectILj2EE3NewEv@Base 5.2.0
 (optional=templinst)_ZN3itk17LineSpatialObjectILj2EE8GetPointEm@Base 5.2.0
 (optional=templinst)_ZN3itk17LineSpatialObjectILj2EE9SetPointsERSt6vectorINS_22LineSpatialObjectPointILj2EEESaIS4_EE@Base 5.2.0
 (optional=templinst)_ZN3itk17LineSpatialObjectILj2EEC1Ev@Base 5.2.0
 (optional=templinst)_ZN3itk17LineSpatialObjectILj2EEC2Ev@Base 5.2.0
 (optional=templinst)_ZN3itk17LineSpatialObjectILj2EED0Ev@Base 5.2.0
 (optional=templinst)_ZN3itk17LineSpatialObjectILj2EED1Ev@Base 5.2.0
 (optional=templinst)_ZN3itk17LineSpatialObjectILj2EED2Ev@Base 5.2.0
 (optional=templinst)_ZN3itk18SpatialObjectPointILj2EED0Ev@Base 5.2.0
 (optional=templinst)_ZN3itk18SpatialObjectPointILj2EED1Ev@Base 5.2.0
 (optional=templinst)_ZN3itk18SpatialObjectPointILj2EED2Ev@Base 5.2.0
 (optional=templinst)_ZN3itk19AffineGeometryFrameIdLj2EE10InitializeEv@Base 5.2.0
 (optional=templinst)_ZN3itk19AffineGeometryFrameIdLj2EE14GetBoundingBoxEv@Base 5.2.0
 (optional=templinst)_ZN3itk19AffineGeometryFrameIdLj2EE14SetBoundsArrayERKNS_10FixedArrayIdLj4EEERNS_12SmartPointerINS_11BoundingBoxImLi2EdNS_15VectorContainerImNS_5PointIdLj2EEEEEEEEE@Base 5.2.0
 (optional=templinst)_ZN3itk19AffineGeometryFrameIdLj2EE23GetIndexToNodeTransformEv@Base 5.2.0
 (optional=templinst)_ZN3itk19AffineGeometryFrameIdLj2EE24GetIndexToWorldTransformEv@Base 5.2.0
 (optional=templinst)_ZN3itk19AffineGeometryFrameIdLj2EE24GetModifiableBoundingBoxEv@Base 5.2.0
 (optional=templinst)_ZN3itk19AffineGeometryFrameIdLj2EE24GetObjectToNodeTransformEv@Base 5.2.0
 (optional=templinst)_ZN3itk19AffineGeometryFrameIdLj2EE24SetIndexToWorldTransformEPNS_23ScalableAffineTransformIdLj2EEE@Base 5.2.0
 (optional=templinst)_ZN3itk19AffineGeometryFrameIdLj2EE24SetObjectToNodeTransformEPNS_23ScalableAffineTransformIdLj2EEE@Base 5.2.0
 (optional=templinst)_ZN3itk19AffineGeometryFrameIdLj2EE25GetIndexToObjectTransformEv@Base 5.2.0
 (optional=templinst)_ZN3itk19AffineGeometryFrameIdLj2EE25SetIndexToObjectTransformEPNS_23ScalableAffineTransformIdLj2EEE@Base 5.2.0
 (optional=templinst)_ZN3itk19AffineGeometryFrameIdLj2EE33GetModifiableIndexToNodeTransformEv@Base 5.2.0
 (optional=templinst)_ZN3itk19AffineGeometryFrameIdLj2EE34GetModifiableIndexToWorldTransformEv@Base 5.2.0
 (optional=templinst)_ZN3itk19AffineGeometryFrameIdLj2EE34GetModifiableObjectToNodeTransformEv@Base 5.2.0
 (optional=templinst)_ZN3itk19AffineGeometryFrameIdLj2EE35GetModifiableIndexToObjectTransformEv@Base 5.2.0
 (optional=templinst)_ZN3itk19AffineGeometryFrameIdLj2EE9SetBoundsERKNS_10FixedArrayIdLj4EEE@Base 5.2.0
 (optional=templinst)_ZN3itk19AffineGeometryFrameIdLj2EEC1Ev@Base 5.2.0
 (optional=templinst)_ZN3itk19AffineGeometryFrameIdLj2EEC2Ev@Base 5.2.0
 (optional=templinst)_ZN3itk19AffineGeometryFrameIdLj2EED0Ev@Base 5.2.0
 (optional=templinst)_ZN3itk19AffineGeometryFrameIdLj2EED1Ev@Base 5.2.0
 (optional=templinst)_ZN3itk19AffineGeometryFrameIdLj2EED2Ev@Base 5.2.0
 (optional=templinst)_ZN3itk19OptimizerParametersIdE15MoveDataPointerEPd@Base 5.2.0
 (optional=templinst)_ZN3itk19OptimizerParametersIdE19SetParametersObjectEPNS_11LightObjectE@Base 5.2.0
 (optional=templinst)_ZN3itk19OptimizerParametersIdE9SetHelperEPNS_25OptimizerParametersHelperIdEE@Base 5.2.0
 (optional=templinst)_ZN3itk19OptimizerParametersIdED0Ev@Base 5.2.0
 (optional=templinst)_ZN3itk19OptimizerParametersIdED1Ev@Base 5.2.0
 (optional=templinst)_ZN3itk19OptimizerParametersIdED2Ev@Base 5.2.0
 (optional=templinst)_ZN3itk20VariableLengthVectorIdE7SetSizeEjb@Base 5.2.0
 (optional=templinst)_ZN3itk21SpatialObjectPropertyIfED0Ev@Base 5.2.0
 (optional=templinst)_ZN3itk21SpatialObjectPropertyIfED1Ev@Base 5.2.0
 (optional=templinst)_ZN3itk21SpatialObjectPropertyIfED2Ev@Base 5.2.0
 (optional=templinst)_ZN3itk21SpatialObjectTreeNodeILj2EE23SetNodeToWorldTransformEPNS_23ScalableAffineTransformIdLj2EEE@Base 5.2.0
 (optional=templinst)_ZN3itk21SpatialObjectTreeNodeILj2EE28SetNodeToParentNodeTransformEPNS_23ScalableAffineTransformIdLj2EEE@Base 5.2.0
 (optional=templinst)_ZN3itk21SpatialObjectTreeNodeILj2EE7SetDataEPNS_13SpatialObjectILj2EEE@Base 5.2.0
 (optional=templinst)_ZN3itk21SpatialObjectTreeNodeILj2EEC1Ev@Base 5.2.0
 (optional=templinst)_ZN3itk21SpatialObjectTreeNodeILj2EEC2Ev@Base 5.2.0
 (optional=templinst)_ZN3itk21SpatialObjectTreeNodeILj2EED0Ev@Base 5.2.0
 (optional=templinst)_ZN3itk21SpatialObjectTreeNodeILj2EED1Ev@Base 5.2.0
 (optional=templinst)_ZN3itk21SpatialObjectTreeNodeILj2EED2Ev@Base 5.2.0
 (optional=templinst)_ZN3itk22LineSpatialObjectPointILj2EED0Ev@Base 5.2.0
 (optional=templinst)_ZN3itk22LineSpatialObjectPointILj2EED1Ev@Base 5.2.0
 (optional=templinst)_ZN3itk22LineSpatialObjectPointILj2EED2Ev@Base 5.2.0
 (optional=templinst)_ZN3itk23PointBasedSpatialObjectILj2EE8GetPointEm@Base 5.2.0
 (optional=templinst)_ZN3itk23PointBasedSpatialObjectILj2EEC1Ev@Base 5.2.0
 (optional=templinst)_ZN3itk23PointBasedSpatialObjectILj2EEC2Ev@Base 5.2.0
 (optional=templinst)_ZN3itk23PointBasedSpatialObjectILj2EED0Ev@Base 5.2.0
 (optional=templinst)_ZN3itk23PointBasedSpatialObjectILj2EED1Ev@Base 5.2.0
 (optional=templinst)_ZN3itk23PointBasedSpatialObjectILj2EED2Ev@Base 5.2.0
 (optional=templinst)_ZN3itk23ScalableAffineTransformIdLj2EE11SetIdentityEv@Base 5.2.0
 (optional=templinst)_ZN3itk23ScalableAffineTransformIdLj2EE13ComputeMatrixEv@Base 5.2.0
 (optional=templinst)_ZN3itk23ScalableAffineTransformIdLj2EE17SetScaleComponentEPKd@Base 5.2.0
 (optional=templinst)_ZN3itk23ScalableAffineTransformIdLj2EE17SetScaleComponentERKNS_6VectorIdLj2EEE@Base 5.2.0
 (optional=templinst)_ZN3itk23ScalableAffineTransformIdLj2EE3NewEv@Base 5.2.0
 (optional=templinst)_ZN3itk23ScalableAffineTransformIdLj2EE8SetScaleEPKd@Base 5.2.0
 (optional=templinst)_ZN3itk23ScalableAffineTransformIdLj2EE8SetScaleERKNS_6VectorIdLj2EEE@Base 5.2.0
 (optional=templinst)_ZN3itk23ScalableAffineTransformIdLj2EED0Ev@Base 5.2.0
 (optional=templinst)_ZN3itk23ScalableAffineTransformIdLj2EED1Ev@Base 5.2.0
 (optional=templinst)_ZN3itk23ScalableAffineTransformIdLj2EED2Ev@Base 5.2.0
 (optional=templinst)_ZN3itk25MatrixOffsetTransformBaseIdLj2ELj2EE11SetIdentityEv@Base 5.2.0
 (optional=templinst)_ZN3itk25MatrixOffsetTransformBaseIdLj2ELj2EE13ComputeMatrixEv@Base 5.2.0
 (optional=templinst)_ZN3itk25MatrixOffsetTransformBaseIdLj2ELj2EE13ComputeOffsetEv@Base 5.2.0
 (optional=templinst)_ZN3itk25MatrixOffsetTransformBaseIdLj2ELj2EE13SetParametersERKNS_19OptimizerParametersIdEE@Base 5.2.0
 (optional=templinst)_ZN3itk25MatrixOffsetTransformBaseIdLj2ELj2EE18ComputeTranslationEv@Base 5.2.0
 (optional=templinst)_ZN3itk25MatrixOffsetTransformBaseIdLj2ELj2EE18SetFixedParametersERKNS_19OptimizerParametersIdEE@Base 5.2.0
 (optional=templinst)_ZN3itk25MatrixOffsetTransformBaseIdLj2ELj2EE23ComputeMatrixParametersEv@Base 5.2.0
 (optional=templinst)_ZN3itk25MatrixOffsetTransformBaseIdLj2ELj2EE9SetMatrixERKNS_6MatrixIdLj2ELj2EEE@Base 5.2.0
 (optional=templinst)_ZN3itk25MatrixOffsetTransformBaseIdLj2ELj2EEC1Ej@Base 5.2.0
 (optional=templinst)_ZN3itk25MatrixOffsetTransformBaseIdLj2ELj2EEC1Ev@Base 5.2.0
 (optional=templinst)_ZN3itk25MatrixOffsetTransformBaseIdLj2ELj2EEC2Ej@Base 5.2.0
 (optional=templinst)_ZN3itk25MatrixOffsetTransformBaseIdLj2ELj2EEC2Ev@Base 5.2.0
 (optional=templinst)_ZN3itk25MatrixOffsetTransformBaseIdLj2ELj2EED0Ev@Base 5.2.0
 (optional=templinst)_ZN3itk25MatrixOffsetTransformBaseIdLj2ELj2EED1Ev@Base 5.2.0
 (optional=templinst)_ZN3itk25MatrixOffsetTransformBaseIdLj2ELj2EED2Ev@Base 5.2.0
 (optional=templinst)_ZN3itk25OptimizerParametersHelperIdE15MoveDataPointerEPNS_5ArrayIdEEPd@Base 5.2.0
 (optional=templinst)_ZN3itk25OptimizerParametersHelperIdE19SetParametersObjectEPNS_5ArrayIdEEPNS_11LightObjectE@Base 5.2.0
 (optional=templinst)_ZN3itk25OptimizerParametersHelperIdED0Ev@Base 5.2.0
 (optional=templinst)_ZN3itk25OptimizerParametersHelperIdED1Ev@Base 5.2.0
 (optional=templinst)_ZN3itk25OptimizerParametersHelperIdED2Ev@Base 5.2.0
 _ZN3itk6Object13SetObjectNameESs@Base 5.2.0
 (optional=templinst)_ZN3itk8TreeNodeIPNS_13SpatialObjectILj2EEEE15GetChildrenListEv@Base 5.2.0
 (optional=templinst)_ZN3itk8TreeNodeIPNS_13SpatialObjectILj2EEEE6RemoveEPS4_@Base 5.2.0
 (optional=templinst)_ZN3itk8TreeNodeIPNS_13SpatialObjectILj2EEEE8AddChildElPS4_@Base 5.2.0
 (optional=templinst)_ZN3itk8TreeNodeIPNS_13SpatialObjectILj2EEEED0Ev@Base 5.2.0
 (optional=templinst)_ZN3itk8TreeNodeIPNS_13SpatialObjectILj2EEEED1Ev@Base 5.2.0
 (optional=templinst)_ZN3itk8TreeNodeIPNS_13SpatialObjectILj2EEEED2Ev@Base 5.2.0
 (optional=templinst)_ZN3itk9TransformIdLj2ELj2EE20SetParametersByValueERKNS_19OptimizerParametersIdEE@Base 5.2.0
 (optional=templinst)_ZN3itk9TransformIdLj2ELj2EE25UpdateTransformParametersERKNS_5ArrayIdEEd@Base 5.2.0
 (optional=templinst)_ZN3itk9TransformIdLj2ELj2EEC1Em@Base 5.2.0
 (optional=templinst)_ZN3itk9TransformIdLj2ELj2EEC2Em@Base 5.2.0
 (optional=templinst)_ZN3itk9TransformIdLj2ELj2EED0Ev@Base 5.2.0
 (optional=templinst)_ZN3itk9TransformIdLj2ELj2EED1Ev@Base 5.2.0
 (optional=templinst)_ZN3itk9TransformIdLj2ELj2EED2Ev@Base 5.2.0
 _ZN3otb14FillGapsFilter12GenerateDataEv@Base 5.2.0
 _ZN3otb14FillGapsFilter14SetAngularBeamEd@Base 5.2.0
 _ZN3otb14FillGapsFilter8GetInputEv@Base 5.2.0
 _ZN3otb14FillGapsFilter8SetInputEPKNS_21LineSpatialObjectListE@Base 5.2.0
 _ZN3otb14FillGapsFilter9GetOutputEv@Base 5.2.0
 _ZN3otb14FillGapsFilter9SetRadiusEd@Base 5.2.0
 _ZN3otb14FillGapsFilterC1Ev@Base 5.2.0
 _ZN3otb14FillGapsFilterC2Ev@Base 5.2.0
 _ZN3otb14FillGapsFilterD0Ev@Base 5.2.0
 _ZN3otb14FillGapsFilterD1Ev@Base 5.2.0
 _ZN3otb14FillGapsFilterD2Ev@Base 5.2.0
 _ZN3otb21LineSpatialObjectListD0Ev@Base 5.2.0
 _ZN3otb21LineSpatialObjectListD1Ev@Base 5.2.0
 _ZN3otb21LineSpatialObjectListD2Ev@Base 5.2.0
 (optional=templinst)_ZN7vnl_svdIdED0Ev@Base 5.2.0
 (optional=templinst)_ZN7vnl_svdIdED1Ev@Base 5.2.0
 (optional=templinst)_ZN7vnl_svdIdED2Ev@Base 5.2.0
 _ZNK3itk10DataObject16GetPipelineMTimeEv@Base 5.2.0
 _ZNK3itk10DataObject16GetRealTimeStampEv@Base 5.2.0
 _ZNK3itk10DataObject18GetReleaseDataFlagEv@Base 5.2.0
 (optional=templinst)_ZNK3itk11BoundingBoxImLi2EdNS_15VectorContainerImNS_5PointIdLj2EEEEEE13CreateAnotherEv@Base 5.2.0
 (optional=templinst)_ZNK3itk11BoundingBoxImLi2EdNS_15VectorContainerImNS_5PointIdLj2EEEEEE14GetNameOfClassEv@Base 5.2.0
 (optional=templinst)_ZNK3itk11BoundingBoxImLi2EdNS_15VectorContainerImNS_5PointIdLj2EEEEEE18ComputeBoundingBoxEv@Base 5.2.0
 (optional=templinst)_ZNK3itk11BoundingBoxImLi2EdNS_15VectorContainerImNS_5PointIdLj2EEEEEE8GetMTimeEv@Base 5.2.0
 (optional=templinst)_ZNK3itk11BoundingBoxImLi2EdNS_15VectorContainerImNS_5PointIdLj2EEEEEE9GetBoundsEv@Base 5.2.0
 (optional=templinst)_ZNK3itk11BoundingBoxImLi2EdNS_15VectorContainerImNS_5PointIdLj2EEEEEE9PrintSelfERSoNS_6IndentE@Base 5.2.0
 (optional=templinst)_ZNK3itk11ImageRegionILj2EE13GetRegionTypeEv@Base 5.2.0
 (optional=templinst)_ZNK3itk11ImageRegionILj2EE14GetNameOfClassEv@Base 5.2.0
 (optional=templinst)_ZNK3itk11ImageRegionILj2EE9PrintSelfERSoNS_6IndentE@Base 5.2.0
 _ZNK3itk11LightObject17GetReferenceCountEv@Base 5.2.0
 _ZNK3itk13ProcessObject11GetProgressEv@Base 5.2.0
 _ZNK3itk13ProcessObject18GetNumberOfThreadsEv@Base 5.2.0
 _ZNK3itk13ProcessObject19GetPrimaryInputNameEv@Base 5.2.0
 _ZNK3itk13ProcessObject20GetAbortGenerateDataEv@Base 5.2.0
 _ZNK3itk13ProcessObject20GetPrimaryOutputNameEv@Base 5.2.0
 _ZNK3itk13ProcessObject25GetNumberOfRequiredInputsEv@Base 5.2.0
 _ZNK3itk13ProcessObject26GetNumberOfRequiredOutputsEv@Base 5.2.0
 _ZNK3itk13ProcessObject30GetReleaseDataBeforeUpdateFlagEv@Base 5.2.0
 (optional=templinst)_ZNK3itk13SpatialObjectILj2EE10GetSpacingEv@Base 5.2.0
 (optional=templinst)_ZNK3itk13SpatialObjectILj2EE11GetChildrenEjPc@Base 5.2.0
 (optional=templinst)_ZNK3itk13SpatialObjectILj2EE11GetParentIdEv@Base 5.2.0
 (optional=templinst)_ZNK3itk13SpatialObjectILj2EE11GetTreeNodeEv@Base 5.2.0
 (optional=templinst)_ZNK3itk13SpatialObjectILj2EE11GetTypeNameEv@Base 5.2.0
 (optional=templinst)_ZNK3itk13SpatialObjectILj2EE12GetDimensionEv@Base 5.2.0
 (optional=templinst)_ZNK3itk13SpatialObjectILj2EE13CreateAnotherEv@Base 5.2.0
 (optional=templinst)_ZNK3itk13SpatialObjectILj2EE13IsEvaluableAtERKNS_5PointIdLj2EEEjPc@Base 5.2.0
 (optional=templinst)_ZNK3itk13SpatialObjectILj2EE14GetBoundingBoxEv@Base 5.2.0
 (optional=templinst)_ZNK3itk13SpatialObjectILj2EE14GetNameOfClassEv@Base 5.2.0
 (optional=templinst)_ZNK3itk13SpatialObjectILj2EE17GetBufferedRegionEv@Base 5.2.0
 (optional=templinst)_ZNK3itk13SpatialObjectILj2EE18ComputeBoundingBoxEv@Base 5.2.0
 (optional=templinst)_ZNK3itk13SpatialObjectILj2EE18GetRequestedRegionEv@Base 5.2.0
 (optional=templinst)_ZNK3itk13SpatialObjectILj2EE21GetDefaultInsideValueEv@Base 5.2.0
 (optional=templinst)_ZNK3itk13SpatialObjectILj2EE22GetAffineGeometryFrameEv@Base 5.2.0
 (optional=templinst)_ZNK3itk13SpatialObjectILj2EE22GetDefaultOutsideValueEv@Base 5.2.0
 (optional=templinst)_ZNK3itk13SpatialObjectILj2EE23ComputeLocalBoundingBoxEv@Base 5.2.0
 (optional=templinst)_ZNK3itk13SpatialObjectILj2EE24GetIndexToWorldTransformEv@Base 5.2.0
 (optional=templinst)_ZNK3itk13SpatialObjectILj2EE24GetLargestPossibleRegionEv@Base 5.2.0
 (optional=templinst)_ZNK3itk13SpatialObjectILj2EE25GetObjectToWorldTransformEv@Base 5.2.0
 (optional=templinst)_ZNK3itk13SpatialObjectILj2EE26GetBoundingBoxChildrenNameEv@Base 5.2.0
 (optional=templinst)_ZNK3itk13SpatialObjectILj2EE27GetBoundingBoxChildrenDepthEv@Base 5.2.0
 (optional=templinst)_ZNK3itk13SpatialObjectILj2EE27GetInternalInverseTransformEv@Base 5.2.0
 (optional=templinst)_ZNK3itk13SpatialObjectILj2EE28GetSpatialObjectTypeAsStringEv@Base 5.2.0
 (optional=templinst)_ZNK3itk13SpatialObjectILj2EE5GetIdEv@Base 5.2.0
 (optional=templinst)_ZNK3itk13SpatialObjectILj2EE7ValueAtERKNS_5PointIdLj2EEERdjPc@Base 5.2.0
 (optional=templinst)_ZNK3itk13SpatialObjectILj2EE8GetMTimeEv@Base 5.2.0
 (optional=templinst)_ZNK3itk13SpatialObjectILj2EE8IsInsideERKNS_5PointIdLj2EEEjPc@Base 5.2.0
 (optional=templinst)_ZNK3itk13SpatialObjectILj2EE9GetBoundsEv@Base 5.2.0
 (optional=templinst)_ZNK3itk13SpatialObjectILj2EE9GetParentEv@Base 5.2.0
 (optional=templinst)_ZNK3itk13SpatialObjectILj2EE9HasParentEv@Base 5.2.0
 (optional=templinst)_ZNK3itk13SpatialObjectILj2EE9PrintSelfERSoNS_6IndentE@Base 5.2.0
 (optional=templinst)_ZNK3itk15AffineTransformIdLj2EE13CreateAnotherEv@Base 5.2.0
 (optional=templinst)_ZNK3itk15AffineTransformIdLj2EE14GetNameOfClassEv@Base 5.2.0
 (optional=templinst)_ZNK3itk15AffineTransformIdLj2EE19GetInverseTransformEv@Base 5.2.0
 (optional=templinst)_ZNK3itk15AffineTransformIdLj2EE9PrintSelfERSoNS_6IndentE@Base 5.2.0
 (optional=templinst)_ZNK3itk15VectorContainerImNS_5PointIdLj2EEEE13CreateAnotherEv@Base 5.2.0
 (optional=templinst)_ZNK3itk15VectorContainerImNS_5PointIdLj2EEEE14GetNameOfClassEv@Base 5.2.0
 (optional=templinst)_ZNK3itk17LineSpatialObjectILj2EE13CreateAnotherEv@Base 5.2.0
 (optional=templinst)_ZNK3itk17LineSpatialObjectILj2EE13IsEvaluableAtERKNS_5PointIdLj2EEEjPc@Base 5.2.0
 (optional=templinst)_ZNK3itk17LineSpatialObjectILj2EE14GetNameOfClassEv@Base 5.2.0
 (optional=templinst)_ZNK3itk17LineSpatialObjectILj2EE17GetNumberOfPointsEv@Base 5.2.0
 (optional=templinst)_ZNK3itk17LineSpatialObjectILj2EE23ComputeLocalBoundingBoxEv@Base 5.2.0
 (optional=templinst)_ZNK3itk17LineSpatialObjectILj2EE7ValueAtERKNS_5PointIdLj2EEERdjPc@Base 5.2.0
 (optional=templinst)_ZNK3itk17LineSpatialObjectILj2EE8GetPointEm@Base 5.2.0
 (optional=templinst)_ZNK3itk17LineSpatialObjectILj2EE8IsInsideERKNS_5PointIdLj2EEE@Base 5.2.0
 (optional=templinst)_ZNK3itk17LineSpatialObjectILj2EE8IsInsideERKNS_5PointIdLj2EEEjPc@Base 5.2.0
 (optional=templinst)_ZNK3itk17LineSpatialObjectILj2EE9PrintSelfERSoNS_6IndentE@Base 5.2.0
 (optional=templinst)_ZNK3itk18SpatialObjectPointILj2EE9PrintSelfERSoNS_6IndentE@Base 5.2.0
 (optional=templinst)_ZNK3itk19AffineGeometryFrameIdLj2EE13CreateAnotherEv@Base 5.2.0
 (optional=templinst)_ZNK3itk19AffineGeometryFrameIdLj2EE13InternalCloneEv@Base 5.2.0
 (optional=templinst)_ZNK3itk19AffineGeometryFrameIdLj2EE14GetBoundingBoxEv@Base 5.2.0
 (optional=templinst)_ZNK3itk19AffineGeometryFrameIdLj2EE14GetNameOfClassEv@Base 5.2.0
 (optional=templinst)_ZNK3itk19AffineGeometryFrameIdLj2EE18InitializeGeometryEPS1_@Base 5.2.0
 (optional=templinst)_ZNK3itk19AffineGeometryFrameIdLj2EE23GetIndexToNodeTransformEv@Base 5.2.0
 (optional=templinst)_ZNK3itk19AffineGeometryFrameIdLj2EE24GetIndexToWorldTransformEv@Base 5.2.0
 (optional=templinst)_ZNK3itk19AffineGeometryFrameIdLj2EE24GetObjectToNodeTransformEv@Base 5.2.0
 (optional=templinst)_ZNK3itk19AffineGeometryFrameIdLj2EE25GetIndexToObjectTransformEv@Base 5.2.0
 (optional=templinst)_ZNK3itk19AffineGeometryFrameIdLj2EE9PrintSelfERSoNS_6IndentE@Base 5.2.0
 (optional=templinst)_ZNK3itk20VariableLengthVectorIdE16AllocateElementsEj@Base 5.2.0
 (optional=templinst)_ZNK3itk21SpatialObjectPropertyIfE13CreateAnotherEv@Base 5.2.0
 (optional=templinst)_ZNK3itk21SpatialObjectPropertyIfE14GetNameOfClassEv@Base 5.2.0
 (optional=templinst)_ZNK3itk21SpatialObjectPropertyIfE9PrintSelfERSoNS_6IndentE@Base 5.2.0
 (optional=templinst)_ZNK3itk21SpatialObjectTreeNodeILj2EE11GetChildrenEjPc@Base 5.2.0
 (optional=templinst)_ZNK3itk21SpatialObjectTreeNodeILj2EE13CreateAnotherEv@Base 5.2.0
 (optional=templinst)_ZNK3itk21SpatialObjectTreeNodeILj2EE14GetNameOfClassEv@Base 5.2.0
 (optional=templinst)_ZNK3itk21SpatialObjectTreeNodeILj2EE23GetNodeToWorldTransformEv@Base 5.2.0
 (optional=templinst)_ZNK3itk21SpatialObjectTreeNodeILj2EE28GetNodeToParentNodeTransformEv@Base 5.2.0
 (optional=templinst)_ZNK3itk21SpatialObjectTreeNodeILj2EE9PrintSelfERSoNS_6IndentE@Base 5.2.0
 (optional=templinst)_ZNK3itk21TransformBaseTemplateIdE14GetNameOfClassEv@Base 5.2.0
 (optional=templinst)_ZNK3itk22LineSpatialObjectPointILj2EE9PrintSelfERSoNS_6IndentE@Base 5.2.0
 (optional=templinst)_ZNK3itk22SymmetricEigenAnalysisINS_6MatrixIdLj3ELj3EEENS_10FixedArrayIdLj3EEES2_E28ComputeEigenValuesAndVectorsERKS2_RS4_RS2_@Base 5.2.0
 (optional=templinst)_ZNK3itk22SymmetricEigenAnalysisINS_6MatrixIdLj3ELj3EEENS_10FixedArrayIdLj3EEES2_E35ComputeEigenValuesAndVectorsUsingQLERS4_PdS7_@Base 5.2.0
 (optional=templinst)_ZNK3itk22SymmetricEigenAnalysisINS_6MatrixIdLj3ELj3EEENS_10FixedArrayIdLj3EEES2_E45ReduceToTridiagonalMatrixAndGetTransformationEPdRS4_S6_S6_@Base 5.2.0
 (optional=templinst)_ZNK3itk23PointBasedSpatialObjectILj2EE13CreateAnotherEv@Base 5.2.0
 (optional=templinst)_ZNK3itk23PointBasedSpatialObjectILj2EE14GetNameOfClassEv@Base 5.2.0
 (optional=templinst)_ZNK3itk23PointBasedSpatialObjectILj2EE17GetNumberOfPointsEv@Base 5.2.0
 (optional=templinst)_ZNK3itk23PointBasedSpatialObjectILj2EE23ComputeLocalBoundingBoxEv@Base 5.2.0
 (optional=templinst)_ZNK3itk23PointBasedSpatialObjectILj2EE8GetPointEm@Base 5.2.0
 (optional=templinst)_ZNK3itk23PointBasedSpatialObjectILj2EE9PrintSelfERSoNS_6IndentE@Base 5.2.0
 (optional=templinst)_ZNK3itk23ScalableAffineTransformIdLj2EE13CreateAnotherEv@Base 5.2.0
 (optional=templinst)_ZNK3itk23ScalableAffineTransformIdLj2EE14GetNameOfClassEv@Base 5.2.0
 (optional=templinst)_ZNK3itk23ScalableAffineTransformIdLj2EE17GetScaleComponentEv@Base 5.2.0
 (optional=templinst)_ZNK3itk23ScalableAffineTransformIdLj2EE19GetInverseTransformEv@Base 5.2.0
 (optional=templinst)_ZNK3itk23ScalableAffineTransformIdLj2EE8GetScaleEv@Base 5.2.0
 (optional=templinst)_ZNK3itk23ScalableAffineTransformIdLj2EE9PrintSelfERSoNS_6IndentE@Base 5.2.0
 (optional=templinst)_ZNK3itk25MatrixOffsetTransformBaseIdLj2ELj2EE10GetInverseEPS1_@Base 5.2.0
 (optional=templinst)_ZNK3itk25MatrixOffsetTransformBaseIdLj2ELj2EE13CreateAnotherEv@Base 5.2.0
 (optional=templinst)_ZNK3itk25MatrixOffsetTransformBaseIdLj2ELj2EE13GetParametersEv@Base 5.2.0
 (optional=templinst)_ZNK3itk25MatrixOffsetTransformBaseIdLj2ELj2EE14GetNameOfClassEv@Base 5.2.0
 (optional=templinst)_ZNK3itk25MatrixOffsetTransformBaseIdLj2ELj2EE14TransformPointERKNS_5PointIdLj2EEE@Base 5.2.0
 (optional=templinst)_ZNK3itk25MatrixOffsetTransformBaseIdLj2ELj2EE15TransformVectorERK16vnl_vector_fixedIdLj2EE@Base 5.2.0
 (optional=templinst)_ZNK3itk25MatrixOffsetTransformBaseIdLj2ELj2EE15TransformVectorERKNS_20VariableLengthVectorIdEE@Base 5.2.0
 (optional=templinst)_ZNK3itk25MatrixOffsetTransformBaseIdLj2ELj2EE15TransformVectorERKNS_6VectorIdLj2EEE@Base 5.2.0
 (optional=templinst)_ZNK3itk25MatrixOffsetTransformBaseIdLj2ELj2EE16GetInverseMatrixEv@Base 5.2.0
 (optional=templinst)_ZNK3itk25MatrixOffsetTransformBaseIdLj2ELj2EE18GetFixedParametersEv@Base 5.2.0
 (optional=templinst)_ZNK3itk25MatrixOffsetTransformBaseIdLj2ELj2EE19GetInverseTransformEv@Base 5.2.0
 (optional=templinst)_ZNK3itk25MatrixOffsetTransformBaseIdLj2ELj2EE20GetTransformCategoryEv@Base 5.2.0
 (optional=templinst)_ZNK3itk25MatrixOffsetTransformBaseIdLj2ELj2EE24TransformCovariantVectorERKNS_15CovariantVectorIdLj2EEE@Base 5.2.0
 (optional=templinst)_ZNK3itk25MatrixOffsetTransformBaseIdLj2ELj2EE24TransformCovariantVectorERKNS_20VariableLengthVectorIdEE@Base 5.2.0
 (optional=templinst)_ZNK3itk25MatrixOffsetTransformBaseIdLj2ELj2EE26TransformDiffusionTensor3DERKNS_17DiffusionTensor3DIdEE@Base 5.2.0
 (optional=templinst)_ZNK3itk25MatrixOffsetTransformBaseIdLj2ELj2EE26TransformDiffusionTensor3DERKNS_20VariableLengthVectorIdEE@Base 5.2.0
 (optional=templinst)_ZNK3itk25MatrixOffsetTransformBaseIdLj2ELj2EE34TransformSymmetricSecondRankTensorERKNS_20VariableLengthVectorIdEE@Base 5.2.0
 (optional=templinst)_ZNK3itk25MatrixOffsetTransformBaseIdLj2ELj2EE34TransformSymmetricSecondRankTensorERKNS_25SymmetricSecondRankTensorIdLj2EEE@Base 5.2.0
 (optional=templinst)_ZNK3itk25MatrixOffsetTransformBaseIdLj2ELj2EE36ComputeJacobianWithRespectToPositionERKNS_5PointIdLj2EEERNS_7Array2DIdEE@Base 5.2.0
 (optional=templinst)_ZNK3itk25MatrixOffsetTransformBaseIdLj2ELj2EE38ComputeJacobianWithRespectToParametersERKNS_5PointIdLj2EEERNS_7Array2DIdEE@Base 5.2.0
 (optional=templinst)_ZNK3itk25MatrixOffsetTransformBaseIdLj2ELj2EE43ComputeInverseJacobianWithRespectToPositionERKNS_5PointIdLj2EEERNS_7Array2DIdEE@Base 5.2.0
 (optional=templinst)_ZNK3itk25MatrixOffsetTransformBaseIdLj2ELj2EE8IsLinearEv@Base 5.2.0
 (optional=templinst)_ZNK3itk25MatrixOffsetTransformBaseIdLj2ELj2EE9GetMatrixEv@Base 5.2.0
 (optional=templinst)_ZNK3itk25MatrixOffsetTransformBaseIdLj2ELj2EE9PrintSelfERSoNS_6IndentE@Base 5.2.0
 (optional=templinst)_ZNK3itk6MatrixIdLj2ELj2EE10GetInverseEv@Base 5.2.0
 _ZNK3itk6Object13GetObjectNameEv@Base 5.2.0
 (optional=templinst)_ZNK3itk8TreeNodeIPNS_13SpatialObjectILj2EEEE11GetChildrenEjPc@Base 5.2.0
 (optional=templinst)_ZNK3itk8TreeNodeIPNS_13SpatialObjectILj2EEEE13CreateAnotherEv@Base 5.2.0
 (optional=templinst)_ZNK3itk8TreeNodeIPNS_13SpatialObjectILj2EEEE14GetNameOfClassEv@Base 5.2.0
 (optional=templinst)_ZNK3itk9TransformIdLj2ELj2EE11GetJacobianERKNS_5PointIdLj2EEE@Base 5.2.0
 (optional=templinst)_ZNK3itk9TransformIdLj2ELj2EE13GetParametersEv@Base 5.2.0
 (optional=templinst)_ZNK3itk9TransformIdLj2ELj2EE13InternalCloneEv@Base 5.2.0
 (optional=templinst)_ZNK3itk9TransformIdLj2ELj2EE14GetNameOfClassEv@Base 5.2.0
 (optional=templinst)_ZNK3itk9TransformIdLj2ELj2EE15TransformVectorERK16vnl_vector_fixedIdLj2EE@Base 5.2.0
 (optional=templinst)_ZNK3itk9TransformIdLj2ELj2EE15TransformVectorERK16vnl_vector_fixedIdLj2EERKNS_5PointIdLj2EEE@Base 5.2.0
 (optional=templinst)_ZNK3itk9TransformIdLj2ELj2EE15TransformVectorERKNS_20VariableLengthVectorIdEE@Base 5.2.0
 (optional=templinst)_ZNK3itk9TransformIdLj2ELj2EE15TransformVectorERKNS_20VariableLengthVectorIdEERKNS_5PointIdLj2EEE@Base 5.2.0
 (optional=templinst)_ZNK3itk9TransformIdLj2ELj2EE15TransformVectorERKNS_6VectorIdLj2EEE@Base 5.2.0
 (optional=templinst)_ZNK3itk9TransformIdLj2ELj2EE15TransformVectorERKNS_6VectorIdLj2EEERKNS_5PointIdLj2EEE@Base 5.2.0
 (optional=templinst)_ZNK3itk9TransformIdLj2ELj2EE18GetFixedParametersEv@Base 5.2.0
 (optional=templinst)_ZNK3itk9TransformIdLj2ELj2EE19GetInverseTransformEv@Base 5.2.0
 (optional=templinst)_ZNK3itk9TransformIdLj2ELj2EE20GetTransformCategoryEv@Base 5.2.0
 (optional=templinst)_ZNK3itk9TransformIdLj2ELj2EE21GetNumberOfParametersEv@Base 5.2.0
 (optional=templinst)_ZNK3itk9TransformIdLj2ELj2EE22GetInputSpaceDimensionEv@Base 5.2.0
 (optional=templinst)_ZNK3itk9TransformIdLj2ELj2EE23GetOutputSpaceDimensionEv@Base 5.2.0
 (optional=templinst)_ZNK3itk9TransformIdLj2ELj2EE24GetTransformTypeAsStringEv@Base 5.2.0
 (optional=templinst)_ZNK3itk9TransformIdLj2ELj2EE24TransformCovariantVectorERKNS_15CovariantVectorIdLj2EEE@Base 5.2.0
 (optional=templinst)_ZNK3itk9TransformIdLj2ELj2EE24TransformCovariantVectorERKNS_15CovariantVectorIdLj2EEERKNS_5PointIdLj2EEE@Base 5.2.0
 (optional=templinst)_ZNK3itk9TransformIdLj2ELj2EE24TransformCovariantVectorERKNS_20VariableLengthVectorIdEE@Base 5.2.0
 (optional=templinst)_ZNK3itk9TransformIdLj2ELj2EE24TransformCovariantVectorERKNS_20VariableLengthVectorIdEERKNS_5PointIdLj2EEE@Base 5.2.0
 (optional=templinst)_ZNK3itk9TransformIdLj2ELj2EE26GetNumberOfLocalParametersEv@Base 5.2.0
 (optional=templinst)_ZNK3itk9TransformIdLj2ELj2EE26TransformDiffusionTensor3DERKNS_17DiffusionTensor3DIdEE@Base 5.2.0
 (optional=templinst)_ZNK3itk9TransformIdLj2ELj2EE26TransformDiffusionTensor3DERKNS_17DiffusionTensor3DIdEERKNS_5PointIdLj2EEE@Base 5.2.0
 (optional=templinst)_ZNK3itk9TransformIdLj2ELj2EE26TransformDiffusionTensor3DERKNS_20VariableLengthVectorIdEE@Base 5.2.0
 (optional=templinst)_ZNK3itk9TransformIdLj2ELj2EE26TransformDiffusionTensor3DERKNS_20VariableLengthVectorIdEERKNS_5PointIdLj2EEE@Base 5.2.0
 (optional=templinst)_ZNK3itk9TransformIdLj2ELj2EE34TransformSymmetricSecondRankTensorERKNS_20VariableLengthVectorIdEE@Base 5.2.0
 (optional=templinst)_ZNK3itk9TransformIdLj2ELj2EE34TransformSymmetricSecondRankTensorERKNS_20VariableLengthVectorIdEERKNS_5PointIdLj2EEE@Base 5.2.0
 (optional=templinst)_ZNK3itk9TransformIdLj2ELj2EE34TransformSymmetricSecondRankTensorERKNS_25SymmetricSecondRankTensorIdLj2EEE@Base 5.2.0
 (optional=templinst)_ZNK3itk9TransformIdLj2ELj2EE34TransformSymmetricSecondRankTensorERKNS_25SymmetricSecondRankTensorIdLj2EEERKNS_5PointIdLj2EEE@Base 5.2.0
 (optional=templinst)_ZNK3itk9TransformIdLj2ELj2EE36ComputeJacobianWithRespectToPositionERKNS_5PointIdLj2EEERNS_7Array2DIdEE@Base 5.2.0
 (optional=templinst)_ZNK3itk9TransformIdLj2ELj2EE43ComputeInverseJacobianWithRespectToPositionERKNS_5PointIdLj2EEERNS_7Array2DIdEE@Base 5.2.0
 (optional=templinst)_ZNK3itk9TransformIdLj2ELj2EE55ComputeJacobianWithRespectToParametersCachedTemporariesERKNS_5PointIdLj2EEERNS_7Array2DIdEES8_@Base 5.2.0
 (optional=templinst)_ZNK3itk9TransformIdLj2ELj2EE62PreservationOfPrincipalDirectionDiffusionTensor3DReorientationENS_17DiffusionTensor3DIdEENS_7Array2DIdEE@Base 5.2.0
 (optional=templinst)_ZNK3itk9TransformIdLj2ELj2EE8IsLinearEv@Base 5.2.0
 _ZNK3otb14FillGapsFilter13CreateAnotherEv@Base 5.2.0
 _ZNK3otb14FillGapsFilter14GetAngularBeamEv@Base 5.2.0
 _ZNK3otb14FillGapsFilter14GetNameOfClassEv@Base 5.2.0
 _ZNK3otb14FillGapsFilter9GetRadiusEv@Base 5.2.0
 _ZNK3otb14FillGapsFilter9PrintSelfERSoN3itk6IndentE@Base 5.2.0
 _ZNK3otb21LineSpatialObjectList13CreateAnotherEv@Base 5.2.0
 _ZNK3otb21LineSpatialObjectList14GetNameOfClassEv@Base 5.2.0
 (optional=templinst)_ZNKSt5ctypeIcE8do_widenEc@Base 5.2.0
 (optional=templinst)_ZNSt10_List_baseIN3itk12SmartPointerINS0_13SpatialObjectILj2EEEEESaIS4_EE8_M_clearEv@Base 5.2.0
 (optional=templinst)_ZNSt10_List_baseIN3itk12SmartPointerINS0_17LineSpatialObjectILj2EEEEESaIS4_EE8_M_clearEv@Base 5.2.0
 (optional=templinst)_ZNSt15basic_stringbufIcSt11char_traitsIcESaIcEED0Ev@Base 5.2.0
 (optional=templinst)_ZNSt15basic_stringbufIcSt11char_traitsIcESaIcEED1Ev@Base 5.2.0
 (optional=templinst)_ZNSt15basic_stringbufIcSt11char_traitsIcESaIcEED2Ev@Base 5.2.0
 (optional=templinst)_ZNSt20__uninitialized_copyILb0EE13__uninit_copyIPN3itk12SmartPointerINS2_8TreeNodeIPNS2_13SpatialObjectILj2EEEEEEESA_EET0_T_SC_SB_@Base 5.2.0
 (optional=templinst)_ZNSt6vectorIN3itk12SmartPointerINS0_8TreeNodeIPNS0_13SpatialObjectILj2EEEEEEESaIS7_EE13_M_insert_auxEN9__gnu_cxx17__normal_iteratorIPS7_S9_EERKS7_@Base 5.2.0
 (optional=templinst)_ZNSt6vectorIN3itk12SmartPointerINS0_8TreeNodeIPNS0_13SpatialObjectILj2EEEEEEESaIS7_EE14_M_fill_insertEN9__gnu_cxx17__normal_iteratorIPS7_S9_EEmRKS7_@Base 5.2.0
 (optional=templinst)_ZNSt6vectorIN3itk12SmartPointerINS0_8TreeNodeIPNS0_13SpatialObjectILj2EEEEEEESaIS7_EED1Ev@Base 5.2.0
 (optional=templinst)_ZNSt6vectorIN3itk12SmartPointerINS0_8TreeNodeIPNS0_13SpatialObjectILj2EEEEEEESaIS7_EED2Ev@Base 5.2.0
 (optional=templinst)_ZNSt6vectorIN3itk22LineSpatialObjectPointILj2EEESaIS2_EE13_M_insert_auxEN9__gnu_cxx17__normal_iteratorIPS2_S4_EERKS2_@Base 5.2.0
 (optional=templinst)_ZNSt6vectorIN3itk22LineSpatialObjectPointILj2EEESaIS2_EED1Ev@Base 5.2.0
 (optional=templinst)_ZNSt6vectorIN3itk22LineSpatialObjectPointILj2EEESaIS2_EED2Ev@Base 5.2.0
 (optional=templinst)_ZNSt6vectorIN3itk22LineSpatialObjectPointILj2EEESaIS2_EEaSERKS4_@Base 5.2.0
 (optional=templinst)_ZNSt6vectorIN3itk5PointIdLj2EEESaIS2_EE14_M_fill_insertEN9__gnu_cxx17__normal_iteratorIPS2_S4_EEmRKS2_@Base 5.2.0
 _ZTI10vnl_vectorIdE@Base 5.2.0
 _ZTI18vnl_matrix_inverseIdE@Base 5.2.0
 _ZTI7vnl_svdIdE@Base 5.2.0
 _ZTIN3itk11BoundingBoxImLi2EdNS_15VectorContainerImNS_5PointIdLj2EEEEEEE@Base 5.2.0
 _ZTIN3itk11ImageRegionILj2EEE@Base 5.2.0
 _ZTIN3itk13SpatialObjectILj2EEE@Base 5.2.0
 _ZTIN3itk15AffineTransformIdLj2EEE@Base 5.2.0
 _ZTIN3itk15VectorContainerImNS_5PointIdLj2EEEEE@Base 5.2.0
 _ZTIN3itk17LineSpatialObjectILj2EEE@Base 5.2.0
 _ZTIN3itk18SpatialObjectPointILj2EEE@Base 5.2.0
 _ZTIN3itk19AffineGeometryFrameIdLj2EEE@Base 5.2.0
 _ZTIN3itk19OptimizerParametersIdEE@Base 5.2.0
 _ZTIN3itk21SpatialObjectPropertyIfEE@Base 5.2.0
 _ZTIN3itk21SpatialObjectTreeNodeILj2EEE@Base 5.2.0
 _ZTIN3itk21TransformBaseTemplateIdEE@Base 5.2.0
 _ZTIN3itk22LineSpatialObjectPointILj2EEE@Base 5.2.0
 _ZTIN3itk23PointBasedSpatialObjectILj2EEE@Base 5.2.0
 _ZTIN3itk23ScalableAffineTransformIdLj2EEE@Base 5.2.0
 _ZTIN3itk25MatrixOffsetTransformBaseIdLj2ELj2EEE@Base 5.2.0
 _ZTIN3itk25OptimizerParametersHelperIdEE@Base 5.2.0
 _ZTIN3itk5ArrayIdEE@Base 5.2.0
 _ZTIN3itk8TreeNodeIPNS_13SpatialObjectILj2EEEEE@Base 5.2.0
 _ZTIN3itk9TransformIdLj2ELj2EEE@Base 5.2.0
 _ZTIN3otb14FillGapsFilterE@Base 5.2.0
 _ZTIN3otb21LineSpatialObjectListE@Base 5.2.0
 _ZTISt10_List_baseIN3itk12SmartPointerINS0_17LineSpatialObjectILj2EEEEESaIS4_EE@Base 5.2.0
 _ZTISt12_Vector_baseIN3itk5PointIdLj2EEESaIS2_EE@Base 5.2.0
 _ZTISt4listIN3itk12SmartPointerINS0_17LineSpatialObjectILj2EEEEESaIS4_EE@Base 5.2.0
 _ZTISt6vectorIN3itk5PointIdLj2EEESaIS2_EE@Base 5.2.0
 _ZTS10vnl_vectorIdE@Base 5.2.0
 _ZTS18vnl_matrix_inverseIdE@Base 5.2.0
 _ZTS7vnl_svdIdE@Base 5.2.0
 _ZTSN3itk11BoundingBoxImLi2EdNS_15VectorContainerImNS_5PointIdLj2EEEEEEE@Base 5.2.0
 _ZTSN3itk11ImageRegionILj2EEE@Base 5.2.0
 _ZTSN3itk13SpatialObjectILj2EEE@Base 5.2.0
 _ZTSN3itk15AffineTransformIdLj2EEE@Base 5.2.0
 _ZTSN3itk15VectorContainerImNS_5PointIdLj2EEEEE@Base 5.2.0
 _ZTSN3itk17LineSpatialObjectILj2EEE@Base 5.2.0
 _ZTSN3itk18SpatialObjectPointILj2EEE@Base 5.2.0
 _ZTSN3itk19AffineGeometryFrameIdLj2EEE@Base 5.2.0
 _ZTSN3itk19OptimizerParametersIdEE@Base 5.2.0
 _ZTSN3itk21SpatialObjectPropertyIfEE@Base 5.2.0
 _ZTSN3itk21SpatialObjectTreeNodeILj2EEE@Base 5.2.0
 _ZTSN3itk21TransformBaseTemplateIdEE@Base 5.2.0
 _ZTSN3itk22LineSpatialObjectPointILj2EEE@Base 5.2.0
 _ZTSN3itk23PointBasedSpatialObjectILj2EEE@Base 5.2.0
 _ZTSN3itk23ScalableAffineTransformIdLj2EEE@Base 5.2.0
 _ZTSN3itk25MatrixOffsetTransformBaseIdLj2ELj2EEE@Base 5.2.0
 _ZTSN3itk25OptimizerParametersHelperIdEE@Base 5.2.0
 _ZTSN3itk5ArrayIdEE@Base 5.2.0
 _ZTSN3itk8TreeNodeIPNS_13SpatialObjectILj2EEEEE@Base 5.2.0
 _ZTSN3itk9TransformIdLj2ELj2EEE@Base 5.2.0
 _ZTSN3otb14FillGapsFilterE@Base 5.2.0
 _ZTSN3otb21LineSpatialObjectListE@Base 5.2.0
 _ZTSPKN3itk10DataObjectE@Base 5.2.0
 _ZTSPN3itk13SpatialObjectILj2EEE@Base 5.2.0
 _ZTSSt10_List_baseIN3itk12SmartPointerINS0_17LineSpatialObjectILj2EEEEESaIS4_EE@Base 5.2.0
 _ZTSSt12_Vector_baseIN3itk5PointIdLj2EEESaIS2_EE@Base 5.2.0
 _ZTSSt4listIN3itk12SmartPointerINS0_17LineSpatialObjectILj2EEEEESaIS4_EE@Base 5.2.0
 _ZTSSt6vectorIN3itk5PointIdLj2EEESaIS2_EE@Base 5.2.0
 _ZTV18vnl_matrix_inverseIdE@Base 5.2.0
 _ZTV7vnl_svdIdE@Base 5.2.0
 _ZTVN3itk11BoundingBoxImLi2EdNS_15VectorContainerImNS_5PointIdLj2EEEEEEE@Base 5.2.0
 _ZTVN3itk11ImageRegionILj2EEE@Base 5.2.0
 _ZTVN3itk13SpatialObjectILj2EEE@Base 5.2.0
 _ZTVN3itk15AffineTransformIdLj2EEE@Base 5.2.0
 _ZTVN3itk15VectorContainerImNS_5PointIdLj2EEEEE@Base 5.2.0
 _ZTVN3itk17LineSpatialObjectILj2EEE@Base 5.2.0
 _ZTVN3itk18SpatialObjectPointILj2EEE@Base 5.2.0
 _ZTVN3itk19AffineGeometryFrameIdLj2EEE@Base 5.2.0
 _ZTVN3itk19OptimizerParametersIdEE@Base 5.2.0
 _ZTVN3itk21SpatialObjectPropertyIfEE@Base 5.2.0
 _ZTVN3itk21SpatialObjectTreeNodeILj2EEE@Base 5.2.0
 _ZTVN3itk21TransformBaseTemplateIdEE@Base 5.2.0
 _ZTVN3itk22LineSpatialObjectPointILj2EEE@Base 5.2.0
 _ZTVN3itk23PointBasedSpatialObjectILj2EEE@Base 5.2.0
 _ZTVN3itk23ScalableAffineTransformIdLj2EEE@Base 5.2.0
 _ZTVN3itk25MatrixOffsetTransformBaseIdLj2ELj2EEE@Base 5.2.0
 _ZTVN3itk25OptimizerParametersHelperIdEE@Base 5.2.0
 _ZTVN3itk8TreeNodeIPNS_13SpatialObjectILj2EEEEE@Base 5.2.0
 _ZTVN3itk9TransformIdLj2ELj2EEE@Base 5.2.0
 _ZTVN3otb14FillGapsFilterE@Base 5.2.0
 _ZTVN3otb21LineSpatialObjectListE@Base 5.2.0
